ARM GAS  /var/folders/rf/wfq6hz5s56g3yh4wqgd7820c0000gn/T//ccBUdQBH.s 			page 1


   1              		.cpu cortex-m0
   2              		.eabi_attribute 20, 1
   3              		.eabi_attribute 21, 1
   4              		.eabi_attribute 23, 3
   5              		.eabi_attribute 24, 1
   6              		.eabi_attribute 25, 1
   7              		.eabi_attribute 26, 1
   8              		.eabi_attribute 30, 1
   9              		.eabi_attribute 34, 0
  10              		.eabi_attribute 18, 4
  11              		.file	"stm32f0xx_hal_pcd.c"
  12              		.text
  13              	.Ltext0:
  14              		.cfi_sections	.debug_frame
  15              		.section	.text.HAL_PCD_MspInit,"ax",%progbits
  16              		.align	1
  17              		.weak	HAL_PCD_MspInit
  18              		.arch armv6s-m
  19              		.syntax unified
  20              		.code	16
  21              		.thumb_func
  22              		.fpu softvfp
  24              	HAL_PCD_MspInit:
  25              	.LVL0:
  26              	.LFB39:
  27              		.file 1 "Drivers/STM32F0xx_HAL_Driver/Src/stm32f0xx_hal_pcd.c"
   1:Drivers/STM32F0xx_HAL_Driver/Src/stm32f0xx_hal_pcd.c **** /**
   2:Drivers/STM32F0xx_HAL_Driver/Src/stm32f0xx_hal_pcd.c ****   ******************************************************************************
   3:Drivers/STM32F0xx_HAL_Driver/Src/stm32f0xx_hal_pcd.c ****   * @file    stm32f0xx_hal_pcd.c
   4:Drivers/STM32F0xx_HAL_Driver/Src/stm32f0xx_hal_pcd.c ****   * @author  MCD Application Team
   5:Drivers/STM32F0xx_HAL_Driver/Src/stm32f0xx_hal_pcd.c ****   * @brief   PCD HAL module driver.
   6:Drivers/STM32F0xx_HAL_Driver/Src/stm32f0xx_hal_pcd.c ****   *          This file provides firmware functions to manage the following 
   7:Drivers/STM32F0xx_HAL_Driver/Src/stm32f0xx_hal_pcd.c ****   *          functionalities of the USB Peripheral Controller:
   8:Drivers/STM32F0xx_HAL_Driver/Src/stm32f0xx_hal_pcd.c ****   *           + Initialization and de-initialization functions
   9:Drivers/STM32F0xx_HAL_Driver/Src/stm32f0xx_hal_pcd.c ****   *           + IO operation functions
  10:Drivers/STM32F0xx_HAL_Driver/Src/stm32f0xx_hal_pcd.c ****   *           + Peripheral Control functions 
  11:Drivers/STM32F0xx_HAL_Driver/Src/stm32f0xx_hal_pcd.c ****   *           + Peripheral State functions
  12:Drivers/STM32F0xx_HAL_Driver/Src/stm32f0xx_hal_pcd.c ****   *         
  13:Drivers/STM32F0xx_HAL_Driver/Src/stm32f0xx_hal_pcd.c ****   @verbatim
  14:Drivers/STM32F0xx_HAL_Driver/Src/stm32f0xx_hal_pcd.c ****   ==============================================================================
  15:Drivers/STM32F0xx_HAL_Driver/Src/stm32f0xx_hal_pcd.c ****                     ##### How to use this driver #####
  16:Drivers/STM32F0xx_HAL_Driver/Src/stm32f0xx_hal_pcd.c ****   ==============================================================================
  17:Drivers/STM32F0xx_HAL_Driver/Src/stm32f0xx_hal_pcd.c ****     [..]
  18:Drivers/STM32F0xx_HAL_Driver/Src/stm32f0xx_hal_pcd.c ****       The PCD HAL driver can be used as follows:
  19:Drivers/STM32F0xx_HAL_Driver/Src/stm32f0xx_hal_pcd.c **** 
  20:Drivers/STM32F0xx_HAL_Driver/Src/stm32f0xx_hal_pcd.c ****      (#) Declare a PCD_HandleTypeDef handle structure, for example:
  21:Drivers/STM32F0xx_HAL_Driver/Src/stm32f0xx_hal_pcd.c ****          PCD_HandleTypeDef  hpcd;
  22:Drivers/STM32F0xx_HAL_Driver/Src/stm32f0xx_hal_pcd.c ****         
  23:Drivers/STM32F0xx_HAL_Driver/Src/stm32f0xx_hal_pcd.c ****      (#) Fill parameters of Init structure in HCD handle
  24:Drivers/STM32F0xx_HAL_Driver/Src/stm32f0xx_hal_pcd.c ****   
  25:Drivers/STM32F0xx_HAL_Driver/Src/stm32f0xx_hal_pcd.c ****      (#) Call HAL_PCD_Init() API to initialize the HCD peripheral (Core, Device core, ...) 
  26:Drivers/STM32F0xx_HAL_Driver/Src/stm32f0xx_hal_pcd.c **** 
  27:Drivers/STM32F0xx_HAL_Driver/Src/stm32f0xx_hal_pcd.c ****      (#) Initialize the PCD low level resources through the HAL_PCD_MspInit() API:
  28:Drivers/STM32F0xx_HAL_Driver/Src/stm32f0xx_hal_pcd.c ****          (##) Enable the PCD/USB Low Level interface clock using 
  29:Drivers/STM32F0xx_HAL_Driver/Src/stm32f0xx_hal_pcd.c ****               (+++) __HAL_RCC_USB_CLK_ENABLE);
  30:Drivers/STM32F0xx_HAL_Driver/Src/stm32f0xx_hal_pcd.c ****            
  31:Drivers/STM32F0xx_HAL_Driver/Src/stm32f0xx_hal_pcd.c ****          (##) Initialize the related GPIO clocks
ARM GAS  /var/folders/rf/wfq6hz5s56g3yh4wqgd7820c0000gn/T//ccBUdQBH.s 			page 2


  32:Drivers/STM32F0xx_HAL_Driver/Src/stm32f0xx_hal_pcd.c ****          (##) Configure PCD pin-out
  33:Drivers/STM32F0xx_HAL_Driver/Src/stm32f0xx_hal_pcd.c ****          (##) Configure PCD NVIC interrupt
  34:Drivers/STM32F0xx_HAL_Driver/Src/stm32f0xx_hal_pcd.c ****     
  35:Drivers/STM32F0xx_HAL_Driver/Src/stm32f0xx_hal_pcd.c ****      (#)Associate the Upper USB device stack to the HAL PCD Driver:
  36:Drivers/STM32F0xx_HAL_Driver/Src/stm32f0xx_hal_pcd.c ****          (##) hpcd.pData = pdev;
  37:Drivers/STM32F0xx_HAL_Driver/Src/stm32f0xx_hal_pcd.c **** 
  38:Drivers/STM32F0xx_HAL_Driver/Src/stm32f0xx_hal_pcd.c ****      (#)Enable HCD transmission and reception:
  39:Drivers/STM32F0xx_HAL_Driver/Src/stm32f0xx_hal_pcd.c ****          (##) HAL_PCD_Start();
  40:Drivers/STM32F0xx_HAL_Driver/Src/stm32f0xx_hal_pcd.c **** 
  41:Drivers/STM32F0xx_HAL_Driver/Src/stm32f0xx_hal_pcd.c ****   @endverbatim
  42:Drivers/STM32F0xx_HAL_Driver/Src/stm32f0xx_hal_pcd.c ****   ******************************************************************************
  43:Drivers/STM32F0xx_HAL_Driver/Src/stm32f0xx_hal_pcd.c ****   * @attention
  44:Drivers/STM32F0xx_HAL_Driver/Src/stm32f0xx_hal_pcd.c ****   *
  45:Drivers/STM32F0xx_HAL_Driver/Src/stm32f0xx_hal_pcd.c ****   * <h2><center>&copy; COPYRIGHT(c) 2016 STMicroelectronics</center></h2>
  46:Drivers/STM32F0xx_HAL_Driver/Src/stm32f0xx_hal_pcd.c ****   *
  47:Drivers/STM32F0xx_HAL_Driver/Src/stm32f0xx_hal_pcd.c ****   * Redistribution and use in source and binary forms, with or without modification,
  48:Drivers/STM32F0xx_HAL_Driver/Src/stm32f0xx_hal_pcd.c ****   * are permitted provided that the following conditions are met:
  49:Drivers/STM32F0xx_HAL_Driver/Src/stm32f0xx_hal_pcd.c ****   *   1. Redistributions of source code must retain the above copyright notice,
  50:Drivers/STM32F0xx_HAL_Driver/Src/stm32f0xx_hal_pcd.c ****   *      this list of conditions and the following disclaimer.
  51:Drivers/STM32F0xx_HAL_Driver/Src/stm32f0xx_hal_pcd.c ****   *   2. Redistributions in binary form must reproduce the above copyright notice,
  52:Drivers/STM32F0xx_HAL_Driver/Src/stm32f0xx_hal_pcd.c ****   *      this list of conditions and the following disclaimer in the documentation
  53:Drivers/STM32F0xx_HAL_Driver/Src/stm32f0xx_hal_pcd.c ****   *      and/or other materials provided with the distribution.
  54:Drivers/STM32F0xx_HAL_Driver/Src/stm32f0xx_hal_pcd.c ****   *   3. Neither the name of STMicroelectronics nor the names of its contributors
  55:Drivers/STM32F0xx_HAL_Driver/Src/stm32f0xx_hal_pcd.c ****   *      may be used to endorse or promote products derived from this software
  56:Drivers/STM32F0xx_HAL_Driver/Src/stm32f0xx_hal_pcd.c ****   *      without specific prior written permission.
  57:Drivers/STM32F0xx_HAL_Driver/Src/stm32f0xx_hal_pcd.c ****   *
  58:Drivers/STM32F0xx_HAL_Driver/Src/stm32f0xx_hal_pcd.c ****   * THIS SOFTWARE IS PROVIDED BY THE COPYRIGHT HOLDERS AND CONTRIBUTORS "AS IS"
  59:Drivers/STM32F0xx_HAL_Driver/Src/stm32f0xx_hal_pcd.c ****   * AND ANY EXPRESS OR IMPLIED WARRANTIES, INCLUDING, BUT NOT LIMITED TO, THE
  60:Drivers/STM32F0xx_HAL_Driver/Src/stm32f0xx_hal_pcd.c ****   * IMPLIED WARRANTIES OF MERCHANTABILITY AND FITNESS FOR A PARTICULAR PURPOSE ARE
  61:Drivers/STM32F0xx_HAL_Driver/Src/stm32f0xx_hal_pcd.c ****   * DISCLAIMED. IN NO EVENT SHALL THE COPYRIGHT HOLDER OR CONTRIBUTORS BE LIABLE
  62:Drivers/STM32F0xx_HAL_Driver/Src/stm32f0xx_hal_pcd.c ****   * FOR ANY DIRECT, INDIRECT, INCIDENTAL, SPECIAL, EXEMPLARY, OR CONSEQUENTIAL
  63:Drivers/STM32F0xx_HAL_Driver/Src/stm32f0xx_hal_pcd.c ****   * DAMAGES (INCLUDING, BUT NOT LIMITED TO, PROCUREMENT OF SUBSTITUTE GOODS OR
  64:Drivers/STM32F0xx_HAL_Driver/Src/stm32f0xx_hal_pcd.c ****   * SERVICES; LOSS OF USE, DATA, OR PROFITS; OR BUSINESS INTERRUPTION) HOWEVER
  65:Drivers/STM32F0xx_HAL_Driver/Src/stm32f0xx_hal_pcd.c ****   * CAUSED AND ON ANY THEORY OF LIABILITY, WHETHER IN CONTRACT, STRICT LIABILITY,
  66:Drivers/STM32F0xx_HAL_Driver/Src/stm32f0xx_hal_pcd.c ****   * OR TORT (INCLUDING NEGLIGENCE OR OTHERWISE) ARISING IN ANY WAY OUT OF THE USE
  67:Drivers/STM32F0xx_HAL_Driver/Src/stm32f0xx_hal_pcd.c ****   * OF THIS SOFTWARE, EVEN IF ADVISED OF THE POSSIBILITY OF SUCH DAMAGE.
  68:Drivers/STM32F0xx_HAL_Driver/Src/stm32f0xx_hal_pcd.c ****   *
  69:Drivers/STM32F0xx_HAL_Driver/Src/stm32f0xx_hal_pcd.c ****   ******************************************************************************
  70:Drivers/STM32F0xx_HAL_Driver/Src/stm32f0xx_hal_pcd.c ****   */
  71:Drivers/STM32F0xx_HAL_Driver/Src/stm32f0xx_hal_pcd.c **** 
  72:Drivers/STM32F0xx_HAL_Driver/Src/stm32f0xx_hal_pcd.c **** /* Includes ------------------------------------------------------------------*/
  73:Drivers/STM32F0xx_HAL_Driver/Src/stm32f0xx_hal_pcd.c **** #include "stm32f0xx_hal.h"
  74:Drivers/STM32F0xx_HAL_Driver/Src/stm32f0xx_hal_pcd.c **** 
  75:Drivers/STM32F0xx_HAL_Driver/Src/stm32f0xx_hal_pcd.c **** /** @addtogroup STM32F0xx_HAL_Driver
  76:Drivers/STM32F0xx_HAL_Driver/Src/stm32f0xx_hal_pcd.c ****   * @{
  77:Drivers/STM32F0xx_HAL_Driver/Src/stm32f0xx_hal_pcd.c ****   */
  78:Drivers/STM32F0xx_HAL_Driver/Src/stm32f0xx_hal_pcd.c **** 
  79:Drivers/STM32F0xx_HAL_Driver/Src/stm32f0xx_hal_pcd.c **** #ifdef HAL_PCD_MODULE_ENABLED
  80:Drivers/STM32F0xx_HAL_Driver/Src/stm32f0xx_hal_pcd.c **** 
  81:Drivers/STM32F0xx_HAL_Driver/Src/stm32f0xx_hal_pcd.c **** #if defined(STM32F042x6) || defined(STM32F048xx) || defined(STM32F072xB) || defined(STM32F078xx) ||
  82:Drivers/STM32F0xx_HAL_Driver/Src/stm32f0xx_hal_pcd.c **** 
  83:Drivers/STM32F0xx_HAL_Driver/Src/stm32f0xx_hal_pcd.c **** /** @defgroup PCD PCD
  84:Drivers/STM32F0xx_HAL_Driver/Src/stm32f0xx_hal_pcd.c ****   * @brief PCD HAL module driver
  85:Drivers/STM32F0xx_HAL_Driver/Src/stm32f0xx_hal_pcd.c ****   * @{
  86:Drivers/STM32F0xx_HAL_Driver/Src/stm32f0xx_hal_pcd.c ****   */
  87:Drivers/STM32F0xx_HAL_Driver/Src/stm32f0xx_hal_pcd.c **** 
  88:Drivers/STM32F0xx_HAL_Driver/Src/stm32f0xx_hal_pcd.c **** /* Private typedef -----------------------------------------------------------*/
ARM GAS  /var/folders/rf/wfq6hz5s56g3yh4wqgd7820c0000gn/T//ccBUdQBH.s 			page 3


  89:Drivers/STM32F0xx_HAL_Driver/Src/stm32f0xx_hal_pcd.c **** /* Private define ------------------------------------------------------------*/
  90:Drivers/STM32F0xx_HAL_Driver/Src/stm32f0xx_hal_pcd.c **** 
  91:Drivers/STM32F0xx_HAL_Driver/Src/stm32f0xx_hal_pcd.c **** /** @defgroup PCD_Private_Define PCD Private Define
  92:Drivers/STM32F0xx_HAL_Driver/Src/stm32f0xx_hal_pcd.c ****   * @{
  93:Drivers/STM32F0xx_HAL_Driver/Src/stm32f0xx_hal_pcd.c ****   */
  94:Drivers/STM32F0xx_HAL_Driver/Src/stm32f0xx_hal_pcd.c **** #define BTABLE_ADDRESS                  (0x000)  
  95:Drivers/STM32F0xx_HAL_Driver/Src/stm32f0xx_hal_pcd.c **** /**
  96:Drivers/STM32F0xx_HAL_Driver/Src/stm32f0xx_hal_pcd.c ****   * @}
  97:Drivers/STM32F0xx_HAL_Driver/Src/stm32f0xx_hal_pcd.c ****   */ 
  98:Drivers/STM32F0xx_HAL_Driver/Src/stm32f0xx_hal_pcd.c ****   
  99:Drivers/STM32F0xx_HAL_Driver/Src/stm32f0xx_hal_pcd.c **** /* Private macro -------------------------------------------------------------*/
 100:Drivers/STM32F0xx_HAL_Driver/Src/stm32f0xx_hal_pcd.c **** /* Private variables ---------------------------------------------------------*/
 101:Drivers/STM32F0xx_HAL_Driver/Src/stm32f0xx_hal_pcd.c **** /* Private function prototypes -----------------------------------------------*/
 102:Drivers/STM32F0xx_HAL_Driver/Src/stm32f0xx_hal_pcd.c **** /** @defgroup PCD_Private_Functions PCD Private Functions
 103:Drivers/STM32F0xx_HAL_Driver/Src/stm32f0xx_hal_pcd.c ****   * @{
 104:Drivers/STM32F0xx_HAL_Driver/Src/stm32f0xx_hal_pcd.c ****   */
 105:Drivers/STM32F0xx_HAL_Driver/Src/stm32f0xx_hal_pcd.c **** static HAL_StatusTypeDef PCD_EP_ISR_Handler(PCD_HandleTypeDef *hpcd);
 106:Drivers/STM32F0xx_HAL_Driver/Src/stm32f0xx_hal_pcd.c **** void PCD_WritePMA(USB_TypeDef  *USBx, uint8_t *pbUsrBuf, uint16_t wPMABufAddr, uint16_t wNBytes);
 107:Drivers/STM32F0xx_HAL_Driver/Src/stm32f0xx_hal_pcd.c **** void PCD_ReadPMA(USB_TypeDef  *USBx, uint8_t *pbUsrBuf, uint16_t wPMABufAddr, uint16_t wNBytes);
 108:Drivers/STM32F0xx_HAL_Driver/Src/stm32f0xx_hal_pcd.c **** /**
 109:Drivers/STM32F0xx_HAL_Driver/Src/stm32f0xx_hal_pcd.c ****   * @}
 110:Drivers/STM32F0xx_HAL_Driver/Src/stm32f0xx_hal_pcd.c ****   */ 
 111:Drivers/STM32F0xx_HAL_Driver/Src/stm32f0xx_hal_pcd.c **** 
 112:Drivers/STM32F0xx_HAL_Driver/Src/stm32f0xx_hal_pcd.c **** /* Exported functions --------------------------------------------------------*/
 113:Drivers/STM32F0xx_HAL_Driver/Src/stm32f0xx_hal_pcd.c **** /** @defgroup PCD_Exported_Functions PCD Exported Functions
 114:Drivers/STM32F0xx_HAL_Driver/Src/stm32f0xx_hal_pcd.c ****   * @{
 115:Drivers/STM32F0xx_HAL_Driver/Src/stm32f0xx_hal_pcd.c ****   */
 116:Drivers/STM32F0xx_HAL_Driver/Src/stm32f0xx_hal_pcd.c **** 
 117:Drivers/STM32F0xx_HAL_Driver/Src/stm32f0xx_hal_pcd.c **** /** @defgroup PCD_Exported_Functions_Group1 Initialization and de-initialization functions 
 118:Drivers/STM32F0xx_HAL_Driver/Src/stm32f0xx_hal_pcd.c ****  *  @brief    Initialization and Configuration functions 
 119:Drivers/STM32F0xx_HAL_Driver/Src/stm32f0xx_hal_pcd.c ****  *
 120:Drivers/STM32F0xx_HAL_Driver/Src/stm32f0xx_hal_pcd.c **** @verbatim
 121:Drivers/STM32F0xx_HAL_Driver/Src/stm32f0xx_hal_pcd.c ****  ===============================================================================
 122:Drivers/STM32F0xx_HAL_Driver/Src/stm32f0xx_hal_pcd.c ****             ##### Initialization and de-initialization functions #####
 123:Drivers/STM32F0xx_HAL_Driver/Src/stm32f0xx_hal_pcd.c ****  ===============================================================================
 124:Drivers/STM32F0xx_HAL_Driver/Src/stm32f0xx_hal_pcd.c ****     [..]  This section provides functions allowing to:
 125:Drivers/STM32F0xx_HAL_Driver/Src/stm32f0xx_hal_pcd.c ****  
 126:Drivers/STM32F0xx_HAL_Driver/Src/stm32f0xx_hal_pcd.c **** @endverbatim
 127:Drivers/STM32F0xx_HAL_Driver/Src/stm32f0xx_hal_pcd.c ****   * @{
 128:Drivers/STM32F0xx_HAL_Driver/Src/stm32f0xx_hal_pcd.c ****   */
 129:Drivers/STM32F0xx_HAL_Driver/Src/stm32f0xx_hal_pcd.c **** 
 130:Drivers/STM32F0xx_HAL_Driver/Src/stm32f0xx_hal_pcd.c **** /**
 131:Drivers/STM32F0xx_HAL_Driver/Src/stm32f0xx_hal_pcd.c ****   * @brief  Initializes the PCD according to the specified
 132:Drivers/STM32F0xx_HAL_Driver/Src/stm32f0xx_hal_pcd.c ****   *         parameters in the PCD_InitTypeDef and create the associated handle.
 133:Drivers/STM32F0xx_HAL_Driver/Src/stm32f0xx_hal_pcd.c ****   * @param  hpcd PCD handle
 134:Drivers/STM32F0xx_HAL_Driver/Src/stm32f0xx_hal_pcd.c ****   * @retval HAL status
 135:Drivers/STM32F0xx_HAL_Driver/Src/stm32f0xx_hal_pcd.c ****   */
 136:Drivers/STM32F0xx_HAL_Driver/Src/stm32f0xx_hal_pcd.c **** HAL_StatusTypeDef HAL_PCD_Init(PCD_HandleTypeDef *hpcd)
 137:Drivers/STM32F0xx_HAL_Driver/Src/stm32f0xx_hal_pcd.c **** { 
 138:Drivers/STM32F0xx_HAL_Driver/Src/stm32f0xx_hal_pcd.c ****   uint32_t i = 0U;
 139:Drivers/STM32F0xx_HAL_Driver/Src/stm32f0xx_hal_pcd.c **** 
 140:Drivers/STM32F0xx_HAL_Driver/Src/stm32f0xx_hal_pcd.c ****   uint32_t wInterrupt_Mask = 0U;
 141:Drivers/STM32F0xx_HAL_Driver/Src/stm32f0xx_hal_pcd.c ****   
 142:Drivers/STM32F0xx_HAL_Driver/Src/stm32f0xx_hal_pcd.c ****   /* Check the PCD handle allocation */
 143:Drivers/STM32F0xx_HAL_Driver/Src/stm32f0xx_hal_pcd.c ****   if(hpcd == NULL)
 144:Drivers/STM32F0xx_HAL_Driver/Src/stm32f0xx_hal_pcd.c ****   {
 145:Drivers/STM32F0xx_HAL_Driver/Src/stm32f0xx_hal_pcd.c ****     return HAL_ERROR;
ARM GAS  /var/folders/rf/wfq6hz5s56g3yh4wqgd7820c0000gn/T//ccBUdQBH.s 			page 4


 146:Drivers/STM32F0xx_HAL_Driver/Src/stm32f0xx_hal_pcd.c ****   }
 147:Drivers/STM32F0xx_HAL_Driver/Src/stm32f0xx_hal_pcd.c ****   
 148:Drivers/STM32F0xx_HAL_Driver/Src/stm32f0xx_hal_pcd.c ****   /* Check the parameters */
 149:Drivers/STM32F0xx_HAL_Driver/Src/stm32f0xx_hal_pcd.c ****   assert_param(IS_PCD_ALL_INSTANCE(hpcd->Instance));
 150:Drivers/STM32F0xx_HAL_Driver/Src/stm32f0xx_hal_pcd.c **** 
 151:Drivers/STM32F0xx_HAL_Driver/Src/stm32f0xx_hal_pcd.c ****   if(hpcd->State == HAL_PCD_STATE_RESET)
 152:Drivers/STM32F0xx_HAL_Driver/Src/stm32f0xx_hal_pcd.c ****   {  
 153:Drivers/STM32F0xx_HAL_Driver/Src/stm32f0xx_hal_pcd.c ****     /* Allocate lock resource and initialize it */
 154:Drivers/STM32F0xx_HAL_Driver/Src/stm32f0xx_hal_pcd.c ****     hpcd->Lock = HAL_UNLOCKED;
 155:Drivers/STM32F0xx_HAL_Driver/Src/stm32f0xx_hal_pcd.c ****   
 156:Drivers/STM32F0xx_HAL_Driver/Src/stm32f0xx_hal_pcd.c ****     /* Init the low level hardware : GPIO, CLOCK, NVIC... */
 157:Drivers/STM32F0xx_HAL_Driver/Src/stm32f0xx_hal_pcd.c ****     HAL_PCD_MspInit(hpcd);
 158:Drivers/STM32F0xx_HAL_Driver/Src/stm32f0xx_hal_pcd.c ****   }
 159:Drivers/STM32F0xx_HAL_Driver/Src/stm32f0xx_hal_pcd.c **** 
 160:Drivers/STM32F0xx_HAL_Driver/Src/stm32f0xx_hal_pcd.c ****   hpcd->State = HAL_PCD_STATE_BUSY;
 161:Drivers/STM32F0xx_HAL_Driver/Src/stm32f0xx_hal_pcd.c ****  
 162:Drivers/STM32F0xx_HAL_Driver/Src/stm32f0xx_hal_pcd.c ****  /* Init endpoints structures */
 163:Drivers/STM32F0xx_HAL_Driver/Src/stm32f0xx_hal_pcd.c ****  for (i = 0U; i < hpcd->Init.dev_endpoints ; i++)
 164:Drivers/STM32F0xx_HAL_Driver/Src/stm32f0xx_hal_pcd.c ****  {
 165:Drivers/STM32F0xx_HAL_Driver/Src/stm32f0xx_hal_pcd.c ****    /* Init ep structure */
 166:Drivers/STM32F0xx_HAL_Driver/Src/stm32f0xx_hal_pcd.c ****    hpcd->IN_ep[i].is_in = 1U;
 167:Drivers/STM32F0xx_HAL_Driver/Src/stm32f0xx_hal_pcd.c ****    hpcd->IN_ep[i].num = i;
 168:Drivers/STM32F0xx_HAL_Driver/Src/stm32f0xx_hal_pcd.c ****    /* Control until ep is actvated */
 169:Drivers/STM32F0xx_HAL_Driver/Src/stm32f0xx_hal_pcd.c ****    hpcd->IN_ep[i].type = PCD_EP_TYPE_CTRL;
 170:Drivers/STM32F0xx_HAL_Driver/Src/stm32f0xx_hal_pcd.c ****    hpcd->IN_ep[i].maxpacket =  0U;
 171:Drivers/STM32F0xx_HAL_Driver/Src/stm32f0xx_hal_pcd.c ****    hpcd->IN_ep[i].xfer_buff = 0U;
 172:Drivers/STM32F0xx_HAL_Driver/Src/stm32f0xx_hal_pcd.c ****    hpcd->IN_ep[i].xfer_len = 0U;
 173:Drivers/STM32F0xx_HAL_Driver/Src/stm32f0xx_hal_pcd.c ****  }
 174:Drivers/STM32F0xx_HAL_Driver/Src/stm32f0xx_hal_pcd.c ****  
 175:Drivers/STM32F0xx_HAL_Driver/Src/stm32f0xx_hal_pcd.c ****  for (i = 0U; i < hpcd->Init.dev_endpoints ; i++)
 176:Drivers/STM32F0xx_HAL_Driver/Src/stm32f0xx_hal_pcd.c ****  {
 177:Drivers/STM32F0xx_HAL_Driver/Src/stm32f0xx_hal_pcd.c ****    hpcd->OUT_ep[i].is_in = 0U;
 178:Drivers/STM32F0xx_HAL_Driver/Src/stm32f0xx_hal_pcd.c ****    hpcd->OUT_ep[i].num = i;
 179:Drivers/STM32F0xx_HAL_Driver/Src/stm32f0xx_hal_pcd.c ****    /* Control until ep is activated */
 180:Drivers/STM32F0xx_HAL_Driver/Src/stm32f0xx_hal_pcd.c ****    hpcd->OUT_ep[i].type = PCD_EP_TYPE_CTRL;
 181:Drivers/STM32F0xx_HAL_Driver/Src/stm32f0xx_hal_pcd.c ****    hpcd->OUT_ep[i].maxpacket = 0U;
 182:Drivers/STM32F0xx_HAL_Driver/Src/stm32f0xx_hal_pcd.c ****    hpcd->OUT_ep[i].xfer_buff = 0U;
 183:Drivers/STM32F0xx_HAL_Driver/Src/stm32f0xx_hal_pcd.c ****    hpcd->OUT_ep[i].xfer_len = 0U;
 184:Drivers/STM32F0xx_HAL_Driver/Src/stm32f0xx_hal_pcd.c ****  }
 185:Drivers/STM32F0xx_HAL_Driver/Src/stm32f0xx_hal_pcd.c ****   
 186:Drivers/STM32F0xx_HAL_Driver/Src/stm32f0xx_hal_pcd.c ****  /* Init Device */
 187:Drivers/STM32F0xx_HAL_Driver/Src/stm32f0xx_hal_pcd.c ****  /*CNTR_FRES = 1*/
 188:Drivers/STM32F0xx_HAL_Driver/Src/stm32f0xx_hal_pcd.c ****  hpcd->Instance->CNTR = USB_CNTR_FRES;
 189:Drivers/STM32F0xx_HAL_Driver/Src/stm32f0xx_hal_pcd.c ****  
 190:Drivers/STM32F0xx_HAL_Driver/Src/stm32f0xx_hal_pcd.c ****  /*CNTR_FRES = 0*/
 191:Drivers/STM32F0xx_HAL_Driver/Src/stm32f0xx_hal_pcd.c ****  hpcd->Instance->CNTR = 0;
 192:Drivers/STM32F0xx_HAL_Driver/Src/stm32f0xx_hal_pcd.c ****  
 193:Drivers/STM32F0xx_HAL_Driver/Src/stm32f0xx_hal_pcd.c ****  /*Clear pending interrupts*/
 194:Drivers/STM32F0xx_HAL_Driver/Src/stm32f0xx_hal_pcd.c ****  hpcd->Instance->ISTR = 0;
 195:Drivers/STM32F0xx_HAL_Driver/Src/stm32f0xx_hal_pcd.c ****  
 196:Drivers/STM32F0xx_HAL_Driver/Src/stm32f0xx_hal_pcd.c ****   /*Set Btable Adress*/
 197:Drivers/STM32F0xx_HAL_Driver/Src/stm32f0xx_hal_pcd.c ****  hpcd->Instance->BTABLE = BTABLE_ADDRESS;
 198:Drivers/STM32F0xx_HAL_Driver/Src/stm32f0xx_hal_pcd.c ****   
 199:Drivers/STM32F0xx_HAL_Driver/Src/stm32f0xx_hal_pcd.c ****   /*set wInterrupt_Mask global variable*/
 200:Drivers/STM32F0xx_HAL_Driver/Src/stm32f0xx_hal_pcd.c ****  wInterrupt_Mask = USB_CNTR_CTRM  | USB_CNTR_WKUPM | USB_CNTR_SUSPM | USB_CNTR_ERRM \
 201:Drivers/STM32F0xx_HAL_Driver/Src/stm32f0xx_hal_pcd.c ****    | USB_CNTR_SOFM | USB_CNTR_ESOFM | USB_CNTR_RESETM;
 202:Drivers/STM32F0xx_HAL_Driver/Src/stm32f0xx_hal_pcd.c ****   
ARM GAS  /var/folders/rf/wfq6hz5s56g3yh4wqgd7820c0000gn/T//ccBUdQBH.s 			page 5


 203:Drivers/STM32F0xx_HAL_Driver/Src/stm32f0xx_hal_pcd.c ****   /*Set interrupt mask*/
 204:Drivers/STM32F0xx_HAL_Driver/Src/stm32f0xx_hal_pcd.c ****   hpcd->Instance->CNTR = wInterrupt_Mask;
 205:Drivers/STM32F0xx_HAL_Driver/Src/stm32f0xx_hal_pcd.c ****   
 206:Drivers/STM32F0xx_HAL_Driver/Src/stm32f0xx_hal_pcd.c ****   hpcd->USB_Address = 0U;
 207:Drivers/STM32F0xx_HAL_Driver/Src/stm32f0xx_hal_pcd.c ****   hpcd->State= HAL_PCD_STATE_READY;
 208:Drivers/STM32F0xx_HAL_Driver/Src/stm32f0xx_hal_pcd.c **** 
 209:Drivers/STM32F0xx_HAL_Driver/Src/stm32f0xx_hal_pcd.c ****  return HAL_OK;
 210:Drivers/STM32F0xx_HAL_Driver/Src/stm32f0xx_hal_pcd.c **** }
 211:Drivers/STM32F0xx_HAL_Driver/Src/stm32f0xx_hal_pcd.c **** 
 212:Drivers/STM32F0xx_HAL_Driver/Src/stm32f0xx_hal_pcd.c **** /**
 213:Drivers/STM32F0xx_HAL_Driver/Src/stm32f0xx_hal_pcd.c ****   * @brief  DeInitializes the PCD peripheral 
 214:Drivers/STM32F0xx_HAL_Driver/Src/stm32f0xx_hal_pcd.c ****   * @param  hpcd PCD handle
 215:Drivers/STM32F0xx_HAL_Driver/Src/stm32f0xx_hal_pcd.c ****   * @retval HAL status
 216:Drivers/STM32F0xx_HAL_Driver/Src/stm32f0xx_hal_pcd.c ****   */
 217:Drivers/STM32F0xx_HAL_Driver/Src/stm32f0xx_hal_pcd.c **** HAL_StatusTypeDef HAL_PCD_DeInit(PCD_HandleTypeDef *hpcd)
 218:Drivers/STM32F0xx_HAL_Driver/Src/stm32f0xx_hal_pcd.c **** {
 219:Drivers/STM32F0xx_HAL_Driver/Src/stm32f0xx_hal_pcd.c ****   /* Check the PCD handle allocation */
 220:Drivers/STM32F0xx_HAL_Driver/Src/stm32f0xx_hal_pcd.c ****   if(hpcd == NULL)
 221:Drivers/STM32F0xx_HAL_Driver/Src/stm32f0xx_hal_pcd.c ****   {
 222:Drivers/STM32F0xx_HAL_Driver/Src/stm32f0xx_hal_pcd.c ****     return HAL_ERROR;
 223:Drivers/STM32F0xx_HAL_Driver/Src/stm32f0xx_hal_pcd.c ****   }
 224:Drivers/STM32F0xx_HAL_Driver/Src/stm32f0xx_hal_pcd.c **** 
 225:Drivers/STM32F0xx_HAL_Driver/Src/stm32f0xx_hal_pcd.c ****   hpcd->State = HAL_PCD_STATE_BUSY;
 226:Drivers/STM32F0xx_HAL_Driver/Src/stm32f0xx_hal_pcd.c ****   
 227:Drivers/STM32F0xx_HAL_Driver/Src/stm32f0xx_hal_pcd.c ****   /* Stop Device */
 228:Drivers/STM32F0xx_HAL_Driver/Src/stm32f0xx_hal_pcd.c ****   HAL_PCD_Stop(hpcd);
 229:Drivers/STM32F0xx_HAL_Driver/Src/stm32f0xx_hal_pcd.c ****     
 230:Drivers/STM32F0xx_HAL_Driver/Src/stm32f0xx_hal_pcd.c ****   /* DeInit the low level hardware */
 231:Drivers/STM32F0xx_HAL_Driver/Src/stm32f0xx_hal_pcd.c ****   HAL_PCD_MspDeInit(hpcd);
 232:Drivers/STM32F0xx_HAL_Driver/Src/stm32f0xx_hal_pcd.c ****   
 233:Drivers/STM32F0xx_HAL_Driver/Src/stm32f0xx_hal_pcd.c ****   hpcd->State = HAL_PCD_STATE_RESET; 
 234:Drivers/STM32F0xx_HAL_Driver/Src/stm32f0xx_hal_pcd.c ****   
 235:Drivers/STM32F0xx_HAL_Driver/Src/stm32f0xx_hal_pcd.c ****   return HAL_OK;
 236:Drivers/STM32F0xx_HAL_Driver/Src/stm32f0xx_hal_pcd.c **** }
 237:Drivers/STM32F0xx_HAL_Driver/Src/stm32f0xx_hal_pcd.c **** 
 238:Drivers/STM32F0xx_HAL_Driver/Src/stm32f0xx_hal_pcd.c **** /**
 239:Drivers/STM32F0xx_HAL_Driver/Src/stm32f0xx_hal_pcd.c ****   * @brief  Initializes the PCD MSP.
 240:Drivers/STM32F0xx_HAL_Driver/Src/stm32f0xx_hal_pcd.c ****   * @param  hpcd PCD handle
 241:Drivers/STM32F0xx_HAL_Driver/Src/stm32f0xx_hal_pcd.c ****   * @retval None
 242:Drivers/STM32F0xx_HAL_Driver/Src/stm32f0xx_hal_pcd.c ****   */
 243:Drivers/STM32F0xx_HAL_Driver/Src/stm32f0xx_hal_pcd.c **** __weak void HAL_PCD_MspInit(PCD_HandleTypeDef *hpcd)
 244:Drivers/STM32F0xx_HAL_Driver/Src/stm32f0xx_hal_pcd.c **** {
  28              		.loc 1 244 1 view -0
  29              		.cfi_startproc
  30              		@ args = 0, pretend = 0, frame = 0
  31              		@ frame_needed = 0, uses_anonymous_args = 0
  32              		@ link register save eliminated.
 245:Drivers/STM32F0xx_HAL_Driver/Src/stm32f0xx_hal_pcd.c ****   /* Prevent unused argument(s) compilation warning */
 246:Drivers/STM32F0xx_HAL_Driver/Src/stm32f0xx_hal_pcd.c ****   UNUSED(hpcd);
  33              		.loc 1 246 3 view .LVU1
 247:Drivers/STM32F0xx_HAL_Driver/Src/stm32f0xx_hal_pcd.c **** 
 248:Drivers/STM32F0xx_HAL_Driver/Src/stm32f0xx_hal_pcd.c ****   /* NOTE : This function Should not be modified, when the callback is needed,
 249:Drivers/STM32F0xx_HAL_Driver/Src/stm32f0xx_hal_pcd.c ****             the HAL_PCD_MspInit could be implemented in the user file
 250:Drivers/STM32F0xx_HAL_Driver/Src/stm32f0xx_hal_pcd.c ****    */
 251:Drivers/STM32F0xx_HAL_Driver/Src/stm32f0xx_hal_pcd.c **** }
  34              		.loc 1 251 1 is_stmt 0 view .LVU2
  35              		@ sp needed
ARM GAS  /var/folders/rf/wfq6hz5s56g3yh4wqgd7820c0000gn/T//ccBUdQBH.s 			page 6


  36 0000 7047     		bx	lr
  37              		.cfi_endproc
  38              	.LFE39:
  40              		.section	.text.HAL_PCD_Init,"ax",%progbits
  41              		.align	1
  42              		.global	HAL_PCD_Init
  43              		.syntax unified
  44              		.code	16
  45              		.thumb_func
  46              		.fpu softvfp
  48              	HAL_PCD_Init:
  49              	.LVL1:
  50              	.LFB37:
 137:Drivers/STM32F0xx_HAL_Driver/Src/stm32f0xx_hal_pcd.c ****   uint32_t i = 0U;
  51              		.loc 1 137 1 is_stmt 1 view -0
  52              		.cfi_startproc
  53              		@ args = 0, pretend = 0, frame = 0
  54              		@ frame_needed = 0, uses_anonymous_args = 0
 137:Drivers/STM32F0xx_HAL_Driver/Src/stm32f0xx_hal_pcd.c ****   uint32_t i = 0U;
  55              		.loc 1 137 1 is_stmt 0 view .LVU4
  56 0000 70B5     		push	{r4, r5, r6, lr}
  57              	.LCFI0:
  58              		.cfi_def_cfa_offset 16
  59              		.cfi_offset 4, -16
  60              		.cfi_offset 5, -12
  61              		.cfi_offset 6, -8
  62              		.cfi_offset 14, -4
  63 0002 041E     		subs	r4, r0, #0
 138:Drivers/STM32F0xx_HAL_Driver/Src/stm32f0xx_hal_pcd.c **** 
  64              		.loc 1 138 3 is_stmt 1 view .LVU5
  65              	.LVL2:
 140:Drivers/STM32F0xx_HAL_Driver/Src/stm32f0xx_hal_pcd.c ****   
  66              		.loc 1 140 3 view .LVU6
 143:Drivers/STM32F0xx_HAL_Driver/Src/stm32f0xx_hal_pcd.c ****   {
  67              		.loc 1 143 3 view .LVU7
 143:Drivers/STM32F0xx_HAL_Driver/Src/stm32f0xx_hal_pcd.c ****   {
  68              		.loc 1 143 5 is_stmt 0 view .LVU8
  69 0004 58D0     		beq	.L9
 149:Drivers/STM32F0xx_HAL_Driver/Src/stm32f0xx_hal_pcd.c **** 
  70              		.loc 1 149 3 is_stmt 1 view .LVU9
 151:Drivers/STM32F0xx_HAL_Driver/Src/stm32f0xx_hal_pcd.c ****   {  
  71              		.loc 1 151 3 view .LVU10
 151:Drivers/STM32F0xx_HAL_Driver/Src/stm32f0xx_hal_pcd.c ****   {  
  72              		.loc 1 151 10 is_stmt 0 view .LVU11
  73 0006 EA23     		movs	r3, #234
  74 0008 FF33     		adds	r3, r3, #255
  75 000a C35C     		ldrb	r3, [r0, r3]
 151:Drivers/STM32F0xx_HAL_Driver/Src/stm32f0xx_hal_pcd.c ****   {  
  76              		.loc 1 151 5 view .LVU12
  77 000c 002B     		cmp	r3, #0
  78 000e 1AD0     		beq	.L10
  79              	.LVL3:
  80              	.L4:
 160:Drivers/STM32F0xx_HAL_Driver/Src/stm32f0xx_hal_pcd.c ****  
  81              		.loc 1 160 3 is_stmt 1 view .LVU13
 160:Drivers/STM32F0xx_HAL_Driver/Src/stm32f0xx_hal_pcd.c ****  
  82              		.loc 1 160 15 is_stmt 0 view .LVU14
ARM GAS  /var/folders/rf/wfq6hz5s56g3yh4wqgd7820c0000gn/T//ccBUdQBH.s 			page 7


  83 0010 EA23     		movs	r3, #234
  84 0012 FF33     		adds	r3, r3, #255
  85 0014 0322     		movs	r2, #3
  86 0016 E254     		strb	r2, [r4, r3]
 163:Drivers/STM32F0xx_HAL_Driver/Src/stm32f0xx_hal_pcd.c ****  {
  87              		.loc 1 163 2 is_stmt 1 view .LVU15
 163:Drivers/STM32F0xx_HAL_Driver/Src/stm32f0xx_hal_pcd.c ****  {
  88              		.loc 1 163 9 is_stmt 0 view .LVU16
  89 0018 0022     		movs	r2, #0
  90              	.LVL4:
  91              	.L5:
 163:Drivers/STM32F0xx_HAL_Driver/Src/stm32f0xx_hal_pcd.c ****  {
  92              		.loc 1 163 15 is_stmt 1 discriminator 1 view .LVU17
 163:Drivers/STM32F0xx_HAL_Driver/Src/stm32f0xx_hal_pcd.c ****  {
  93              		.loc 1 163 29 is_stmt 0 discriminator 1 view .LVU18
  94 001a 6068     		ldr	r0, [r4, #4]
 163:Drivers/STM32F0xx_HAL_Driver/Src/stm32f0xx_hal_pcd.c ****  {
  95              		.loc 1 163 2 discriminator 1 view .LVU19
  96 001c 9042     		cmp	r0, r2
  97 001e 19D9     		bls	.L11
 166:Drivers/STM32F0xx_HAL_Driver/Src/stm32f0xx_hal_pcd.c ****    hpcd->IN_ep[i].num = i;
  98              		.loc 1 166 4 is_stmt 1 discriminator 3 view .LVU20
 166:Drivers/STM32F0xx_HAL_Driver/Src/stm32f0xx_hal_pcd.c ****    hpcd->IN_ep[i].num = i;
  99              		.loc 1 166 25 is_stmt 0 discriminator 3 view .LVU21
 100 0020 D300     		lsls	r3, r2, #3
 101 0022 9B1A     		subs	r3, r3, r2
 102 0024 9B00     		lsls	r3, r3, #2
 103 0026 E318     		adds	r3, r4, r3
 104 0028 1900     		movs	r1, r3
 105 002a 2931     		adds	r1, r1, #41
 106 002c 0120     		movs	r0, #1
 107 002e 0870     		strb	r0, [r1]
 167:Drivers/STM32F0xx_HAL_Driver/Src/stm32f0xx_hal_pcd.c ****    /* Control until ep is actvated */
 108              		.loc 1 167 4 is_stmt 1 discriminator 3 view .LVU22
 167:Drivers/STM32F0xx_HAL_Driver/Src/stm32f0xx_hal_pcd.c ****    /* Control until ep is actvated */
 109              		.loc 1 167 23 is_stmt 0 discriminator 3 view .LVU23
 110 0030 0139     		subs	r1, r1, #1
 111 0032 0A70     		strb	r2, [r1]
 169:Drivers/STM32F0xx_HAL_Driver/Src/stm32f0xx_hal_pcd.c ****    hpcd->IN_ep[i].maxpacket =  0U;
 112              		.loc 1 169 4 is_stmt 1 discriminator 3 view .LVU24
 169:Drivers/STM32F0xx_HAL_Driver/Src/stm32f0xx_hal_pcd.c ****    hpcd->IN_ep[i].maxpacket =  0U;
 113              		.loc 1 169 24 is_stmt 0 discriminator 3 view .LVU25
 114 0034 1800     		movs	r0, r3
 115 0036 2B30     		adds	r0, r0, #43
 116 0038 0021     		movs	r1, #0
 117 003a 0170     		strb	r1, [r0]
 170:Drivers/STM32F0xx_HAL_Driver/Src/stm32f0xx_hal_pcd.c ****    hpcd->IN_ep[i].xfer_buff = 0U;
 118              		.loc 1 170 4 is_stmt 1 discriminator 3 view .LVU26
 170:Drivers/STM32F0xx_HAL_Driver/Src/stm32f0xx_hal_pcd.c ****    hpcd->IN_ep[i].xfer_buff = 0U;
 119              		.loc 1 170 29 is_stmt 0 discriminator 3 view .LVU27
 120 003c 5963     		str	r1, [r3, #52]
 171:Drivers/STM32F0xx_HAL_Driver/Src/stm32f0xx_hal_pcd.c ****    hpcd->IN_ep[i].xfer_len = 0U;
 121              		.loc 1 171 4 is_stmt 1 discriminator 3 view .LVU28
 171:Drivers/STM32F0xx_HAL_Driver/Src/stm32f0xx_hal_pcd.c ****    hpcd->IN_ep[i].xfer_len = 0U;
 122              		.loc 1 171 29 is_stmt 0 discriminator 3 view .LVU29
 123 003e 9963     		str	r1, [r3, #56]
 172:Drivers/STM32F0xx_HAL_Driver/Src/stm32f0xx_hal_pcd.c ****  }
ARM GAS  /var/folders/rf/wfq6hz5s56g3yh4wqgd7820c0000gn/T//ccBUdQBH.s 			page 8


 124              		.loc 1 172 4 is_stmt 1 discriminator 3 view .LVU30
 172:Drivers/STM32F0xx_HAL_Driver/Src/stm32f0xx_hal_pcd.c ****  }
 125              		.loc 1 172 28 is_stmt 0 discriminator 3 view .LVU31
 126 0040 D963     		str	r1, [r3, #60]
 163:Drivers/STM32F0xx_HAL_Driver/Src/stm32f0xx_hal_pcd.c ****  {
 127              		.loc 1 163 46 is_stmt 1 discriminator 3 view .LVU32
 163:Drivers/STM32F0xx_HAL_Driver/Src/stm32f0xx_hal_pcd.c ****  {
 128              		.loc 1 163 47 is_stmt 0 discriminator 3 view .LVU33
 129 0042 0132     		adds	r2, r2, #1
 130              	.LVL5:
 163:Drivers/STM32F0xx_HAL_Driver/Src/stm32f0xx_hal_pcd.c ****  {
 131              		.loc 1 163 47 discriminator 3 view .LVU34
 132 0044 E9E7     		b	.L5
 133              	.LVL6:
 134              	.L10:
 154:Drivers/STM32F0xx_HAL_Driver/Src/stm32f0xx_hal_pcd.c ****   
 135              		.loc 1 154 5 is_stmt 1 view .LVU35
 154:Drivers/STM32F0xx_HAL_Driver/Src/stm32f0xx_hal_pcd.c ****   
 136              		.loc 1 154 16 is_stmt 0 view .LVU36
 137 0046 E933     		adds	r3, r3, #233
 138 0048 FF33     		adds	r3, r3, #255
 139 004a 0022     		movs	r2, #0
 140 004c C254     		strb	r2, [r0, r3]
 157:Drivers/STM32F0xx_HAL_Driver/Src/stm32f0xx_hal_pcd.c ****   }
 141              		.loc 1 157 5 is_stmt 1 view .LVU37
 142 004e FFF7FEFF 		bl	HAL_PCD_MspInit
 143              	.LVL7:
 157:Drivers/STM32F0xx_HAL_Driver/Src/stm32f0xx_hal_pcd.c ****   }
 144              		.loc 1 157 5 is_stmt 0 view .LVU38
 145 0052 DDE7     		b	.L4
 146              	.LVL8:
 147              	.L11:
 175:Drivers/STM32F0xx_HAL_Driver/Src/stm32f0xx_hal_pcd.c ****  {
 148              		.loc 1 175 9 view .LVU39
 149 0054 0022     		movs	r2, #0
 150              	.LVL9:
 175:Drivers/STM32F0xx_HAL_Driver/Src/stm32f0xx_hal_pcd.c ****  {
 151              		.loc 1 175 9 view .LVU40
 152 0056 14E0     		b	.L7
 153              	.LVL10:
 154              	.L8:
 177:Drivers/STM32F0xx_HAL_Driver/Src/stm32f0xx_hal_pcd.c ****    hpcd->OUT_ep[i].num = i;
 155              		.loc 1 177 4 is_stmt 1 discriminator 3 view .LVU41
 177:Drivers/STM32F0xx_HAL_Driver/Src/stm32f0xx_hal_pcd.c ****    hpcd->OUT_ep[i].num = i;
 156              		.loc 1 177 26 is_stmt 0 discriminator 3 view .LVU42
 157 0058 D300     		lsls	r3, r2, #3
 158 005a 9B1A     		subs	r3, r3, r2
 159 005c 9B00     		lsls	r3, r3, #2
 160 005e E318     		adds	r3, r4, r3
 161 0060 1D00     		movs	r5, r3
 162 0062 0A35     		adds	r5, r5, #10
 163 0064 FF35     		adds	r5, r5, #255
 164 0066 0021     		movs	r1, #0
 165 0068 2970     		strb	r1, [r5]
 178:Drivers/STM32F0xx_HAL_Driver/Src/stm32f0xx_hal_pcd.c ****    /* Control until ep is activated */
 166              		.loc 1 178 4 is_stmt 1 discriminator 3 view .LVU43
 178:Drivers/STM32F0xx_HAL_Driver/Src/stm32f0xx_hal_pcd.c ****    /* Control until ep is activated */
ARM GAS  /var/folders/rf/wfq6hz5s56g3yh4wqgd7820c0000gn/T//ccBUdQBH.s 			page 9


 167              		.loc 1 178 24 is_stmt 0 discriminator 3 view .LVU44
 168 006a 013D     		subs	r5, r5, #1
 169 006c 2A70     		strb	r2, [r5]
 180:Drivers/STM32F0xx_HAL_Driver/Src/stm32f0xx_hal_pcd.c ****    hpcd->OUT_ep[i].maxpacket = 0U;
 170              		.loc 1 180 4 is_stmt 1 discriminator 3 view .LVU45
 180:Drivers/STM32F0xx_HAL_Driver/Src/stm32f0xx_hal_pcd.c ****    hpcd->OUT_ep[i].maxpacket = 0U;
 171              		.loc 1 180 25 is_stmt 0 discriminator 3 view .LVU46
 172 006e 0335     		adds	r5, r5, #3
 173 0070 2970     		strb	r1, [r5]
 181:Drivers/STM32F0xx_HAL_Driver/Src/stm32f0xx_hal_pcd.c ****    hpcd->OUT_ep[i].xfer_buff = 0U;
 174              		.loc 1 181 4 is_stmt 1 discriminator 3 view .LVU47
 181:Drivers/STM32F0xx_HAL_Driver/Src/stm32f0xx_hal_pcd.c ****    hpcd->OUT_ep[i].xfer_buff = 0U;
 175              		.loc 1 181 30 is_stmt 0 discriminator 3 view .LVU48
 176 0072 0935     		adds	r5, r5, #9
 177 0074 2960     		str	r1, [r5]
 182:Drivers/STM32F0xx_HAL_Driver/Src/stm32f0xx_hal_pcd.c ****    hpcd->OUT_ep[i].xfer_len = 0U;
 178              		.loc 1 182 4 is_stmt 1 discriminator 3 view .LVU49
 182:Drivers/STM32F0xx_HAL_Driver/Src/stm32f0xx_hal_pcd.c ****    hpcd->OUT_ep[i].xfer_len = 0U;
 179              		.loc 1 182 30 is_stmt 0 discriminator 3 view .LVU50
 180 0076 0435     		adds	r5, r5, #4
 181 0078 2960     		str	r1, [r5]
 183:Drivers/STM32F0xx_HAL_Driver/Src/stm32f0xx_hal_pcd.c ****  }
 182              		.loc 1 183 4 is_stmt 1 discriminator 3 view .LVU51
 183:Drivers/STM32F0xx_HAL_Driver/Src/stm32f0xx_hal_pcd.c ****  }
 183              		.loc 1 183 29 is_stmt 0 discriminator 3 view .LVU52
 184 007a 1D33     		adds	r3, r3, #29
 185 007c FF33     		adds	r3, r3, #255
 186 007e 1960     		str	r1, [r3]
 175:Drivers/STM32F0xx_HAL_Driver/Src/stm32f0xx_hal_pcd.c ****  {
 187              		.loc 1 175 46 is_stmt 1 discriminator 3 view .LVU53
 175:Drivers/STM32F0xx_HAL_Driver/Src/stm32f0xx_hal_pcd.c ****  {
 188              		.loc 1 175 47 is_stmt 0 discriminator 3 view .LVU54
 189 0080 0132     		adds	r2, r2, #1
 190              	.LVL11:
 191              	.L7:
 175:Drivers/STM32F0xx_HAL_Driver/Src/stm32f0xx_hal_pcd.c ****  {
 192              		.loc 1 175 15 is_stmt 1 discriminator 1 view .LVU55
 175:Drivers/STM32F0xx_HAL_Driver/Src/stm32f0xx_hal_pcd.c ****  {
 193              		.loc 1 175 2 is_stmt 0 discriminator 1 view .LVU56
 194 0082 9042     		cmp	r0, r2
 195 0084 E8D8     		bhi	.L8
 188:Drivers/STM32F0xx_HAL_Driver/Src/stm32f0xx_hal_pcd.c ****  
 196              		.loc 1 188 2 is_stmt 1 view .LVU57
 188:Drivers/STM32F0xx_HAL_Driver/Src/stm32f0xx_hal_pcd.c ****  
 197              		.loc 1 188 23 is_stmt 0 view .LVU58
 198 0086 4023     		movs	r3, #64
 199 0088 0122     		movs	r2, #1
 200              	.LVL12:
 188:Drivers/STM32F0xx_HAL_Driver/Src/stm32f0xx_hal_pcd.c ****  
 201              		.loc 1 188 23 view .LVU59
 202 008a 2168     		ldr	r1, [r4]
 203 008c CA52     		strh	r2, [r1, r3]
 191:Drivers/STM32F0xx_HAL_Driver/Src/stm32f0xx_hal_pcd.c ****  
 204              		.loc 1 191 2 is_stmt 1 view .LVU60
 191:Drivers/STM32F0xx_HAL_Driver/Src/stm32f0xx_hal_pcd.c ****  
 205              		.loc 1 191 23 is_stmt 0 view .LVU61
 206 008e 0022     		movs	r2, #0
ARM GAS  /var/folders/rf/wfq6hz5s56g3yh4wqgd7820c0000gn/T//ccBUdQBH.s 			page 10


 207 0090 2168     		ldr	r1, [r4]
 208 0092 CA52     		strh	r2, [r1, r3]
 194:Drivers/STM32F0xx_HAL_Driver/Src/stm32f0xx_hal_pcd.c ****  
 209              		.loc 1 194 2 is_stmt 1 view .LVU62
 194:Drivers/STM32F0xx_HAL_Driver/Src/stm32f0xx_hal_pcd.c ****  
 210              		.loc 1 194 23 is_stmt 0 view .LVU63
 211 0094 4421     		movs	r1, #68
 212 0096 2068     		ldr	r0, [r4]
 213 0098 4252     		strh	r2, [r0, r1]
 197:Drivers/STM32F0xx_HAL_Driver/Src/stm32f0xx_hal_pcd.c ****   
 214              		.loc 1 197 2 is_stmt 1 view .LVU64
 197:Drivers/STM32F0xx_HAL_Driver/Src/stm32f0xx_hal_pcd.c ****   
 215              		.loc 1 197 25 is_stmt 0 view .LVU65
 216 009a 0C31     		adds	r1, r1, #12
 217 009c 2068     		ldr	r0, [r4]
 218 009e 4252     		strh	r2, [r0, r1]
 200:Drivers/STM32F0xx_HAL_Driver/Src/stm32f0xx_hal_pcd.c ****    | USB_CNTR_SOFM | USB_CNTR_ESOFM | USB_CNTR_RESETM;
 219              		.loc 1 200 2 is_stmt 1 view .LVU66
 220              	.LVL13:
 204:Drivers/STM32F0xx_HAL_Driver/Src/stm32f0xx_hal_pcd.c ****   
 221              		.loc 1 204 3 view .LVU67
 204:Drivers/STM32F0xx_HAL_Driver/Src/stm32f0xx_hal_pcd.c ****   
 222              		.loc 1 204 24 is_stmt 0 view .LVU68
 223 00a0 064A     		ldr	r2, .L12
 224 00a2 2168     		ldr	r1, [r4]
 225 00a4 CA52     		strh	r2, [r1, r3]
 206:Drivers/STM32F0xx_HAL_Driver/Src/stm32f0xx_hal_pcd.c ****   hpcd->State= HAL_PCD_STATE_READY;
 226              		.loc 1 206 3 is_stmt 1 view .LVU69
 206:Drivers/STM32F0xx_HAL_Driver/Src/stm32f0xx_hal_pcd.c ****   hpcd->State= HAL_PCD_STATE_READY;
 227              		.loc 1 206 21 is_stmt 0 view .LVU70
 228 00a6 0022     		movs	r2, #0
 229 00a8 1C3B     		subs	r3, r3, #28
 230 00aa E254     		strb	r2, [r4, r3]
 207:Drivers/STM32F0xx_HAL_Driver/Src/stm32f0xx_hal_pcd.c **** 
 231              		.loc 1 207 3 is_stmt 1 view .LVU71
 207:Drivers/STM32F0xx_HAL_Driver/Src/stm32f0xx_hal_pcd.c **** 
 232              		.loc 1 207 14 is_stmt 0 view .LVU72
 233 00ac 0122     		movs	r2, #1
 234 00ae EA23     		movs	r3, #234
 235 00b0 FF33     		adds	r3, r3, #255
 236 00b2 E254     		strb	r2, [r4, r3]
 209:Drivers/STM32F0xx_HAL_Driver/Src/stm32f0xx_hal_pcd.c **** }
 237              		.loc 1 209 2 is_stmt 1 view .LVU73
 209:Drivers/STM32F0xx_HAL_Driver/Src/stm32f0xx_hal_pcd.c **** }
 238              		.loc 1 209 9 is_stmt 0 view .LVU74
 239 00b4 0020     		movs	r0, #0
 240              	.LVL14:
 241              	.L3:
 210:Drivers/STM32F0xx_HAL_Driver/Src/stm32f0xx_hal_pcd.c **** 
 242              		.loc 1 210 1 view .LVU75
 243              		@ sp needed
 244              	.LVL15:
 210:Drivers/STM32F0xx_HAL_Driver/Src/stm32f0xx_hal_pcd.c **** 
 245              		.loc 1 210 1 view .LVU76
 246 00b6 70BD     		pop	{r4, r5, r6, pc}
 247              	.LVL16:
 248              	.L9:
ARM GAS  /var/folders/rf/wfq6hz5s56g3yh4wqgd7820c0000gn/T//ccBUdQBH.s 			page 11


 145:Drivers/STM32F0xx_HAL_Driver/Src/stm32f0xx_hal_pcd.c ****   }
 249              		.loc 1 145 12 view .LVU77
 250 00b8 0120     		movs	r0, #1
 251              	.LVL17:
 145:Drivers/STM32F0xx_HAL_Driver/Src/stm32f0xx_hal_pcd.c ****   }
 252              		.loc 1 145 12 view .LVU78
 253 00ba FCE7     		b	.L3
 254              	.L13:
 255              		.align	2
 256              	.L12:
 257 00bc 00BFFFFF 		.word	-16640
 258              		.cfi_endproc
 259              	.LFE37:
 261              		.section	.text.HAL_PCD_MspDeInit,"ax",%progbits
 262              		.align	1
 263              		.weak	HAL_PCD_MspDeInit
 264              		.syntax unified
 265              		.code	16
 266              		.thumb_func
 267              		.fpu softvfp
 269              	HAL_PCD_MspDeInit:
 270              	.LVL18:
 271              	.LFB40:
 252:Drivers/STM32F0xx_HAL_Driver/Src/stm32f0xx_hal_pcd.c **** 
 253:Drivers/STM32F0xx_HAL_Driver/Src/stm32f0xx_hal_pcd.c **** /**
 254:Drivers/STM32F0xx_HAL_Driver/Src/stm32f0xx_hal_pcd.c ****   * @brief  DeInitializes PCD MSP.
 255:Drivers/STM32F0xx_HAL_Driver/Src/stm32f0xx_hal_pcd.c ****   * @param  hpcd PCD handle
 256:Drivers/STM32F0xx_HAL_Driver/Src/stm32f0xx_hal_pcd.c ****   * @retval None
 257:Drivers/STM32F0xx_HAL_Driver/Src/stm32f0xx_hal_pcd.c ****   */
 258:Drivers/STM32F0xx_HAL_Driver/Src/stm32f0xx_hal_pcd.c **** __weak void HAL_PCD_MspDeInit(PCD_HandleTypeDef *hpcd)
 259:Drivers/STM32F0xx_HAL_Driver/Src/stm32f0xx_hal_pcd.c **** {
 272              		.loc 1 259 1 is_stmt 1 view -0
 273              		.cfi_startproc
 274              		@ args = 0, pretend = 0, frame = 0
 275              		@ frame_needed = 0, uses_anonymous_args = 0
 276              		@ link register save eliminated.
 260:Drivers/STM32F0xx_HAL_Driver/Src/stm32f0xx_hal_pcd.c ****   /* Prevent unused argument(s) compilation warning */
 261:Drivers/STM32F0xx_HAL_Driver/Src/stm32f0xx_hal_pcd.c ****   UNUSED(hpcd);
 277              		.loc 1 261 3 view .LVU80
 262:Drivers/STM32F0xx_HAL_Driver/Src/stm32f0xx_hal_pcd.c **** 
 263:Drivers/STM32F0xx_HAL_Driver/Src/stm32f0xx_hal_pcd.c ****   /* NOTE : This function Should not be modified, when the callback is needed,
 264:Drivers/STM32F0xx_HAL_Driver/Src/stm32f0xx_hal_pcd.c ****             the HAL_PCD_MspDeInit could be implemented in the user file
 265:Drivers/STM32F0xx_HAL_Driver/Src/stm32f0xx_hal_pcd.c ****    */
 266:Drivers/STM32F0xx_HAL_Driver/Src/stm32f0xx_hal_pcd.c **** }
 278              		.loc 1 266 1 is_stmt 0 view .LVU81
 279              		@ sp needed
 280 0000 7047     		bx	lr
 281              		.cfi_endproc
 282              	.LFE40:
 284              		.section	.text.HAL_PCD_Start,"ax",%progbits
 285              		.align	1
 286              		.global	HAL_PCD_Start
 287              		.syntax unified
 288              		.code	16
 289              		.thumb_func
 290              		.fpu softvfp
 292              	HAL_PCD_Start:
ARM GAS  /var/folders/rf/wfq6hz5s56g3yh4wqgd7820c0000gn/T//ccBUdQBH.s 			page 12


 293              	.LVL19:
 294              	.LFB41:
 267:Drivers/STM32F0xx_HAL_Driver/Src/stm32f0xx_hal_pcd.c **** 
 268:Drivers/STM32F0xx_HAL_Driver/Src/stm32f0xx_hal_pcd.c **** /**
 269:Drivers/STM32F0xx_HAL_Driver/Src/stm32f0xx_hal_pcd.c ****   * @}
 270:Drivers/STM32F0xx_HAL_Driver/Src/stm32f0xx_hal_pcd.c ****   */
 271:Drivers/STM32F0xx_HAL_Driver/Src/stm32f0xx_hal_pcd.c **** 
 272:Drivers/STM32F0xx_HAL_Driver/Src/stm32f0xx_hal_pcd.c **** /** @defgroup PCD_Exported_Functions_Group2 IO operation functions 
 273:Drivers/STM32F0xx_HAL_Driver/Src/stm32f0xx_hal_pcd.c ****  *  @brief   Data transfers functions 
 274:Drivers/STM32F0xx_HAL_Driver/Src/stm32f0xx_hal_pcd.c ****  *
 275:Drivers/STM32F0xx_HAL_Driver/Src/stm32f0xx_hal_pcd.c **** @verbatim   
 276:Drivers/STM32F0xx_HAL_Driver/Src/stm32f0xx_hal_pcd.c ****  ===============================================================================
 277:Drivers/STM32F0xx_HAL_Driver/Src/stm32f0xx_hal_pcd.c ****                       ##### IO operation functions #####
 278:Drivers/STM32F0xx_HAL_Driver/Src/stm32f0xx_hal_pcd.c ****  ===============================================================================  
 279:Drivers/STM32F0xx_HAL_Driver/Src/stm32f0xx_hal_pcd.c ****     [..]
 280:Drivers/STM32F0xx_HAL_Driver/Src/stm32f0xx_hal_pcd.c ****     This subsection provides a set of functions allowing to manage the PCD data 
 281:Drivers/STM32F0xx_HAL_Driver/Src/stm32f0xx_hal_pcd.c ****     transfers.
 282:Drivers/STM32F0xx_HAL_Driver/Src/stm32f0xx_hal_pcd.c **** 
 283:Drivers/STM32F0xx_HAL_Driver/Src/stm32f0xx_hal_pcd.c **** @endverbatim
 284:Drivers/STM32F0xx_HAL_Driver/Src/stm32f0xx_hal_pcd.c ****   * @{
 285:Drivers/STM32F0xx_HAL_Driver/Src/stm32f0xx_hal_pcd.c ****   */
 286:Drivers/STM32F0xx_HAL_Driver/Src/stm32f0xx_hal_pcd.c ****   
 287:Drivers/STM32F0xx_HAL_Driver/Src/stm32f0xx_hal_pcd.c **** /**
 288:Drivers/STM32F0xx_HAL_Driver/Src/stm32f0xx_hal_pcd.c ****   * @brief  Start the USB device.
 289:Drivers/STM32F0xx_HAL_Driver/Src/stm32f0xx_hal_pcd.c ****   * @param  hpcd PCD handle
 290:Drivers/STM32F0xx_HAL_Driver/Src/stm32f0xx_hal_pcd.c ****   * @retval HAL status
 291:Drivers/STM32F0xx_HAL_Driver/Src/stm32f0xx_hal_pcd.c ****   */
 292:Drivers/STM32F0xx_HAL_Driver/Src/stm32f0xx_hal_pcd.c **** HAL_StatusTypeDef HAL_PCD_Start(PCD_HandleTypeDef *hpcd)
 293:Drivers/STM32F0xx_HAL_Driver/Src/stm32f0xx_hal_pcd.c **** { 
 295              		.loc 1 293 1 is_stmt 1 view -0
 296              		.cfi_startproc
 297              		@ args = 0, pretend = 0, frame = 0
 298              		@ frame_needed = 0, uses_anonymous_args = 0
 299              		@ link register save eliminated.
 294:Drivers/STM32F0xx_HAL_Driver/Src/stm32f0xx_hal_pcd.c ****   /* Enabling DP Pull-Down bit to Connect internal pull-up on USB DP line */
 295:Drivers/STM32F0xx_HAL_Driver/Src/stm32f0xx_hal_pcd.c ****   hpcd->Instance->BCDR |= USB_BCDR_DPPU;
 300              		.loc 1 295 3 view .LVU83
 301              		.loc 1 295 7 is_stmt 0 view .LVU84
 302 0000 0168     		ldr	r1, [r0]
 303              		.loc 1 295 24 view .LVU85
 304 0002 5822     		movs	r2, #88
 305 0004 8B5A     		ldrh	r3, [r1, r2]
 306 0006 0348     		ldr	r0, .L16
 307              	.LVL20:
 308              		.loc 1 295 24 view .LVU86
 309 0008 0343     		orrs	r3, r0
 310 000a 9BB2     		uxth	r3, r3
 311 000c 8B52     		strh	r3, [r1, r2]
 296:Drivers/STM32F0xx_HAL_Driver/Src/stm32f0xx_hal_pcd.c ****   
 297:Drivers/STM32F0xx_HAL_Driver/Src/stm32f0xx_hal_pcd.c ****   return HAL_OK;
 312              		.loc 1 297 3 is_stmt 1 view .LVU87
 298:Drivers/STM32F0xx_HAL_Driver/Src/stm32f0xx_hal_pcd.c **** }
 313              		.loc 1 298 1 is_stmt 0 view .LVU88
 314 000e 0020     		movs	r0, #0
 315              		@ sp needed
 316 0010 7047     		bx	lr
 317              	.L17:
ARM GAS  /var/folders/rf/wfq6hz5s56g3yh4wqgd7820c0000gn/T//ccBUdQBH.s 			page 13


 318 0012 C046     		.align	2
 319              	.L16:
 320 0014 0080FFFF 		.word	-32768
 321              		.cfi_endproc
 322              	.LFE41:
 324              		.section	.text.HAL_PCD_Stop,"ax",%progbits
 325              		.align	1
 326              		.global	HAL_PCD_Stop
 327              		.syntax unified
 328              		.code	16
 329              		.thumb_func
 330              		.fpu softvfp
 332              	HAL_PCD_Stop:
 333              	.LVL21:
 334              	.LFB42:
 299:Drivers/STM32F0xx_HAL_Driver/Src/stm32f0xx_hal_pcd.c **** 
 300:Drivers/STM32F0xx_HAL_Driver/Src/stm32f0xx_hal_pcd.c **** /**
 301:Drivers/STM32F0xx_HAL_Driver/Src/stm32f0xx_hal_pcd.c ****   * @brief  Stop the USB device.
 302:Drivers/STM32F0xx_HAL_Driver/Src/stm32f0xx_hal_pcd.c ****   * @param  hpcd PCD handle
 303:Drivers/STM32F0xx_HAL_Driver/Src/stm32f0xx_hal_pcd.c ****   * @retval HAL status
 304:Drivers/STM32F0xx_HAL_Driver/Src/stm32f0xx_hal_pcd.c ****   */
 305:Drivers/STM32F0xx_HAL_Driver/Src/stm32f0xx_hal_pcd.c **** HAL_StatusTypeDef HAL_PCD_Stop(PCD_HandleTypeDef *hpcd)
 306:Drivers/STM32F0xx_HAL_Driver/Src/stm32f0xx_hal_pcd.c **** { 
 335              		.loc 1 306 1 is_stmt 1 view -0
 336              		.cfi_startproc
 337              		@ args = 0, pretend = 0, frame = 0
 338              		@ frame_needed = 0, uses_anonymous_args = 0
 339              		.loc 1 306 1 is_stmt 0 view .LVU90
 340 0000 10B5     		push	{r4, lr}
 341              	.LCFI1:
 342              		.cfi_def_cfa_offset 8
 343              		.cfi_offset 4, -8
 344              		.cfi_offset 14, -4
 307:Drivers/STM32F0xx_HAL_Driver/Src/stm32f0xx_hal_pcd.c ****   __HAL_LOCK(hpcd); 
 345              		.loc 1 307 3 is_stmt 1 view .LVU91
 346              		.loc 1 307 3 view .LVU92
 347 0002 F423     		movs	r3, #244
 348 0004 5B00     		lsls	r3, r3, #1
 349 0006 C35C     		ldrb	r3, [r0, r3]
 350 0008 012B     		cmp	r3, #1
 351 000a 10D0     		beq	.L20
 352              		.loc 1 307 3 discriminator 2 view .LVU93
 353              		.loc 1 307 3 discriminator 2 view .LVU94
 308:Drivers/STM32F0xx_HAL_Driver/Src/stm32f0xx_hal_pcd.c ****   
 309:Drivers/STM32F0xx_HAL_Driver/Src/stm32f0xx_hal_pcd.c ****     /* disable all interrupts and force USB reset */
 310:Drivers/STM32F0xx_HAL_Driver/Src/stm32f0xx_hal_pcd.c ****   hpcd->Instance->CNTR = USB_CNTR_FRES;
 354              		.loc 1 310 3 discriminator 2 view .LVU95
 355              		.loc 1 310 24 is_stmt 0 discriminator 2 view .LVU96
 356 000c 4023     		movs	r3, #64
 357 000e 0122     		movs	r2, #1
 358 0010 0168     		ldr	r1, [r0]
 359 0012 CA52     		strh	r2, [r1, r3]
 311:Drivers/STM32F0xx_HAL_Driver/Src/stm32f0xx_hal_pcd.c ****   
 312:Drivers/STM32F0xx_HAL_Driver/Src/stm32f0xx_hal_pcd.c ****   /* clear interrupt status register */
 313:Drivers/STM32F0xx_HAL_Driver/Src/stm32f0xx_hal_pcd.c ****   hpcd->Instance->ISTR = 0;
 360              		.loc 1 313 3 is_stmt 1 discriminator 2 view .LVU97
 361              		.loc 1 313 24 is_stmt 0 discriminator 2 view .LVU98
ARM GAS  /var/folders/rf/wfq6hz5s56g3yh4wqgd7820c0000gn/T//ccBUdQBH.s 			page 14


 362 0014 4332     		adds	r2, r2, #67
 363 0016 0021     		movs	r1, #0
 364 0018 0468     		ldr	r4, [r0]
 365 001a A152     		strh	r1, [r4, r2]
 314:Drivers/STM32F0xx_HAL_Driver/Src/stm32f0xx_hal_pcd.c ****   
 315:Drivers/STM32F0xx_HAL_Driver/Src/stm32f0xx_hal_pcd.c ****   /* switch-off device */
 316:Drivers/STM32F0xx_HAL_Driver/Src/stm32f0xx_hal_pcd.c ****   hpcd->Instance->CNTR = (USB_CNTR_FRES | USB_CNTR_PDWN);
 366              		.loc 1 316 3 is_stmt 1 discriminator 2 view .LVU99
 367              		.loc 1 316 24 is_stmt 0 discriminator 2 view .LVU100
 368 001c 413A     		subs	r2, r2, #65
 369 001e 0168     		ldr	r1, [r0]
 370 0020 CA52     		strh	r2, [r1, r3]
 317:Drivers/STM32F0xx_HAL_Driver/Src/stm32f0xx_hal_pcd.c ****   
 318:Drivers/STM32F0xx_HAL_Driver/Src/stm32f0xx_hal_pcd.c ****   __HAL_UNLOCK(hpcd); 
 371              		.loc 1 318 3 is_stmt 1 discriminator 2 view .LVU101
 372              		.loc 1 318 3 discriminator 2 view .LVU102
 373 0022 0022     		movs	r2, #0
 374 0024 A933     		adds	r3, r3, #169
 375 0026 FF33     		adds	r3, r3, #255
 376 0028 C254     		strb	r2, [r0, r3]
 377              		.loc 1 318 3 discriminator 2 view .LVU103
 319:Drivers/STM32F0xx_HAL_Driver/Src/stm32f0xx_hal_pcd.c ****   return HAL_OK;
 378              		.loc 1 319 3 discriminator 2 view .LVU104
 379              		.loc 1 319 10 is_stmt 0 discriminator 2 view .LVU105
 380 002a 0020     		movs	r0, #0
 381              	.LVL22:
 382              	.L19:
 320:Drivers/STM32F0xx_HAL_Driver/Src/stm32f0xx_hal_pcd.c **** }
 383              		.loc 1 320 1 view .LVU106
 384              		@ sp needed
 385 002c 10BD     		pop	{r4, pc}
 386              	.LVL23:
 387              	.L20:
 307:Drivers/STM32F0xx_HAL_Driver/Src/stm32f0xx_hal_pcd.c ****   
 388              		.loc 1 307 3 view .LVU107
 389 002e 0220     		movs	r0, #2
 390              	.LVL24:
 307:Drivers/STM32F0xx_HAL_Driver/Src/stm32f0xx_hal_pcd.c ****   
 391              		.loc 1 307 3 view .LVU108
 392 0030 FCE7     		b	.L19
 393              		.cfi_endproc
 394              	.LFE42:
 396              		.section	.text.HAL_PCD_DeInit,"ax",%progbits
 397              		.align	1
 398              		.global	HAL_PCD_DeInit
 399              		.syntax unified
 400              		.code	16
 401              		.thumb_func
 402              		.fpu softvfp
 404              	HAL_PCD_DeInit:
 405              	.LVL25:
 406              	.LFB38:
 218:Drivers/STM32F0xx_HAL_Driver/Src/stm32f0xx_hal_pcd.c ****   /* Check the PCD handle allocation */
 407              		.loc 1 218 1 is_stmt 1 view -0
 408              		.cfi_startproc
 409              		@ args = 0, pretend = 0, frame = 0
 410              		@ frame_needed = 0, uses_anonymous_args = 0
ARM GAS  /var/folders/rf/wfq6hz5s56g3yh4wqgd7820c0000gn/T//ccBUdQBH.s 			page 15


 218:Drivers/STM32F0xx_HAL_Driver/Src/stm32f0xx_hal_pcd.c ****   /* Check the PCD handle allocation */
 411              		.loc 1 218 1 is_stmt 0 view .LVU110
 412 0000 70B5     		push	{r4, r5, r6, lr}
 413              	.LCFI2:
 414              		.cfi_def_cfa_offset 16
 415              		.cfi_offset 4, -16
 416              		.cfi_offset 5, -12
 417              		.cfi_offset 6, -8
 418              		.cfi_offset 14, -4
 419 0002 041E     		subs	r4, r0, #0
 220:Drivers/STM32F0xx_HAL_Driver/Src/stm32f0xx_hal_pcd.c ****   {
 420              		.loc 1 220 3 is_stmt 1 view .LVU111
 220:Drivers/STM32F0xx_HAL_Driver/Src/stm32f0xx_hal_pcd.c ****   {
 421              		.loc 1 220 5 is_stmt 0 view .LVU112
 422 0004 0CD0     		beq	.L23
 225:Drivers/STM32F0xx_HAL_Driver/Src/stm32f0xx_hal_pcd.c ****   
 423              		.loc 1 225 3 is_stmt 1 view .LVU113
 225:Drivers/STM32F0xx_HAL_Driver/Src/stm32f0xx_hal_pcd.c ****   
 424              		.loc 1 225 15 is_stmt 0 view .LVU114
 425 0006 EA25     		movs	r5, #234
 426 0008 FF35     		adds	r5, r5, #255
 427 000a 0323     		movs	r3, #3
 428 000c 4355     		strb	r3, [r0, r5]
 228:Drivers/STM32F0xx_HAL_Driver/Src/stm32f0xx_hal_pcd.c ****     
 429              		.loc 1 228 3 is_stmt 1 view .LVU115
 430 000e FFF7FEFF 		bl	HAL_PCD_Stop
 431              	.LVL26:
 231:Drivers/STM32F0xx_HAL_Driver/Src/stm32f0xx_hal_pcd.c ****   
 432              		.loc 1 231 3 view .LVU116
 433 0012 2000     		movs	r0, r4
 434 0014 FFF7FEFF 		bl	HAL_PCD_MspDeInit
 435              	.LVL27:
 233:Drivers/STM32F0xx_HAL_Driver/Src/stm32f0xx_hal_pcd.c ****   
 436              		.loc 1 233 3 view .LVU117
 233:Drivers/STM32F0xx_HAL_Driver/Src/stm32f0xx_hal_pcd.c ****   
 437              		.loc 1 233 15 is_stmt 0 view .LVU118
 438 0018 0023     		movs	r3, #0
 439 001a 6355     		strb	r3, [r4, r5]
 235:Drivers/STM32F0xx_HAL_Driver/Src/stm32f0xx_hal_pcd.c **** }
 440              		.loc 1 235 3 is_stmt 1 view .LVU119
 235:Drivers/STM32F0xx_HAL_Driver/Src/stm32f0xx_hal_pcd.c **** }
 441              		.loc 1 235 10 is_stmt 0 view .LVU120
 442 001c 0020     		movs	r0, #0
 443              	.L22:
 236:Drivers/STM32F0xx_HAL_Driver/Src/stm32f0xx_hal_pcd.c **** 
 444              		.loc 1 236 1 view .LVU121
 445              		@ sp needed
 446              	.LVL28:
 236:Drivers/STM32F0xx_HAL_Driver/Src/stm32f0xx_hal_pcd.c **** 
 447              		.loc 1 236 1 view .LVU122
 448 001e 70BD     		pop	{r4, r5, r6, pc}
 449              	.LVL29:
 450              	.L23:
 222:Drivers/STM32F0xx_HAL_Driver/Src/stm32f0xx_hal_pcd.c ****   }
 451              		.loc 1 222 12 view .LVU123
 452 0020 0120     		movs	r0, #1
 453              	.LVL30:
ARM GAS  /var/folders/rf/wfq6hz5s56g3yh4wqgd7820c0000gn/T//ccBUdQBH.s 			page 16


 222:Drivers/STM32F0xx_HAL_Driver/Src/stm32f0xx_hal_pcd.c ****   }
 454              		.loc 1 222 12 view .LVU124
 455 0022 FCE7     		b	.L22
 456              		.cfi_endproc
 457              	.LFE38:
 459              		.section	.text.HAL_PCD_DataOutStageCallback,"ax",%progbits
 460              		.align	1
 461              		.weak	HAL_PCD_DataOutStageCallback
 462              		.syntax unified
 463              		.code	16
 464              		.thumb_func
 465              		.fpu softvfp
 467              	HAL_PCD_DataOutStageCallback:
 468              	.LVL31:
 469              	.LFB44:
 321:Drivers/STM32F0xx_HAL_Driver/Src/stm32f0xx_hal_pcd.c **** 
 322:Drivers/STM32F0xx_HAL_Driver/Src/stm32f0xx_hal_pcd.c **** /**
 323:Drivers/STM32F0xx_HAL_Driver/Src/stm32f0xx_hal_pcd.c ****   * @brief  This function handles PCD interrupt request.
 324:Drivers/STM32F0xx_HAL_Driver/Src/stm32f0xx_hal_pcd.c ****   * @param  hpcd PCD handle
 325:Drivers/STM32F0xx_HAL_Driver/Src/stm32f0xx_hal_pcd.c ****   * @retval HAL status
 326:Drivers/STM32F0xx_HAL_Driver/Src/stm32f0xx_hal_pcd.c ****   */
 327:Drivers/STM32F0xx_HAL_Driver/Src/stm32f0xx_hal_pcd.c **** void HAL_PCD_IRQHandler(PCD_HandleTypeDef *hpcd)
 328:Drivers/STM32F0xx_HAL_Driver/Src/stm32f0xx_hal_pcd.c **** {
 329:Drivers/STM32F0xx_HAL_Driver/Src/stm32f0xx_hal_pcd.c ****   uint32_t wInterrupt_Mask = 0U;
 330:Drivers/STM32F0xx_HAL_Driver/Src/stm32f0xx_hal_pcd.c ****   
 331:Drivers/STM32F0xx_HAL_Driver/Src/stm32f0xx_hal_pcd.c ****   if (__HAL_PCD_GET_FLAG (hpcd, USB_ISTR_CTR))
 332:Drivers/STM32F0xx_HAL_Driver/Src/stm32f0xx_hal_pcd.c ****   {
 333:Drivers/STM32F0xx_HAL_Driver/Src/stm32f0xx_hal_pcd.c ****     /* servicing of the endpoint correct transfer interrupt */
 334:Drivers/STM32F0xx_HAL_Driver/Src/stm32f0xx_hal_pcd.c ****     /* clear of the CTR flag into the sub */
 335:Drivers/STM32F0xx_HAL_Driver/Src/stm32f0xx_hal_pcd.c ****     PCD_EP_ISR_Handler(hpcd);
 336:Drivers/STM32F0xx_HAL_Driver/Src/stm32f0xx_hal_pcd.c ****   }
 337:Drivers/STM32F0xx_HAL_Driver/Src/stm32f0xx_hal_pcd.c **** 
 338:Drivers/STM32F0xx_HAL_Driver/Src/stm32f0xx_hal_pcd.c ****   if (__HAL_PCD_GET_FLAG (hpcd, USB_ISTR_RESET))
 339:Drivers/STM32F0xx_HAL_Driver/Src/stm32f0xx_hal_pcd.c ****   {
 340:Drivers/STM32F0xx_HAL_Driver/Src/stm32f0xx_hal_pcd.c ****     __HAL_PCD_CLEAR_FLAG(hpcd, USB_ISTR_RESET);
 341:Drivers/STM32F0xx_HAL_Driver/Src/stm32f0xx_hal_pcd.c ****     HAL_PCD_ResetCallback(hpcd);
 342:Drivers/STM32F0xx_HAL_Driver/Src/stm32f0xx_hal_pcd.c ****     HAL_PCD_SetAddress(hpcd, 0U);
 343:Drivers/STM32F0xx_HAL_Driver/Src/stm32f0xx_hal_pcd.c ****   }
 344:Drivers/STM32F0xx_HAL_Driver/Src/stm32f0xx_hal_pcd.c **** 
 345:Drivers/STM32F0xx_HAL_Driver/Src/stm32f0xx_hal_pcd.c ****   if (__HAL_PCD_GET_FLAG (hpcd, USB_ISTR_PMAOVR))
 346:Drivers/STM32F0xx_HAL_Driver/Src/stm32f0xx_hal_pcd.c ****   {
 347:Drivers/STM32F0xx_HAL_Driver/Src/stm32f0xx_hal_pcd.c ****     __HAL_PCD_CLEAR_FLAG(hpcd, USB_ISTR_PMAOVR);    
 348:Drivers/STM32F0xx_HAL_Driver/Src/stm32f0xx_hal_pcd.c ****   }
 349:Drivers/STM32F0xx_HAL_Driver/Src/stm32f0xx_hal_pcd.c **** 
 350:Drivers/STM32F0xx_HAL_Driver/Src/stm32f0xx_hal_pcd.c ****   if (__HAL_PCD_GET_FLAG (hpcd, USB_ISTR_ERR))
 351:Drivers/STM32F0xx_HAL_Driver/Src/stm32f0xx_hal_pcd.c ****   {
 352:Drivers/STM32F0xx_HAL_Driver/Src/stm32f0xx_hal_pcd.c ****     __HAL_PCD_CLEAR_FLAG(hpcd, USB_ISTR_ERR); 
 353:Drivers/STM32F0xx_HAL_Driver/Src/stm32f0xx_hal_pcd.c ****   }
 354:Drivers/STM32F0xx_HAL_Driver/Src/stm32f0xx_hal_pcd.c **** 
 355:Drivers/STM32F0xx_HAL_Driver/Src/stm32f0xx_hal_pcd.c ****   if (__HAL_PCD_GET_FLAG (hpcd, USB_ISTR_WKUP))
 356:Drivers/STM32F0xx_HAL_Driver/Src/stm32f0xx_hal_pcd.c ****   {
 357:Drivers/STM32F0xx_HAL_Driver/Src/stm32f0xx_hal_pcd.c ****     
 358:Drivers/STM32F0xx_HAL_Driver/Src/stm32f0xx_hal_pcd.c ****     hpcd->Instance->CNTR &= (uint16_t)(~(USB_CNTR_LPMODE));
 359:Drivers/STM32F0xx_HAL_Driver/Src/stm32f0xx_hal_pcd.c **** 
 360:Drivers/STM32F0xx_HAL_Driver/Src/stm32f0xx_hal_pcd.c ****     /*set wInterrupt_Mask global variable*/
 361:Drivers/STM32F0xx_HAL_Driver/Src/stm32f0xx_hal_pcd.c ****     wInterrupt_Mask = USB_CNTR_CTRM  | USB_CNTR_WKUPM | USB_CNTR_SUSPM | USB_CNTR_ERRM \
 362:Drivers/STM32F0xx_HAL_Driver/Src/stm32f0xx_hal_pcd.c ****       | USB_CNTR_ESOFM | USB_CNTR_RESETM;
ARM GAS  /var/folders/rf/wfq6hz5s56g3yh4wqgd7820c0000gn/T//ccBUdQBH.s 			page 17


 363:Drivers/STM32F0xx_HAL_Driver/Src/stm32f0xx_hal_pcd.c ****     
 364:Drivers/STM32F0xx_HAL_Driver/Src/stm32f0xx_hal_pcd.c ****     /*Set interrupt mask*/
 365:Drivers/STM32F0xx_HAL_Driver/Src/stm32f0xx_hal_pcd.c ****     hpcd->Instance->CNTR = wInterrupt_Mask;
 366:Drivers/STM32F0xx_HAL_Driver/Src/stm32f0xx_hal_pcd.c ****     
 367:Drivers/STM32F0xx_HAL_Driver/Src/stm32f0xx_hal_pcd.c ****     HAL_PCD_ResumeCallback(hpcd);
 368:Drivers/STM32F0xx_HAL_Driver/Src/stm32f0xx_hal_pcd.c ****     
 369:Drivers/STM32F0xx_HAL_Driver/Src/stm32f0xx_hal_pcd.c ****     __HAL_PCD_CLEAR_FLAG(hpcd, USB_ISTR_WKUP);     
 370:Drivers/STM32F0xx_HAL_Driver/Src/stm32f0xx_hal_pcd.c ****   }
 371:Drivers/STM32F0xx_HAL_Driver/Src/stm32f0xx_hal_pcd.c **** 
 372:Drivers/STM32F0xx_HAL_Driver/Src/stm32f0xx_hal_pcd.c ****   if (__HAL_PCD_GET_FLAG (hpcd, USB_ISTR_SUSP))
 373:Drivers/STM32F0xx_HAL_Driver/Src/stm32f0xx_hal_pcd.c ****   {    
 374:Drivers/STM32F0xx_HAL_Driver/Src/stm32f0xx_hal_pcd.c ****     /* clear of the ISTR bit must be done after setting of CNTR_FSUSP */
 375:Drivers/STM32F0xx_HAL_Driver/Src/stm32f0xx_hal_pcd.c ****     __HAL_PCD_CLEAR_FLAG(hpcd, USB_ISTR_SUSP);  
 376:Drivers/STM32F0xx_HAL_Driver/Src/stm32f0xx_hal_pcd.c ****     
 377:Drivers/STM32F0xx_HAL_Driver/Src/stm32f0xx_hal_pcd.c ****     /* Force low-power mode in the macrocell */
 378:Drivers/STM32F0xx_HAL_Driver/Src/stm32f0xx_hal_pcd.c ****     hpcd->Instance->CNTR |= USB_CNTR_FSUSP;
 379:Drivers/STM32F0xx_HAL_Driver/Src/stm32f0xx_hal_pcd.c ****     hpcd->Instance->CNTR |= USB_CNTR_LPMODE;
 380:Drivers/STM32F0xx_HAL_Driver/Src/stm32f0xx_hal_pcd.c **** 
 381:Drivers/STM32F0xx_HAL_Driver/Src/stm32f0xx_hal_pcd.c ****     if (__HAL_PCD_GET_FLAG (hpcd, USB_ISTR_WKUP) == 0)
 382:Drivers/STM32F0xx_HAL_Driver/Src/stm32f0xx_hal_pcd.c ****     {
 383:Drivers/STM32F0xx_HAL_Driver/Src/stm32f0xx_hal_pcd.c ****       HAL_PCD_SuspendCallback(hpcd);
 384:Drivers/STM32F0xx_HAL_Driver/Src/stm32f0xx_hal_pcd.c ****     }
 385:Drivers/STM32F0xx_HAL_Driver/Src/stm32f0xx_hal_pcd.c ****   }
 386:Drivers/STM32F0xx_HAL_Driver/Src/stm32f0xx_hal_pcd.c **** 
 387:Drivers/STM32F0xx_HAL_Driver/Src/stm32f0xx_hal_pcd.c ****   if (__HAL_PCD_GET_FLAG (hpcd, USB_ISTR_SOF))
 388:Drivers/STM32F0xx_HAL_Driver/Src/stm32f0xx_hal_pcd.c ****   {
 389:Drivers/STM32F0xx_HAL_Driver/Src/stm32f0xx_hal_pcd.c ****     __HAL_PCD_CLEAR_FLAG(hpcd, USB_ISTR_SOF); 
 390:Drivers/STM32F0xx_HAL_Driver/Src/stm32f0xx_hal_pcd.c ****     HAL_PCD_SOFCallback(hpcd);
 391:Drivers/STM32F0xx_HAL_Driver/Src/stm32f0xx_hal_pcd.c ****   }
 392:Drivers/STM32F0xx_HAL_Driver/Src/stm32f0xx_hal_pcd.c **** 
 393:Drivers/STM32F0xx_HAL_Driver/Src/stm32f0xx_hal_pcd.c ****   if (__HAL_PCD_GET_FLAG (hpcd, USB_ISTR_ESOF))
 394:Drivers/STM32F0xx_HAL_Driver/Src/stm32f0xx_hal_pcd.c ****   {
 395:Drivers/STM32F0xx_HAL_Driver/Src/stm32f0xx_hal_pcd.c ****     /* clear ESOF flag in ISTR */
 396:Drivers/STM32F0xx_HAL_Driver/Src/stm32f0xx_hal_pcd.c ****     __HAL_PCD_CLEAR_FLAG(hpcd, USB_ISTR_ESOF); 
 397:Drivers/STM32F0xx_HAL_Driver/Src/stm32f0xx_hal_pcd.c ****   }
 398:Drivers/STM32F0xx_HAL_Driver/Src/stm32f0xx_hal_pcd.c **** }
 399:Drivers/STM32F0xx_HAL_Driver/Src/stm32f0xx_hal_pcd.c **** 
 400:Drivers/STM32F0xx_HAL_Driver/Src/stm32f0xx_hal_pcd.c **** /**
 401:Drivers/STM32F0xx_HAL_Driver/Src/stm32f0xx_hal_pcd.c ****   * @brief  Data out stage callbacks
 402:Drivers/STM32F0xx_HAL_Driver/Src/stm32f0xx_hal_pcd.c ****   * @param  hpcd PCD handle
 403:Drivers/STM32F0xx_HAL_Driver/Src/stm32f0xx_hal_pcd.c ****   * @param  epnum endpoint number
 404:Drivers/STM32F0xx_HAL_Driver/Src/stm32f0xx_hal_pcd.c ****   * @retval None
 405:Drivers/STM32F0xx_HAL_Driver/Src/stm32f0xx_hal_pcd.c ****   */
 406:Drivers/STM32F0xx_HAL_Driver/Src/stm32f0xx_hal_pcd.c ****  __weak void HAL_PCD_DataOutStageCallback(PCD_HandleTypeDef *hpcd, uint8_t epnum)
 407:Drivers/STM32F0xx_HAL_Driver/Src/stm32f0xx_hal_pcd.c **** {
 470              		.loc 1 407 1 is_stmt 1 view -0
 471              		.cfi_startproc
 472              		@ args = 0, pretend = 0, frame = 0
 473              		@ frame_needed = 0, uses_anonymous_args = 0
 474              		@ link register save eliminated.
 408:Drivers/STM32F0xx_HAL_Driver/Src/stm32f0xx_hal_pcd.c ****   /* Prevent unused argument(s) compilation warning */
 409:Drivers/STM32F0xx_HAL_Driver/Src/stm32f0xx_hal_pcd.c ****   UNUSED(hpcd);
 475              		.loc 1 409 3 view .LVU126
 410:Drivers/STM32F0xx_HAL_Driver/Src/stm32f0xx_hal_pcd.c ****   UNUSED(epnum);
 476              		.loc 1 410 3 view .LVU127
 411:Drivers/STM32F0xx_HAL_Driver/Src/stm32f0xx_hal_pcd.c **** 
 412:Drivers/STM32F0xx_HAL_Driver/Src/stm32f0xx_hal_pcd.c ****   /* NOTE : This function Should not be modified, when the callback is needed,
ARM GAS  /var/folders/rf/wfq6hz5s56g3yh4wqgd7820c0000gn/T//ccBUdQBH.s 			page 18


 413:Drivers/STM32F0xx_HAL_Driver/Src/stm32f0xx_hal_pcd.c ****             the HAL_PCD_DataOutStageCallback could be implemented in the user file
 414:Drivers/STM32F0xx_HAL_Driver/Src/stm32f0xx_hal_pcd.c ****    */ 
 415:Drivers/STM32F0xx_HAL_Driver/Src/stm32f0xx_hal_pcd.c **** }
 477              		.loc 1 415 1 is_stmt 0 view .LVU128
 478              		@ sp needed
 479 0000 7047     		bx	lr
 480              		.cfi_endproc
 481              	.LFE44:
 483              		.section	.text.HAL_PCD_DataInStageCallback,"ax",%progbits
 484              		.align	1
 485              		.weak	HAL_PCD_DataInStageCallback
 486              		.syntax unified
 487              		.code	16
 488              		.thumb_func
 489              		.fpu softvfp
 491              	HAL_PCD_DataInStageCallback:
 492              	.LVL32:
 493              	.LFB45:
 416:Drivers/STM32F0xx_HAL_Driver/Src/stm32f0xx_hal_pcd.c **** 
 417:Drivers/STM32F0xx_HAL_Driver/Src/stm32f0xx_hal_pcd.c **** /**
 418:Drivers/STM32F0xx_HAL_Driver/Src/stm32f0xx_hal_pcd.c ****   * @brief  Data IN stage callbacks
 419:Drivers/STM32F0xx_HAL_Driver/Src/stm32f0xx_hal_pcd.c ****   * @param  hpcd PCD handle
 420:Drivers/STM32F0xx_HAL_Driver/Src/stm32f0xx_hal_pcd.c ****   * @param  epnum endpoint number
 421:Drivers/STM32F0xx_HAL_Driver/Src/stm32f0xx_hal_pcd.c ****   * @retval None
 422:Drivers/STM32F0xx_HAL_Driver/Src/stm32f0xx_hal_pcd.c ****   */
 423:Drivers/STM32F0xx_HAL_Driver/Src/stm32f0xx_hal_pcd.c ****  __weak void HAL_PCD_DataInStageCallback(PCD_HandleTypeDef *hpcd, uint8_t epnum)
 424:Drivers/STM32F0xx_HAL_Driver/Src/stm32f0xx_hal_pcd.c **** {
 494              		.loc 1 424 1 is_stmt 1 view -0
 495              		.cfi_startproc
 496              		@ args = 0, pretend = 0, frame = 0
 497              		@ frame_needed = 0, uses_anonymous_args = 0
 498              		@ link register save eliminated.
 425:Drivers/STM32F0xx_HAL_Driver/Src/stm32f0xx_hal_pcd.c ****   /* Prevent unused argument(s) compilation warning */
 426:Drivers/STM32F0xx_HAL_Driver/Src/stm32f0xx_hal_pcd.c ****   UNUSED(hpcd);
 499              		.loc 1 426 3 view .LVU130
 427:Drivers/STM32F0xx_HAL_Driver/Src/stm32f0xx_hal_pcd.c ****   UNUSED(epnum);
 500              		.loc 1 427 3 view .LVU131
 428:Drivers/STM32F0xx_HAL_Driver/Src/stm32f0xx_hal_pcd.c **** 
 429:Drivers/STM32F0xx_HAL_Driver/Src/stm32f0xx_hal_pcd.c ****   /* NOTE : This function Should not be modified, when the callback is needed,
 430:Drivers/STM32F0xx_HAL_Driver/Src/stm32f0xx_hal_pcd.c ****             the HAL_PCD_DataInStageCallback could be implemented in the user file
 431:Drivers/STM32F0xx_HAL_Driver/Src/stm32f0xx_hal_pcd.c ****    */ 
 432:Drivers/STM32F0xx_HAL_Driver/Src/stm32f0xx_hal_pcd.c **** }
 501              		.loc 1 432 1 is_stmt 0 view .LVU132
 502              		@ sp needed
 503 0000 7047     		bx	lr
 504              		.cfi_endproc
 505              	.LFE45:
 507              		.section	.text.HAL_PCD_SetupStageCallback,"ax",%progbits
 508              		.align	1
 509              		.weak	HAL_PCD_SetupStageCallback
 510              		.syntax unified
 511              		.code	16
 512              		.thumb_func
 513              		.fpu softvfp
 515              	HAL_PCD_SetupStageCallback:
 516              	.LVL33:
 517              	.LFB46:
ARM GAS  /var/folders/rf/wfq6hz5s56g3yh4wqgd7820c0000gn/T//ccBUdQBH.s 			page 19


 433:Drivers/STM32F0xx_HAL_Driver/Src/stm32f0xx_hal_pcd.c **** /**
 434:Drivers/STM32F0xx_HAL_Driver/Src/stm32f0xx_hal_pcd.c ****   * @brief  Setup stage callback
 435:Drivers/STM32F0xx_HAL_Driver/Src/stm32f0xx_hal_pcd.c ****   * @param  hpcd PCD handle
 436:Drivers/STM32F0xx_HAL_Driver/Src/stm32f0xx_hal_pcd.c ****   * @retval None
 437:Drivers/STM32F0xx_HAL_Driver/Src/stm32f0xx_hal_pcd.c ****   */
 438:Drivers/STM32F0xx_HAL_Driver/Src/stm32f0xx_hal_pcd.c ****  __weak void HAL_PCD_SetupStageCallback(PCD_HandleTypeDef *hpcd)
 439:Drivers/STM32F0xx_HAL_Driver/Src/stm32f0xx_hal_pcd.c **** {
 518              		.loc 1 439 1 is_stmt 1 view -0
 519              		.cfi_startproc
 520              		@ args = 0, pretend = 0, frame = 0
 521              		@ frame_needed = 0, uses_anonymous_args = 0
 522              		@ link register save eliminated.
 440:Drivers/STM32F0xx_HAL_Driver/Src/stm32f0xx_hal_pcd.c ****   /* Prevent unused argument(s) compilation warning */
 441:Drivers/STM32F0xx_HAL_Driver/Src/stm32f0xx_hal_pcd.c ****   UNUSED(hpcd);
 523              		.loc 1 441 3 view .LVU134
 442:Drivers/STM32F0xx_HAL_Driver/Src/stm32f0xx_hal_pcd.c **** 
 443:Drivers/STM32F0xx_HAL_Driver/Src/stm32f0xx_hal_pcd.c ****   /* NOTE : This function Should not be modified, when the callback is needed,
 444:Drivers/STM32F0xx_HAL_Driver/Src/stm32f0xx_hal_pcd.c ****             the HAL_PCD_SetupStageCallback could be implemented in the user file
 445:Drivers/STM32F0xx_HAL_Driver/Src/stm32f0xx_hal_pcd.c ****    */ 
 446:Drivers/STM32F0xx_HAL_Driver/Src/stm32f0xx_hal_pcd.c **** }
 524              		.loc 1 446 1 is_stmt 0 view .LVU135
 525              		@ sp needed
 526 0000 7047     		bx	lr
 527              		.cfi_endproc
 528              	.LFE46:
 530              		.section	.text.HAL_PCD_SOFCallback,"ax",%progbits
 531              		.align	1
 532              		.weak	HAL_PCD_SOFCallback
 533              		.syntax unified
 534              		.code	16
 535              		.thumb_func
 536              		.fpu softvfp
 538              	HAL_PCD_SOFCallback:
 539              	.LVL34:
 540              	.LFB47:
 447:Drivers/STM32F0xx_HAL_Driver/Src/stm32f0xx_hal_pcd.c **** 
 448:Drivers/STM32F0xx_HAL_Driver/Src/stm32f0xx_hal_pcd.c **** /**
 449:Drivers/STM32F0xx_HAL_Driver/Src/stm32f0xx_hal_pcd.c ****   * @brief  USB Start Of Frame callbacks
 450:Drivers/STM32F0xx_HAL_Driver/Src/stm32f0xx_hal_pcd.c ****   * @param  hpcd PCD handle
 451:Drivers/STM32F0xx_HAL_Driver/Src/stm32f0xx_hal_pcd.c ****   * @retval None
 452:Drivers/STM32F0xx_HAL_Driver/Src/stm32f0xx_hal_pcd.c ****   */
 453:Drivers/STM32F0xx_HAL_Driver/Src/stm32f0xx_hal_pcd.c ****  __weak void HAL_PCD_SOFCallback(PCD_HandleTypeDef *hpcd)
 454:Drivers/STM32F0xx_HAL_Driver/Src/stm32f0xx_hal_pcd.c **** {
 541              		.loc 1 454 1 is_stmt 1 view -0
 542              		.cfi_startproc
 543              		@ args = 0, pretend = 0, frame = 0
 544              		@ frame_needed = 0, uses_anonymous_args = 0
 545              		@ link register save eliminated.
 455:Drivers/STM32F0xx_HAL_Driver/Src/stm32f0xx_hal_pcd.c ****   /* Prevent unused argument(s) compilation warning */
 456:Drivers/STM32F0xx_HAL_Driver/Src/stm32f0xx_hal_pcd.c ****   UNUSED(hpcd);
 546              		.loc 1 456 3 view .LVU137
 457:Drivers/STM32F0xx_HAL_Driver/Src/stm32f0xx_hal_pcd.c **** 
 458:Drivers/STM32F0xx_HAL_Driver/Src/stm32f0xx_hal_pcd.c ****   /* NOTE : This function Should not be modified, when the callback is needed,
 459:Drivers/STM32F0xx_HAL_Driver/Src/stm32f0xx_hal_pcd.c ****             the HAL_PCD_SOFCallback could be implemented in the user file
 460:Drivers/STM32F0xx_HAL_Driver/Src/stm32f0xx_hal_pcd.c ****    */ 
 461:Drivers/STM32F0xx_HAL_Driver/Src/stm32f0xx_hal_pcd.c **** }
 547              		.loc 1 461 1 is_stmt 0 view .LVU138
ARM GAS  /var/folders/rf/wfq6hz5s56g3yh4wqgd7820c0000gn/T//ccBUdQBH.s 			page 20


 548              		@ sp needed
 549 0000 7047     		bx	lr
 550              		.cfi_endproc
 551              	.LFE47:
 553              		.section	.text.HAL_PCD_ResetCallback,"ax",%progbits
 554              		.align	1
 555              		.weak	HAL_PCD_ResetCallback
 556              		.syntax unified
 557              		.code	16
 558              		.thumb_func
 559              		.fpu softvfp
 561              	HAL_PCD_ResetCallback:
 562              	.LVL35:
 563              	.LFB48:
 462:Drivers/STM32F0xx_HAL_Driver/Src/stm32f0xx_hal_pcd.c **** 
 463:Drivers/STM32F0xx_HAL_Driver/Src/stm32f0xx_hal_pcd.c **** /**
 464:Drivers/STM32F0xx_HAL_Driver/Src/stm32f0xx_hal_pcd.c ****   * @brief  USB Reset callbacks
 465:Drivers/STM32F0xx_HAL_Driver/Src/stm32f0xx_hal_pcd.c ****   * @param  hpcd PCD handle
 466:Drivers/STM32F0xx_HAL_Driver/Src/stm32f0xx_hal_pcd.c ****   * @retval None
 467:Drivers/STM32F0xx_HAL_Driver/Src/stm32f0xx_hal_pcd.c ****   */
 468:Drivers/STM32F0xx_HAL_Driver/Src/stm32f0xx_hal_pcd.c ****  __weak void HAL_PCD_ResetCallback(PCD_HandleTypeDef *hpcd)
 469:Drivers/STM32F0xx_HAL_Driver/Src/stm32f0xx_hal_pcd.c **** {
 564              		.loc 1 469 1 is_stmt 1 view -0
 565              		.cfi_startproc
 566              		@ args = 0, pretend = 0, frame = 0
 567              		@ frame_needed = 0, uses_anonymous_args = 0
 568              		@ link register save eliminated.
 470:Drivers/STM32F0xx_HAL_Driver/Src/stm32f0xx_hal_pcd.c ****   /* Prevent unused argument(s) compilation warning */
 471:Drivers/STM32F0xx_HAL_Driver/Src/stm32f0xx_hal_pcd.c ****   UNUSED(hpcd);
 569              		.loc 1 471 3 view .LVU140
 472:Drivers/STM32F0xx_HAL_Driver/Src/stm32f0xx_hal_pcd.c **** 
 473:Drivers/STM32F0xx_HAL_Driver/Src/stm32f0xx_hal_pcd.c ****   /* NOTE : This function Should not be modified, when the callback is needed,
 474:Drivers/STM32F0xx_HAL_Driver/Src/stm32f0xx_hal_pcd.c ****             the HAL_PCD_ResetCallback could be implemented in the user file
 475:Drivers/STM32F0xx_HAL_Driver/Src/stm32f0xx_hal_pcd.c ****    */ 
 476:Drivers/STM32F0xx_HAL_Driver/Src/stm32f0xx_hal_pcd.c **** }
 570              		.loc 1 476 1 is_stmt 0 view .LVU141
 571              		@ sp needed
 572 0000 7047     		bx	lr
 573              		.cfi_endproc
 574              	.LFE48:
 576              		.section	.text.HAL_PCD_SuspendCallback,"ax",%progbits
 577              		.align	1
 578              		.weak	HAL_PCD_SuspendCallback
 579              		.syntax unified
 580              		.code	16
 581              		.thumb_func
 582              		.fpu softvfp
 584              	HAL_PCD_SuspendCallback:
 585              	.LVL36:
 586              	.LFB49:
 477:Drivers/STM32F0xx_HAL_Driver/Src/stm32f0xx_hal_pcd.c **** 
 478:Drivers/STM32F0xx_HAL_Driver/Src/stm32f0xx_hal_pcd.c **** /**
 479:Drivers/STM32F0xx_HAL_Driver/Src/stm32f0xx_hal_pcd.c ****   * @brief  Suspend event callbacks
 480:Drivers/STM32F0xx_HAL_Driver/Src/stm32f0xx_hal_pcd.c ****   * @param  hpcd PCD handle
 481:Drivers/STM32F0xx_HAL_Driver/Src/stm32f0xx_hal_pcd.c ****   * @retval None
 482:Drivers/STM32F0xx_HAL_Driver/Src/stm32f0xx_hal_pcd.c ****   */
 483:Drivers/STM32F0xx_HAL_Driver/Src/stm32f0xx_hal_pcd.c ****  __weak void HAL_PCD_SuspendCallback(PCD_HandleTypeDef *hpcd)
ARM GAS  /var/folders/rf/wfq6hz5s56g3yh4wqgd7820c0000gn/T//ccBUdQBH.s 			page 21


 484:Drivers/STM32F0xx_HAL_Driver/Src/stm32f0xx_hal_pcd.c **** {
 587              		.loc 1 484 1 is_stmt 1 view -0
 588              		.cfi_startproc
 589              		@ args = 0, pretend = 0, frame = 0
 590              		@ frame_needed = 0, uses_anonymous_args = 0
 591              		@ link register save eliminated.
 485:Drivers/STM32F0xx_HAL_Driver/Src/stm32f0xx_hal_pcd.c ****   /* Prevent unused argument(s) compilation warning */
 486:Drivers/STM32F0xx_HAL_Driver/Src/stm32f0xx_hal_pcd.c ****   UNUSED(hpcd);
 592              		.loc 1 486 3 view .LVU143
 487:Drivers/STM32F0xx_HAL_Driver/Src/stm32f0xx_hal_pcd.c **** 
 488:Drivers/STM32F0xx_HAL_Driver/Src/stm32f0xx_hal_pcd.c ****   /* NOTE : This function Should not be modified, when the callback is needed,
 489:Drivers/STM32F0xx_HAL_Driver/Src/stm32f0xx_hal_pcd.c ****             the HAL_PCD_SuspendCallback could be implemented in the user file
 490:Drivers/STM32F0xx_HAL_Driver/Src/stm32f0xx_hal_pcd.c ****    */ 
 491:Drivers/STM32F0xx_HAL_Driver/Src/stm32f0xx_hal_pcd.c **** }
 593              		.loc 1 491 1 is_stmt 0 view .LVU144
 594              		@ sp needed
 595 0000 7047     		bx	lr
 596              		.cfi_endproc
 597              	.LFE49:
 599              		.section	.text.HAL_PCD_ResumeCallback,"ax",%progbits
 600              		.align	1
 601              		.weak	HAL_PCD_ResumeCallback
 602              		.syntax unified
 603              		.code	16
 604              		.thumb_func
 605              		.fpu softvfp
 607              	HAL_PCD_ResumeCallback:
 608              	.LVL37:
 609              	.LFB50:
 492:Drivers/STM32F0xx_HAL_Driver/Src/stm32f0xx_hal_pcd.c **** 
 493:Drivers/STM32F0xx_HAL_Driver/Src/stm32f0xx_hal_pcd.c **** /**
 494:Drivers/STM32F0xx_HAL_Driver/Src/stm32f0xx_hal_pcd.c ****   * @brief  Resume event callbacks
 495:Drivers/STM32F0xx_HAL_Driver/Src/stm32f0xx_hal_pcd.c ****   * @param  hpcd PCD handle
 496:Drivers/STM32F0xx_HAL_Driver/Src/stm32f0xx_hal_pcd.c ****   * @retval None
 497:Drivers/STM32F0xx_HAL_Driver/Src/stm32f0xx_hal_pcd.c ****   */
 498:Drivers/STM32F0xx_HAL_Driver/Src/stm32f0xx_hal_pcd.c ****  __weak void HAL_PCD_ResumeCallback(PCD_HandleTypeDef *hpcd)
 499:Drivers/STM32F0xx_HAL_Driver/Src/stm32f0xx_hal_pcd.c **** {
 610              		.loc 1 499 1 is_stmt 1 view -0
 611              		.cfi_startproc
 612              		@ args = 0, pretend = 0, frame = 0
 613              		@ frame_needed = 0, uses_anonymous_args = 0
 614              		@ link register save eliminated.
 500:Drivers/STM32F0xx_HAL_Driver/Src/stm32f0xx_hal_pcd.c ****   /* Prevent unused argument(s) compilation warning */
 501:Drivers/STM32F0xx_HAL_Driver/Src/stm32f0xx_hal_pcd.c ****   UNUSED(hpcd);
 615              		.loc 1 501 3 view .LVU146
 502:Drivers/STM32F0xx_HAL_Driver/Src/stm32f0xx_hal_pcd.c **** 
 503:Drivers/STM32F0xx_HAL_Driver/Src/stm32f0xx_hal_pcd.c ****   /* NOTE : This function Should not be modified, when the callback is needed,
 504:Drivers/STM32F0xx_HAL_Driver/Src/stm32f0xx_hal_pcd.c ****             the HAL_PCD_ResumeCallback could be implemented in the user file
 505:Drivers/STM32F0xx_HAL_Driver/Src/stm32f0xx_hal_pcd.c ****    */ 
 506:Drivers/STM32F0xx_HAL_Driver/Src/stm32f0xx_hal_pcd.c **** }
 616              		.loc 1 506 1 is_stmt 0 view .LVU147
 617              		@ sp needed
 618 0000 7047     		bx	lr
 619              		.cfi_endproc
 620              	.LFE50:
 622              		.section	.text.HAL_PCD_ISOOUTIncompleteCallback,"ax",%progbits
 623              		.align	1
ARM GAS  /var/folders/rf/wfq6hz5s56g3yh4wqgd7820c0000gn/T//ccBUdQBH.s 			page 22


 624              		.weak	HAL_PCD_ISOOUTIncompleteCallback
 625              		.syntax unified
 626              		.code	16
 627              		.thumb_func
 628              		.fpu softvfp
 630              	HAL_PCD_ISOOUTIncompleteCallback:
 631              	.LVL38:
 632              	.LFB51:
 507:Drivers/STM32F0xx_HAL_Driver/Src/stm32f0xx_hal_pcd.c **** 
 508:Drivers/STM32F0xx_HAL_Driver/Src/stm32f0xx_hal_pcd.c **** /**
 509:Drivers/STM32F0xx_HAL_Driver/Src/stm32f0xx_hal_pcd.c ****   * @brief  Incomplete ISO OUT callbacks
 510:Drivers/STM32F0xx_HAL_Driver/Src/stm32f0xx_hal_pcd.c ****   * @param  hpcd PCD handle
 511:Drivers/STM32F0xx_HAL_Driver/Src/stm32f0xx_hal_pcd.c ****   * @param  epnum endpoint number
 512:Drivers/STM32F0xx_HAL_Driver/Src/stm32f0xx_hal_pcd.c ****   * @retval None
 513:Drivers/STM32F0xx_HAL_Driver/Src/stm32f0xx_hal_pcd.c ****   */
 514:Drivers/STM32F0xx_HAL_Driver/Src/stm32f0xx_hal_pcd.c ****  __weak void HAL_PCD_ISOOUTIncompleteCallback(PCD_HandleTypeDef *hpcd, uint8_t epnum)
 515:Drivers/STM32F0xx_HAL_Driver/Src/stm32f0xx_hal_pcd.c **** {
 633              		.loc 1 515 1 is_stmt 1 view -0
 634              		.cfi_startproc
 635              		@ args = 0, pretend = 0, frame = 0
 636              		@ frame_needed = 0, uses_anonymous_args = 0
 637              		@ link register save eliminated.
 516:Drivers/STM32F0xx_HAL_Driver/Src/stm32f0xx_hal_pcd.c ****   /* Prevent unused argument(s) compilation warning */
 517:Drivers/STM32F0xx_HAL_Driver/Src/stm32f0xx_hal_pcd.c ****   UNUSED(hpcd);
 638              		.loc 1 517 3 view .LVU149
 518:Drivers/STM32F0xx_HAL_Driver/Src/stm32f0xx_hal_pcd.c ****   UNUSED(epnum);
 639              		.loc 1 518 3 view .LVU150
 519:Drivers/STM32F0xx_HAL_Driver/Src/stm32f0xx_hal_pcd.c **** 
 520:Drivers/STM32F0xx_HAL_Driver/Src/stm32f0xx_hal_pcd.c ****   /* NOTE : This function Should not be modified, when the callback is needed,
 521:Drivers/STM32F0xx_HAL_Driver/Src/stm32f0xx_hal_pcd.c ****             the HAL_PCD_ISOOUTIncompleteCallback could be implemented in the user file
 522:Drivers/STM32F0xx_HAL_Driver/Src/stm32f0xx_hal_pcd.c ****    */ 
 523:Drivers/STM32F0xx_HAL_Driver/Src/stm32f0xx_hal_pcd.c **** }
 640              		.loc 1 523 1 is_stmt 0 view .LVU151
 641              		@ sp needed
 642 0000 7047     		bx	lr
 643              		.cfi_endproc
 644              	.LFE51:
 646              		.section	.text.HAL_PCD_ISOINIncompleteCallback,"ax",%progbits
 647              		.align	1
 648              		.weak	HAL_PCD_ISOINIncompleteCallback
 649              		.syntax unified
 650              		.code	16
 651              		.thumb_func
 652              		.fpu softvfp
 654              	HAL_PCD_ISOINIncompleteCallback:
 655              	.LVL39:
 656              	.LFB52:
 524:Drivers/STM32F0xx_HAL_Driver/Src/stm32f0xx_hal_pcd.c **** 
 525:Drivers/STM32F0xx_HAL_Driver/Src/stm32f0xx_hal_pcd.c **** /**
 526:Drivers/STM32F0xx_HAL_Driver/Src/stm32f0xx_hal_pcd.c ****   * @brief  Incomplete ISO IN  callbacks
 527:Drivers/STM32F0xx_HAL_Driver/Src/stm32f0xx_hal_pcd.c ****   * @param  hpcd PCD handle
 528:Drivers/STM32F0xx_HAL_Driver/Src/stm32f0xx_hal_pcd.c ****   * @param  epnum endpoint number
 529:Drivers/STM32F0xx_HAL_Driver/Src/stm32f0xx_hal_pcd.c ****   * @retval None
 530:Drivers/STM32F0xx_HAL_Driver/Src/stm32f0xx_hal_pcd.c ****   */
 531:Drivers/STM32F0xx_HAL_Driver/Src/stm32f0xx_hal_pcd.c ****  __weak void HAL_PCD_ISOINIncompleteCallback(PCD_HandleTypeDef *hpcd, uint8_t epnum)
 532:Drivers/STM32F0xx_HAL_Driver/Src/stm32f0xx_hal_pcd.c **** {
 657              		.loc 1 532 1 is_stmt 1 view -0
ARM GAS  /var/folders/rf/wfq6hz5s56g3yh4wqgd7820c0000gn/T//ccBUdQBH.s 			page 23


 658              		.cfi_startproc
 659              		@ args = 0, pretend = 0, frame = 0
 660              		@ frame_needed = 0, uses_anonymous_args = 0
 661              		@ link register save eliminated.
 533:Drivers/STM32F0xx_HAL_Driver/Src/stm32f0xx_hal_pcd.c ****   /* Prevent unused argument(s) compilation warning */
 534:Drivers/STM32F0xx_HAL_Driver/Src/stm32f0xx_hal_pcd.c ****   UNUSED(hpcd);
 662              		.loc 1 534 3 view .LVU153
 535:Drivers/STM32F0xx_HAL_Driver/Src/stm32f0xx_hal_pcd.c ****   UNUSED(epnum);
 663              		.loc 1 535 3 view .LVU154
 536:Drivers/STM32F0xx_HAL_Driver/Src/stm32f0xx_hal_pcd.c **** 
 537:Drivers/STM32F0xx_HAL_Driver/Src/stm32f0xx_hal_pcd.c ****   /* NOTE : This function Should not be modified, when the callback is needed,
 538:Drivers/STM32F0xx_HAL_Driver/Src/stm32f0xx_hal_pcd.c ****             the HAL_PCD_ISOINIncompleteCallback could be implemented in the user file
 539:Drivers/STM32F0xx_HAL_Driver/Src/stm32f0xx_hal_pcd.c ****    */ 
 540:Drivers/STM32F0xx_HAL_Driver/Src/stm32f0xx_hal_pcd.c **** }
 664              		.loc 1 540 1 is_stmt 0 view .LVU155
 665              		@ sp needed
 666 0000 7047     		bx	lr
 667              		.cfi_endproc
 668              	.LFE52:
 670              		.section	.text.HAL_PCD_ConnectCallback,"ax",%progbits
 671              		.align	1
 672              		.weak	HAL_PCD_ConnectCallback
 673              		.syntax unified
 674              		.code	16
 675              		.thumb_func
 676              		.fpu softvfp
 678              	HAL_PCD_ConnectCallback:
 679              	.LVL40:
 680              	.LFB53:
 541:Drivers/STM32F0xx_HAL_Driver/Src/stm32f0xx_hal_pcd.c **** 
 542:Drivers/STM32F0xx_HAL_Driver/Src/stm32f0xx_hal_pcd.c **** /**
 543:Drivers/STM32F0xx_HAL_Driver/Src/stm32f0xx_hal_pcd.c ****   * @brief  Connection event callbacks
 544:Drivers/STM32F0xx_HAL_Driver/Src/stm32f0xx_hal_pcd.c ****   * @param  hpcd PCD handle
 545:Drivers/STM32F0xx_HAL_Driver/Src/stm32f0xx_hal_pcd.c ****   * @retval None
 546:Drivers/STM32F0xx_HAL_Driver/Src/stm32f0xx_hal_pcd.c ****   */
 547:Drivers/STM32F0xx_HAL_Driver/Src/stm32f0xx_hal_pcd.c ****  __weak void HAL_PCD_ConnectCallback(PCD_HandleTypeDef *hpcd)
 548:Drivers/STM32F0xx_HAL_Driver/Src/stm32f0xx_hal_pcd.c **** {
 681              		.loc 1 548 1 is_stmt 1 view -0
 682              		.cfi_startproc
 683              		@ args = 0, pretend = 0, frame = 0
 684              		@ frame_needed = 0, uses_anonymous_args = 0
 685              		@ link register save eliminated.
 549:Drivers/STM32F0xx_HAL_Driver/Src/stm32f0xx_hal_pcd.c ****   /* Prevent unused argument(s) compilation warning */
 550:Drivers/STM32F0xx_HAL_Driver/Src/stm32f0xx_hal_pcd.c ****   UNUSED(hpcd);
 686              		.loc 1 550 3 view .LVU157
 551:Drivers/STM32F0xx_HAL_Driver/Src/stm32f0xx_hal_pcd.c **** 
 552:Drivers/STM32F0xx_HAL_Driver/Src/stm32f0xx_hal_pcd.c ****   /* NOTE : This function Should not be modified, when the callback is needed,
 553:Drivers/STM32F0xx_HAL_Driver/Src/stm32f0xx_hal_pcd.c ****             the HAL_PCD_ConnectCallback could be implemented in the user file
 554:Drivers/STM32F0xx_HAL_Driver/Src/stm32f0xx_hal_pcd.c ****    */ 
 555:Drivers/STM32F0xx_HAL_Driver/Src/stm32f0xx_hal_pcd.c **** }
 687              		.loc 1 555 1 is_stmt 0 view .LVU158
 688              		@ sp needed
 689 0000 7047     		bx	lr
 690              		.cfi_endproc
 691              	.LFE53:
 693              		.section	.text.HAL_PCD_DisconnectCallback,"ax",%progbits
 694              		.align	1
ARM GAS  /var/folders/rf/wfq6hz5s56g3yh4wqgd7820c0000gn/T//ccBUdQBH.s 			page 24


 695              		.weak	HAL_PCD_DisconnectCallback
 696              		.syntax unified
 697              		.code	16
 698              		.thumb_func
 699              		.fpu softvfp
 701              	HAL_PCD_DisconnectCallback:
 702              	.LVL41:
 703              	.LFB54:
 556:Drivers/STM32F0xx_HAL_Driver/Src/stm32f0xx_hal_pcd.c **** 
 557:Drivers/STM32F0xx_HAL_Driver/Src/stm32f0xx_hal_pcd.c **** /**
 558:Drivers/STM32F0xx_HAL_Driver/Src/stm32f0xx_hal_pcd.c ****   * @brief  Disconnection event callbacks
 559:Drivers/STM32F0xx_HAL_Driver/Src/stm32f0xx_hal_pcd.c ****   * @param  hpcd PCD handle
 560:Drivers/STM32F0xx_HAL_Driver/Src/stm32f0xx_hal_pcd.c ****   * @retval None
 561:Drivers/STM32F0xx_HAL_Driver/Src/stm32f0xx_hal_pcd.c ****   */
 562:Drivers/STM32F0xx_HAL_Driver/Src/stm32f0xx_hal_pcd.c ****  __weak void HAL_PCD_DisconnectCallback(PCD_HandleTypeDef *hpcd)
 563:Drivers/STM32F0xx_HAL_Driver/Src/stm32f0xx_hal_pcd.c **** {
 704              		.loc 1 563 1 is_stmt 1 view -0
 705              		.cfi_startproc
 706              		@ args = 0, pretend = 0, frame = 0
 707              		@ frame_needed = 0, uses_anonymous_args = 0
 708              		@ link register save eliminated.
 564:Drivers/STM32F0xx_HAL_Driver/Src/stm32f0xx_hal_pcd.c ****   /* Prevent unused argument(s) compilation warning */
 565:Drivers/STM32F0xx_HAL_Driver/Src/stm32f0xx_hal_pcd.c ****   UNUSED(hpcd);
 709              		.loc 1 565 3 view .LVU160
 566:Drivers/STM32F0xx_HAL_Driver/Src/stm32f0xx_hal_pcd.c **** 
 567:Drivers/STM32F0xx_HAL_Driver/Src/stm32f0xx_hal_pcd.c ****   /* NOTE : This function Should not be modified, when the callback is needed,
 568:Drivers/STM32F0xx_HAL_Driver/Src/stm32f0xx_hal_pcd.c ****             the HAL_PCD_DisconnectCallback could be implemented in the user file
 569:Drivers/STM32F0xx_HAL_Driver/Src/stm32f0xx_hal_pcd.c ****    */ 
 570:Drivers/STM32F0xx_HAL_Driver/Src/stm32f0xx_hal_pcd.c **** }
 710              		.loc 1 570 1 is_stmt 0 view .LVU161
 711              		@ sp needed
 712 0000 7047     		bx	lr
 713              		.cfi_endproc
 714              	.LFE54:
 716              		.section	.text.HAL_PCD_DevConnect,"ax",%progbits
 717              		.align	1
 718              		.global	HAL_PCD_DevConnect
 719              		.syntax unified
 720              		.code	16
 721              		.thumb_func
 722              		.fpu softvfp
 724              	HAL_PCD_DevConnect:
 725              	.LVL42:
 726              	.LFB55:
 571:Drivers/STM32F0xx_HAL_Driver/Src/stm32f0xx_hal_pcd.c **** /**
 572:Drivers/STM32F0xx_HAL_Driver/Src/stm32f0xx_hal_pcd.c ****   * @}
 573:Drivers/STM32F0xx_HAL_Driver/Src/stm32f0xx_hal_pcd.c ****   */
 574:Drivers/STM32F0xx_HAL_Driver/Src/stm32f0xx_hal_pcd.c ****     
 575:Drivers/STM32F0xx_HAL_Driver/Src/stm32f0xx_hal_pcd.c **** /** @defgroup PCD_Exported_Functions_Group3 Peripheral Control functions 
 576:Drivers/STM32F0xx_HAL_Driver/Src/stm32f0xx_hal_pcd.c ****  *  @brief   management functions 
 577:Drivers/STM32F0xx_HAL_Driver/Src/stm32f0xx_hal_pcd.c ****  *
 578:Drivers/STM32F0xx_HAL_Driver/Src/stm32f0xx_hal_pcd.c **** @verbatim   
 579:Drivers/STM32F0xx_HAL_Driver/Src/stm32f0xx_hal_pcd.c ****  ===============================================================================
 580:Drivers/STM32F0xx_HAL_Driver/Src/stm32f0xx_hal_pcd.c ****                       ##### Peripheral Control functions #####
 581:Drivers/STM32F0xx_HAL_Driver/Src/stm32f0xx_hal_pcd.c ****  ===============================================================================  
 582:Drivers/STM32F0xx_HAL_Driver/Src/stm32f0xx_hal_pcd.c ****     [..]
 583:Drivers/STM32F0xx_HAL_Driver/Src/stm32f0xx_hal_pcd.c ****     This subsection provides a set of functions allowing to control the PCD data 
ARM GAS  /var/folders/rf/wfq6hz5s56g3yh4wqgd7820c0000gn/T//ccBUdQBH.s 			page 25


 584:Drivers/STM32F0xx_HAL_Driver/Src/stm32f0xx_hal_pcd.c ****     transfers.
 585:Drivers/STM32F0xx_HAL_Driver/Src/stm32f0xx_hal_pcd.c **** 
 586:Drivers/STM32F0xx_HAL_Driver/Src/stm32f0xx_hal_pcd.c **** @endverbatim
 587:Drivers/STM32F0xx_HAL_Driver/Src/stm32f0xx_hal_pcd.c ****   * @{
 588:Drivers/STM32F0xx_HAL_Driver/Src/stm32f0xx_hal_pcd.c ****   */
 589:Drivers/STM32F0xx_HAL_Driver/Src/stm32f0xx_hal_pcd.c **** 
 590:Drivers/STM32F0xx_HAL_Driver/Src/stm32f0xx_hal_pcd.c **** /**
 591:Drivers/STM32F0xx_HAL_Driver/Src/stm32f0xx_hal_pcd.c ****   * @brief  Connect the USB device 
 592:Drivers/STM32F0xx_HAL_Driver/Src/stm32f0xx_hal_pcd.c ****   * @param  hpcd PCD handle
 593:Drivers/STM32F0xx_HAL_Driver/Src/stm32f0xx_hal_pcd.c ****   * @retval HAL status
 594:Drivers/STM32F0xx_HAL_Driver/Src/stm32f0xx_hal_pcd.c ****   */
 595:Drivers/STM32F0xx_HAL_Driver/Src/stm32f0xx_hal_pcd.c **** HAL_StatusTypeDef HAL_PCD_DevConnect(PCD_HandleTypeDef *hpcd)
 596:Drivers/STM32F0xx_HAL_Driver/Src/stm32f0xx_hal_pcd.c **** {
 727              		.loc 1 596 1 is_stmt 1 view -0
 728              		.cfi_startproc
 729              		@ args = 0, pretend = 0, frame = 0
 730              		@ frame_needed = 0, uses_anonymous_args = 0
 731              		.loc 1 596 1 is_stmt 0 view .LVU163
 732 0000 30B5     		push	{r4, r5, lr}
 733              	.LCFI3:
 734              		.cfi_def_cfa_offset 12
 735              		.cfi_offset 4, -12
 736              		.cfi_offset 5, -8
 737              		.cfi_offset 14, -4
 597:Drivers/STM32F0xx_HAL_Driver/Src/stm32f0xx_hal_pcd.c ****   __HAL_LOCK(hpcd); 
 738              		.loc 1 597 3 is_stmt 1 view .LVU164
 739              		.loc 1 597 3 view .LVU165
 740 0002 F423     		movs	r3, #244
 741 0004 5B00     		lsls	r3, r3, #1
 742 0006 C35C     		ldrb	r3, [r0, r3]
 743 0008 012B     		cmp	r3, #1
 744 000a 0ED0     		beq	.L37
 745              		.loc 1 597 3 discriminator 2 view .LVU166
 746 000c F422     		movs	r2, #244
 747 000e 5200     		lsls	r2, r2, #1
 748 0010 0123     		movs	r3, #1
 749 0012 8354     		strb	r3, [r0, r2]
 750              		.loc 1 597 3 discriminator 2 view .LVU167
 598:Drivers/STM32F0xx_HAL_Driver/Src/stm32f0xx_hal_pcd.c ****   
 599:Drivers/STM32F0xx_HAL_Driver/Src/stm32f0xx_hal_pcd.c ****   /* Enabling DP Pull-Down bit to Connect internal pull-up on USB DP line */
 600:Drivers/STM32F0xx_HAL_Driver/Src/stm32f0xx_hal_pcd.c ****   hpcd->Instance->BCDR |= USB_BCDR_DPPU;
 751              		.loc 1 600 3 discriminator 2 view .LVU168
 752              		.loc 1 600 7 is_stmt 0 discriminator 2 view .LVU169
 753 0014 0468     		ldr	r4, [r0]
 754              		.loc 1 600 24 discriminator 2 view .LVU170
 755 0016 5821     		movs	r1, #88
 756 0018 635A     		ldrh	r3, [r4, r1]
 757 001a 054D     		ldr	r5, .L38
 758 001c 2B43     		orrs	r3, r5
 759 001e 9BB2     		uxth	r3, r3
 760 0020 6352     		strh	r3, [r4, r1]
 601:Drivers/STM32F0xx_HAL_Driver/Src/stm32f0xx_hal_pcd.c ****   
 602:Drivers/STM32F0xx_HAL_Driver/Src/stm32f0xx_hal_pcd.c ****   __HAL_UNLOCK(hpcd); 
 761              		.loc 1 602 3 is_stmt 1 discriminator 2 view .LVU171
 762              		.loc 1 602 3 discriminator 2 view .LVU172
 763 0022 0023     		movs	r3, #0
 764 0024 8354     		strb	r3, [r0, r2]
ARM GAS  /var/folders/rf/wfq6hz5s56g3yh4wqgd7820c0000gn/T//ccBUdQBH.s 			page 26


 765              		.loc 1 602 3 discriminator 2 view .LVU173
 603:Drivers/STM32F0xx_HAL_Driver/Src/stm32f0xx_hal_pcd.c ****   return HAL_OK;
 766              		.loc 1 603 3 discriminator 2 view .LVU174
 767              		.loc 1 603 10 is_stmt 0 discriminator 2 view .LVU175
 768 0026 0020     		movs	r0, #0
 769              	.LVL43:
 770              	.L36:
 604:Drivers/STM32F0xx_HAL_Driver/Src/stm32f0xx_hal_pcd.c **** }
 771              		.loc 1 604 1 view .LVU176
 772              		@ sp needed
 773 0028 30BD     		pop	{r4, r5, pc}
 774              	.LVL44:
 775              	.L37:
 597:Drivers/STM32F0xx_HAL_Driver/Src/stm32f0xx_hal_pcd.c ****   
 776              		.loc 1 597 3 view .LVU177
 777 002a 0220     		movs	r0, #2
 778              	.LVL45:
 597:Drivers/STM32F0xx_HAL_Driver/Src/stm32f0xx_hal_pcd.c ****   
 779              		.loc 1 597 3 view .LVU178
 780 002c FCE7     		b	.L36
 781              	.L39:
 782 002e C046     		.align	2
 783              	.L38:
 784 0030 0080FFFF 		.word	-32768
 785              		.cfi_endproc
 786              	.LFE55:
 788              		.section	.text.HAL_PCD_DevDisconnect,"ax",%progbits
 789              		.align	1
 790              		.global	HAL_PCD_DevDisconnect
 791              		.syntax unified
 792              		.code	16
 793              		.thumb_func
 794              		.fpu softvfp
 796              	HAL_PCD_DevDisconnect:
 797              	.LVL46:
 798              	.LFB56:
 605:Drivers/STM32F0xx_HAL_Driver/Src/stm32f0xx_hal_pcd.c **** 
 606:Drivers/STM32F0xx_HAL_Driver/Src/stm32f0xx_hal_pcd.c **** /**
 607:Drivers/STM32F0xx_HAL_Driver/Src/stm32f0xx_hal_pcd.c ****   * @brief  Disconnect the USB device 
 608:Drivers/STM32F0xx_HAL_Driver/Src/stm32f0xx_hal_pcd.c ****   * @param  hpcd PCD handle
 609:Drivers/STM32F0xx_HAL_Driver/Src/stm32f0xx_hal_pcd.c ****   * @retval HAL status
 610:Drivers/STM32F0xx_HAL_Driver/Src/stm32f0xx_hal_pcd.c ****   */
 611:Drivers/STM32F0xx_HAL_Driver/Src/stm32f0xx_hal_pcd.c **** HAL_StatusTypeDef HAL_PCD_DevDisconnect(PCD_HandleTypeDef *hpcd)
 612:Drivers/STM32F0xx_HAL_Driver/Src/stm32f0xx_hal_pcd.c **** {
 799              		.loc 1 612 1 is_stmt 1 view -0
 800              		.cfi_startproc
 801              		@ args = 0, pretend = 0, frame = 0
 802              		@ frame_needed = 0, uses_anonymous_args = 0
 803              		.loc 1 612 1 is_stmt 0 view .LVU180
 804 0000 10B5     		push	{r4, lr}
 805              	.LCFI4:
 806              		.cfi_def_cfa_offset 8
 807              		.cfi_offset 4, -8
 808              		.cfi_offset 14, -4
 613:Drivers/STM32F0xx_HAL_Driver/Src/stm32f0xx_hal_pcd.c ****   __HAL_LOCK(hpcd); 
 809              		.loc 1 613 3 is_stmt 1 view .LVU181
 810              		.loc 1 613 3 view .LVU182
ARM GAS  /var/folders/rf/wfq6hz5s56g3yh4wqgd7820c0000gn/T//ccBUdQBH.s 			page 27


 811 0002 F423     		movs	r3, #244
 812 0004 5B00     		lsls	r3, r3, #1
 813 0006 C35C     		ldrb	r3, [r0, r3]
 814 0008 012B     		cmp	r3, #1
 815 000a 0DD0     		beq	.L42
 816              		.loc 1 613 3 discriminator 2 view .LVU183
 817 000c F422     		movs	r2, #244
 818 000e 5200     		lsls	r2, r2, #1
 819 0010 0123     		movs	r3, #1
 820 0012 8354     		strb	r3, [r0, r2]
 821              		.loc 1 613 3 discriminator 2 view .LVU184
 614:Drivers/STM32F0xx_HAL_Driver/Src/stm32f0xx_hal_pcd.c ****   
 615:Drivers/STM32F0xx_HAL_Driver/Src/stm32f0xx_hal_pcd.c ****   /* Disable DP Pull-Down bit*/
 616:Drivers/STM32F0xx_HAL_Driver/Src/stm32f0xx_hal_pcd.c ****    hpcd->Instance->BCDR &= (uint16_t)(~(USB_BCDR_DPPU));
 822              		.loc 1 616 4 discriminator 2 view .LVU185
 823              		.loc 1 616 8 is_stmt 0 discriminator 2 view .LVU186
 824 0014 0468     		ldr	r4, [r0]
 825              		.loc 1 616 25 discriminator 2 view .LVU187
 826 0016 5821     		movs	r1, #88
 827 0018 635A     		ldrh	r3, [r4, r1]
 828 001a 5B04     		lsls	r3, r3, #17
 829 001c 5B0C     		lsrs	r3, r3, #17
 830 001e 6352     		strh	r3, [r4, r1]
 617:Drivers/STM32F0xx_HAL_Driver/Src/stm32f0xx_hal_pcd.c ****   
 618:Drivers/STM32F0xx_HAL_Driver/Src/stm32f0xx_hal_pcd.c ****   __HAL_UNLOCK(hpcd); 
 831              		.loc 1 618 3 is_stmt 1 discriminator 2 view .LVU188
 832              		.loc 1 618 3 discriminator 2 view .LVU189
 833 0020 0023     		movs	r3, #0
 834 0022 8354     		strb	r3, [r0, r2]
 835              		.loc 1 618 3 discriminator 2 view .LVU190
 619:Drivers/STM32F0xx_HAL_Driver/Src/stm32f0xx_hal_pcd.c ****   return HAL_OK;
 836              		.loc 1 619 3 discriminator 2 view .LVU191
 837              		.loc 1 619 10 is_stmt 0 discriminator 2 view .LVU192
 838 0024 0020     		movs	r0, #0
 839              	.LVL47:
 840              	.L41:
 620:Drivers/STM32F0xx_HAL_Driver/Src/stm32f0xx_hal_pcd.c **** }
 841              		.loc 1 620 1 view .LVU193
 842              		@ sp needed
 843 0026 10BD     		pop	{r4, pc}
 844              	.LVL48:
 845              	.L42:
 613:Drivers/STM32F0xx_HAL_Driver/Src/stm32f0xx_hal_pcd.c ****   
 846              		.loc 1 613 3 view .LVU194
 847 0028 0220     		movs	r0, #2
 848              	.LVL49:
 613:Drivers/STM32F0xx_HAL_Driver/Src/stm32f0xx_hal_pcd.c ****   
 849              		.loc 1 613 3 view .LVU195
 850 002a FCE7     		b	.L41
 851              		.cfi_endproc
 852              	.LFE56:
 854              		.section	.text.HAL_PCD_SetAddress,"ax",%progbits
 855              		.align	1
 856              		.global	HAL_PCD_SetAddress
 857              		.syntax unified
 858              		.code	16
 859              		.thumb_func
ARM GAS  /var/folders/rf/wfq6hz5s56g3yh4wqgd7820c0000gn/T//ccBUdQBH.s 			page 28


 860              		.fpu softvfp
 862              	HAL_PCD_SetAddress:
 863              	.LVL50:
 864              	.LFB57:
 621:Drivers/STM32F0xx_HAL_Driver/Src/stm32f0xx_hal_pcd.c **** 
 622:Drivers/STM32F0xx_HAL_Driver/Src/stm32f0xx_hal_pcd.c **** /**
 623:Drivers/STM32F0xx_HAL_Driver/Src/stm32f0xx_hal_pcd.c ****   * @brief  Set the USB Device address 
 624:Drivers/STM32F0xx_HAL_Driver/Src/stm32f0xx_hal_pcd.c ****   * @param  hpcd PCD handle
 625:Drivers/STM32F0xx_HAL_Driver/Src/stm32f0xx_hal_pcd.c ****   * @param  address new device address
 626:Drivers/STM32F0xx_HAL_Driver/Src/stm32f0xx_hal_pcd.c ****   * @retval HAL status
 627:Drivers/STM32F0xx_HAL_Driver/Src/stm32f0xx_hal_pcd.c ****   */
 628:Drivers/STM32F0xx_HAL_Driver/Src/stm32f0xx_hal_pcd.c **** HAL_StatusTypeDef HAL_PCD_SetAddress(PCD_HandleTypeDef *hpcd, uint8_t address)
 629:Drivers/STM32F0xx_HAL_Driver/Src/stm32f0xx_hal_pcd.c **** {
 865              		.loc 1 629 1 is_stmt 1 view -0
 866              		.cfi_startproc
 867              		@ args = 0, pretend = 0, frame = 0
 868              		@ frame_needed = 0, uses_anonymous_args = 0
 869              		@ link register save eliminated.
 630:Drivers/STM32F0xx_HAL_Driver/Src/stm32f0xx_hal_pcd.c ****    __HAL_LOCK(hpcd); 
 870              		.loc 1 630 4 view .LVU197
 871              		.loc 1 630 4 view .LVU198
 872 0000 F423     		movs	r3, #244
 873 0002 5B00     		lsls	r3, r3, #1
 874 0004 C35C     		ldrb	r3, [r0, r3]
 875 0006 012B     		cmp	r3, #1
 876 0008 13D0     		beq	.L47
 877              		.loc 1 630 4 discriminator 2 view .LVU199
 878 000a F423     		movs	r3, #244
 879 000c 5B00     		lsls	r3, r3, #1
 880 000e 0122     		movs	r2, #1
 881 0010 C254     		strb	r2, [r0, r3]
 882              		.loc 1 630 4 discriminator 2 view .LVU200
 631:Drivers/STM32F0xx_HAL_Driver/Src/stm32f0xx_hal_pcd.c **** 
 632:Drivers/STM32F0xx_HAL_Driver/Src/stm32f0xx_hal_pcd.c ****    if(address == 0U) 
 883              		.loc 1 632 4 discriminator 2 view .LVU201
 884              		.loc 1 632 6 is_stmt 0 discriminator 2 view .LVU202
 885 0012 0029     		cmp	r1, #0
 886 0014 0AD1     		bne	.L45
 633:Drivers/STM32F0xx_HAL_Driver/Src/stm32f0xx_hal_pcd.c ****    {
 634:Drivers/STM32F0xx_HAL_Driver/Src/stm32f0xx_hal_pcd.c ****      /* set device address and enable function */
 635:Drivers/STM32F0xx_HAL_Driver/Src/stm32f0xx_hal_pcd.c ****      hpcd->Instance->DADDR = USB_DADDR_EF;
 887              		.loc 1 635 6 is_stmt 1 view .LVU203
 888              		.loc 1 635 28 is_stmt 0 view .LVU204
 889 0016 9D3B     		subs	r3, r3, #157
 890 0018 FF3B     		subs	r3, r3, #255
 891 001a 7F32     		adds	r2, r2, #127
 892 001c 0168     		ldr	r1, [r0]
 893              	.LVL51:
 894              		.loc 1 635 28 view .LVU205
 895 001e CA52     		strh	r2, [r1, r3]
 896              	.L46:
 636:Drivers/STM32F0xx_HAL_Driver/Src/stm32f0xx_hal_pcd.c ****    }
 637:Drivers/STM32F0xx_HAL_Driver/Src/stm32f0xx_hal_pcd.c ****    else /* USB Address will be applied later */
 638:Drivers/STM32F0xx_HAL_Driver/Src/stm32f0xx_hal_pcd.c ****    {
 639:Drivers/STM32F0xx_HAL_Driver/Src/stm32f0xx_hal_pcd.c ****      hpcd->USB_Address = address;
 640:Drivers/STM32F0xx_HAL_Driver/Src/stm32f0xx_hal_pcd.c ****    }
 641:Drivers/STM32F0xx_HAL_Driver/Src/stm32f0xx_hal_pcd.c **** 
ARM GAS  /var/folders/rf/wfq6hz5s56g3yh4wqgd7820c0000gn/T//ccBUdQBH.s 			page 29


 642:Drivers/STM32F0xx_HAL_Driver/Src/stm32f0xx_hal_pcd.c ****   __HAL_UNLOCK(hpcd);   
 897              		.loc 1 642 3 is_stmt 1 view .LVU206
 898              		.loc 1 642 3 view .LVU207
 899 0020 F423     		movs	r3, #244
 900 0022 5B00     		lsls	r3, r3, #1
 901 0024 0022     		movs	r2, #0
 902 0026 C254     		strb	r2, [r0, r3]
 903              		.loc 1 642 3 view .LVU208
 643:Drivers/STM32F0xx_HAL_Driver/Src/stm32f0xx_hal_pcd.c ****   return HAL_OK;
 904              		.loc 1 643 3 view .LVU209
 905              		.loc 1 643 10 is_stmt 0 view .LVU210
 906 0028 0020     		movs	r0, #0
 907              	.LVL52:
 908              	.L44:
 644:Drivers/STM32F0xx_HAL_Driver/Src/stm32f0xx_hal_pcd.c **** }
 909              		.loc 1 644 1 view .LVU211
 910              		@ sp needed
 911 002a 7047     		bx	lr
 912              	.LVL53:
 913              	.L45:
 639:Drivers/STM32F0xx_HAL_Driver/Src/stm32f0xx_hal_pcd.c ****    }
 914              		.loc 1 639 6 is_stmt 1 view .LVU212
 639:Drivers/STM32F0xx_HAL_Driver/Src/stm32f0xx_hal_pcd.c ****    }
 915              		.loc 1 639 24 is_stmt 0 view .LVU213
 916 002c 2423     		movs	r3, #36
 917 002e C154     		strb	r1, [r0, r3]
 918 0030 F6E7     		b	.L46
 919              	.L47:
 630:Drivers/STM32F0xx_HAL_Driver/Src/stm32f0xx_hal_pcd.c **** 
 920              		.loc 1 630 4 view .LVU214
 921 0032 0220     		movs	r0, #2
 922              	.LVL54:
 630:Drivers/STM32F0xx_HAL_Driver/Src/stm32f0xx_hal_pcd.c **** 
 923              		.loc 1 630 4 view .LVU215
 924 0034 F9E7     		b	.L44
 925              		.cfi_endproc
 926              	.LFE57:
 928              		.section	.text.HAL_PCD_EP_Open,"ax",%progbits
 929              		.align	1
 930              		.global	HAL_PCD_EP_Open
 931              		.syntax unified
 932              		.code	16
 933              		.thumb_func
 934              		.fpu softvfp
 936              	HAL_PCD_EP_Open:
 937              	.LVL55:
 938              	.LFB58:
 645:Drivers/STM32F0xx_HAL_Driver/Src/stm32f0xx_hal_pcd.c **** /**
 646:Drivers/STM32F0xx_HAL_Driver/Src/stm32f0xx_hal_pcd.c ****   * @brief  Open and configure an endpoint
 647:Drivers/STM32F0xx_HAL_Driver/Src/stm32f0xx_hal_pcd.c ****   * @param  hpcd PCD handle
 648:Drivers/STM32F0xx_HAL_Driver/Src/stm32f0xx_hal_pcd.c ****   * @param  ep_addr endpoint address
 649:Drivers/STM32F0xx_HAL_Driver/Src/stm32f0xx_hal_pcd.c ****   * @param  ep_mps endpoint max packert size
 650:Drivers/STM32F0xx_HAL_Driver/Src/stm32f0xx_hal_pcd.c ****   * @param  ep_type endpoint type   
 651:Drivers/STM32F0xx_HAL_Driver/Src/stm32f0xx_hal_pcd.c ****   * @retval HAL status
 652:Drivers/STM32F0xx_HAL_Driver/Src/stm32f0xx_hal_pcd.c ****   */
 653:Drivers/STM32F0xx_HAL_Driver/Src/stm32f0xx_hal_pcd.c **** HAL_StatusTypeDef HAL_PCD_EP_Open(PCD_HandleTypeDef *hpcd, uint8_t ep_addr, uint16_t ep_mps, uint8_
 654:Drivers/STM32F0xx_HAL_Driver/Src/stm32f0xx_hal_pcd.c **** {
ARM GAS  /var/folders/rf/wfq6hz5s56g3yh4wqgd7820c0000gn/T//ccBUdQBH.s 			page 30


 939              		.loc 1 654 1 is_stmt 1 view -0
 940              		.cfi_startproc
 941              		@ args = 0, pretend = 0, frame = 0
 942              		@ frame_needed = 0, uses_anonymous_args = 0
 943              		.loc 1 654 1 is_stmt 0 view .LVU217
 944 0000 F0B5     		push	{r4, r5, r6, r7, lr}
 945              	.LCFI5:
 946              		.cfi_def_cfa_offset 20
 947              		.cfi_offset 4, -20
 948              		.cfi_offset 5, -16
 949              		.cfi_offset 6, -12
 950              		.cfi_offset 7, -8
 951              		.cfi_offset 14, -4
 655:Drivers/STM32F0xx_HAL_Driver/Src/stm32f0xx_hal_pcd.c ****   HAL_StatusTypeDef  ret = HAL_OK;
 952              		.loc 1 655 3 is_stmt 1 view .LVU218
 953              	.LVL56:
 656:Drivers/STM32F0xx_HAL_Driver/Src/stm32f0xx_hal_pcd.c ****   PCD_EPTypeDef *ep;
 954              		.loc 1 656 3 view .LVU219
 657:Drivers/STM32F0xx_HAL_Driver/Src/stm32f0xx_hal_pcd.c ****   
 658:Drivers/STM32F0xx_HAL_Driver/Src/stm32f0xx_hal_pcd.c ****   if ((ep_addr & 0x80U) == 0x80U)
 955              		.loc 1 658 3 view .LVU220
 956              		.loc 1 658 25 is_stmt 0 view .LVU221
 957 0002 4DB2     		sxtb	r5, r1
 958              		.loc 1 658 6 view .LVU222
 959 0004 002D     		cmp	r5, #0
 960 0006 2CDB     		blt	.L73
 659:Drivers/STM32F0xx_HAL_Driver/Src/stm32f0xx_hal_pcd.c ****   {
 660:Drivers/STM32F0xx_HAL_Driver/Src/stm32f0xx_hal_pcd.c ****     ep = &hpcd->IN_ep[ep_addr & 0x7FU];
 661:Drivers/STM32F0xx_HAL_Driver/Src/stm32f0xx_hal_pcd.c ****   }
 662:Drivers/STM32F0xx_HAL_Driver/Src/stm32f0xx_hal_pcd.c ****   else
 663:Drivers/STM32F0xx_HAL_Driver/Src/stm32f0xx_hal_pcd.c ****   {
 664:Drivers/STM32F0xx_HAL_Driver/Src/stm32f0xx_hal_pcd.c ****     ep = &hpcd->OUT_ep[ep_addr & 0x7FU];
 961              		.loc 1 664 5 is_stmt 1 view .LVU223
 962              		.loc 1 664 32 is_stmt 0 view .LVU224
 963 0008 7F26     		movs	r6, #127
 964 000a 0E40     		ands	r6, r1
 965              		.loc 1 664 8 view .LVU225
 966 000c F400     		lsls	r4, r6, #3
 967 000e A41B     		subs	r4, r4, r6
 968 0010 A400     		lsls	r4, r4, #2
 969 0012 0934     		adds	r4, r4, #9
 970 0014 FF34     		adds	r4, r4, #255
 971 0016 0419     		adds	r4, r0, r4
 972              	.LVL57:
 973              	.L50:
 665:Drivers/STM32F0xx_HAL_Driver/Src/stm32f0xx_hal_pcd.c ****   }
 666:Drivers/STM32F0xx_HAL_Driver/Src/stm32f0xx_hal_pcd.c ****   ep->num   = ep_addr & 0x7FU;
 974              		.loc 1 666 3 is_stmt 1 view .LVU226
 975              		.loc 1 666 23 is_stmt 0 view .LVU227
 976 0018 7F26     		movs	r6, #127
 977 001a 3140     		ands	r1, r6
 978              	.LVL58:
 979              		.loc 1 666 13 view .LVU228
 980 001c 2170     		strb	r1, [r4]
 667:Drivers/STM32F0xx_HAL_Driver/Src/stm32f0xx_hal_pcd.c ****   
 668:Drivers/STM32F0xx_HAL_Driver/Src/stm32f0xx_hal_pcd.c ****   ep->is_in = (0x80U & ep_addr) != 0U;
 981              		.loc 1 668 3 is_stmt 1 view .LVU229
ARM GAS  /var/folders/rf/wfq6hz5s56g3yh4wqgd7820c0000gn/T//ccBUdQBH.s 			page 31


 982              		.loc 1 668 33 is_stmt 0 view .LVU230
 983 001e ED0F     		lsrs	r5, r5, #31
 984              	.LVL59:
 985              		.loc 1 668 13 view .LVU231
 986 0020 6570     		strb	r5, [r4, #1]
 669:Drivers/STM32F0xx_HAL_Driver/Src/stm32f0xx_hal_pcd.c ****   ep->maxpacket = ep_mps;
 987              		.loc 1 669 3 is_stmt 1 view .LVU232
 988              		.loc 1 669 17 is_stmt 0 view .LVU233
 989 0022 E260     		str	r2, [r4, #12]
 670:Drivers/STM32F0xx_HAL_Driver/Src/stm32f0xx_hal_pcd.c ****   ep->type = ep_type;
 990              		.loc 1 670 3 is_stmt 1 view .LVU234
 991              		.loc 1 670 12 is_stmt 0 view .LVU235
 992 0024 E370     		strb	r3, [r4, #3]
 671:Drivers/STM32F0xx_HAL_Driver/Src/stm32f0xx_hal_pcd.c ****   
 672:Drivers/STM32F0xx_HAL_Driver/Src/stm32f0xx_hal_pcd.c ****   __HAL_LOCK(hpcd); 
 993              		.loc 1 672 3 is_stmt 1 view .LVU236
 994              		.loc 1 672 3 view .LVU237
 995 0026 F423     		movs	r3, #244
 996              	.LVL60:
 997              		.loc 1 672 3 is_stmt 0 view .LVU238
 998 0028 5B00     		lsls	r3, r3, #1
 999 002a C35C     		ldrb	r3, [r0, r3]
 1000 002c 012B     		cmp	r3, #1
 1001 002e 00D1     		bne	.LCB767
 1002 0030 52E1     		b	.L72	@long jump
 1003              	.LCB767:
 1004              		.loc 1 672 3 is_stmt 1 discriminator 2 view .LVU239
 1005 0032 F423     		movs	r3, #244
 1006 0034 5B00     		lsls	r3, r3, #1
 1007 0036 0122     		movs	r2, #1
 1008              	.LVL61:
 1009              		.loc 1 672 3 is_stmt 0 discriminator 2 view .LVU240
 1010 0038 C254     		strb	r2, [r0, r3]
 1011              	.LVL62:
 1012              		.loc 1 672 3 is_stmt 1 discriminator 2 view .LVU241
 673:Drivers/STM32F0xx_HAL_Driver/Src/stm32f0xx_hal_pcd.c **** 
 674:Drivers/STM32F0xx_HAL_Driver/Src/stm32f0xx_hal_pcd.c ****   /* initialize Endpoint */
 675:Drivers/STM32F0xx_HAL_Driver/Src/stm32f0xx_hal_pcd.c ****   switch (ep->type)
 1013              		.loc 1 675 3 discriminator 2 view .LVU242
 1014              		.loc 1 675 13 is_stmt 0 discriminator 2 view .LVU243
 1015 003a E378     		ldrb	r3, [r4, #3]
 1016              		.loc 1 675 3 discriminator 2 view .LVU244
 1017 003c 022B     		cmp	r3, #2
 1018 003e 00D1     		bne	.LCB781
 1019 0040 6BE0     		b	.L52	@long jump
 1020              	.LCB781:
 1021              		.loc 1 675 3 view .LVU245
 1022 0042 16D8     		bhi	.L53
 1023 0044 002B     		cmp	r3, #0
 1024 0046 21D0     		beq	.L54
 1025 0048 012B     		cmp	r3, #1
 1026 004a 29D1     		bne	.L56
 676:Drivers/STM32F0xx_HAL_Driver/Src/stm32f0xx_hal_pcd.c ****   {
 677:Drivers/STM32F0xx_HAL_Driver/Src/stm32f0xx_hal_pcd.c ****   case PCD_EP_TYPE_CTRL:
 678:Drivers/STM32F0xx_HAL_Driver/Src/stm32f0xx_hal_pcd.c ****     PCD_SET_EPTYPE(hpcd->Instance, ep->num, USB_EP_CONTROL);
 679:Drivers/STM32F0xx_HAL_Driver/Src/stm32f0xx_hal_pcd.c ****     break;
 680:Drivers/STM32F0xx_HAL_Driver/Src/stm32f0xx_hal_pcd.c ****   case PCD_EP_TYPE_BULK:
ARM GAS  /var/folders/rf/wfq6hz5s56g3yh4wqgd7820c0000gn/T//ccBUdQBH.s 			page 32


 681:Drivers/STM32F0xx_HAL_Driver/Src/stm32f0xx_hal_pcd.c ****     PCD_SET_EPTYPE(hpcd->Instance, ep->num, USB_EP_BULK);
 682:Drivers/STM32F0xx_HAL_Driver/Src/stm32f0xx_hal_pcd.c ****     break;
 683:Drivers/STM32F0xx_HAL_Driver/Src/stm32f0xx_hal_pcd.c ****   case PCD_EP_TYPE_INTR:
 684:Drivers/STM32F0xx_HAL_Driver/Src/stm32f0xx_hal_pcd.c ****     PCD_SET_EPTYPE(hpcd->Instance, ep->num, USB_EP_INTERRUPT);
 685:Drivers/STM32F0xx_HAL_Driver/Src/stm32f0xx_hal_pcd.c ****     break;
 686:Drivers/STM32F0xx_HAL_Driver/Src/stm32f0xx_hal_pcd.c ****   case PCD_EP_TYPE_ISOC:
 687:Drivers/STM32F0xx_HAL_Driver/Src/stm32f0xx_hal_pcd.c ****     PCD_SET_EPTYPE(hpcd->Instance, ep->num, USB_EP_ISOCHRONOUS);
 1027              		.loc 1 687 5 is_stmt 1 view .LVU246
 1028 004c 0568     		ldr	r5, [r0]
 1029 004e 2378     		ldrb	r3, [r4]
 1030 0050 9B00     		lsls	r3, r3, #2
 1031 0052 EA5A     		ldrh	r2, [r5, r3]
 1032 0054 A149     		ldr	r1, .L74
 1033 0056 1140     		ands	r1, r2
 1034 0058 8022     		movs	r2, #128
 1035 005a D200     		lsls	r2, r2, #3
 1036 005c 0A43     		orrs	r2, r1
 1037 005e EA52     		strh	r2, [r5, r3]
 688:Drivers/STM32F0xx_HAL_Driver/Src/stm32f0xx_hal_pcd.c ****     break;
 1038              		.loc 1 688 5 view .LVU247
 1039 0060 1EE0     		b	.L56
 1040              	.LVL63:
 1041              	.L73:
 660:Drivers/STM32F0xx_HAL_Driver/Src/stm32f0xx_hal_pcd.c ****   }
 1042              		.loc 1 660 5 view .LVU248
 660:Drivers/STM32F0xx_HAL_Driver/Src/stm32f0xx_hal_pcd.c ****   }
 1043              		.loc 1 660 31 is_stmt 0 view .LVU249
 1044 0062 7F26     		movs	r6, #127
 1045 0064 0E40     		ands	r6, r1
 660:Drivers/STM32F0xx_HAL_Driver/Src/stm32f0xx_hal_pcd.c ****   }
 1046              		.loc 1 660 8 view .LVU250
 1047 0066 F400     		lsls	r4, r6, #3
 1048 0068 A41B     		subs	r4, r4, r6
 1049 006a A400     		lsls	r4, r4, #2
 1050 006c 2834     		adds	r4, r4, #40
 1051 006e 0419     		adds	r4, r0, r4
 1052              	.LVL64:
 660:Drivers/STM32F0xx_HAL_Driver/Src/stm32f0xx_hal_pcd.c ****   }
 1053              		.loc 1 660 8 view .LVU251
 1054 0070 D2E7     		b	.L50
 1055              	.LVL65:
 1056              	.L53:
 675:Drivers/STM32F0xx_HAL_Driver/Src/stm32f0xx_hal_pcd.c ****   {
 1057              		.loc 1 675 3 view .LVU252
 1058 0072 032B     		cmp	r3, #3
 1059 0074 14D1     		bne	.L56
 684:Drivers/STM32F0xx_HAL_Driver/Src/stm32f0xx_hal_pcd.c ****     break;
 1060              		.loc 1 684 5 is_stmt 1 view .LVU253
 1061 0076 0568     		ldr	r5, [r0]
 1062 0078 2378     		ldrb	r3, [r4]
 1063 007a 9B00     		lsls	r3, r3, #2
 1064 007c EA5A     		ldrh	r2, [r5, r3]
 1065 007e 9749     		ldr	r1, .L74
 1066 0080 1140     		ands	r1, r2
 1067 0082 C022     		movs	r2, #192
 1068 0084 D200     		lsls	r2, r2, #3
 1069 0086 0A43     		orrs	r2, r1
ARM GAS  /var/folders/rf/wfq6hz5s56g3yh4wqgd7820c0000gn/T//ccBUdQBH.s 			page 33


 1070 0088 EA52     		strh	r2, [r5, r3]
 685:Drivers/STM32F0xx_HAL_Driver/Src/stm32f0xx_hal_pcd.c ****   case PCD_EP_TYPE_ISOC:
 1071              		.loc 1 685 5 view .LVU254
 1072 008a 09E0     		b	.L56
 1073              	.L54:
 678:Drivers/STM32F0xx_HAL_Driver/Src/stm32f0xx_hal_pcd.c ****     break;
 1074              		.loc 1 678 5 view .LVU255
 1075 008c 0568     		ldr	r5, [r0]
 1076 008e 2378     		ldrb	r3, [r4]
 1077 0090 9B00     		lsls	r3, r3, #2
 1078 0092 EA5A     		ldrh	r2, [r5, r3]
 1079 0094 9149     		ldr	r1, .L74
 1080 0096 1140     		ands	r1, r2
 1081 0098 8022     		movs	r2, #128
 1082 009a 9200     		lsls	r2, r2, #2
 1083 009c 0A43     		orrs	r2, r1
 1084 009e EA52     		strh	r2, [r5, r3]
 679:Drivers/STM32F0xx_HAL_Driver/Src/stm32f0xx_hal_pcd.c ****   case PCD_EP_TYPE_BULK:
 1085              		.loc 1 679 5 view .LVU256
 1086              	.L56:
 689:Drivers/STM32F0xx_HAL_Driver/Src/stm32f0xx_hal_pcd.c ****   default:
 690:Drivers/STM32F0xx_HAL_Driver/Src/stm32f0xx_hal_pcd.c ****     break;
 691:Drivers/STM32F0xx_HAL_Driver/Src/stm32f0xx_hal_pcd.c ****   } 
 692:Drivers/STM32F0xx_HAL_Driver/Src/stm32f0xx_hal_pcd.c ****   
 693:Drivers/STM32F0xx_HAL_Driver/Src/stm32f0xx_hal_pcd.c ****   PCD_SET_EP_ADDRESS(hpcd->Instance, ep->num, ep->num);
 1087              		.loc 1 693 3 view .LVU257
 1088 00a0 0168     		ldr	r1, [r0]
 1089 00a2 2378     		ldrb	r3, [r4]
 1090 00a4 9D00     		lsls	r5, r3, #2
 1091 00a6 4A5B     		ldrh	r2, [r1, r5]
 1092 00a8 8D4E     		ldr	r6, .L74+4
 1093 00aa 3240     		ands	r2, r6
 1094 00ac 1343     		orrs	r3, r2
 1095 00ae 8D4A     		ldr	r2, .L74+8
 1096 00b0 1343     		orrs	r3, r2
 1097 00b2 4B53     		strh	r3, [r1, r5]
 694:Drivers/STM32F0xx_HAL_Driver/Src/stm32f0xx_hal_pcd.c ****   
 695:Drivers/STM32F0xx_HAL_Driver/Src/stm32f0xx_hal_pcd.c ****   if (ep->doublebuffer == 0U) 
 1098              		.loc 1 695 3 view .LVU258
 1099              		.loc 1 695 9 is_stmt 0 view .LVU259
 1100 00b4 A37A     		ldrb	r3, [r4, #10]
 1101              		.loc 1 695 6 view .LVU260
 1102 00b6 002B     		cmp	r3, #0
 1103 00b8 00D0     		beq	.LCB892
 1104 00ba 7DE0     		b	.L58	@long jump
 1105              	.LCB892:
 696:Drivers/STM32F0xx_HAL_Driver/Src/stm32f0xx_hal_pcd.c ****   {
 697:Drivers/STM32F0xx_HAL_Driver/Src/stm32f0xx_hal_pcd.c ****     if (ep->is_in)
 1106              		.loc 1 697 5 is_stmt 1 view .LVU261
 1107              		.loc 1 697 11 is_stmt 0 view .LVU262
 1108 00bc 6378     		ldrb	r3, [r4, #1]
 1109              		.loc 1 697 8 view .LVU263
 1110 00be 002B     		cmp	r3, #0
 1111 00c0 33D0     		beq	.L59
 698:Drivers/STM32F0xx_HAL_Driver/Src/stm32f0xx_hal_pcd.c ****     {
 699:Drivers/STM32F0xx_HAL_Driver/Src/stm32f0xx_hal_pcd.c ****       /*Set the endpoint Transmit buffer address */
 700:Drivers/STM32F0xx_HAL_Driver/Src/stm32f0xx_hal_pcd.c ****       PCD_SET_EP_TX_ADDRESS(hpcd->Instance, ep->num, ep->pmaadress);
ARM GAS  /var/folders/rf/wfq6hz5s56g3yh4wqgd7820c0000gn/T//ccBUdQBH.s 			page 34


 1112              		.loc 1 700 7 is_stmt 1 view .LVU264
 1113 00c2 A288     		ldrh	r2, [r4, #4]
 1114 00c4 0568     		ldr	r5, [r0]
 1115 00c6 5023     		movs	r3, #80
 1116 00c8 EB5A     		ldrh	r3, [r5, r3]
 1117 00ca 2178     		ldrb	r1, [r4]
 1118 00cc C900     		lsls	r1, r1, #3
 1119 00ce 5B18     		adds	r3, r3, r1
 1120 00d0 5B19     		adds	r3, r3, r5
 1121 00d2 8021     		movs	r1, #128
 1122 00d4 C900     		lsls	r1, r1, #3
 1123 00d6 8C46     		mov	ip, r1
 1124 00d8 6344     		add	r3, r3, ip
 1125 00da 0121     		movs	r1, #1
 1126 00dc 8A43     		bics	r2, r1
 1127 00de 1A80     		strh	r2, [r3]
 701:Drivers/STM32F0xx_HAL_Driver/Src/stm32f0xx_hal_pcd.c ****       PCD_CLEAR_TX_DTOG(hpcd->Instance, ep->num)
 1128              		.loc 1 701 7 view .LVU265
 1129 00e0 0268     		ldr	r2, [r0]
 1130 00e2 2378     		ldrb	r3, [r4]
 1131 00e4 9B00     		lsls	r3, r3, #2
 1132 00e6 D118     		adds	r1, r2, r3
 1133 00e8 D35A     		ldrh	r3, [r2, r3]
 1134 00ea 5A06     		lsls	r2, r3, #25
 1135 00ec 03D5     		bpl	.L60
 1136              		.loc 1 701 7 discriminator 1 view .LVU266
 1137 00ee 3340     		ands	r3, r6
 1138 00f0 7D4A     		ldr	r2, .L74+12
 1139 00f2 1343     		orrs	r3, r2
 1140 00f4 0B80     		strh	r3, [r1]
 1141              	.L60:
 1142              	.LBB2:
 702:Drivers/STM32F0xx_HAL_Driver/Src/stm32f0xx_hal_pcd.c ****       /* Configure NAK status for the Endpoint*/
 703:Drivers/STM32F0xx_HAL_Driver/Src/stm32f0xx_hal_pcd.c ****       PCD_SET_EP_TX_STATUS(hpcd->Instance, ep->num, USB_EP_TX_NAK) 
 1143              		.loc 1 703 7 view .LVU267
 1144              		.loc 1 703 7 view .LVU268
 1145 00f6 0168     		ldr	r1, [r0]
 1146 00f8 2278     		ldrb	r2, [r4]
 1147 00fa 9200     		lsls	r2, r2, #2
 1148 00fc 8B5A     		ldrh	r3, [r1, r2]
 1149 00fe 7B4C     		ldr	r4, .L74+16
 1150              	.LVL66:
 1151              		.loc 1 703 7 is_stmt 0 view .LVU269
 1152 0100 2340     		ands	r3, r4
 1153              	.LVL67:
 1154              		.loc 1 703 7 is_stmt 1 view .LVU270
 1155              		.loc 1 703 7 view .LVU271
 1156              		.loc 1 703 7 view .LVU272
 1157 0102 2024     		movs	r4, #32
 1158 0104 6340     		eors	r3, r4
 1159              	.LVL68:
 1160              		.loc 1 703 7 is_stmt 0 view .LVU273
 1161 0106 9BB2     		uxth	r3, r3
 1162              	.LVL69:
 1163              		.loc 1 703 7 is_stmt 1 view .LVU274
 1164 0108 764C     		ldr	r4, .L74+8
 1165 010a 2343     		orrs	r3, r4
ARM GAS  /var/folders/rf/wfq6hz5s56g3yh4wqgd7820c0000gn/T//ccBUdQBH.s 			page 35


 1166              	.LVL70:
 1167              		.loc 1 703 7 is_stmt 0 view .LVU275
 1168 010c 8B52     		strh	r3, [r1, r2]
 1169              	.L61:
 1170              		.loc 1 703 7 view .LVU276
 1171              	.LBE2:
 704:Drivers/STM32F0xx_HAL_Driver/Src/stm32f0xx_hal_pcd.c ****     }
 705:Drivers/STM32F0xx_HAL_Driver/Src/stm32f0xx_hal_pcd.c ****     else
 706:Drivers/STM32F0xx_HAL_Driver/Src/stm32f0xx_hal_pcd.c ****     {
 707:Drivers/STM32F0xx_HAL_Driver/Src/stm32f0xx_hal_pcd.c ****       /*Set the endpoint Receive buffer address */
 708:Drivers/STM32F0xx_HAL_Driver/Src/stm32f0xx_hal_pcd.c ****       PCD_SET_EP_RX_ADDRESS(hpcd->Instance, ep->num, ep->pmaadress);
 709:Drivers/STM32F0xx_HAL_Driver/Src/stm32f0xx_hal_pcd.c ****       /*Set the endpoint Receive buffer counter*/
 710:Drivers/STM32F0xx_HAL_Driver/Src/stm32f0xx_hal_pcd.c ****       PCD_SET_EP_RX_CNT(hpcd->Instance, ep->num, ep->maxpacket)
 711:Drivers/STM32F0xx_HAL_Driver/Src/stm32f0xx_hal_pcd.c ****       PCD_CLEAR_RX_DTOG(hpcd->Instance, ep->num)
 712:Drivers/STM32F0xx_HAL_Driver/Src/stm32f0xx_hal_pcd.c ****       /* Configure VALID status for the Endpoint*/
 713:Drivers/STM32F0xx_HAL_Driver/Src/stm32f0xx_hal_pcd.c ****       PCD_SET_EP_RX_STATUS(hpcd->Instance, ep->num, USB_EP_RX_VALID)
 714:Drivers/STM32F0xx_HAL_Driver/Src/stm32f0xx_hal_pcd.c ****     }
 715:Drivers/STM32F0xx_HAL_Driver/Src/stm32f0xx_hal_pcd.c ****   }
 716:Drivers/STM32F0xx_HAL_Driver/Src/stm32f0xx_hal_pcd.c ****   /*Double Buffer*/
 717:Drivers/STM32F0xx_HAL_Driver/Src/stm32f0xx_hal_pcd.c ****   else
 718:Drivers/STM32F0xx_HAL_Driver/Src/stm32f0xx_hal_pcd.c ****   {
 719:Drivers/STM32F0xx_HAL_Driver/Src/stm32f0xx_hal_pcd.c ****     /*Set the endpoint as double buffered*/
 720:Drivers/STM32F0xx_HAL_Driver/Src/stm32f0xx_hal_pcd.c ****     PCD_SET_EP_DBUF(hpcd->Instance, ep->num);
 721:Drivers/STM32F0xx_HAL_Driver/Src/stm32f0xx_hal_pcd.c ****     /*Set buffer address for double buffered mode*/
 722:Drivers/STM32F0xx_HAL_Driver/Src/stm32f0xx_hal_pcd.c ****     PCD_SET_EP_DBUF_ADDR(hpcd->Instance, ep->num,ep->pmaaddr0, ep->pmaaddr1)
 723:Drivers/STM32F0xx_HAL_Driver/Src/stm32f0xx_hal_pcd.c ****     
 724:Drivers/STM32F0xx_HAL_Driver/Src/stm32f0xx_hal_pcd.c ****     if (ep->is_in==0U)
 725:Drivers/STM32F0xx_HAL_Driver/Src/stm32f0xx_hal_pcd.c ****     {
 726:Drivers/STM32F0xx_HAL_Driver/Src/stm32f0xx_hal_pcd.c ****       /* Clear the data toggle bits for the endpoint IN/OUT*/
 727:Drivers/STM32F0xx_HAL_Driver/Src/stm32f0xx_hal_pcd.c ****       PCD_CLEAR_RX_DTOG(hpcd->Instance, ep->num)
 728:Drivers/STM32F0xx_HAL_Driver/Src/stm32f0xx_hal_pcd.c ****       PCD_CLEAR_TX_DTOG(hpcd->Instance, ep->num)
 729:Drivers/STM32F0xx_HAL_Driver/Src/stm32f0xx_hal_pcd.c ****       
 730:Drivers/STM32F0xx_HAL_Driver/Src/stm32f0xx_hal_pcd.c ****       /* Reset value of the data toggle bits for the endpoint out*/
 731:Drivers/STM32F0xx_HAL_Driver/Src/stm32f0xx_hal_pcd.c ****       PCD_TX_DTOG(hpcd->Instance, ep->num);
 732:Drivers/STM32F0xx_HAL_Driver/Src/stm32f0xx_hal_pcd.c ****       
 733:Drivers/STM32F0xx_HAL_Driver/Src/stm32f0xx_hal_pcd.c ****       PCD_SET_EP_RX_STATUS(hpcd->Instance, ep->num, USB_EP_RX_VALID)
 734:Drivers/STM32F0xx_HAL_Driver/Src/stm32f0xx_hal_pcd.c ****       PCD_SET_EP_TX_STATUS(hpcd->Instance, ep->num, USB_EP_TX_DIS)
 735:Drivers/STM32F0xx_HAL_Driver/Src/stm32f0xx_hal_pcd.c ****     }
 736:Drivers/STM32F0xx_HAL_Driver/Src/stm32f0xx_hal_pcd.c ****     else
 737:Drivers/STM32F0xx_HAL_Driver/Src/stm32f0xx_hal_pcd.c ****     {
 738:Drivers/STM32F0xx_HAL_Driver/Src/stm32f0xx_hal_pcd.c ****       /* Clear the data toggle bits for the endpoint IN/OUT*/
 739:Drivers/STM32F0xx_HAL_Driver/Src/stm32f0xx_hal_pcd.c ****       PCD_CLEAR_RX_DTOG(hpcd->Instance, ep->num)
 740:Drivers/STM32F0xx_HAL_Driver/Src/stm32f0xx_hal_pcd.c ****       PCD_CLEAR_TX_DTOG(hpcd->Instance, ep->num)
 741:Drivers/STM32F0xx_HAL_Driver/Src/stm32f0xx_hal_pcd.c ****       PCD_RX_DTOG(hpcd->Instance, ep->num);
 742:Drivers/STM32F0xx_HAL_Driver/Src/stm32f0xx_hal_pcd.c ****       /* Configure DISABLE status for the Endpoint*/
 743:Drivers/STM32F0xx_HAL_Driver/Src/stm32f0xx_hal_pcd.c ****       PCD_SET_EP_TX_STATUS(hpcd->Instance, ep->num, USB_EP_TX_DIS)
 744:Drivers/STM32F0xx_HAL_Driver/Src/stm32f0xx_hal_pcd.c ****       PCD_SET_EP_RX_STATUS(hpcd->Instance, ep->num, USB_EP_RX_DIS)
 745:Drivers/STM32F0xx_HAL_Driver/Src/stm32f0xx_hal_pcd.c ****     }
 746:Drivers/STM32F0xx_HAL_Driver/Src/stm32f0xx_hal_pcd.c ****   } 
 747:Drivers/STM32F0xx_HAL_Driver/Src/stm32f0xx_hal_pcd.c ****   
 748:Drivers/STM32F0xx_HAL_Driver/Src/stm32f0xx_hal_pcd.c ****   __HAL_UNLOCK(hpcd);   
 1172              		.loc 1 748 3 is_stmt 1 view .LVU277
 1173              		.loc 1 748 3 view .LVU278
 1174 010e F423     		movs	r3, #244
 1175 0110 5B00     		lsls	r3, r3, #1
 1176 0112 0022     		movs	r2, #0
 1177 0114 C254     		strb	r2, [r0, r3]
ARM GAS  /var/folders/rf/wfq6hz5s56g3yh4wqgd7820c0000gn/T//ccBUdQBH.s 			page 36


 1178              		.loc 1 748 3 view .LVU279
 749:Drivers/STM32F0xx_HAL_Driver/Src/stm32f0xx_hal_pcd.c ****   return ret;
 1179              		.loc 1 749 3 view .LVU280
 1180              		.loc 1 749 10 is_stmt 0 view .LVU281
 1181 0116 0020     		movs	r0, #0
 1182              	.LVL71:
 1183              	.L51:
 750:Drivers/STM32F0xx_HAL_Driver/Src/stm32f0xx_hal_pcd.c **** }
 1184              		.loc 1 750 1 view .LVU282
 1185              		@ sp needed
 1186 0118 F0BD     		pop	{r4, r5, r6, r7, pc}
 1187              	.LVL72:
 1188              	.L52:
 681:Drivers/STM32F0xx_HAL_Driver/Src/stm32f0xx_hal_pcd.c ****     break;
 1189              		.loc 1 681 5 is_stmt 1 view .LVU283
 1190 011a 0168     		ldr	r1, [r0]
 1191 011c 2378     		ldrb	r3, [r4]
 1192 011e 9B00     		lsls	r3, r3, #2
 1193 0120 CA5A     		ldrh	r2, [r1, r3]
 1194 0122 6E4D     		ldr	r5, .L74
 1195 0124 2A40     		ands	r2, r5
 1196 0126 CA52     		strh	r2, [r1, r3]
 682:Drivers/STM32F0xx_HAL_Driver/Src/stm32f0xx_hal_pcd.c ****   case PCD_EP_TYPE_INTR:
 1197              		.loc 1 682 5 view .LVU284
 1198 0128 BAE7     		b	.L56
 1199              	.L59:
 708:Drivers/STM32F0xx_HAL_Driver/Src/stm32f0xx_hal_pcd.c ****       /*Set the endpoint Receive buffer counter*/
 1200              		.loc 1 708 7 view .LVU285
 1201 012a A288     		ldrh	r2, [r4, #4]
 1202 012c 0568     		ldr	r5, [r0]
 1203 012e 5026     		movs	r6, #80
 1204 0130 AB5B     		ldrh	r3, [r5, r6]
 1205 0132 2178     		ldrb	r1, [r4]
 1206 0134 C900     		lsls	r1, r1, #3
 1207 0136 5B18     		adds	r3, r3, r1
 1208 0138 5B19     		adds	r3, r3, r5
 1209 013a 6D49     		ldr	r1, .L74+20
 1210 013c 8C46     		mov	ip, r1
 1211 013e 6344     		add	r3, r3, ip
 1212 0140 0121     		movs	r1, #1
 1213 0142 8A43     		bics	r2, r1
 1214 0144 1A80     		strh	r2, [r3]
 1215              	.LBB3:
 710:Drivers/STM32F0xx_HAL_Driver/Src/stm32f0xx_hal_pcd.c ****       PCD_CLEAR_RX_DTOG(hpcd->Instance, ep->num)
 1216              		.loc 1 710 7 view .LVU286
 1217 0146 0168     		ldr	r1, [r0]
 1218 0148 8B5B     		ldrh	r3, [r1, r6]
 1219 014a 2278     		ldrb	r2, [r4]
 1220 014c D200     		lsls	r2, r2, #3
 1221 014e 9B18     		adds	r3, r3, r2
 1222 0150 5B18     		adds	r3, r3, r1
 1223 0152 684A     		ldr	r2, .L74+24
 1224 0154 9446     		mov	ip, r2
 1225 0156 6344     		add	r3, r3, ip
 1226              	.LVL73:
 1227              	.LBB4:
 710:Drivers/STM32F0xx_HAL_Driver/Src/stm32f0xx_hal_pcd.c ****       PCD_CLEAR_RX_DTOG(hpcd->Instance, ep->num)
ARM GAS  /var/folders/rf/wfq6hz5s56g3yh4wqgd7820c0000gn/T//ccBUdQBH.s 			page 37


 1228              		.loc 1 710 7 view .LVU287
 710:Drivers/STM32F0xx_HAL_Driver/Src/stm32f0xx_hal_pcd.c ****       PCD_CLEAR_RX_DTOG(hpcd->Instance, ep->num)
 1229              		.loc 1 710 7 view .LVU288
 1230 0158 E168     		ldr	r1, [r4, #12]
 1231 015a 3E29     		cmp	r1, #62
 1232 015c 23D9     		bls	.L62
 710:Drivers/STM32F0xx_HAL_Driver/Src/stm32f0xx_hal_pcd.c ****       PCD_CLEAR_RX_DTOG(hpcd->Instance, ep->num)
 1233              		.loc 1 710 7 discriminator 1 view .LVU289
 1234 015e 4A09     		lsrs	r2, r1, #5
 1235 0160 92B2     		uxth	r2, r2
 1236              	.LVL74:
 710:Drivers/STM32F0xx_HAL_Driver/Src/stm32f0xx_hal_pcd.c ****       PCD_CLEAR_RX_DTOG(hpcd->Instance, ep->num)
 1237              		.loc 1 710 7 discriminator 1 view .LVU290
 1238 0162 C906     		lsls	r1, r1, #27
 1239 0164 01D1     		bne	.L63
 710:Drivers/STM32F0xx_HAL_Driver/Src/stm32f0xx_hal_pcd.c ****       PCD_CLEAR_RX_DTOG(hpcd->Instance, ep->num)
 1240              		.loc 1 710 7 discriminator 3 view .LVU291
 1241 0166 013A     		subs	r2, r2, #1
 1242              	.LVL75:
 710:Drivers/STM32F0xx_HAL_Driver/Src/stm32f0xx_hal_pcd.c ****       PCD_CLEAR_RX_DTOG(hpcd->Instance, ep->num)
 1243              		.loc 1 710 7 is_stmt 0 discriminator 3 view .LVU292
 1244 0168 92B2     		uxth	r2, r2
 1245              	.LVL76:
 1246              	.L63:
 710:Drivers/STM32F0xx_HAL_Driver/Src/stm32f0xx_hal_pcd.c ****       PCD_CLEAR_RX_DTOG(hpcd->Instance, ep->num)
 1247              		.loc 1 710 7 is_stmt 1 discriminator 5 view .LVU293
 1248 016a 9202     		lsls	r2, r2, #10
 1249              	.LVL77:
 710:Drivers/STM32F0xx_HAL_Driver/Src/stm32f0xx_hal_pcd.c ****       PCD_CLEAR_RX_DTOG(hpcd->Instance, ep->num)
 1250              		.loc 1 710 7 is_stmt 0 discriminator 5 view .LVU294
 1251 016c 92B2     		uxth	r2, r2
 1252 016e 6249     		ldr	r1, .L74+28
 1253 0170 0A43     		orrs	r2, r1
 1254 0172 1A80     		strh	r2, [r3]
 1255              	.L64:
 710:Drivers/STM32F0xx_HAL_Driver/Src/stm32f0xx_hal_pcd.c ****       PCD_CLEAR_RX_DTOG(hpcd->Instance, ep->num)
 1256              		.loc 1 710 7 discriminator 5 view .LVU295
 1257              	.LBE4:
 1258              	.LBE3:
 711:Drivers/STM32F0xx_HAL_Driver/Src/stm32f0xx_hal_pcd.c ****       /* Configure VALID status for the Endpoint*/
 1259              		.loc 1 711 7 is_stmt 1 view .LVU296
 1260 0174 0268     		ldr	r2, [r0]
 1261 0176 2378     		ldrb	r3, [r4]
 1262              	.LVL78:
 711:Drivers/STM32F0xx_HAL_Driver/Src/stm32f0xx_hal_pcd.c ****       /* Configure VALID status for the Endpoint*/
 1263              		.loc 1 711 7 is_stmt 0 view .LVU297
 1264 0178 9B00     		lsls	r3, r3, #2
 1265 017a D118     		adds	r1, r2, r3
 1266 017c D35A     		ldrh	r3, [r2, r3]
 1267 017e 5A04     		lsls	r2, r3, #17
 1268 0180 04D5     		bpl	.L66
 711:Drivers/STM32F0xx_HAL_Driver/Src/stm32f0xx_hal_pcd.c ****       /* Configure VALID status for the Endpoint*/
 1269              		.loc 1 711 7 is_stmt 1 discriminator 1 view .LVU298
 1270 0182 574A     		ldr	r2, .L74+4
 1271 0184 1340     		ands	r3, r2
 1272 0186 5D4A     		ldr	r2, .L74+32
 1273 0188 1343     		orrs	r3, r2
ARM GAS  /var/folders/rf/wfq6hz5s56g3yh4wqgd7820c0000gn/T//ccBUdQBH.s 			page 38


 1274 018a 0B80     		strh	r3, [r1]
 1275              	.L66:
 1276              	.LBB6:
 713:Drivers/STM32F0xx_HAL_Driver/Src/stm32f0xx_hal_pcd.c ****     }
 1277              		.loc 1 713 7 view .LVU299
 713:Drivers/STM32F0xx_HAL_Driver/Src/stm32f0xx_hal_pcd.c ****     }
 1278              		.loc 1 713 7 view .LVU300
 1279 018c 0568     		ldr	r5, [r0]
 1280 018e 2378     		ldrb	r3, [r4]
 1281 0190 9B00     		lsls	r3, r3, #2
 1282 0192 E95A     		ldrh	r1, [r5, r3]
 1283 0194 5A4A     		ldr	r2, .L74+36
 1284 0196 1140     		ands	r1, r2
 1285              	.LVL79:
 713:Drivers/STM32F0xx_HAL_Driver/Src/stm32f0xx_hal_pcd.c ****     }
 1286              		.loc 1 713 7 view .LVU301
 713:Drivers/STM32F0xx_HAL_Driver/Src/stm32f0xx_hal_pcd.c ****     }
 1287              		.loc 1 713 7 view .LVU302
 713:Drivers/STM32F0xx_HAL_Driver/Src/stm32f0xx_hal_pcd.c ****     }
 1288              		.loc 1 713 7 view .LVU303
 713:Drivers/STM32F0xx_HAL_Driver/Src/stm32f0xx_hal_pcd.c ****     }
 1289              		.loc 1 713 7 view .LVU304
 1290 0198 C022     		movs	r2, #192
 1291 019a 9201     		lsls	r2, r2, #6
 1292 019c 5140     		eors	r1, r2
 1293              	.LVL80:
 713:Drivers/STM32F0xx_HAL_Driver/Src/stm32f0xx_hal_pcd.c ****     }
 1294              		.loc 1 713 7 view .LVU305
 1295 019e 514A     		ldr	r2, .L74+8
 1296 01a0 0A43     		orrs	r2, r1
 1297 01a2 EA52     		strh	r2, [r5, r3]
 1298 01a4 B3E7     		b	.L61
 1299              	.LVL81:
 1300              	.L62:
 713:Drivers/STM32F0xx_HAL_Driver/Src/stm32f0xx_hal_pcd.c ****     }
 1301              		.loc 1 713 7 is_stmt 0 view .LVU306
 1302              	.LBE6:
 1303              	.LBB7:
 1304              	.LBB5:
 710:Drivers/STM32F0xx_HAL_Driver/Src/stm32f0xx_hal_pcd.c ****       PCD_CLEAR_RX_DTOG(hpcd->Instance, ep->num)
 1305              		.loc 1 710 7 is_stmt 1 discriminator 2 view .LVU307
 1306 01a6 4A08     		lsrs	r2, r1, #1
 1307 01a8 92B2     		uxth	r2, r2
 1308              	.LVL82:
 710:Drivers/STM32F0xx_HAL_Driver/Src/stm32f0xx_hal_pcd.c ****       PCD_CLEAR_RX_DTOG(hpcd->Instance, ep->num)
 1309              		.loc 1 710 7 discriminator 2 view .LVU308
 1310 01aa C907     		lsls	r1, r1, #31
 1311 01ac 01D5     		bpl	.L65
 710:Drivers/STM32F0xx_HAL_Driver/Src/stm32f0xx_hal_pcd.c ****       PCD_CLEAR_RX_DTOG(hpcd->Instance, ep->num)
 1312              		.loc 1 710 7 discriminator 6 view .LVU309
 1313 01ae 0132     		adds	r2, r2, #1
 1314              	.LVL83:
 710:Drivers/STM32F0xx_HAL_Driver/Src/stm32f0xx_hal_pcd.c ****       PCD_CLEAR_RX_DTOG(hpcd->Instance, ep->num)
 1315              		.loc 1 710 7 is_stmt 0 discriminator 6 view .LVU310
 1316 01b0 92B2     		uxth	r2, r2
 1317              	.LVL84:
 1318              	.L65:
ARM GAS  /var/folders/rf/wfq6hz5s56g3yh4wqgd7820c0000gn/T//ccBUdQBH.s 			page 39


 710:Drivers/STM32F0xx_HAL_Driver/Src/stm32f0xx_hal_pcd.c ****       PCD_CLEAR_RX_DTOG(hpcd->Instance, ep->num)
 1319              		.loc 1 710 7 is_stmt 1 discriminator 8 view .LVU311
 1320 01b2 9202     		lsls	r2, r2, #10
 1321              	.LVL85:
 710:Drivers/STM32F0xx_HAL_Driver/Src/stm32f0xx_hal_pcd.c ****       PCD_CLEAR_RX_DTOG(hpcd->Instance, ep->num)
 1322              		.loc 1 710 7 is_stmt 0 discriminator 8 view .LVU312
 1323 01b4 1A80     		strh	r2, [r3]
 1324 01b6 DDE7     		b	.L64
 1325              	.LVL86:
 1326              	.L58:
 710:Drivers/STM32F0xx_HAL_Driver/Src/stm32f0xx_hal_pcd.c ****       PCD_CLEAR_RX_DTOG(hpcd->Instance, ep->num)
 1327              		.loc 1 710 7 discriminator 8 view .LVU313
 1328              	.LBE5:
 1329              	.LBE7:
 720:Drivers/STM32F0xx_HAL_Driver/Src/stm32f0xx_hal_pcd.c ****     /*Set buffer address for double buffered mode*/
 1330              		.loc 1 720 5 is_stmt 1 view .LVU314
 1331 01b8 0568     		ldr	r5, [r0]
 1332 01ba 2378     		ldrb	r3, [r4]
 1333 01bc 9B00     		lsls	r3, r3, #2
 1334 01be EA5A     		ldrh	r2, [r5, r3]
 1335 01c0 5049     		ldr	r1, .L74+40
 1336 01c2 1140     		ands	r1, r2
 1337 01c4 504A     		ldr	r2, .L74+44
 1338 01c6 0A43     		orrs	r2, r1
 1339 01c8 EA52     		strh	r2, [r5, r3]
 722:Drivers/STM32F0xx_HAL_Driver/Src/stm32f0xx_hal_pcd.c ****     
 1340              		.loc 1 722 5 view .LVU315
 1341 01ca E288     		ldrh	r2, [r4, #6]
 1342 01cc 0568     		ldr	r5, [r0]
 1343 01ce 5027     		movs	r7, #80
 1344 01d0 EB5B     		ldrh	r3, [r5, r7]
 1345 01d2 2178     		ldrb	r1, [r4]
 1346 01d4 C900     		lsls	r1, r1, #3
 1347 01d6 5B18     		adds	r3, r3, r1
 1348 01d8 5B19     		adds	r3, r3, r5
 1349 01da 8021     		movs	r1, #128
 1350 01dc C900     		lsls	r1, r1, #3
 1351 01de 8C46     		mov	ip, r1
 1352 01e0 6344     		add	r3, r3, ip
 1353 01e2 0126     		movs	r6, #1
 1354 01e4 B243     		bics	r2, r6
 1355 01e6 1A80     		strh	r2, [r3]
 722:Drivers/STM32F0xx_HAL_Driver/Src/stm32f0xx_hal_pcd.c ****     
 1356              		.loc 1 722 5 view .LVU316
 1357 01e8 2289     		ldrh	r2, [r4, #8]
 1358 01ea 0568     		ldr	r5, [r0]
 1359 01ec EB5B     		ldrh	r3, [r5, r7]
 1360 01ee 2178     		ldrb	r1, [r4]
 1361 01f0 C900     		lsls	r1, r1, #3
 1362 01f2 5B18     		adds	r3, r3, r1
 1363 01f4 5B19     		adds	r3, r3, r5
 1364 01f6 3E49     		ldr	r1, .L74+20
 1365 01f8 8C46     		mov	ip, r1
 1366 01fa 6344     		add	r3, r3, ip
 1367 01fc B243     		bics	r2, r6
 1368 01fe 1A80     		strh	r2, [r3]
 724:Drivers/STM32F0xx_HAL_Driver/Src/stm32f0xx_hal_pcd.c ****     {
ARM GAS  /var/folders/rf/wfq6hz5s56g3yh4wqgd7820c0000gn/T//ccBUdQBH.s 			page 40


 1369              		.loc 1 724 5 view .LVU317
 724:Drivers/STM32F0xx_HAL_Driver/Src/stm32f0xx_hal_pcd.c ****     {
 1370              		.loc 1 724 11 is_stmt 0 view .LVU318
 1371 0200 6378     		ldrb	r3, [r4, #1]
 724:Drivers/STM32F0xx_HAL_Driver/Src/stm32f0xx_hal_pcd.c ****     {
 1372              		.loc 1 724 8 view .LVU319
 1373 0202 002B     		cmp	r3, #0
 1374 0204 35D1     		bne	.L67
 727:Drivers/STM32F0xx_HAL_Driver/Src/stm32f0xx_hal_pcd.c ****       PCD_CLEAR_TX_DTOG(hpcd->Instance, ep->num)
 1375              		.loc 1 727 7 is_stmt 1 view .LVU320
 1376 0206 0268     		ldr	r2, [r0]
 1377 0208 2378     		ldrb	r3, [r4]
 1378 020a 9B00     		lsls	r3, r3, #2
 1379 020c D118     		adds	r1, r2, r3
 1380 020e D35A     		ldrh	r3, [r2, r3]
 1381 0210 5A04     		lsls	r2, r3, #17
 1382 0212 04D5     		bpl	.L68
 727:Drivers/STM32F0xx_HAL_Driver/Src/stm32f0xx_hal_pcd.c ****       PCD_CLEAR_TX_DTOG(hpcd->Instance, ep->num)
 1383              		.loc 1 727 7 discriminator 1 view .LVU321
 1384 0214 324A     		ldr	r2, .L74+4
 1385 0216 1340     		ands	r3, r2
 1386 0218 384A     		ldr	r2, .L74+32
 1387 021a 1343     		orrs	r3, r2
 1388 021c 0B80     		strh	r3, [r1]
 1389              	.L68:
 728:Drivers/STM32F0xx_HAL_Driver/Src/stm32f0xx_hal_pcd.c ****       
 1390              		.loc 1 728 7 view .LVU322
 1391 021e 0268     		ldr	r2, [r0]
 1392 0220 2378     		ldrb	r3, [r4]
 1393 0222 9B00     		lsls	r3, r3, #2
 1394 0224 D118     		adds	r1, r2, r3
 1395 0226 D35A     		ldrh	r3, [r2, r3]
 1396 0228 5A06     		lsls	r2, r3, #25
 1397 022a 04D5     		bpl	.L69
 728:Drivers/STM32F0xx_HAL_Driver/Src/stm32f0xx_hal_pcd.c ****       
 1398              		.loc 1 728 7 discriminator 1 view .LVU323
 1399 022c 2C4A     		ldr	r2, .L74+4
 1400 022e 1340     		ands	r3, r2
 1401 0230 2D4A     		ldr	r2, .L74+12
 1402 0232 1343     		orrs	r3, r2
 1403 0234 0B80     		strh	r3, [r1]
 1404              	.L69:
 731:Drivers/STM32F0xx_HAL_Driver/Src/stm32f0xx_hal_pcd.c ****       
 1405              		.loc 1 731 7 view .LVU324
 1406 0236 0568     		ldr	r5, [r0]
 1407 0238 2378     		ldrb	r3, [r4]
 1408 023a 9B00     		lsls	r3, r3, #2
 1409 023c EA5A     		ldrh	r2, [r5, r3]
 1410 023e 2849     		ldr	r1, .L74+4
 1411 0240 1140     		ands	r1, r2
 1412 0242 294A     		ldr	r2, .L74+12
 1413 0244 0A43     		orrs	r2, r1
 1414 0246 EA52     		strh	r2, [r5, r3]
 1415              	.LBB8:
 733:Drivers/STM32F0xx_HAL_Driver/Src/stm32f0xx_hal_pcd.c ****       PCD_SET_EP_TX_STATUS(hpcd->Instance, ep->num, USB_EP_TX_DIS)
 1416              		.loc 1 733 7 view .LVU325
 733:Drivers/STM32F0xx_HAL_Driver/Src/stm32f0xx_hal_pcd.c ****       PCD_SET_EP_TX_STATUS(hpcd->Instance, ep->num, USB_EP_TX_DIS)
ARM GAS  /var/folders/rf/wfq6hz5s56g3yh4wqgd7820c0000gn/T//ccBUdQBH.s 			page 41


 1417              		.loc 1 733 7 view .LVU326
 1418 0248 0568     		ldr	r5, [r0]
 1419 024a 2178     		ldrb	r1, [r4]
 1420 024c 8900     		lsls	r1, r1, #2
 1421 024e 6B5A     		ldrh	r3, [r5, r1]
 1422 0250 2B4A     		ldr	r2, .L74+36
 1423 0252 1A40     		ands	r2, r3
 1424              	.LVL87:
 733:Drivers/STM32F0xx_HAL_Driver/Src/stm32f0xx_hal_pcd.c ****       PCD_SET_EP_TX_STATUS(hpcd->Instance, ep->num, USB_EP_TX_DIS)
 1425              		.loc 1 733 7 view .LVU327
 733:Drivers/STM32F0xx_HAL_Driver/Src/stm32f0xx_hal_pcd.c ****       PCD_SET_EP_TX_STATUS(hpcd->Instance, ep->num, USB_EP_TX_DIS)
 1426              		.loc 1 733 7 view .LVU328
 733:Drivers/STM32F0xx_HAL_Driver/Src/stm32f0xx_hal_pcd.c ****       PCD_SET_EP_TX_STATUS(hpcd->Instance, ep->num, USB_EP_TX_DIS)
 1427              		.loc 1 733 7 view .LVU329
 733:Drivers/STM32F0xx_HAL_Driver/Src/stm32f0xx_hal_pcd.c ****       PCD_SET_EP_TX_STATUS(hpcd->Instance, ep->num, USB_EP_TX_DIS)
 1428              		.loc 1 733 7 view .LVU330
 1429 0254 C023     		movs	r3, #192
 1430 0256 9B01     		lsls	r3, r3, #6
 1431 0258 5340     		eors	r3, r2
 1432              	.LVL88:
 733:Drivers/STM32F0xx_HAL_Driver/Src/stm32f0xx_hal_pcd.c ****       PCD_SET_EP_TX_STATUS(hpcd->Instance, ep->num, USB_EP_TX_DIS)
 1433              		.loc 1 733 7 view .LVU331
 1434 025a 224A     		ldr	r2, .L74+8
 1435 025c 1343     		orrs	r3, r2
 1436              	.LVL89:
 733:Drivers/STM32F0xx_HAL_Driver/Src/stm32f0xx_hal_pcd.c ****       PCD_SET_EP_TX_STATUS(hpcd->Instance, ep->num, USB_EP_TX_DIS)
 1437              		.loc 1 733 7 is_stmt 0 view .LVU332
 1438 025e 6B52     		strh	r3, [r5, r1]
 1439              	.LVL90:
 733:Drivers/STM32F0xx_HAL_Driver/Src/stm32f0xx_hal_pcd.c ****       PCD_SET_EP_TX_STATUS(hpcd->Instance, ep->num, USB_EP_TX_DIS)
 1440              		.loc 1 733 7 view .LVU333
 1441              	.LBE8:
 1442              	.LBB9:
 734:Drivers/STM32F0xx_HAL_Driver/Src/stm32f0xx_hal_pcd.c ****     }
 1443              		.loc 1 734 7 is_stmt 1 view .LVU334
 734:Drivers/STM32F0xx_HAL_Driver/Src/stm32f0xx_hal_pcd.c ****     }
 1444              		.loc 1 734 7 view .LVU335
 1445 0260 0568     		ldr	r5, [r0]
 1446 0262 2378     		ldrb	r3, [r4]
 1447 0264 9B00     		lsls	r3, r3, #2
 1448 0266 E95A     		ldrh	r1, [r5, r3]
 1449 0268 204C     		ldr	r4, .L74+16
 1450              	.LVL91:
 734:Drivers/STM32F0xx_HAL_Driver/Src/stm32f0xx_hal_pcd.c ****     }
 1451              		.loc 1 734 7 is_stmt 0 view .LVU336
 1452 026a 2140     		ands	r1, r4
 1453              	.LVL92:
 734:Drivers/STM32F0xx_HAL_Driver/Src/stm32f0xx_hal_pcd.c ****     }
 1454              		.loc 1 734 7 is_stmt 1 view .LVU337
 734:Drivers/STM32F0xx_HAL_Driver/Src/stm32f0xx_hal_pcd.c ****     }
 1455              		.loc 1 734 7 view .LVU338
 734:Drivers/STM32F0xx_HAL_Driver/Src/stm32f0xx_hal_pcd.c ****     }
 1456              		.loc 1 734 7 view .LVU339
 1457 026c 0A43     		orrs	r2, r1
 1458 026e EA52     		strh	r2, [r5, r3]
 1459              	.LBE9:
 1460 0270 4DE7     		b	.L61
ARM GAS  /var/folders/rf/wfq6hz5s56g3yh4wqgd7820c0000gn/T//ccBUdQBH.s 			page 42


 1461              	.LVL93:
 1462              	.L67:
 739:Drivers/STM32F0xx_HAL_Driver/Src/stm32f0xx_hal_pcd.c ****       PCD_CLEAR_TX_DTOG(hpcd->Instance, ep->num)
 1463              		.loc 1 739 7 view .LVU340
 1464 0272 0268     		ldr	r2, [r0]
 1465 0274 2378     		ldrb	r3, [r4]
 1466 0276 9B00     		lsls	r3, r3, #2
 1467 0278 D118     		adds	r1, r2, r3
 1468 027a D35A     		ldrh	r3, [r2, r3]
 1469 027c 5A04     		lsls	r2, r3, #17
 1470 027e 04D5     		bpl	.L70
 739:Drivers/STM32F0xx_HAL_Driver/Src/stm32f0xx_hal_pcd.c ****       PCD_CLEAR_TX_DTOG(hpcd->Instance, ep->num)
 1471              		.loc 1 739 7 discriminator 1 view .LVU341
 1472 0280 174A     		ldr	r2, .L74+4
 1473 0282 1340     		ands	r3, r2
 1474 0284 1D4A     		ldr	r2, .L74+32
 1475 0286 1343     		orrs	r3, r2
 1476 0288 0B80     		strh	r3, [r1]
 1477              	.L70:
 740:Drivers/STM32F0xx_HAL_Driver/Src/stm32f0xx_hal_pcd.c ****       PCD_RX_DTOG(hpcd->Instance, ep->num);
 1478              		.loc 1 740 7 view .LVU342
 1479 028a 0268     		ldr	r2, [r0]
 1480 028c 2378     		ldrb	r3, [r4]
 1481 028e 9B00     		lsls	r3, r3, #2
 1482 0290 D118     		adds	r1, r2, r3
 1483 0292 D35A     		ldrh	r3, [r2, r3]
 1484 0294 5A06     		lsls	r2, r3, #25
 1485 0296 04D5     		bpl	.L71
 740:Drivers/STM32F0xx_HAL_Driver/Src/stm32f0xx_hal_pcd.c ****       PCD_RX_DTOG(hpcd->Instance, ep->num);
 1486              		.loc 1 740 7 discriminator 1 view .LVU343
 1487 0298 114A     		ldr	r2, .L74+4
 1488 029a 1340     		ands	r3, r2
 1489 029c 124A     		ldr	r2, .L74+12
 1490 029e 1343     		orrs	r3, r2
 1491 02a0 0B80     		strh	r3, [r1]
 1492              	.L71:
 741:Drivers/STM32F0xx_HAL_Driver/Src/stm32f0xx_hal_pcd.c ****       /* Configure DISABLE status for the Endpoint*/
 1493              		.loc 1 741 7 view .LVU344
 1494 02a2 0568     		ldr	r5, [r0]
 1495 02a4 2378     		ldrb	r3, [r4]
 1496 02a6 9B00     		lsls	r3, r3, #2
 1497 02a8 EA5A     		ldrh	r2, [r5, r3]
 1498 02aa 0D49     		ldr	r1, .L74+4
 1499 02ac 1140     		ands	r1, r2
 1500 02ae 134A     		ldr	r2, .L74+32
 1501 02b0 0A43     		orrs	r2, r1
 1502 02b2 EA52     		strh	r2, [r5, r3]
 1503              	.LBB10:
 743:Drivers/STM32F0xx_HAL_Driver/Src/stm32f0xx_hal_pcd.c ****       PCD_SET_EP_RX_STATUS(hpcd->Instance, ep->num, USB_EP_RX_DIS)
 1504              		.loc 1 743 7 view .LVU345
 743:Drivers/STM32F0xx_HAL_Driver/Src/stm32f0xx_hal_pcd.c ****       PCD_SET_EP_RX_STATUS(hpcd->Instance, ep->num, USB_EP_RX_DIS)
 1505              		.loc 1 743 7 view .LVU346
 1506 02b4 0568     		ldr	r5, [r0]
 1507 02b6 2178     		ldrb	r1, [r4]
 1508 02b8 8900     		lsls	r1, r1, #2
 1509 02ba 6B5A     		ldrh	r3, [r5, r1]
 1510 02bc 0B4A     		ldr	r2, .L74+16
ARM GAS  /var/folders/rf/wfq6hz5s56g3yh4wqgd7820c0000gn/T//ccBUdQBH.s 			page 43


 1511 02be 1340     		ands	r3, r2
 1512              	.LVL94:
 743:Drivers/STM32F0xx_HAL_Driver/Src/stm32f0xx_hal_pcd.c ****       PCD_SET_EP_RX_STATUS(hpcd->Instance, ep->num, USB_EP_RX_DIS)
 1513              		.loc 1 743 7 view .LVU347
 743:Drivers/STM32F0xx_HAL_Driver/Src/stm32f0xx_hal_pcd.c ****       PCD_SET_EP_RX_STATUS(hpcd->Instance, ep->num, USB_EP_RX_DIS)
 1514              		.loc 1 743 7 view .LVU348
 743:Drivers/STM32F0xx_HAL_Driver/Src/stm32f0xx_hal_pcd.c ****       PCD_SET_EP_RX_STATUS(hpcd->Instance, ep->num, USB_EP_RX_DIS)
 1515              		.loc 1 743 7 view .LVU349
 1516 02c0 084A     		ldr	r2, .L74+8
 1517 02c2 1343     		orrs	r3, r2
 1518              	.LVL95:
 743:Drivers/STM32F0xx_HAL_Driver/Src/stm32f0xx_hal_pcd.c ****       PCD_SET_EP_RX_STATUS(hpcd->Instance, ep->num, USB_EP_RX_DIS)
 1519              		.loc 1 743 7 is_stmt 0 view .LVU350
 1520 02c4 6B52     		strh	r3, [r5, r1]
 1521              	.LVL96:
 743:Drivers/STM32F0xx_HAL_Driver/Src/stm32f0xx_hal_pcd.c ****       PCD_SET_EP_RX_STATUS(hpcd->Instance, ep->num, USB_EP_RX_DIS)
 1522              		.loc 1 743 7 view .LVU351
 1523              	.LBE10:
 1524              	.LBB11:
 744:Drivers/STM32F0xx_HAL_Driver/Src/stm32f0xx_hal_pcd.c ****     }
 1525              		.loc 1 744 7 is_stmt 1 view .LVU352
 744:Drivers/STM32F0xx_HAL_Driver/Src/stm32f0xx_hal_pcd.c ****     }
 1526              		.loc 1 744 7 view .LVU353
 1527 02c6 0568     		ldr	r5, [r0]
 1528 02c8 2378     		ldrb	r3, [r4]
 1529 02ca 9B00     		lsls	r3, r3, #2
 1530 02cc E95A     		ldrh	r1, [r5, r3]
 1531 02ce 0C4C     		ldr	r4, .L74+36
 1532              	.LVL97:
 744:Drivers/STM32F0xx_HAL_Driver/Src/stm32f0xx_hal_pcd.c ****     }
 1533              		.loc 1 744 7 is_stmt 0 view .LVU354
 1534 02d0 2140     		ands	r1, r4
 1535              	.LVL98:
 744:Drivers/STM32F0xx_HAL_Driver/Src/stm32f0xx_hal_pcd.c ****     }
 1536              		.loc 1 744 7 is_stmt 1 view .LVU355
 744:Drivers/STM32F0xx_HAL_Driver/Src/stm32f0xx_hal_pcd.c ****     }
 1537              		.loc 1 744 7 view .LVU356
 744:Drivers/STM32F0xx_HAL_Driver/Src/stm32f0xx_hal_pcd.c ****     }
 1538              		.loc 1 744 7 view .LVU357
 1539 02d2 0A43     		orrs	r2, r1
 1540 02d4 EA52     		strh	r2, [r5, r3]
 1541 02d6 1AE7     		b	.L61
 1542              	.LVL99:
 1543              	.L72:
 744:Drivers/STM32F0xx_HAL_Driver/Src/stm32f0xx_hal_pcd.c ****     }
 1544              		.loc 1 744 7 is_stmt 0 view .LVU358
 1545              	.LBE11:
 672:Drivers/STM32F0xx_HAL_Driver/Src/stm32f0xx_hal_pcd.c **** 
 1546              		.loc 1 672 3 view .LVU359
 1547 02d8 0220     		movs	r0, #2
 1548              	.LVL100:
 672:Drivers/STM32F0xx_HAL_Driver/Src/stm32f0xx_hal_pcd.c **** 
 1549              		.loc 1 672 3 view .LVU360
 1550 02da 1DE7     		b	.L51
 1551              	.L75:
 1552              		.align	2
 1553              	.L74:
ARM GAS  /var/folders/rf/wfq6hz5s56g3yh4wqgd7820c0000gn/T//ccBUdQBH.s 			page 44


 1554 02dc 8F89FFFF 		.word	-30321
 1555 02e0 0F0F0000 		.word	3855
 1556 02e4 8080FFFF 		.word	-32640
 1557 02e8 C080FFFF 		.word	-32576
 1558 02ec BF8FFFFF 		.word	-28737
 1559 02f0 04040000 		.word	1028
 1560 02f4 06040000 		.word	1030
 1561 02f8 0080FFFF 		.word	-32768
 1562 02fc 80C0FFFF 		.word	-16256
 1563 0300 8FBFFFFF 		.word	-16497
 1564 0304 0F0E0000 		.word	3599
 1565 0308 8081FFFF 		.word	-32384
 1566              		.cfi_endproc
 1567              	.LFE58:
 1569              		.section	.text.HAL_PCD_EP_Close,"ax",%progbits
 1570              		.align	1
 1571              		.global	HAL_PCD_EP_Close
 1572              		.syntax unified
 1573              		.code	16
 1574              		.thumb_func
 1575              		.fpu softvfp
 1577              	HAL_PCD_EP_Close:
 1578              	.LVL101:
 1579              	.LFB59:
 751:Drivers/STM32F0xx_HAL_Driver/Src/stm32f0xx_hal_pcd.c **** 
 752:Drivers/STM32F0xx_HAL_Driver/Src/stm32f0xx_hal_pcd.c **** 
 753:Drivers/STM32F0xx_HAL_Driver/Src/stm32f0xx_hal_pcd.c **** /**
 754:Drivers/STM32F0xx_HAL_Driver/Src/stm32f0xx_hal_pcd.c ****   * @brief  Deactivate an endpoint
 755:Drivers/STM32F0xx_HAL_Driver/Src/stm32f0xx_hal_pcd.c ****   * @param  hpcd PCD handle
 756:Drivers/STM32F0xx_HAL_Driver/Src/stm32f0xx_hal_pcd.c ****   * @param  ep_addr endpoint address
 757:Drivers/STM32F0xx_HAL_Driver/Src/stm32f0xx_hal_pcd.c ****   * @retval HAL status
 758:Drivers/STM32F0xx_HAL_Driver/Src/stm32f0xx_hal_pcd.c ****   */
 759:Drivers/STM32F0xx_HAL_Driver/Src/stm32f0xx_hal_pcd.c **** HAL_StatusTypeDef HAL_PCD_EP_Close(PCD_HandleTypeDef *hpcd, uint8_t ep_addr)
 760:Drivers/STM32F0xx_HAL_Driver/Src/stm32f0xx_hal_pcd.c **** {  
 1580              		.loc 1 760 1 is_stmt 1 view -0
 1581              		.cfi_startproc
 1582              		@ args = 0, pretend = 0, frame = 0
 1583              		@ frame_needed = 0, uses_anonymous_args = 0
 1584              		.loc 1 760 1 is_stmt 0 view .LVU362
 1585 0000 30B5     		push	{r4, r5, lr}
 1586              	.LCFI6:
 1587              		.cfi_def_cfa_offset 12
 1588              		.cfi_offset 4, -12
 1589              		.cfi_offset 5, -8
 1590              		.cfi_offset 14, -4
 1591 0002 0C00     		movs	r4, r1
 761:Drivers/STM32F0xx_HAL_Driver/Src/stm32f0xx_hal_pcd.c ****   PCD_EPTypeDef *ep;
 1592              		.loc 1 761 3 is_stmt 1 view .LVU363
 762:Drivers/STM32F0xx_HAL_Driver/Src/stm32f0xx_hal_pcd.c ****   
 763:Drivers/STM32F0xx_HAL_Driver/Src/stm32f0xx_hal_pcd.c ****   if ((ep_addr & 0x80U) == 0x80U)
 1593              		.loc 1 763 3 view .LVU364
 1594              		.loc 1 763 25 is_stmt 0 view .LVU365
 1595 0004 4AB2     		sxtb	r2, r1
 1596              		.loc 1 763 6 view .LVU366
 1597 0006 002A     		cmp	r2, #0
 1598 0008 37DB     		blt	.L91
 764:Drivers/STM32F0xx_HAL_Driver/Src/stm32f0xx_hal_pcd.c ****   {
ARM GAS  /var/folders/rf/wfq6hz5s56g3yh4wqgd7820c0000gn/T//ccBUdQBH.s 			page 45


 765:Drivers/STM32F0xx_HAL_Driver/Src/stm32f0xx_hal_pcd.c ****     ep = &hpcd->IN_ep[ep_addr & 0x7FU];
 766:Drivers/STM32F0xx_HAL_Driver/Src/stm32f0xx_hal_pcd.c ****   }
 767:Drivers/STM32F0xx_HAL_Driver/Src/stm32f0xx_hal_pcd.c ****   else
 768:Drivers/STM32F0xx_HAL_Driver/Src/stm32f0xx_hal_pcd.c ****   {
 769:Drivers/STM32F0xx_HAL_Driver/Src/stm32f0xx_hal_pcd.c ****     ep = &hpcd->OUT_ep[ep_addr & 0x7FU];
 1599              		.loc 1 769 5 is_stmt 1 view .LVU367
 1600              		.loc 1 769 32 is_stmt 0 view .LVU368
 1601 000a 7F21     		movs	r1, #127
 1602              	.LVL102:
 1603              		.loc 1 769 32 view .LVU369
 1604 000c 2140     		ands	r1, r4
 1605              		.loc 1 769 8 view .LVU370
 1606 000e CB00     		lsls	r3, r1, #3
 1607 0010 5B1A     		subs	r3, r3, r1
 1608 0012 9B00     		lsls	r3, r3, #2
 1609 0014 0933     		adds	r3, r3, #9
 1610 0016 FF33     		adds	r3, r3, #255
 1611 0018 C318     		adds	r3, r0, r3
 1612              	.LVL103:
 1613              	.L78:
 770:Drivers/STM32F0xx_HAL_Driver/Src/stm32f0xx_hal_pcd.c ****   }
 771:Drivers/STM32F0xx_HAL_Driver/Src/stm32f0xx_hal_pcd.c ****   ep->num   = ep_addr & 0x7FU;
 1614              		.loc 1 771 3 is_stmt 1 view .LVU371
 1615              		.loc 1 771 23 is_stmt 0 view .LVU372
 1616 001a 7F21     		movs	r1, #127
 1617 001c 2140     		ands	r1, r4
 1618              		.loc 1 771 13 view .LVU373
 1619 001e 1970     		strb	r1, [r3]
 772:Drivers/STM32F0xx_HAL_Driver/Src/stm32f0xx_hal_pcd.c ****   
 773:Drivers/STM32F0xx_HAL_Driver/Src/stm32f0xx_hal_pcd.c ****   ep->is_in = (0x80U & ep_addr) != 0U;
 1620              		.loc 1 773 3 is_stmt 1 view .LVU374
 1621              		.loc 1 773 33 is_stmt 0 view .LVU375
 1622 0020 D20F     		lsrs	r2, r2, #31
 1623              	.LVL104:
 1624              		.loc 1 773 13 view .LVU376
 1625 0022 5A70     		strb	r2, [r3, #1]
 774:Drivers/STM32F0xx_HAL_Driver/Src/stm32f0xx_hal_pcd.c ****   
 775:Drivers/STM32F0xx_HAL_Driver/Src/stm32f0xx_hal_pcd.c ****   __HAL_LOCK(hpcd); 
 1626              		.loc 1 775 3 is_stmt 1 view .LVU377
 1627              		.loc 1 775 3 view .LVU378
 1628 0024 F422     		movs	r2, #244
 1629 0026 5200     		lsls	r2, r2, #1
 1630 0028 825C     		ldrb	r2, [r0, r2]
 1631 002a 012A     		cmp	r2, #1
 1632 002c 00D1     		bne	.LCB1521
 1633 002e ABE0     		b	.L90	@long jump
 1634              	.LCB1521:
 1635              		.loc 1 775 3 discriminator 2 view .LVU379
 1636 0030 F422     		movs	r2, #244
 1637 0032 5200     		lsls	r2, r2, #1
 1638 0034 0121     		movs	r1, #1
 1639 0036 8154     		strb	r1, [r0, r2]
 1640              		.loc 1 775 3 discriminator 2 view .LVU380
 776:Drivers/STM32F0xx_HAL_Driver/Src/stm32f0xx_hal_pcd.c **** 
 777:Drivers/STM32F0xx_HAL_Driver/Src/stm32f0xx_hal_pcd.c ****   if (ep->doublebuffer == 0U) 
 1641              		.loc 1 777 3 discriminator 2 view .LVU381
 1642              		.loc 1 777 9 is_stmt 0 discriminator 2 view .LVU382
ARM GAS  /var/folders/rf/wfq6hz5s56g3yh4wqgd7820c0000gn/T//ccBUdQBH.s 			page 46


 1643 0038 9A7A     		ldrb	r2, [r3, #10]
 1644              		.loc 1 777 6 discriminator 2 view .LVU383
 1645 003a 002A     		cmp	r2, #0
 1646 003c 3BD1     		bne	.L80
 778:Drivers/STM32F0xx_HAL_Driver/Src/stm32f0xx_hal_pcd.c ****   {
 779:Drivers/STM32F0xx_HAL_Driver/Src/stm32f0xx_hal_pcd.c ****     if (ep->is_in)
 1647              		.loc 1 779 5 is_stmt 1 view .LVU384
 1648              		.loc 1 779 11 is_stmt 0 view .LVU385
 1649 003e 5A78     		ldrb	r2, [r3, #1]
 1650              		.loc 1 779 8 view .LVU386
 1651 0040 002A     		cmp	r2, #0
 1652 0042 22D0     		beq	.L81
 780:Drivers/STM32F0xx_HAL_Driver/Src/stm32f0xx_hal_pcd.c ****     {
 781:Drivers/STM32F0xx_HAL_Driver/Src/stm32f0xx_hal_pcd.c ****       PCD_CLEAR_TX_DTOG(hpcd->Instance, ep->num)
 1653              		.loc 1 781 7 is_stmt 1 view .LVU387
 1654 0044 0168     		ldr	r1, [r0]
 1655 0046 1A78     		ldrb	r2, [r3]
 1656 0048 9200     		lsls	r2, r2, #2
 1657 004a 8C18     		adds	r4, r1, r2
 1658 004c 8A5A     		ldrh	r2, [r1, r2]
 1659 004e 5106     		lsls	r1, r2, #25
 1660 0050 04D5     		bpl	.L82
 1661              		.loc 1 781 7 discriminator 1 view .LVU388
 1662 0052 4E49     		ldr	r1, .L92
 1663 0054 0A40     		ands	r2, r1
 1664 0056 4E49     		ldr	r1, .L92+4
 1665 0058 0A43     		orrs	r2, r1
 1666 005a 2280     		strh	r2, [r4]
 1667              	.L82:
 1668              	.LBB12:
 782:Drivers/STM32F0xx_HAL_Driver/Src/stm32f0xx_hal_pcd.c ****       /* Configure DISABLE status for the Endpoint*/
 783:Drivers/STM32F0xx_HAL_Driver/Src/stm32f0xx_hal_pcd.c ****       PCD_SET_EP_TX_STATUS(hpcd->Instance, ep->num, USB_EP_TX_DIS)
 1669              		.loc 1 783 7 view .LVU389
 1670              		.loc 1 783 7 view .LVU390
 1671 005c 0468     		ldr	r4, [r0]
 1672 005e 1B78     		ldrb	r3, [r3]
 1673              	.LVL105:
 1674              		.loc 1 783 7 is_stmt 0 view .LVU391
 1675 0060 9B00     		lsls	r3, r3, #2
 1676 0062 E25A     		ldrh	r2, [r4, r3]
 1677 0064 4B49     		ldr	r1, .L92+8
 1678 0066 1140     		ands	r1, r2
 1679              	.LVL106:
 1680              		.loc 1 783 7 is_stmt 1 view .LVU392
 1681              		.loc 1 783 7 view .LVU393
 1682              		.loc 1 783 7 view .LVU394
 1683 0068 4B4A     		ldr	r2, .L92+12
 1684 006a 0A43     		orrs	r2, r1
 1685 006c E252     		strh	r2, [r4, r3]
 1686              	.LVL107:
 1687              	.L83:
 1688              		.loc 1 783 7 is_stmt 0 view .LVU395
 1689              	.LBE12:
 784:Drivers/STM32F0xx_HAL_Driver/Src/stm32f0xx_hal_pcd.c ****     }
 785:Drivers/STM32F0xx_HAL_Driver/Src/stm32f0xx_hal_pcd.c ****     else
 786:Drivers/STM32F0xx_HAL_Driver/Src/stm32f0xx_hal_pcd.c ****     {
 787:Drivers/STM32F0xx_HAL_Driver/Src/stm32f0xx_hal_pcd.c ****       PCD_CLEAR_RX_DTOG(hpcd->Instance, ep->num)
ARM GAS  /var/folders/rf/wfq6hz5s56g3yh4wqgd7820c0000gn/T//ccBUdQBH.s 			page 47


 788:Drivers/STM32F0xx_HAL_Driver/Src/stm32f0xx_hal_pcd.c ****       /* Configure DISABLE status for the Endpoint*/
 789:Drivers/STM32F0xx_HAL_Driver/Src/stm32f0xx_hal_pcd.c ****       PCD_SET_EP_RX_STATUS(hpcd->Instance, ep->num, USB_EP_RX_DIS)
 790:Drivers/STM32F0xx_HAL_Driver/Src/stm32f0xx_hal_pcd.c ****     }
 791:Drivers/STM32F0xx_HAL_Driver/Src/stm32f0xx_hal_pcd.c ****   }
 792:Drivers/STM32F0xx_HAL_Driver/Src/stm32f0xx_hal_pcd.c ****   /*Double Buffer*/
 793:Drivers/STM32F0xx_HAL_Driver/Src/stm32f0xx_hal_pcd.c ****   else
 794:Drivers/STM32F0xx_HAL_Driver/Src/stm32f0xx_hal_pcd.c ****   { 
 795:Drivers/STM32F0xx_HAL_Driver/Src/stm32f0xx_hal_pcd.c ****     if (ep->is_in==0U)
 796:Drivers/STM32F0xx_HAL_Driver/Src/stm32f0xx_hal_pcd.c ****     {
 797:Drivers/STM32F0xx_HAL_Driver/Src/stm32f0xx_hal_pcd.c ****       /* Clear the data toggle bits for the endpoint IN/OUT*/
 798:Drivers/STM32F0xx_HAL_Driver/Src/stm32f0xx_hal_pcd.c ****       PCD_CLEAR_RX_DTOG(hpcd->Instance, ep->num)
 799:Drivers/STM32F0xx_HAL_Driver/Src/stm32f0xx_hal_pcd.c ****       PCD_CLEAR_TX_DTOG(hpcd->Instance, ep->num)
 800:Drivers/STM32F0xx_HAL_Driver/Src/stm32f0xx_hal_pcd.c ****       
 801:Drivers/STM32F0xx_HAL_Driver/Src/stm32f0xx_hal_pcd.c ****       /* Reset value of the data toggle bits for the endpoint out*/
 802:Drivers/STM32F0xx_HAL_Driver/Src/stm32f0xx_hal_pcd.c ****       PCD_TX_DTOG(hpcd->Instance, ep->num);
 803:Drivers/STM32F0xx_HAL_Driver/Src/stm32f0xx_hal_pcd.c ****       
 804:Drivers/STM32F0xx_HAL_Driver/Src/stm32f0xx_hal_pcd.c ****       PCD_SET_EP_RX_STATUS(hpcd->Instance, ep->num, USB_EP_RX_DIS)
 805:Drivers/STM32F0xx_HAL_Driver/Src/stm32f0xx_hal_pcd.c ****       PCD_SET_EP_TX_STATUS(hpcd->Instance, ep->num, USB_EP_TX_DIS)
 806:Drivers/STM32F0xx_HAL_Driver/Src/stm32f0xx_hal_pcd.c ****     }
 807:Drivers/STM32F0xx_HAL_Driver/Src/stm32f0xx_hal_pcd.c ****     else
 808:Drivers/STM32F0xx_HAL_Driver/Src/stm32f0xx_hal_pcd.c ****     {
 809:Drivers/STM32F0xx_HAL_Driver/Src/stm32f0xx_hal_pcd.c ****       /* Clear the data toggle bits for the endpoint IN/OUT*/
 810:Drivers/STM32F0xx_HAL_Driver/Src/stm32f0xx_hal_pcd.c ****       PCD_CLEAR_RX_DTOG(hpcd->Instance, ep->num)
 811:Drivers/STM32F0xx_HAL_Driver/Src/stm32f0xx_hal_pcd.c ****       PCD_CLEAR_TX_DTOG(hpcd->Instance, ep->num)
 812:Drivers/STM32F0xx_HAL_Driver/Src/stm32f0xx_hal_pcd.c ****       PCD_RX_DTOG(hpcd->Instance, ep->num);
 813:Drivers/STM32F0xx_HAL_Driver/Src/stm32f0xx_hal_pcd.c ****       /* Configure DISABLE status for the Endpoint*/
 814:Drivers/STM32F0xx_HAL_Driver/Src/stm32f0xx_hal_pcd.c ****       PCD_SET_EP_TX_STATUS(hpcd->Instance, ep->num, USB_EP_TX_DIS)
 815:Drivers/STM32F0xx_HAL_Driver/Src/stm32f0xx_hal_pcd.c ****       PCD_SET_EP_RX_STATUS(hpcd->Instance, ep->num, USB_EP_RX_DIS)
 816:Drivers/STM32F0xx_HAL_Driver/Src/stm32f0xx_hal_pcd.c ****     }
 817:Drivers/STM32F0xx_HAL_Driver/Src/stm32f0xx_hal_pcd.c ****   } 
 818:Drivers/STM32F0xx_HAL_Driver/Src/stm32f0xx_hal_pcd.c ****   
 819:Drivers/STM32F0xx_HAL_Driver/Src/stm32f0xx_hal_pcd.c ****   __HAL_UNLOCK(hpcd);   
 1690              		.loc 1 819 3 is_stmt 1 view .LVU396
 1691              		.loc 1 819 3 view .LVU397
 1692 006e F423     		movs	r3, #244
 1693 0070 5B00     		lsls	r3, r3, #1
 1694 0072 0022     		movs	r2, #0
 1695 0074 C254     		strb	r2, [r0, r3]
 1696              		.loc 1 819 3 view .LVU398
 820:Drivers/STM32F0xx_HAL_Driver/Src/stm32f0xx_hal_pcd.c ****   return HAL_OK;
 1697              		.loc 1 820 3 view .LVU399
 1698              		.loc 1 820 10 is_stmt 0 view .LVU400
 1699 0076 0020     		movs	r0, #0
 1700              	.LVL108:
 1701              	.L79:
 821:Drivers/STM32F0xx_HAL_Driver/Src/stm32f0xx_hal_pcd.c **** }
 1702              		.loc 1 821 1 view .LVU401
 1703              		@ sp needed
 1704 0078 30BD     		pop	{r4, r5, pc}
 1705              	.LVL109:
 1706              	.L91:
 765:Drivers/STM32F0xx_HAL_Driver/Src/stm32f0xx_hal_pcd.c ****   }
 1707              		.loc 1 765 5 is_stmt 1 view .LVU402
 765:Drivers/STM32F0xx_HAL_Driver/Src/stm32f0xx_hal_pcd.c ****   }
 1708              		.loc 1 765 31 is_stmt 0 view .LVU403
 1709 007a 7F21     		movs	r1, #127
 1710              	.LVL110:
ARM GAS  /var/folders/rf/wfq6hz5s56g3yh4wqgd7820c0000gn/T//ccBUdQBH.s 			page 48


 765:Drivers/STM32F0xx_HAL_Driver/Src/stm32f0xx_hal_pcd.c ****   }
 1711              		.loc 1 765 31 view .LVU404
 1712 007c 2140     		ands	r1, r4
 765:Drivers/STM32F0xx_HAL_Driver/Src/stm32f0xx_hal_pcd.c ****   }
 1713              		.loc 1 765 8 view .LVU405
 1714 007e CB00     		lsls	r3, r1, #3
 1715 0080 5B1A     		subs	r3, r3, r1
 1716 0082 9B00     		lsls	r3, r3, #2
 1717 0084 2833     		adds	r3, r3, #40
 1718 0086 C318     		adds	r3, r0, r3
 1719              	.LVL111:
 765:Drivers/STM32F0xx_HAL_Driver/Src/stm32f0xx_hal_pcd.c ****   }
 1720              		.loc 1 765 8 view .LVU406
 1721 0088 C7E7     		b	.L78
 1722              	.LVL112:
 1723              	.L81:
 787:Drivers/STM32F0xx_HAL_Driver/Src/stm32f0xx_hal_pcd.c ****       /* Configure DISABLE status for the Endpoint*/
 1724              		.loc 1 787 7 is_stmt 1 view .LVU407
 1725 008a 0168     		ldr	r1, [r0]
 1726 008c 1A78     		ldrb	r2, [r3]
 1727 008e 9200     		lsls	r2, r2, #2
 1728 0090 8C18     		adds	r4, r1, r2
 1729 0092 8A5A     		ldrh	r2, [r1, r2]
 1730 0094 5104     		lsls	r1, r2, #17
 1731 0096 04D5     		bpl	.L84
 787:Drivers/STM32F0xx_HAL_Driver/Src/stm32f0xx_hal_pcd.c ****       /* Configure DISABLE status for the Endpoint*/
 1732              		.loc 1 787 7 discriminator 1 view .LVU408
 1733 0098 3C49     		ldr	r1, .L92
 1734 009a 0A40     		ands	r2, r1
 1735 009c 3F49     		ldr	r1, .L92+16
 1736 009e 0A43     		orrs	r2, r1
 1737 00a0 2280     		strh	r2, [r4]
 1738              	.L84:
 1739              	.LBB13:
 789:Drivers/STM32F0xx_HAL_Driver/Src/stm32f0xx_hal_pcd.c ****     }
 1740              		.loc 1 789 7 view .LVU409
 789:Drivers/STM32F0xx_HAL_Driver/Src/stm32f0xx_hal_pcd.c ****     }
 1741              		.loc 1 789 7 view .LVU410
 1742 00a2 0468     		ldr	r4, [r0]
 1743 00a4 1B78     		ldrb	r3, [r3]
 1744              	.LVL113:
 789:Drivers/STM32F0xx_HAL_Driver/Src/stm32f0xx_hal_pcd.c ****     }
 1745              		.loc 1 789 7 is_stmt 0 view .LVU411
 1746 00a6 9B00     		lsls	r3, r3, #2
 1747 00a8 E25A     		ldrh	r2, [r4, r3]
 1748 00aa 3D49     		ldr	r1, .L92+20
 1749 00ac 1140     		ands	r1, r2
 1750              	.LVL114:
 789:Drivers/STM32F0xx_HAL_Driver/Src/stm32f0xx_hal_pcd.c ****     }
 1751              		.loc 1 789 7 is_stmt 1 view .LVU412
 789:Drivers/STM32F0xx_HAL_Driver/Src/stm32f0xx_hal_pcd.c ****     }
 1752              		.loc 1 789 7 view .LVU413
 789:Drivers/STM32F0xx_HAL_Driver/Src/stm32f0xx_hal_pcd.c ****     }
 1753              		.loc 1 789 7 view .LVU414
 1754 00ae 3A4A     		ldr	r2, .L92+12
 1755 00b0 0A43     		orrs	r2, r1
 1756 00b2 E252     		strh	r2, [r4, r3]
ARM GAS  /var/folders/rf/wfq6hz5s56g3yh4wqgd7820c0000gn/T//ccBUdQBH.s 			page 49


 1757 00b4 DBE7     		b	.L83
 1758              	.LVL115:
 1759              	.L80:
 789:Drivers/STM32F0xx_HAL_Driver/Src/stm32f0xx_hal_pcd.c ****     }
 1760              		.loc 1 789 7 is_stmt 0 view .LVU415
 1761              	.LBE13:
 795:Drivers/STM32F0xx_HAL_Driver/Src/stm32f0xx_hal_pcd.c ****     {
 1762              		.loc 1 795 5 is_stmt 1 view .LVU416
 795:Drivers/STM32F0xx_HAL_Driver/Src/stm32f0xx_hal_pcd.c ****     {
 1763              		.loc 1 795 11 is_stmt 0 view .LVU417
 1764 00b6 5A78     		ldrb	r2, [r3, #1]
 795:Drivers/STM32F0xx_HAL_Driver/Src/stm32f0xx_hal_pcd.c ****     {
 1765              		.loc 1 795 8 view .LVU418
 1766 00b8 002A     		cmp	r2, #0
 1767 00ba 32D1     		bne	.L85
 798:Drivers/STM32F0xx_HAL_Driver/Src/stm32f0xx_hal_pcd.c ****       PCD_CLEAR_TX_DTOG(hpcd->Instance, ep->num)
 1768              		.loc 1 798 7 is_stmt 1 view .LVU419
 1769 00bc 0168     		ldr	r1, [r0]
 1770 00be 1A78     		ldrb	r2, [r3]
 1771 00c0 9200     		lsls	r2, r2, #2
 1772 00c2 8C18     		adds	r4, r1, r2
 1773 00c4 8A5A     		ldrh	r2, [r1, r2]
 1774 00c6 5104     		lsls	r1, r2, #17
 1775 00c8 04D5     		bpl	.L86
 798:Drivers/STM32F0xx_HAL_Driver/Src/stm32f0xx_hal_pcd.c ****       PCD_CLEAR_TX_DTOG(hpcd->Instance, ep->num)
 1776              		.loc 1 798 7 discriminator 1 view .LVU420
 1777 00ca 3049     		ldr	r1, .L92
 1778 00cc 0A40     		ands	r2, r1
 1779 00ce 3349     		ldr	r1, .L92+16
 1780 00d0 0A43     		orrs	r2, r1
 1781 00d2 2280     		strh	r2, [r4]
 1782              	.L86:
 799:Drivers/STM32F0xx_HAL_Driver/Src/stm32f0xx_hal_pcd.c ****       
 1783              		.loc 1 799 7 view .LVU421
 1784 00d4 0168     		ldr	r1, [r0]
 1785 00d6 1A78     		ldrb	r2, [r3]
 1786 00d8 9200     		lsls	r2, r2, #2
 1787 00da 8C18     		adds	r4, r1, r2
 1788 00dc 8A5A     		ldrh	r2, [r1, r2]
 1789 00de 5106     		lsls	r1, r2, #25
 1790 00e0 04D5     		bpl	.L87
 799:Drivers/STM32F0xx_HAL_Driver/Src/stm32f0xx_hal_pcd.c ****       
 1791              		.loc 1 799 7 discriminator 1 view .LVU422
 1792 00e2 2A49     		ldr	r1, .L92
 1793 00e4 0A40     		ands	r2, r1
 1794 00e6 2A49     		ldr	r1, .L92+4
 1795 00e8 0A43     		orrs	r2, r1
 1796 00ea 2280     		strh	r2, [r4]
 1797              	.L87:
 802:Drivers/STM32F0xx_HAL_Driver/Src/stm32f0xx_hal_pcd.c ****       
 1798              		.loc 1 802 7 view .LVU423
 1799 00ec 0568     		ldr	r5, [r0]
 1800 00ee 1A78     		ldrb	r2, [r3]
 1801 00f0 9200     		lsls	r2, r2, #2
 1802 00f2 A95A     		ldrh	r1, [r5, r2]
 1803 00f4 254C     		ldr	r4, .L92
 1804 00f6 0C40     		ands	r4, r1
ARM GAS  /var/folders/rf/wfq6hz5s56g3yh4wqgd7820c0000gn/T//ccBUdQBH.s 			page 50


 1805 00f8 2549     		ldr	r1, .L92+4
 1806 00fa 2143     		orrs	r1, r4
 1807 00fc A952     		strh	r1, [r5, r2]
 1808              	.LBB14:
 804:Drivers/STM32F0xx_HAL_Driver/Src/stm32f0xx_hal_pcd.c ****       PCD_SET_EP_TX_STATUS(hpcd->Instance, ep->num, USB_EP_TX_DIS)
 1809              		.loc 1 804 7 view .LVU424
 804:Drivers/STM32F0xx_HAL_Driver/Src/stm32f0xx_hal_pcd.c ****       PCD_SET_EP_TX_STATUS(hpcd->Instance, ep->num, USB_EP_TX_DIS)
 1810              		.loc 1 804 7 view .LVU425
 1811 00fe 0568     		ldr	r5, [r0]
 1812 0100 1C78     		ldrb	r4, [r3]
 1813 0102 A400     		lsls	r4, r4, #2
 1814 0104 2A5B     		ldrh	r2, [r5, r4]
 1815 0106 2649     		ldr	r1, .L92+20
 1816 0108 0A40     		ands	r2, r1
 1817              	.LVL116:
 804:Drivers/STM32F0xx_HAL_Driver/Src/stm32f0xx_hal_pcd.c ****       PCD_SET_EP_TX_STATUS(hpcd->Instance, ep->num, USB_EP_TX_DIS)
 1818              		.loc 1 804 7 view .LVU426
 804:Drivers/STM32F0xx_HAL_Driver/Src/stm32f0xx_hal_pcd.c ****       PCD_SET_EP_TX_STATUS(hpcd->Instance, ep->num, USB_EP_TX_DIS)
 1819              		.loc 1 804 7 view .LVU427
 804:Drivers/STM32F0xx_HAL_Driver/Src/stm32f0xx_hal_pcd.c ****       PCD_SET_EP_TX_STATUS(hpcd->Instance, ep->num, USB_EP_TX_DIS)
 1820              		.loc 1 804 7 view .LVU428
 1821 010a 2349     		ldr	r1, .L92+12
 1822 010c 0A43     		orrs	r2, r1
 1823              	.LVL117:
 804:Drivers/STM32F0xx_HAL_Driver/Src/stm32f0xx_hal_pcd.c ****       PCD_SET_EP_TX_STATUS(hpcd->Instance, ep->num, USB_EP_TX_DIS)
 1824              		.loc 1 804 7 is_stmt 0 view .LVU429
 1825 010e 2A53     		strh	r2, [r5, r4]
 1826              	.LVL118:
 804:Drivers/STM32F0xx_HAL_Driver/Src/stm32f0xx_hal_pcd.c ****       PCD_SET_EP_TX_STATUS(hpcd->Instance, ep->num, USB_EP_TX_DIS)
 1827              		.loc 1 804 7 view .LVU430
 1828              	.LBE14:
 1829              	.LBB15:
 805:Drivers/STM32F0xx_HAL_Driver/Src/stm32f0xx_hal_pcd.c ****     }
 1830              		.loc 1 805 7 is_stmt 1 view .LVU431
 805:Drivers/STM32F0xx_HAL_Driver/Src/stm32f0xx_hal_pcd.c ****     }
 1831              		.loc 1 805 7 view .LVU432
 1832 0110 0468     		ldr	r4, [r0]
 1833 0112 1B78     		ldrb	r3, [r3]
 1834              	.LVL119:
 805:Drivers/STM32F0xx_HAL_Driver/Src/stm32f0xx_hal_pcd.c ****     }
 1835              		.loc 1 805 7 is_stmt 0 view .LVU433
 1836 0114 9B00     		lsls	r3, r3, #2
 1837 0116 E25A     		ldrh	r2, [r4, r3]
 1838 0118 1E4D     		ldr	r5, .L92+8
 1839 011a 2A40     		ands	r2, r5
 1840              	.LVL120:
 805:Drivers/STM32F0xx_HAL_Driver/Src/stm32f0xx_hal_pcd.c ****     }
 1841              		.loc 1 805 7 is_stmt 1 view .LVU434
 805:Drivers/STM32F0xx_HAL_Driver/Src/stm32f0xx_hal_pcd.c ****     }
 1842              		.loc 1 805 7 view .LVU435
 805:Drivers/STM32F0xx_HAL_Driver/Src/stm32f0xx_hal_pcd.c ****     }
 1843              		.loc 1 805 7 view .LVU436
 1844 011c 1143     		orrs	r1, r2
 1845 011e E152     		strh	r1, [r4, r3]
 1846              	.LBE15:
 1847 0120 A5E7     		b	.L83
 1848              	.LVL121:
ARM GAS  /var/folders/rf/wfq6hz5s56g3yh4wqgd7820c0000gn/T//ccBUdQBH.s 			page 51


 1849              	.L85:
 810:Drivers/STM32F0xx_HAL_Driver/Src/stm32f0xx_hal_pcd.c ****       PCD_CLEAR_TX_DTOG(hpcd->Instance, ep->num)
 1850              		.loc 1 810 7 view .LVU437
 1851 0122 0168     		ldr	r1, [r0]
 1852 0124 1A78     		ldrb	r2, [r3]
 1853 0126 9200     		lsls	r2, r2, #2
 1854 0128 8C18     		adds	r4, r1, r2
 1855 012a 8A5A     		ldrh	r2, [r1, r2]
 1856 012c 5104     		lsls	r1, r2, #17
 1857 012e 04D5     		bpl	.L88
 810:Drivers/STM32F0xx_HAL_Driver/Src/stm32f0xx_hal_pcd.c ****       PCD_CLEAR_TX_DTOG(hpcd->Instance, ep->num)
 1858              		.loc 1 810 7 discriminator 1 view .LVU438
 1859 0130 1649     		ldr	r1, .L92
 1860 0132 0A40     		ands	r2, r1
 1861 0134 1949     		ldr	r1, .L92+16
 1862 0136 0A43     		orrs	r2, r1
 1863 0138 2280     		strh	r2, [r4]
 1864              	.L88:
 811:Drivers/STM32F0xx_HAL_Driver/Src/stm32f0xx_hal_pcd.c ****       PCD_RX_DTOG(hpcd->Instance, ep->num);
 1865              		.loc 1 811 7 view .LVU439
 1866 013a 0168     		ldr	r1, [r0]
 1867 013c 1A78     		ldrb	r2, [r3]
 1868 013e 9200     		lsls	r2, r2, #2
 1869 0140 8C18     		adds	r4, r1, r2
 1870 0142 8A5A     		ldrh	r2, [r1, r2]
 1871 0144 5106     		lsls	r1, r2, #25
 1872 0146 04D5     		bpl	.L89
 811:Drivers/STM32F0xx_HAL_Driver/Src/stm32f0xx_hal_pcd.c ****       PCD_RX_DTOG(hpcd->Instance, ep->num);
 1873              		.loc 1 811 7 discriminator 1 view .LVU440
 1874 0148 1049     		ldr	r1, .L92
 1875 014a 0A40     		ands	r2, r1
 1876 014c 1049     		ldr	r1, .L92+4
 1877 014e 0A43     		orrs	r2, r1
 1878 0150 2280     		strh	r2, [r4]
 1879              	.L89:
 812:Drivers/STM32F0xx_HAL_Driver/Src/stm32f0xx_hal_pcd.c ****       /* Configure DISABLE status for the Endpoint*/
 1880              		.loc 1 812 7 view .LVU441
 1881 0152 0568     		ldr	r5, [r0]
 1882 0154 1A78     		ldrb	r2, [r3]
 1883 0156 9200     		lsls	r2, r2, #2
 1884 0158 A95A     		ldrh	r1, [r5, r2]
 1885 015a 0C4C     		ldr	r4, .L92
 1886 015c 0C40     		ands	r4, r1
 1887 015e 0F49     		ldr	r1, .L92+16
 1888 0160 2143     		orrs	r1, r4
 1889 0162 A952     		strh	r1, [r5, r2]
 1890              	.LBB16:
 814:Drivers/STM32F0xx_HAL_Driver/Src/stm32f0xx_hal_pcd.c ****       PCD_SET_EP_RX_STATUS(hpcd->Instance, ep->num, USB_EP_RX_DIS)
 1891              		.loc 1 814 7 view .LVU442
 814:Drivers/STM32F0xx_HAL_Driver/Src/stm32f0xx_hal_pcd.c ****       PCD_SET_EP_RX_STATUS(hpcd->Instance, ep->num, USB_EP_RX_DIS)
 1892              		.loc 1 814 7 view .LVU443
 1893 0164 0568     		ldr	r5, [r0]
 1894 0166 1C78     		ldrb	r4, [r3]
 1895 0168 A400     		lsls	r4, r4, #2
 1896 016a 2A5B     		ldrh	r2, [r5, r4]
 1897 016c 0949     		ldr	r1, .L92+8
 1898 016e 0A40     		ands	r2, r1
ARM GAS  /var/folders/rf/wfq6hz5s56g3yh4wqgd7820c0000gn/T//ccBUdQBH.s 			page 52


 1899              	.LVL122:
 814:Drivers/STM32F0xx_HAL_Driver/Src/stm32f0xx_hal_pcd.c ****       PCD_SET_EP_RX_STATUS(hpcd->Instance, ep->num, USB_EP_RX_DIS)
 1900              		.loc 1 814 7 view .LVU444
 814:Drivers/STM32F0xx_HAL_Driver/Src/stm32f0xx_hal_pcd.c ****       PCD_SET_EP_RX_STATUS(hpcd->Instance, ep->num, USB_EP_RX_DIS)
 1901              		.loc 1 814 7 view .LVU445
 814:Drivers/STM32F0xx_HAL_Driver/Src/stm32f0xx_hal_pcd.c ****       PCD_SET_EP_RX_STATUS(hpcd->Instance, ep->num, USB_EP_RX_DIS)
 1902              		.loc 1 814 7 view .LVU446
 1903 0170 0949     		ldr	r1, .L92+12
 1904 0172 0A43     		orrs	r2, r1
 1905              	.LVL123:
 814:Drivers/STM32F0xx_HAL_Driver/Src/stm32f0xx_hal_pcd.c ****       PCD_SET_EP_RX_STATUS(hpcd->Instance, ep->num, USB_EP_RX_DIS)
 1906              		.loc 1 814 7 is_stmt 0 view .LVU447
 1907 0174 2A53     		strh	r2, [r5, r4]
 1908              	.LVL124:
 814:Drivers/STM32F0xx_HAL_Driver/Src/stm32f0xx_hal_pcd.c ****       PCD_SET_EP_RX_STATUS(hpcd->Instance, ep->num, USB_EP_RX_DIS)
 1909              		.loc 1 814 7 view .LVU448
 1910              	.LBE16:
 1911              	.LBB17:
 815:Drivers/STM32F0xx_HAL_Driver/Src/stm32f0xx_hal_pcd.c ****     }
 1912              		.loc 1 815 7 is_stmt 1 view .LVU449
 815:Drivers/STM32F0xx_HAL_Driver/Src/stm32f0xx_hal_pcd.c ****     }
 1913              		.loc 1 815 7 view .LVU450
 1914 0176 0468     		ldr	r4, [r0]
 1915 0178 1B78     		ldrb	r3, [r3]
 1916              	.LVL125:
 815:Drivers/STM32F0xx_HAL_Driver/Src/stm32f0xx_hal_pcd.c ****     }
 1917              		.loc 1 815 7 is_stmt 0 view .LVU451
 1918 017a 9B00     		lsls	r3, r3, #2
 1919 017c E25A     		ldrh	r2, [r4, r3]
 1920 017e 084D     		ldr	r5, .L92+20
 1921 0180 2A40     		ands	r2, r5
 1922              	.LVL126:
 815:Drivers/STM32F0xx_HAL_Driver/Src/stm32f0xx_hal_pcd.c ****     }
 1923              		.loc 1 815 7 is_stmt 1 view .LVU452
 815:Drivers/STM32F0xx_HAL_Driver/Src/stm32f0xx_hal_pcd.c ****     }
 1924              		.loc 1 815 7 view .LVU453
 815:Drivers/STM32F0xx_HAL_Driver/Src/stm32f0xx_hal_pcd.c ****     }
 1925              		.loc 1 815 7 view .LVU454
 1926 0182 1143     		orrs	r1, r2
 1927 0184 E152     		strh	r1, [r4, r3]
 1928 0186 72E7     		b	.L83
 1929              	.LVL127:
 1930              	.L90:
 815:Drivers/STM32F0xx_HAL_Driver/Src/stm32f0xx_hal_pcd.c ****     }
 1931              		.loc 1 815 7 is_stmt 0 view .LVU455
 1932              	.LBE17:
 775:Drivers/STM32F0xx_HAL_Driver/Src/stm32f0xx_hal_pcd.c **** 
 1933              		.loc 1 775 3 view .LVU456
 1934 0188 0220     		movs	r0, #2
 1935              	.LVL128:
 775:Drivers/STM32F0xx_HAL_Driver/Src/stm32f0xx_hal_pcd.c **** 
 1936              		.loc 1 775 3 view .LVU457
 1937 018a 75E7     		b	.L79
 1938              	.L93:
 1939              		.align	2
 1940              	.L92:
 1941 018c 0F0F0000 		.word	3855
ARM GAS  /var/folders/rf/wfq6hz5s56g3yh4wqgd7820c0000gn/T//ccBUdQBH.s 			page 53


 1942 0190 C080FFFF 		.word	-32576
 1943 0194 BF8FFFFF 		.word	-28737
 1944 0198 8080FFFF 		.word	-32640
 1945 019c 80C0FFFF 		.word	-16256
 1946 01a0 8FBFFFFF 		.word	-16497
 1947              		.cfi_endproc
 1948              	.LFE59:
 1950              		.section	.text.HAL_PCD_EP_Receive,"ax",%progbits
 1951              		.align	1
 1952              		.global	HAL_PCD_EP_Receive
 1953              		.syntax unified
 1954              		.code	16
 1955              		.thumb_func
 1956              		.fpu softvfp
 1958              	HAL_PCD_EP_Receive:
 1959              	.LVL129:
 1960              	.LFB60:
 822:Drivers/STM32F0xx_HAL_Driver/Src/stm32f0xx_hal_pcd.c **** 
 823:Drivers/STM32F0xx_HAL_Driver/Src/stm32f0xx_hal_pcd.c **** 
 824:Drivers/STM32F0xx_HAL_Driver/Src/stm32f0xx_hal_pcd.c **** /**
 825:Drivers/STM32F0xx_HAL_Driver/Src/stm32f0xx_hal_pcd.c ****   * @brief  Receive an amount of data  
 826:Drivers/STM32F0xx_HAL_Driver/Src/stm32f0xx_hal_pcd.c ****   * @param  hpcd PCD handle
 827:Drivers/STM32F0xx_HAL_Driver/Src/stm32f0xx_hal_pcd.c ****   * @param  ep_addr endpoint address
 828:Drivers/STM32F0xx_HAL_Driver/Src/stm32f0xx_hal_pcd.c ****   * @param  pBuf pointer to the reception buffer   
 829:Drivers/STM32F0xx_HAL_Driver/Src/stm32f0xx_hal_pcd.c ****   * @param  len amount of data to be received
 830:Drivers/STM32F0xx_HAL_Driver/Src/stm32f0xx_hal_pcd.c ****   * @retval HAL status
 831:Drivers/STM32F0xx_HAL_Driver/Src/stm32f0xx_hal_pcd.c ****   */
 832:Drivers/STM32F0xx_HAL_Driver/Src/stm32f0xx_hal_pcd.c **** HAL_StatusTypeDef HAL_PCD_EP_Receive(PCD_HandleTypeDef *hpcd, uint8_t ep_addr, uint8_t *pBuf, uint3
 833:Drivers/STM32F0xx_HAL_Driver/Src/stm32f0xx_hal_pcd.c **** {
 1961              		.loc 1 833 1 is_stmt 1 view -0
 1962              		.cfi_startproc
 1963              		@ args = 0, pretend = 0, frame = 0
 1964              		@ frame_needed = 0, uses_anonymous_args = 0
 1965              		.loc 1 833 1 is_stmt 0 view .LVU459
 1966 0000 30B5     		push	{r4, r5, lr}
 1967              	.LCFI7:
 1968              		.cfi_def_cfa_offset 12
 1969              		.cfi_offset 4, -12
 1970              		.cfi_offset 5, -8
 1971              		.cfi_offset 14, -4
 834:Drivers/STM32F0xx_HAL_Driver/Src/stm32f0xx_hal_pcd.c ****   
 835:Drivers/STM32F0xx_HAL_Driver/Src/stm32f0xx_hal_pcd.c ****  PCD_EPTypeDef *ep;
 1972              		.loc 1 835 2 is_stmt 1 view .LVU460
 836:Drivers/STM32F0xx_HAL_Driver/Src/stm32f0xx_hal_pcd.c ****   
 837:Drivers/STM32F0xx_HAL_Driver/Src/stm32f0xx_hal_pcd.c ****   ep = &hpcd->OUT_ep[ep_addr & 0x7FU];
 1973              		.loc 1 837 3 view .LVU461
 1974 0002 7F24     		movs	r4, #127
 1975 0004 2140     		ands	r1, r4
 1976              	.LVL130:
 838:Drivers/STM32F0xx_HAL_Driver/Src/stm32f0xx_hal_pcd.c ****   
 839:Drivers/STM32F0xx_HAL_Driver/Src/stm32f0xx_hal_pcd.c ****   /*setup and start the Xfer */
 840:Drivers/STM32F0xx_HAL_Driver/Src/stm32f0xx_hal_pcd.c ****   ep->xfer_buff = pBuf;  
 1977              		.loc 1 840 3 view .LVU462
 1978              		.loc 1 840 17 is_stmt 0 view .LVU463
 1979 0006 CC00     		lsls	r4, r1, #3
 1980 0008 641A     		subs	r4, r4, r1
 1981 000a A400     		lsls	r4, r4, #2
ARM GAS  /var/folders/rf/wfq6hz5s56g3yh4wqgd7820c0000gn/T//ccBUdQBH.s 			page 54


 1982 000c 0419     		adds	r4, r0, r4
 1983 000e 2500     		movs	r5, r4
 1984 0010 1935     		adds	r5, r5, #25
 1985 0012 FF35     		adds	r5, r5, #255
 1986 0014 2A60     		str	r2, [r5]
 841:Drivers/STM32F0xx_HAL_Driver/Src/stm32f0xx_hal_pcd.c ****   ep->xfer_len = len;
 1987              		.loc 1 841 3 is_stmt 1 view .LVU464
 1988              		.loc 1 841 16 is_stmt 0 view .LVU465
 1989 0016 2200     		movs	r2, r4
 1990              	.LVL131:
 1991              		.loc 1 841 16 view .LVU466
 1992 0018 1D32     		adds	r2, r2, #29
 1993 001a FF32     		adds	r2, r2, #255
 1994 001c 1360     		str	r3, [r2]
 842:Drivers/STM32F0xx_HAL_Driver/Src/stm32f0xx_hal_pcd.c ****   ep->xfer_count = 0U;
 1995              		.loc 1 842 3 is_stmt 1 view .LVU467
 1996              		.loc 1 842 18 is_stmt 0 view .LVU468
 1997 001e 0835     		adds	r5, r5, #8
 1998              	.LVL132:
 1999              		.loc 1 842 18 view .LVU469
 2000 0020 0022     		movs	r2, #0
 2001 0022 2A60     		str	r2, [r5]
 843:Drivers/STM32F0xx_HAL_Driver/Src/stm32f0xx_hal_pcd.c ****   ep->is_in = 0U;
 2002              		.loc 1 843 3 is_stmt 1 view .LVU470
 2003              		.loc 1 843 13 is_stmt 0 view .LVU471
 2004 0024 173D     		subs	r5, r5, #23
 2005              	.LVL133:
 2006              		.loc 1 843 13 view .LVU472
 2007 0026 2A70     		strb	r2, [r5]
 844:Drivers/STM32F0xx_HAL_Driver/Src/stm32f0xx_hal_pcd.c ****   ep->num = ep_addr & 0x7FU;
 2008              		.loc 1 844 3 is_stmt 1 view .LVU473
 2009              		.loc 1 844 11 is_stmt 0 view .LVU474
 2010 0028 2200     		movs	r2, r4
 2011 002a 0932     		adds	r2, r2, #9
 2012 002c FF32     		adds	r2, r2, #255
 2013 002e 1170     		strb	r1, [r2]
 845:Drivers/STM32F0xx_HAL_Driver/Src/stm32f0xx_hal_pcd.c ****    
 846:Drivers/STM32F0xx_HAL_Driver/Src/stm32f0xx_hal_pcd.c ****   /* Multi packet transfer*/
 847:Drivers/STM32F0xx_HAL_Driver/Src/stm32f0xx_hal_pcd.c ****   if (ep->xfer_len > ep->maxpacket)
 2014              		.loc 1 847 3 is_stmt 1 view .LVU475
 2015              		.loc 1 847 24 is_stmt 0 view .LVU476
 2016 0030 1534     		adds	r4, r4, #21
 2017 0032 FF34     		adds	r4, r4, #255
 2018 0034 2268     		ldr	r2, [r4]
 2019              		.loc 1 847 6 view .LVU477
 2020 0036 9342     		cmp	r3, r2
 2021 0038 41D9     		bls	.L95
 848:Drivers/STM32F0xx_HAL_Driver/Src/stm32f0xx_hal_pcd.c ****   {
 849:Drivers/STM32F0xx_HAL_Driver/Src/stm32f0xx_hal_pcd.c ****     len=ep->maxpacket;
 2022              		.loc 1 849 5 is_stmt 1 view .LVU478
 2023              	.LVL134:
 850:Drivers/STM32F0xx_HAL_Driver/Src/stm32f0xx_hal_pcd.c ****     ep->xfer_len-=len; 
 2024              		.loc 1 850 5 view .LVU479
 2025              		.loc 1 850 17 is_stmt 0 view .LVU480
 2026 003a CC00     		lsls	r4, r1, #3
 2027 003c 641A     		subs	r4, r4, r1
 2028 003e A400     		lsls	r4, r4, #2
ARM GAS  /var/folders/rf/wfq6hz5s56g3yh4wqgd7820c0000gn/T//ccBUdQBH.s 			page 55


 2029 0040 0419     		adds	r4, r0, r4
 2030 0042 1D34     		adds	r4, r4, #29
 2031 0044 FF34     		adds	r4, r4, #255
 2032 0046 9B1A     		subs	r3, r3, r2
 2033 0048 2360     		str	r3, [r4]
 2034              	.LVL135:
 2035              	.L96:
 851:Drivers/STM32F0xx_HAL_Driver/Src/stm32f0xx_hal_pcd.c ****   }
 852:Drivers/STM32F0xx_HAL_Driver/Src/stm32f0xx_hal_pcd.c ****   else
 853:Drivers/STM32F0xx_HAL_Driver/Src/stm32f0xx_hal_pcd.c ****   {
 854:Drivers/STM32F0xx_HAL_Driver/Src/stm32f0xx_hal_pcd.c ****     len=ep->xfer_len;
 855:Drivers/STM32F0xx_HAL_Driver/Src/stm32f0xx_hal_pcd.c ****     ep->xfer_len =0U;
 856:Drivers/STM32F0xx_HAL_Driver/Src/stm32f0xx_hal_pcd.c ****   }
 857:Drivers/STM32F0xx_HAL_Driver/Src/stm32f0xx_hal_pcd.c ****   
 858:Drivers/STM32F0xx_HAL_Driver/Src/stm32f0xx_hal_pcd.c ****   /* configure and validate Rx endpoint */
 859:Drivers/STM32F0xx_HAL_Driver/Src/stm32f0xx_hal_pcd.c ****   if (ep->doublebuffer == 0) 
 2036              		.loc 1 859 3 is_stmt 1 view .LVU481
 2037              		.loc 1 859 9 is_stmt 0 view .LVU482
 2038 004a CB00     		lsls	r3, r1, #3
 2039 004c 5B1A     		subs	r3, r3, r1
 2040 004e 9B00     		lsls	r3, r3, #2
 2041 0050 C318     		adds	r3, r0, r3
 2042 0052 1333     		adds	r3, r3, #19
 2043 0054 FF33     		adds	r3, r3, #255
 2044 0056 1B78     		ldrb	r3, [r3]
 2045              		.loc 1 859 6 view .LVU483
 2046 0058 002B     		cmp	r3, #0
 2047 005a 43D1     		bne	.L97
 2048              	.LBB18:
 860:Drivers/STM32F0xx_HAL_Driver/Src/stm32f0xx_hal_pcd.c ****   {
 861:Drivers/STM32F0xx_HAL_Driver/Src/stm32f0xx_hal_pcd.c ****     /*Set RX buffer count*/
 862:Drivers/STM32F0xx_HAL_Driver/Src/stm32f0xx_hal_pcd.c ****     PCD_SET_EP_RX_CNT(hpcd->Instance, ep->num, len)
 2049              		.loc 1 862 5 is_stmt 1 view .LVU484
 2050 005c 0468     		ldr	r4, [r0]
 2051 005e 5033     		adds	r3, r3, #80
 2052 0060 E55A     		ldrh	r5, [r4, r3]
 2053 0062 CB00     		lsls	r3, r1, #3
 2054 0064 5B1A     		subs	r3, r3, r1
 2055 0066 9B00     		lsls	r3, r3, #2
 2056 0068 C318     		adds	r3, r0, r3
 2057 006a 0933     		adds	r3, r3, #9
 2058 006c FF33     		adds	r3, r3, #255
 2059 006e 1B78     		ldrb	r3, [r3]
 2060 0070 DB00     		lsls	r3, r3, #3
 2061 0072 EB18     		adds	r3, r5, r3
 2062 0074 1C19     		adds	r4, r3, r4
 2063 0076 604B     		ldr	r3, .L112
 2064 0078 9C46     		mov	ip, r3
 2065 007a 6444     		add	r4, r4, ip
 2066              	.LVL136:
 2067              	.LBB19:
 2068              		.loc 1 862 5 view .LVU485
 2069              		.loc 1 862 5 view .LVU486
 2070 007c 3E2A     		cmp	r2, #62
 2071 007e 28D9     		bls	.L98
 2072              		.loc 1 862 5 discriminator 1 view .LVU487
 2073 0080 5309     		lsrs	r3, r2, #5
ARM GAS  /var/folders/rf/wfq6hz5s56g3yh4wqgd7820c0000gn/T//ccBUdQBH.s 			page 56


 2074 0082 9BB2     		uxth	r3, r3
 2075              	.LVL137:
 2076              		.loc 1 862 5 discriminator 1 view .LVU488
 2077 0084 D206     		lsls	r2, r2, #27
 2078 0086 01D1     		bne	.L99
 2079              	.LVL138:
 2080              		.loc 1 862 5 discriminator 3 view .LVU489
 2081 0088 013B     		subs	r3, r3, #1
 2082              	.LVL139:
 2083              		.loc 1 862 5 is_stmt 0 discriminator 3 view .LVU490
 2084 008a 9BB2     		uxth	r3, r3
 2085              	.LVL140:
 2086              	.L99:
 2087              		.loc 1 862 5 is_stmt 1 discriminator 5 view .LVU491
 2088 008c 9B02     		lsls	r3, r3, #10
 2089              	.LVL141:
 2090              		.loc 1 862 5 is_stmt 0 discriminator 5 view .LVU492
 2091 008e 9BB2     		uxth	r3, r3
 2092 0090 5A4A     		ldr	r2, .L112+4
 2093 0092 1343     		orrs	r3, r2
 2094 0094 2380     		strh	r3, [r4]
 2095              	.LVL142:
 2096              	.L100:
 2097              		.loc 1 862 5 discriminator 5 view .LVU493
 2098              	.LBE19:
 2099              	.LBE18:
 2100              	.LBB21:
 863:Drivers/STM32F0xx_HAL_Driver/Src/stm32f0xx_hal_pcd.c ****   }
 864:Drivers/STM32F0xx_HAL_Driver/Src/stm32f0xx_hal_pcd.c ****   else
 865:Drivers/STM32F0xx_HAL_Driver/Src/stm32f0xx_hal_pcd.c ****   {
 866:Drivers/STM32F0xx_HAL_Driver/Src/stm32f0xx_hal_pcd.c ****     /*Set the Double buffer counter*/
 867:Drivers/STM32F0xx_HAL_Driver/Src/stm32f0xx_hal_pcd.c ****     PCD_SET_EP_DBUF_CNT(hpcd->Instance, ep->num, ep->is_in, len)
 868:Drivers/STM32F0xx_HAL_Driver/Src/stm32f0xx_hal_pcd.c ****   } 
 869:Drivers/STM32F0xx_HAL_Driver/Src/stm32f0xx_hal_pcd.c ****   
 870:Drivers/STM32F0xx_HAL_Driver/Src/stm32f0xx_hal_pcd.c ****   PCD_SET_EP_RX_STATUS(hpcd->Instance, ep->num, USB_EP_RX_VALID)
 2101              		.loc 1 870 3 is_stmt 1 view .LVU494
 2102              		.loc 1 870 3 view .LVU495
 2103 0096 0468     		ldr	r4, [r0]
 2104 0098 CB00     		lsls	r3, r1, #3
 2105 009a 591A     		subs	r1, r3, r1
 2106              	.LVL143:
 2107              		.loc 1 870 3 is_stmt 0 view .LVU496
 2108 009c 8900     		lsls	r1, r1, #2
 2109 009e 4018     		adds	r0, r0, r1
 2110              	.LVL144:
 2111              		.loc 1 870 3 view .LVU497
 2112 00a0 0930     		adds	r0, r0, #9
 2113 00a2 FF30     		adds	r0, r0, #255
 2114 00a4 0378     		ldrb	r3, [r0]
 2115 00a6 9B00     		lsls	r3, r3, #2
 2116 00a8 E15A     		ldrh	r1, [r4, r3]
 2117 00aa 554A     		ldr	r2, .L112+8
 2118 00ac 1140     		ands	r1, r2
 2119              	.LVL145:
 2120              		.loc 1 870 3 is_stmt 1 view .LVU498
 2121              		.loc 1 870 3 view .LVU499
 2122              		.loc 1 870 3 view .LVU500
ARM GAS  /var/folders/rf/wfq6hz5s56g3yh4wqgd7820c0000gn/T//ccBUdQBH.s 			page 57


 2123              		.loc 1 870 3 view .LVU501
 2124 00ae C022     		movs	r2, #192
 2125 00b0 9201     		lsls	r2, r2, #6
 2126 00b2 5140     		eors	r1, r2
 2127              	.LVL146:
 2128              		.loc 1 870 3 view .LVU502
 2129 00b4 534A     		ldr	r2, .L112+12
 2130 00b6 0A43     		orrs	r2, r1
 2131 00b8 E252     		strh	r2, [r4, r3]
 2132              	.LBE21:
 871:Drivers/STM32F0xx_HAL_Driver/Src/stm32f0xx_hal_pcd.c ****   
 872:Drivers/STM32F0xx_HAL_Driver/Src/stm32f0xx_hal_pcd.c ****   return HAL_OK;
 2133              		.loc 1 872 3 view .LVU503
 873:Drivers/STM32F0xx_HAL_Driver/Src/stm32f0xx_hal_pcd.c **** }
 2134              		.loc 1 873 1 is_stmt 0 view .LVU504
 2135 00ba 0020     		movs	r0, #0
 2136              		@ sp needed
 2137 00bc 30BD     		pop	{r4, r5, pc}
 2138              	.LVL147:
 2139              	.L95:
 854:Drivers/STM32F0xx_HAL_Driver/Src/stm32f0xx_hal_pcd.c ****     ep->xfer_len =0U;
 2140              		.loc 1 854 5 is_stmt 1 view .LVU505
 855:Drivers/STM32F0xx_HAL_Driver/Src/stm32f0xx_hal_pcd.c ****   }
 2141              		.loc 1 855 5 view .LVU506
 855:Drivers/STM32F0xx_HAL_Driver/Src/stm32f0xx_hal_pcd.c ****   }
 2142              		.loc 1 855 18 is_stmt 0 view .LVU507
 2143 00be CA00     		lsls	r2, r1, #3
 2144 00c0 521A     		subs	r2, r2, r1
 2145 00c2 9200     		lsls	r2, r2, #2
 2146 00c4 8218     		adds	r2, r0, r2
 2147 00c6 1D32     		adds	r2, r2, #29
 2148 00c8 FF32     		adds	r2, r2, #255
 2149 00ca 0024     		movs	r4, #0
 2150 00cc 1460     		str	r4, [r2]
 2151              	.LVL148:
 854:Drivers/STM32F0xx_HAL_Driver/Src/stm32f0xx_hal_pcd.c ****     ep->xfer_len =0U;
 2152              		.loc 1 854 8 view .LVU508
 2153 00ce 1A00     		movs	r2, r3
 2154 00d0 BBE7     		b	.L96
 2155              	.LVL149:
 2156              	.L98:
 2157              	.LBB22:
 2158              	.LBB20:
 862:Drivers/STM32F0xx_HAL_Driver/Src/stm32f0xx_hal_pcd.c ****   }
 2159              		.loc 1 862 5 is_stmt 1 discriminator 2 view .LVU509
 2160 00d2 5308     		lsrs	r3, r2, #1
 2161 00d4 9BB2     		uxth	r3, r3
 2162              	.LVL150:
 862:Drivers/STM32F0xx_HAL_Driver/Src/stm32f0xx_hal_pcd.c ****   }
 2163              		.loc 1 862 5 discriminator 2 view .LVU510
 2164 00d6 D207     		lsls	r2, r2, #31
 2165 00d8 01D5     		bpl	.L101
 2166              	.LVL151:
 862:Drivers/STM32F0xx_HAL_Driver/Src/stm32f0xx_hal_pcd.c ****   }
 2167              		.loc 1 862 5 discriminator 6 view .LVU511
 2168 00da 0133     		adds	r3, r3, #1
 2169              	.LVL152:
ARM GAS  /var/folders/rf/wfq6hz5s56g3yh4wqgd7820c0000gn/T//ccBUdQBH.s 			page 58


 862:Drivers/STM32F0xx_HAL_Driver/Src/stm32f0xx_hal_pcd.c ****   }
 2170              		.loc 1 862 5 is_stmt 0 discriminator 6 view .LVU512
 2171 00dc 9BB2     		uxth	r3, r3
 2172              	.LVL153:
 2173              	.L101:
 862:Drivers/STM32F0xx_HAL_Driver/Src/stm32f0xx_hal_pcd.c ****   }
 2174              		.loc 1 862 5 is_stmt 1 discriminator 8 view .LVU513
 2175 00de 9B02     		lsls	r3, r3, #10
 2176              	.LVL154:
 862:Drivers/STM32F0xx_HAL_Driver/Src/stm32f0xx_hal_pcd.c ****   }
 2177              		.loc 1 862 5 is_stmt 0 discriminator 8 view .LVU514
 2178 00e0 2380     		strh	r3, [r4]
 2179 00e2 D8E7     		b	.L100
 2180              	.LVL155:
 2181              	.L97:
 862:Drivers/STM32F0xx_HAL_Driver/Src/stm32f0xx_hal_pcd.c ****   }
 2182              		.loc 1 862 5 discriminator 8 view .LVU515
 2183              	.LBE20:
 2184              	.LBE22:
 867:Drivers/STM32F0xx_HAL_Driver/Src/stm32f0xx_hal_pcd.c ****   } 
 2185              		.loc 1 867 5 is_stmt 1 view .LVU516
 2186 00e4 CB00     		lsls	r3, r1, #3
 2187 00e6 5B1A     		subs	r3, r3, r1
 2188 00e8 9B00     		lsls	r3, r3, #2
 2189 00ea C318     		adds	r3, r0, r3
 2190 00ec 0A33     		adds	r3, r3, #10
 2191 00ee FF33     		adds	r3, r3, #255
 2192 00f0 1B78     		ldrb	r3, [r3]
 2193 00f2 002B     		cmp	r3, #0
 2194 00f4 26D1     		bne	.L102
 2195              	.LBB23:
 867:Drivers/STM32F0xx_HAL_Driver/Src/stm32f0xx_hal_pcd.c ****   } 
 2196              		.loc 1 867 5 discriminator 1 view .LVU517
 2197 00f6 0468     		ldr	r4, [r0]
 2198 00f8 5033     		adds	r3, r3, #80
 2199 00fa E55A     		ldrh	r5, [r4, r3]
 2200 00fc CB00     		lsls	r3, r1, #3
 2201 00fe 5B1A     		subs	r3, r3, r1
 2202 0100 9B00     		lsls	r3, r3, #2
 2203 0102 C318     		adds	r3, r0, r3
 2204 0104 0933     		adds	r3, r3, #9
 2205 0106 FF33     		adds	r3, r3, #255
 2206 0108 1B78     		ldrb	r3, [r3]
 2207 010a DB00     		lsls	r3, r3, #3
 2208 010c EB18     		adds	r3, r5, r3
 2209 010e 1C19     		adds	r4, r3, r4
 2210 0110 3D4B     		ldr	r3, .L112+16
 2211 0112 9C46     		mov	ip, r3
 2212 0114 6444     		add	r4, r4, ip
 2213              	.LVL156:
 2214              	.LBB24:
 867:Drivers/STM32F0xx_HAL_Driver/Src/stm32f0xx_hal_pcd.c ****   } 
 2215              		.loc 1 867 5 discriminator 1 view .LVU518
 867:Drivers/STM32F0xx_HAL_Driver/Src/stm32f0xx_hal_pcd.c ****   } 
 2216              		.loc 1 867 5 discriminator 1 view .LVU519
 2217 0116 3E2A     		cmp	r2, #62
 2218 0118 0BD9     		bls	.L103
ARM GAS  /var/folders/rf/wfq6hz5s56g3yh4wqgd7820c0000gn/T//ccBUdQBH.s 			page 59


 867:Drivers/STM32F0xx_HAL_Driver/Src/stm32f0xx_hal_pcd.c ****   } 
 2219              		.loc 1 867 5 discriminator 3 view .LVU520
 2220 011a 5309     		lsrs	r3, r2, #5
 2221 011c 9BB2     		uxth	r3, r3
 2222              	.LVL157:
 867:Drivers/STM32F0xx_HAL_Driver/Src/stm32f0xx_hal_pcd.c ****   } 
 2223              		.loc 1 867 5 discriminator 3 view .LVU521
 2224 011e D506     		lsls	r5, r2, #27
 2225 0120 01D1     		bne	.L104
 867:Drivers/STM32F0xx_HAL_Driver/Src/stm32f0xx_hal_pcd.c ****   } 
 2226              		.loc 1 867 5 discriminator 5 view .LVU522
 2227 0122 013B     		subs	r3, r3, #1
 2228              	.LVL158:
 867:Drivers/STM32F0xx_HAL_Driver/Src/stm32f0xx_hal_pcd.c ****   } 
 2229              		.loc 1 867 5 is_stmt 0 discriminator 5 view .LVU523
 2230 0124 9BB2     		uxth	r3, r3
 2231              	.LVL159:
 2232              	.L104:
 867:Drivers/STM32F0xx_HAL_Driver/Src/stm32f0xx_hal_pcd.c ****   } 
 2233              		.loc 1 867 5 is_stmt 1 discriminator 7 view .LVU524
 2234 0126 9B02     		lsls	r3, r3, #10
 2235              	.LVL160:
 867:Drivers/STM32F0xx_HAL_Driver/Src/stm32f0xx_hal_pcd.c ****   } 
 2236              		.loc 1 867 5 is_stmt 0 discriminator 7 view .LVU525
 2237 0128 9BB2     		uxth	r3, r3
 2238 012a 344D     		ldr	r5, .L112+4
 2239 012c 2B43     		orrs	r3, r5
 2240 012e 2380     		strh	r3, [r4]
 2241 0130 0AE0     		b	.L105
 2242              	.L103:
 867:Drivers/STM32F0xx_HAL_Driver/Src/stm32f0xx_hal_pcd.c ****   } 
 2243              		.loc 1 867 5 is_stmt 1 discriminator 4 view .LVU526
 2244 0132 5308     		lsrs	r3, r2, #1
 2245 0134 9BB2     		uxth	r3, r3
 2246              	.LVL161:
 867:Drivers/STM32F0xx_HAL_Driver/Src/stm32f0xx_hal_pcd.c ****   } 
 2247              		.loc 1 867 5 discriminator 4 view .LVU527
 2248 0136 D507     		lsls	r5, r2, #31
 2249 0138 01D5     		bpl	.L106
 867:Drivers/STM32F0xx_HAL_Driver/Src/stm32f0xx_hal_pcd.c ****   } 
 2250              		.loc 1 867 5 discriminator 8 view .LVU528
 2251 013a 0133     		adds	r3, r3, #1
 2252              	.LVL162:
 867:Drivers/STM32F0xx_HAL_Driver/Src/stm32f0xx_hal_pcd.c ****   } 
 2253              		.loc 1 867 5 is_stmt 0 discriminator 8 view .LVU529
 2254 013c 9BB2     		uxth	r3, r3
 2255              	.LVL163:
 2256              	.L106:
 867:Drivers/STM32F0xx_HAL_Driver/Src/stm32f0xx_hal_pcd.c ****   } 
 2257              		.loc 1 867 5 is_stmt 1 discriminator 10 view .LVU530
 2258 013e 9B02     		lsls	r3, r3, #10
 2259              	.LVL164:
 867:Drivers/STM32F0xx_HAL_Driver/Src/stm32f0xx_hal_pcd.c ****   } 
 2260              		.loc 1 867 5 is_stmt 0 discriminator 10 view .LVU531
 2261 0140 2380     		strh	r3, [r4]
 2262 0142 01E0     		b	.L105
 2263              	.LVL165:
ARM GAS  /var/folders/rf/wfq6hz5s56g3yh4wqgd7820c0000gn/T//ccBUdQBH.s 			page 60


 2264              	.L102:
 867:Drivers/STM32F0xx_HAL_Driver/Src/stm32f0xx_hal_pcd.c ****   } 
 2265              		.loc 1 867 5 discriminator 10 view .LVU532
 2266              	.LBE24:
 2267              	.LBE23:
 867:Drivers/STM32F0xx_HAL_Driver/Src/stm32f0xx_hal_pcd.c ****   } 
 2268              		.loc 1 867 5 is_stmt 1 discriminator 2 view .LVU533
 2269 0144 012B     		cmp	r3, #1
 2270 0146 26D0     		beq	.L111
 2271              	.L105:
 867:Drivers/STM32F0xx_HAL_Driver/Src/stm32f0xx_hal_pcd.c ****   } 
 2272              		.loc 1 867 5 discriminator 13 view .LVU534
 2273 0148 CB00     		lsls	r3, r1, #3
 2274 014a 5B1A     		subs	r3, r3, r1
 2275 014c 9B00     		lsls	r3, r3, #2
 2276 014e C318     		adds	r3, r0, r3
 2277 0150 0A33     		adds	r3, r3, #10
 2278 0152 FF33     		adds	r3, r3, #255
 2279 0154 1B78     		ldrb	r3, [r3]
 2280 0156 002B     		cmp	r3, #0
 2281 0158 38D1     		bne	.L107
 2282              	.LBB25:
 867:Drivers/STM32F0xx_HAL_Driver/Src/stm32f0xx_hal_pcd.c ****   } 
 2283              		.loc 1 867 5 discriminator 14 view .LVU535
 2284 015a 0468     		ldr	r4, [r0]
 2285 015c 5033     		adds	r3, r3, #80
 2286 015e E55A     		ldrh	r5, [r4, r3]
 2287 0160 CB00     		lsls	r3, r1, #3
 2288 0162 5B1A     		subs	r3, r3, r1
 2289 0164 9B00     		lsls	r3, r3, #2
 2290 0166 C318     		adds	r3, r0, r3
 2291 0168 0933     		adds	r3, r3, #9
 2292 016a FF33     		adds	r3, r3, #255
 2293 016c 1B78     		ldrb	r3, [r3]
 2294 016e DB00     		lsls	r3, r3, #3
 2295 0170 EB18     		adds	r3, r5, r3
 2296 0172 1C19     		adds	r4, r3, r4
 2297 0174 204B     		ldr	r3, .L112
 2298 0176 9C46     		mov	ip, r3
 2299 0178 6444     		add	r4, r4, ip
 2300              	.LVL166:
 2301              	.LBB26:
 867:Drivers/STM32F0xx_HAL_Driver/Src/stm32f0xx_hal_pcd.c ****   } 
 2302              		.loc 1 867 5 discriminator 14 view .LVU536
 867:Drivers/STM32F0xx_HAL_Driver/Src/stm32f0xx_hal_pcd.c ****   } 
 2303              		.loc 1 867 5 discriminator 14 view .LVU537
 2304 017a 3E2A     		cmp	r2, #62
 2305 017c 1DD9     		bls	.L108
 867:Drivers/STM32F0xx_HAL_Driver/Src/stm32f0xx_hal_pcd.c ****   } 
 2306              		.loc 1 867 5 discriminator 16 view .LVU538
 2307 017e 5309     		lsrs	r3, r2, #5
 2308 0180 9BB2     		uxth	r3, r3
 2309              	.LVL167:
 867:Drivers/STM32F0xx_HAL_Driver/Src/stm32f0xx_hal_pcd.c ****   } 
 2310              		.loc 1 867 5 discriminator 16 view .LVU539
 2311 0182 D206     		lsls	r2, r2, #27
 2312 0184 01D1     		bne	.L109
ARM GAS  /var/folders/rf/wfq6hz5s56g3yh4wqgd7820c0000gn/T//ccBUdQBH.s 			page 61


 2313              	.LVL168:
 867:Drivers/STM32F0xx_HAL_Driver/Src/stm32f0xx_hal_pcd.c ****   } 
 2314              		.loc 1 867 5 discriminator 18 view .LVU540
 2315 0186 013B     		subs	r3, r3, #1
 2316              	.LVL169:
 867:Drivers/STM32F0xx_HAL_Driver/Src/stm32f0xx_hal_pcd.c ****   } 
 2317              		.loc 1 867 5 is_stmt 0 discriminator 18 view .LVU541
 2318 0188 9BB2     		uxth	r3, r3
 2319              	.LVL170:
 2320              	.L109:
 867:Drivers/STM32F0xx_HAL_Driver/Src/stm32f0xx_hal_pcd.c ****   } 
 2321              		.loc 1 867 5 is_stmt 1 discriminator 20 view .LVU542
 2322 018a 9B02     		lsls	r3, r3, #10
 2323              	.LVL171:
 867:Drivers/STM32F0xx_HAL_Driver/Src/stm32f0xx_hal_pcd.c ****   } 
 2324              		.loc 1 867 5 is_stmt 0 discriminator 20 view .LVU543
 2325 018c 9BB2     		uxth	r3, r3
 2326 018e 1B4A     		ldr	r2, .L112+4
 2327 0190 1343     		orrs	r3, r2
 2328 0192 2380     		strh	r3, [r4]
 2329 0194 7FE7     		b	.L100
 2330              	.LVL172:
 2331              	.L111:
 867:Drivers/STM32F0xx_HAL_Driver/Src/stm32f0xx_hal_pcd.c ****   } 
 2332              		.loc 1 867 5 discriminator 20 view .LVU544
 2333              	.LBE26:
 2334              	.LBE25:
 867:Drivers/STM32F0xx_HAL_Driver/Src/stm32f0xx_hal_pcd.c ****   } 
 2335              		.loc 1 867 5 is_stmt 1 discriminator 11 view .LVU545
 2336 0196 0468     		ldr	r4, [r0]
 2337 0198 4F33     		adds	r3, r3, #79
 2338 019a E55A     		ldrh	r5, [r4, r3]
 2339 019c CB00     		lsls	r3, r1, #3
 2340 019e 5B1A     		subs	r3, r3, r1
 2341 01a0 9B00     		lsls	r3, r3, #2
 2342 01a2 C318     		adds	r3, r0, r3
 2343 01a4 0933     		adds	r3, r3, #9
 2344 01a6 FF33     		adds	r3, r3, #255
 2345 01a8 1B78     		ldrb	r3, [r3]
 2346 01aa DB00     		lsls	r3, r3, #3
 2347 01ac EB18     		adds	r3, r5, r3
 2348 01ae 1C19     		adds	r4, r3, r4
 2349 01b0 154B     		ldr	r3, .L112+16
 2350 01b2 9C46     		mov	ip, r3
 2351 01b4 6444     		add	r4, r4, ip
 2352 01b6 2280     		strh	r2, [r4]
 2353 01b8 C6E7     		b	.L105
 2354              	.LVL173:
 2355              	.L108:
 2356              	.LBB28:
 2357              	.LBB27:
 867:Drivers/STM32F0xx_HAL_Driver/Src/stm32f0xx_hal_pcd.c ****   } 
 2358              		.loc 1 867 5 discriminator 17 view .LVU546
 2359 01ba 5308     		lsrs	r3, r2, #1
 2360 01bc 9BB2     		uxth	r3, r3
 2361              	.LVL174:
 867:Drivers/STM32F0xx_HAL_Driver/Src/stm32f0xx_hal_pcd.c ****   } 
ARM GAS  /var/folders/rf/wfq6hz5s56g3yh4wqgd7820c0000gn/T//ccBUdQBH.s 			page 62


 2362              		.loc 1 867 5 discriminator 17 view .LVU547
 2363 01be D207     		lsls	r2, r2, #31
 2364 01c0 01D5     		bpl	.L110
 2365              	.LVL175:
 867:Drivers/STM32F0xx_HAL_Driver/Src/stm32f0xx_hal_pcd.c ****   } 
 2366              		.loc 1 867 5 discriminator 21 view .LVU548
 2367 01c2 0133     		adds	r3, r3, #1
 2368              	.LVL176:
 867:Drivers/STM32F0xx_HAL_Driver/Src/stm32f0xx_hal_pcd.c ****   } 
 2369              		.loc 1 867 5 is_stmt 0 discriminator 21 view .LVU549
 2370 01c4 9BB2     		uxth	r3, r3
 2371              	.LVL177:
 2372              	.L110:
 867:Drivers/STM32F0xx_HAL_Driver/Src/stm32f0xx_hal_pcd.c ****   } 
 2373              		.loc 1 867 5 is_stmt 1 discriminator 23 view .LVU550
 2374 01c6 9B02     		lsls	r3, r3, #10
 2375              	.LVL178:
 867:Drivers/STM32F0xx_HAL_Driver/Src/stm32f0xx_hal_pcd.c ****   } 
 2376              		.loc 1 867 5 is_stmt 0 discriminator 23 view .LVU551
 2377 01c8 2380     		strh	r3, [r4]
 2378 01ca 64E7     		b	.L100
 2379              	.LVL179:
 2380              	.L107:
 867:Drivers/STM32F0xx_HAL_Driver/Src/stm32f0xx_hal_pcd.c ****   } 
 2381              		.loc 1 867 5 discriminator 23 view .LVU552
 2382              	.LBE27:
 2383              	.LBE28:
 867:Drivers/STM32F0xx_HAL_Driver/Src/stm32f0xx_hal_pcd.c ****   } 
 2384              		.loc 1 867 5 is_stmt 1 discriminator 15 view .LVU553
 2385 01cc 012B     		cmp	r3, #1
 2386 01ce 00D0     		beq	.LCB2407
 2387 01d0 61E7     		b	.L100	@long jump
 2388              	.LCB2407:
 867:Drivers/STM32F0xx_HAL_Driver/Src/stm32f0xx_hal_pcd.c ****   } 
 2389              		.loc 1 867 5 discriminator 24 view .LVU554
 2390 01d2 0468     		ldr	r4, [r0]
 2391 01d4 4F33     		adds	r3, r3, #79
 2392 01d6 E55A     		ldrh	r5, [r4, r3]
 2393 01d8 CB00     		lsls	r3, r1, #3
 2394 01da 5B1A     		subs	r3, r3, r1
 2395 01dc 9B00     		lsls	r3, r3, #2
 2396 01de C318     		adds	r3, r0, r3
 2397 01e0 0933     		adds	r3, r3, #9
 2398 01e2 FF33     		adds	r3, r3, #255
 2399 01e4 1B78     		ldrb	r3, [r3]
 2400 01e6 DB00     		lsls	r3, r3, #3
 2401 01e8 EB18     		adds	r3, r5, r3
 2402 01ea 1C19     		adds	r4, r3, r4
 2403 01ec 024B     		ldr	r3, .L112
 2404 01ee 9C46     		mov	ip, r3
 2405 01f0 6444     		add	r4, r4, ip
 2406 01f2 2280     		strh	r2, [r4]
 2407 01f4 4FE7     		b	.L100
 2408              	.L113:
 2409 01f6 C046     		.align	2
 2410              	.L112:
 2411 01f8 06040000 		.word	1030
ARM GAS  /var/folders/rf/wfq6hz5s56g3yh4wqgd7820c0000gn/T//ccBUdQBH.s 			page 63


 2412 01fc 0080FFFF 		.word	-32768
 2413 0200 8FBFFFFF 		.word	-16497
 2414 0204 8080FFFF 		.word	-32640
 2415 0208 02040000 		.word	1026
 2416              		.cfi_endproc
 2417              	.LFE60:
 2419              		.section	.text.HAL_PCD_EP_GetRxCount,"ax",%progbits
 2420              		.align	1
 2421              		.global	HAL_PCD_EP_GetRxCount
 2422              		.syntax unified
 2423              		.code	16
 2424              		.thumb_func
 2425              		.fpu softvfp
 2427              	HAL_PCD_EP_GetRxCount:
 2428              	.LVL180:
 2429              	.LFB61:
 874:Drivers/STM32F0xx_HAL_Driver/Src/stm32f0xx_hal_pcd.c **** 
 875:Drivers/STM32F0xx_HAL_Driver/Src/stm32f0xx_hal_pcd.c **** /**
 876:Drivers/STM32F0xx_HAL_Driver/Src/stm32f0xx_hal_pcd.c ****   * @brief  Get Received Data Size
 877:Drivers/STM32F0xx_HAL_Driver/Src/stm32f0xx_hal_pcd.c ****   * @param  hpcd PCD handle
 878:Drivers/STM32F0xx_HAL_Driver/Src/stm32f0xx_hal_pcd.c ****   * @param  ep_addr endpoint address
 879:Drivers/STM32F0xx_HAL_Driver/Src/stm32f0xx_hal_pcd.c ****   * @retval Data Size
 880:Drivers/STM32F0xx_HAL_Driver/Src/stm32f0xx_hal_pcd.c ****   */
 881:Drivers/STM32F0xx_HAL_Driver/Src/stm32f0xx_hal_pcd.c **** uint16_t HAL_PCD_EP_GetRxCount(PCD_HandleTypeDef *hpcd, uint8_t ep_addr)
 882:Drivers/STM32F0xx_HAL_Driver/Src/stm32f0xx_hal_pcd.c **** {
 2430              		.loc 1 882 1 view -0
 2431              		.cfi_startproc
 2432              		@ args = 0, pretend = 0, frame = 0
 2433              		@ frame_needed = 0, uses_anonymous_args = 0
 2434              		@ link register save eliminated.
 2435              		.loc 1 882 1 is_stmt 0 view .LVU556
 2436 0000 0B00     		movs	r3, r1
 883:Drivers/STM32F0xx_HAL_Driver/Src/stm32f0xx_hal_pcd.c ****   return hpcd->OUT_ep[ep_addr & 0x7FU].xfer_count;
 2437              		.loc 1 883 3 is_stmt 1 view .LVU557
 2438              		.loc 1 883 31 is_stmt 0 view .LVU558
 2439 0002 7F21     		movs	r1, #127
 2440              	.LVL181:
 2441              		.loc 1 883 31 view .LVU559
 2442 0004 1940     		ands	r1, r3
 2443              		.loc 1 883 39 view .LVU560
 2444 0006 CB00     		lsls	r3, r1, #3
 2445 0008 591A     		subs	r1, r3, r1
 2446 000a 8900     		lsls	r1, r1, #2
 2447 000c 4018     		adds	r0, r0, r1
 2448              	.LVL182:
 2449              		.loc 1 883 39 view .LVU561
 2450 000e 2130     		adds	r0, r0, #33
 2451 0010 FF30     		adds	r0, r0, #255
 2452 0012 0088     		ldrh	r0, [r0]
 884:Drivers/STM32F0xx_HAL_Driver/Src/stm32f0xx_hal_pcd.c **** }
 2453              		.loc 1 884 1 view .LVU562
 2454              		@ sp needed
 2455 0014 7047     		bx	lr
 2456              		.cfi_endproc
 2457              	.LFE61:
 2459              		.section	.text.HAL_PCD_EP_SetStall,"ax",%progbits
 2460              		.align	1
ARM GAS  /var/folders/rf/wfq6hz5s56g3yh4wqgd7820c0000gn/T//ccBUdQBH.s 			page 64


 2461              		.global	HAL_PCD_EP_SetStall
 2462              		.syntax unified
 2463              		.code	16
 2464              		.thumb_func
 2465              		.fpu softvfp
 2467              	HAL_PCD_EP_SetStall:
 2468              	.LVL183:
 2469              	.LFB63:
 885:Drivers/STM32F0xx_HAL_Driver/Src/stm32f0xx_hal_pcd.c **** /**
 886:Drivers/STM32F0xx_HAL_Driver/Src/stm32f0xx_hal_pcd.c ****   * @brief  Send an amount of data  
 887:Drivers/STM32F0xx_HAL_Driver/Src/stm32f0xx_hal_pcd.c ****   * @param  hpcd PCD handle
 888:Drivers/STM32F0xx_HAL_Driver/Src/stm32f0xx_hal_pcd.c ****   * @param  ep_addr endpoint address
 889:Drivers/STM32F0xx_HAL_Driver/Src/stm32f0xx_hal_pcd.c ****   * @param  pBuf pointer to the transmission buffer   
 890:Drivers/STM32F0xx_HAL_Driver/Src/stm32f0xx_hal_pcd.c ****   * @param  len amount of data to be sent
 891:Drivers/STM32F0xx_HAL_Driver/Src/stm32f0xx_hal_pcd.c ****   * @retval HAL status
 892:Drivers/STM32F0xx_HAL_Driver/Src/stm32f0xx_hal_pcd.c ****   */
 893:Drivers/STM32F0xx_HAL_Driver/Src/stm32f0xx_hal_pcd.c **** HAL_StatusTypeDef HAL_PCD_EP_Transmit(PCD_HandleTypeDef *hpcd, uint8_t ep_addr, uint8_t *pBuf, uint
 894:Drivers/STM32F0xx_HAL_Driver/Src/stm32f0xx_hal_pcd.c **** {
 895:Drivers/STM32F0xx_HAL_Driver/Src/stm32f0xx_hal_pcd.c ****   PCD_EPTypeDef *ep;
 896:Drivers/STM32F0xx_HAL_Driver/Src/stm32f0xx_hal_pcd.c ****   uint16_t pmabuffer = 0U;
 897:Drivers/STM32F0xx_HAL_Driver/Src/stm32f0xx_hal_pcd.c ****     
 898:Drivers/STM32F0xx_HAL_Driver/Src/stm32f0xx_hal_pcd.c ****   ep = &hpcd->IN_ep[ep_addr & 0x7FU];
 899:Drivers/STM32F0xx_HAL_Driver/Src/stm32f0xx_hal_pcd.c ****   
 900:Drivers/STM32F0xx_HAL_Driver/Src/stm32f0xx_hal_pcd.c ****   /*setup and start the Xfer */
 901:Drivers/STM32F0xx_HAL_Driver/Src/stm32f0xx_hal_pcd.c ****   ep->xfer_buff = pBuf;  
 902:Drivers/STM32F0xx_HAL_Driver/Src/stm32f0xx_hal_pcd.c ****   ep->xfer_len = len;
 903:Drivers/STM32F0xx_HAL_Driver/Src/stm32f0xx_hal_pcd.c ****   ep->xfer_count = 0U;
 904:Drivers/STM32F0xx_HAL_Driver/Src/stm32f0xx_hal_pcd.c ****   ep->is_in = 1U;
 905:Drivers/STM32F0xx_HAL_Driver/Src/stm32f0xx_hal_pcd.c ****   ep->num = ep_addr & 0x7FU;
 906:Drivers/STM32F0xx_HAL_Driver/Src/stm32f0xx_hal_pcd.c ****   
 907:Drivers/STM32F0xx_HAL_Driver/Src/stm32f0xx_hal_pcd.c ****   /*Multi packet transfer*/
 908:Drivers/STM32F0xx_HAL_Driver/Src/stm32f0xx_hal_pcd.c ****   if (ep->xfer_len > ep->maxpacket)
 909:Drivers/STM32F0xx_HAL_Driver/Src/stm32f0xx_hal_pcd.c ****   {
 910:Drivers/STM32F0xx_HAL_Driver/Src/stm32f0xx_hal_pcd.c ****     len=ep->maxpacket;
 911:Drivers/STM32F0xx_HAL_Driver/Src/stm32f0xx_hal_pcd.c ****     ep->xfer_len-=len; 
 912:Drivers/STM32F0xx_HAL_Driver/Src/stm32f0xx_hal_pcd.c ****   }
 913:Drivers/STM32F0xx_HAL_Driver/Src/stm32f0xx_hal_pcd.c ****   else
 914:Drivers/STM32F0xx_HAL_Driver/Src/stm32f0xx_hal_pcd.c ****   {  
 915:Drivers/STM32F0xx_HAL_Driver/Src/stm32f0xx_hal_pcd.c ****     len=ep->xfer_len;
 916:Drivers/STM32F0xx_HAL_Driver/Src/stm32f0xx_hal_pcd.c ****     ep->xfer_len =0U;
 917:Drivers/STM32F0xx_HAL_Driver/Src/stm32f0xx_hal_pcd.c ****   }
 918:Drivers/STM32F0xx_HAL_Driver/Src/stm32f0xx_hal_pcd.c ****   
 919:Drivers/STM32F0xx_HAL_Driver/Src/stm32f0xx_hal_pcd.c ****   /* configure and validate Tx endpoint */
 920:Drivers/STM32F0xx_HAL_Driver/Src/stm32f0xx_hal_pcd.c ****   if (ep->doublebuffer == 0U) 
 921:Drivers/STM32F0xx_HAL_Driver/Src/stm32f0xx_hal_pcd.c ****   {
 922:Drivers/STM32F0xx_HAL_Driver/Src/stm32f0xx_hal_pcd.c ****     PCD_WritePMA(hpcd->Instance, ep->xfer_buff, ep->pmaadress, len);
 923:Drivers/STM32F0xx_HAL_Driver/Src/stm32f0xx_hal_pcd.c ****     PCD_SET_EP_TX_CNT(hpcd->Instance, ep->num, len);
 924:Drivers/STM32F0xx_HAL_Driver/Src/stm32f0xx_hal_pcd.c ****   }
 925:Drivers/STM32F0xx_HAL_Driver/Src/stm32f0xx_hal_pcd.c ****   else
 926:Drivers/STM32F0xx_HAL_Driver/Src/stm32f0xx_hal_pcd.c ****   {
 927:Drivers/STM32F0xx_HAL_Driver/Src/stm32f0xx_hal_pcd.c ****     /*Write the data to the USB endpoint*/
 928:Drivers/STM32F0xx_HAL_Driver/Src/stm32f0xx_hal_pcd.c ****     if ((PCD_GET_ENDPOINT(hpcd->Instance, ep->num)& USB_EP_DTOG_TX) == USB_EP_DTOG_TX)
 929:Drivers/STM32F0xx_HAL_Driver/Src/stm32f0xx_hal_pcd.c ****     {
 930:Drivers/STM32F0xx_HAL_Driver/Src/stm32f0xx_hal_pcd.c ****       /*Set the Double buffer counter for pmabuffer1*/
 931:Drivers/STM32F0xx_HAL_Driver/Src/stm32f0xx_hal_pcd.c ****       PCD_SET_EP_DBUF1_CNT(hpcd->Instance, ep->num, ep->is_in, len)
 932:Drivers/STM32F0xx_HAL_Driver/Src/stm32f0xx_hal_pcd.c ****       pmabuffer = ep->pmaaddr1;
 933:Drivers/STM32F0xx_HAL_Driver/Src/stm32f0xx_hal_pcd.c ****     }
ARM GAS  /var/folders/rf/wfq6hz5s56g3yh4wqgd7820c0000gn/T//ccBUdQBH.s 			page 65


 934:Drivers/STM32F0xx_HAL_Driver/Src/stm32f0xx_hal_pcd.c ****     else
 935:Drivers/STM32F0xx_HAL_Driver/Src/stm32f0xx_hal_pcd.c ****     {
 936:Drivers/STM32F0xx_HAL_Driver/Src/stm32f0xx_hal_pcd.c ****       /*Set the Double buffer counter for pmabuffer0*/
 937:Drivers/STM32F0xx_HAL_Driver/Src/stm32f0xx_hal_pcd.c ****       PCD_SET_EP_DBUF0_CNT(hpcd->Instance, ep->num, ep->is_in, len)
 938:Drivers/STM32F0xx_HAL_Driver/Src/stm32f0xx_hal_pcd.c ****       pmabuffer = ep->pmaaddr0;
 939:Drivers/STM32F0xx_HAL_Driver/Src/stm32f0xx_hal_pcd.c ****     }
 940:Drivers/STM32F0xx_HAL_Driver/Src/stm32f0xx_hal_pcd.c **** 
 941:Drivers/STM32F0xx_HAL_Driver/Src/stm32f0xx_hal_pcd.c ****     PCD_WritePMA(hpcd->Instance, ep->xfer_buff, pmabuffer, len);
 942:Drivers/STM32F0xx_HAL_Driver/Src/stm32f0xx_hal_pcd.c ****     PCD_FreeUserBuffer(hpcd->Instance, ep->num, ep->is_in)
 943:Drivers/STM32F0xx_HAL_Driver/Src/stm32f0xx_hal_pcd.c ****   }
 944:Drivers/STM32F0xx_HAL_Driver/Src/stm32f0xx_hal_pcd.c **** 
 945:Drivers/STM32F0xx_HAL_Driver/Src/stm32f0xx_hal_pcd.c ****   PCD_SET_EP_TX_STATUS(hpcd->Instance, ep->num, USB_EP_TX_VALID)
 946:Drivers/STM32F0xx_HAL_Driver/Src/stm32f0xx_hal_pcd.c ****      
 947:Drivers/STM32F0xx_HAL_Driver/Src/stm32f0xx_hal_pcd.c ****   return HAL_OK;
 948:Drivers/STM32F0xx_HAL_Driver/Src/stm32f0xx_hal_pcd.c **** }
 949:Drivers/STM32F0xx_HAL_Driver/Src/stm32f0xx_hal_pcd.c **** 
 950:Drivers/STM32F0xx_HAL_Driver/Src/stm32f0xx_hal_pcd.c **** /**
 951:Drivers/STM32F0xx_HAL_Driver/Src/stm32f0xx_hal_pcd.c ****   * @brief  Set a STALL condition over an endpoint
 952:Drivers/STM32F0xx_HAL_Driver/Src/stm32f0xx_hal_pcd.c ****   * @param  hpcd PCD handle
 953:Drivers/STM32F0xx_HAL_Driver/Src/stm32f0xx_hal_pcd.c ****   * @param  ep_addr endpoint address
 954:Drivers/STM32F0xx_HAL_Driver/Src/stm32f0xx_hal_pcd.c ****   * @retval HAL status
 955:Drivers/STM32F0xx_HAL_Driver/Src/stm32f0xx_hal_pcd.c ****   */
 956:Drivers/STM32F0xx_HAL_Driver/Src/stm32f0xx_hal_pcd.c **** HAL_StatusTypeDef HAL_PCD_EP_SetStall(PCD_HandleTypeDef *hpcd, uint8_t ep_addr)
 957:Drivers/STM32F0xx_HAL_Driver/Src/stm32f0xx_hal_pcd.c **** {
 2470              		.loc 1 957 1 is_stmt 1 view -0
 2471              		.cfi_startproc
 2472              		@ args = 0, pretend = 0, frame = 0
 2473              		@ frame_needed = 0, uses_anonymous_args = 0
 2474              		.loc 1 957 1 is_stmt 0 view .LVU564
 2475 0000 10B5     		push	{r4, lr}
 2476              	.LCFI8:
 2477              		.cfi_def_cfa_offset 8
 2478              		.cfi_offset 4, -8
 2479              		.cfi_offset 14, -4
 2480 0002 0C00     		movs	r4, r1
 958:Drivers/STM32F0xx_HAL_Driver/Src/stm32f0xx_hal_pcd.c ****   PCD_EPTypeDef *ep;
 2481              		.loc 1 958 3 is_stmt 1 view .LVU565
 959:Drivers/STM32F0xx_HAL_Driver/Src/stm32f0xx_hal_pcd.c ****    
 960:Drivers/STM32F0xx_HAL_Driver/Src/stm32f0xx_hal_pcd.c ****   __HAL_LOCK(hpcd); 
 2482              		.loc 1 960 3 view .LVU566
 2483              		.loc 1 960 3 view .LVU567
 2484 0004 F423     		movs	r3, #244
 2485 0006 5B00     		lsls	r3, r3, #1
 2486 0008 C35C     		ldrb	r3, [r0, r3]
 2487 000a 012B     		cmp	r3, #1
 2488 000c 47D0     		beq	.L122
 2489              		.loc 1 960 3 discriminator 2 view .LVU568
 2490 000e F423     		movs	r3, #244
 2491 0010 5B00     		lsls	r3, r3, #1
 2492 0012 0122     		movs	r2, #1
 2493 0014 C254     		strb	r2, [r0, r3]
 2494              		.loc 1 960 3 discriminator 2 view .LVU569
 961:Drivers/STM32F0xx_HAL_Driver/Src/stm32f0xx_hal_pcd.c ****    
 962:Drivers/STM32F0xx_HAL_Driver/Src/stm32f0xx_hal_pcd.c ****   if ((0x80U & ep_addr) == 0x80U)
 2495              		.loc 1 962 3 discriminator 2 view .LVU570
 2496              		.loc 1 962 25 is_stmt 0 discriminator 2 view .LVU571
 2497 0016 4AB2     		sxtb	r2, r1
ARM GAS  /var/folders/rf/wfq6hz5s56g3yh4wqgd7820c0000gn/T//ccBUdQBH.s 			page 66


 2498              		.loc 1 962 6 discriminator 2 view .LVU572
 2499 0018 002A     		cmp	r2, #0
 2500 001a 1EDB     		blt	.L123
 963:Drivers/STM32F0xx_HAL_Driver/Src/stm32f0xx_hal_pcd.c ****   {
 964:Drivers/STM32F0xx_HAL_Driver/Src/stm32f0xx_hal_pcd.c ****     ep = &hpcd->IN_ep[ep_addr & 0x7FU];
 965:Drivers/STM32F0xx_HAL_Driver/Src/stm32f0xx_hal_pcd.c ****   }
 966:Drivers/STM32F0xx_HAL_Driver/Src/stm32f0xx_hal_pcd.c ****   else
 967:Drivers/STM32F0xx_HAL_Driver/Src/stm32f0xx_hal_pcd.c ****   {
 968:Drivers/STM32F0xx_HAL_Driver/Src/stm32f0xx_hal_pcd.c ****     ep = &hpcd->OUT_ep[ep_addr];
 2501              		.loc 1 968 5 is_stmt 1 view .LVU573
 2502              		.loc 1 968 8 is_stmt 0 view .LVU574
 2503 001c CB00     		lsls	r3, r1, #3
 2504 001e 5B1A     		subs	r3, r3, r1
 2505 0020 9B00     		lsls	r3, r3, #2
 2506 0022 0933     		adds	r3, r3, #9
 2507 0024 FF33     		adds	r3, r3, #255
 2508 0026 C318     		adds	r3, r0, r3
 2509              	.LVL184:
 2510              	.L118:
 969:Drivers/STM32F0xx_HAL_Driver/Src/stm32f0xx_hal_pcd.c ****   }
 970:Drivers/STM32F0xx_HAL_Driver/Src/stm32f0xx_hal_pcd.c ****   
 971:Drivers/STM32F0xx_HAL_Driver/Src/stm32f0xx_hal_pcd.c ****   ep->is_stall = 1;
 2511              		.loc 1 971 3 is_stmt 1 view .LVU575
 2512              		.loc 1 971 16 is_stmt 0 view .LVU576
 2513 0028 0121     		movs	r1, #1
 2514 002a 9970     		strb	r1, [r3, #2]
 972:Drivers/STM32F0xx_HAL_Driver/Src/stm32f0xx_hal_pcd.c ****   ep->num   = ep_addr & 0x7FU;
 2515              		.loc 1 972 3 is_stmt 1 view .LVU577
 2516              		.loc 1 972 23 is_stmt 0 view .LVU578
 2517 002c 7E31     		adds	r1, r1, #126
 2518 002e 2140     		ands	r1, r4
 2519              		.loc 1 972 13 view .LVU579
 2520 0030 1970     		strb	r1, [r3]
 973:Drivers/STM32F0xx_HAL_Driver/Src/stm32f0xx_hal_pcd.c ****   ep->is_in = ((ep_addr & 0x80U) == 0x80U);
 2521              		.loc 1 973 3 is_stmt 1 view .LVU580
 2522              		.loc 1 973 34 is_stmt 0 view .LVU581
 2523 0032 D20F     		lsrs	r2, r2, #31
 2524              	.LVL185:
 2525              		.loc 1 973 13 view .LVU582
 2526 0034 5A70     		strb	r2, [r3, #1]
 974:Drivers/STM32F0xx_HAL_Driver/Src/stm32f0xx_hal_pcd.c ****   
 975:Drivers/STM32F0xx_HAL_Driver/Src/stm32f0xx_hal_pcd.c ****   if (ep->num == 0U)
 2527              		.loc 1 975 3 is_stmt 1 view .LVU583
 2528              		.loc 1 975 6 is_stmt 0 view .LVU584
 2529 0036 0029     		cmp	r1, #0
 2530 0038 17D1     		bne	.L119
 2531              	.LBB29:
 976:Drivers/STM32F0xx_HAL_Driver/Src/stm32f0xx_hal_pcd.c ****   {
 977:Drivers/STM32F0xx_HAL_Driver/Src/stm32f0xx_hal_pcd.c ****     /* This macro sets STALL status for RX & TX*/ 
 978:Drivers/STM32F0xx_HAL_Driver/Src/stm32f0xx_hal_pcd.c ****     PCD_SET_EP_TXRX_STATUS(hpcd->Instance, ep->num, USB_EP_RX_STALL, USB_EP_TX_STALL)
 2532              		.loc 1 978 5 is_stmt 1 view .LVU585
 2533              		.loc 1 978 5 view .LVU586
 2534 003a 0468     		ldr	r4, [r0]
 2535 003c 8900     		lsls	r1, r1, #2
 2536 003e 625A     		ldrh	r2, [r4, r1]
 2537              	.LVL186:
 2538              		.loc 1 978 5 view .LVU587
ARM GAS  /var/folders/rf/wfq6hz5s56g3yh4wqgd7820c0000gn/T//ccBUdQBH.s 			page 67


 2539              		.loc 1 978 5 view .LVU588
 2540              		.loc 1 978 5 view .LVU589
 2541              		.loc 1 978 5 view .LVU590
 2542              		.loc 1 978 5 view .LVU591
 2543              		.loc 1 978 5 view .LVU592
 2544              		.loc 1 978 5 view .LVU593
 2545 0040 184B     		ldr	r3, .L124
 2546              	.LVL187:
 2547              		.loc 1 978 5 is_stmt 0 view .LVU594
 2548 0042 1A40     		ands	r2, r3
 2549              	.LVL188:
 2550              		.loc 1 978 5 view .LVU595
 2551 0044 184B     		ldr	r3, .L124+4
 2552 0046 5A40     		eors	r2, r3
 2553 0048 184B     		ldr	r3, .L124+8
 2554 004a 1343     		orrs	r3, r2
 2555 004c 6352     		strh	r3, [r4, r1]
 2556              	.LVL189:
 2557              	.L120:
 2558              		.loc 1 978 5 view .LVU596
 2559              	.LBE29:
 979:Drivers/STM32F0xx_HAL_Driver/Src/stm32f0xx_hal_pcd.c ****   }
 980:Drivers/STM32F0xx_HAL_Driver/Src/stm32f0xx_hal_pcd.c ****   else
 981:Drivers/STM32F0xx_HAL_Driver/Src/stm32f0xx_hal_pcd.c ****   {
 982:Drivers/STM32F0xx_HAL_Driver/Src/stm32f0xx_hal_pcd.c ****     if (ep->is_in)
 983:Drivers/STM32F0xx_HAL_Driver/Src/stm32f0xx_hal_pcd.c ****     {
 984:Drivers/STM32F0xx_HAL_Driver/Src/stm32f0xx_hal_pcd.c ****       PCD_SET_EP_TX_STATUS(hpcd->Instance, ep->num , USB_EP_TX_STALL)
 985:Drivers/STM32F0xx_HAL_Driver/Src/stm32f0xx_hal_pcd.c ****     }
 986:Drivers/STM32F0xx_HAL_Driver/Src/stm32f0xx_hal_pcd.c ****     else
 987:Drivers/STM32F0xx_HAL_Driver/Src/stm32f0xx_hal_pcd.c ****     {
 988:Drivers/STM32F0xx_HAL_Driver/Src/stm32f0xx_hal_pcd.c ****       PCD_SET_EP_RX_STATUS(hpcd->Instance, ep->num , USB_EP_RX_STALL)
 989:Drivers/STM32F0xx_HAL_Driver/Src/stm32f0xx_hal_pcd.c ****     }
 990:Drivers/STM32F0xx_HAL_Driver/Src/stm32f0xx_hal_pcd.c ****   }
 991:Drivers/STM32F0xx_HAL_Driver/Src/stm32f0xx_hal_pcd.c ****   __HAL_UNLOCK(hpcd); 
 2560              		.loc 1 991 3 is_stmt 1 view .LVU597
 2561              		.loc 1 991 3 view .LVU598
 2562 004e F423     		movs	r3, #244
 2563 0050 5B00     		lsls	r3, r3, #1
 2564 0052 0022     		movs	r2, #0
 2565 0054 C254     		strb	r2, [r0, r3]
 2566              		.loc 1 991 3 view .LVU599
 992:Drivers/STM32F0xx_HAL_Driver/Src/stm32f0xx_hal_pcd.c ****   
 993:Drivers/STM32F0xx_HAL_Driver/Src/stm32f0xx_hal_pcd.c ****   return HAL_OK;
 2567              		.loc 1 993 3 view .LVU600
 2568              		.loc 1 993 10 is_stmt 0 view .LVU601
 2569 0056 0020     		movs	r0, #0
 2570              	.LVL190:
 2571              	.L116:
 994:Drivers/STM32F0xx_HAL_Driver/Src/stm32f0xx_hal_pcd.c **** }
 2572              		.loc 1 994 1 view .LVU602
 2573              		@ sp needed
 2574 0058 10BD     		pop	{r4, pc}
 2575              	.LVL191:
 2576              	.L123:
 964:Drivers/STM32F0xx_HAL_Driver/Src/stm32f0xx_hal_pcd.c ****   }
 2577              		.loc 1 964 5 is_stmt 1 view .LVU603
 964:Drivers/STM32F0xx_HAL_Driver/Src/stm32f0xx_hal_pcd.c ****   }
ARM GAS  /var/folders/rf/wfq6hz5s56g3yh4wqgd7820c0000gn/T//ccBUdQBH.s 			page 68


 2578              		.loc 1 964 31 is_stmt 0 view .LVU604
 2579 005a 7F21     		movs	r1, #127
 2580              	.LVL192:
 964:Drivers/STM32F0xx_HAL_Driver/Src/stm32f0xx_hal_pcd.c ****   }
 2581              		.loc 1 964 31 view .LVU605
 2582 005c 2140     		ands	r1, r4
 964:Drivers/STM32F0xx_HAL_Driver/Src/stm32f0xx_hal_pcd.c ****   }
 2583              		.loc 1 964 8 view .LVU606
 2584 005e CB00     		lsls	r3, r1, #3
 2585 0060 5B1A     		subs	r3, r3, r1
 2586 0062 9B00     		lsls	r3, r3, #2
 2587 0064 2833     		adds	r3, r3, #40
 2588 0066 C318     		adds	r3, r0, r3
 2589              	.LVL193:
 964:Drivers/STM32F0xx_HAL_Driver/Src/stm32f0xx_hal_pcd.c ****   }
 2590              		.loc 1 964 8 view .LVU607
 2591 0068 DEE7     		b	.L118
 2592              	.LVL194:
 2593              	.L119:
 982:Drivers/STM32F0xx_HAL_Driver/Src/stm32f0xx_hal_pcd.c ****     {
 2594              		.loc 1 982 5 is_stmt 1 view .LVU608
 982:Drivers/STM32F0xx_HAL_Driver/Src/stm32f0xx_hal_pcd.c ****     {
 2595              		.loc 1 982 8 is_stmt 0 view .LVU609
 2596 006a 002A     		cmp	r2, #0
 2597 006c 0BD0     		beq	.L121
 2598              	.LBB30:
 984:Drivers/STM32F0xx_HAL_Driver/Src/stm32f0xx_hal_pcd.c ****     }
 2599              		.loc 1 984 7 is_stmt 1 view .LVU610
 984:Drivers/STM32F0xx_HAL_Driver/Src/stm32f0xx_hal_pcd.c ****     }
 2600              		.loc 1 984 7 view .LVU611
 2601 006e 0268     		ldr	r2, [r0]
 2602 0070 8900     		lsls	r1, r1, #2
 2603 0072 535A     		ldrh	r3, [r2, r1]
 2604              	.LVL195:
 984:Drivers/STM32F0xx_HAL_Driver/Src/stm32f0xx_hal_pcd.c ****     }
 2605              		.loc 1 984 7 is_stmt 0 view .LVU612
 2606 0074 0E4C     		ldr	r4, .L124+12
 2607 0076 2340     		ands	r3, r4
 2608              	.LVL196:
 984:Drivers/STM32F0xx_HAL_Driver/Src/stm32f0xx_hal_pcd.c ****     }
 2609              		.loc 1 984 7 is_stmt 1 view .LVU613
 984:Drivers/STM32F0xx_HAL_Driver/Src/stm32f0xx_hal_pcd.c ****     }
 2610              		.loc 1 984 7 view .LVU614
 2611 0078 1024     		movs	r4, #16
 2612 007a 6340     		eors	r3, r4
 2613              	.LVL197:
 984:Drivers/STM32F0xx_HAL_Driver/Src/stm32f0xx_hal_pcd.c ****     }
 2614              		.loc 1 984 7 is_stmt 0 view .LVU615
 2615 007c 9BB2     		uxth	r3, r3
 2616              	.LVL198:
 984:Drivers/STM32F0xx_HAL_Driver/Src/stm32f0xx_hal_pcd.c ****     }
 2617              		.loc 1 984 7 is_stmt 1 view .LVU616
 984:Drivers/STM32F0xx_HAL_Driver/Src/stm32f0xx_hal_pcd.c ****     }
 2618              		.loc 1 984 7 view .LVU617
 2619 007e 0B4C     		ldr	r4, .L124+8
 2620 0080 2343     		orrs	r3, r4
 2621              	.LVL199:
ARM GAS  /var/folders/rf/wfq6hz5s56g3yh4wqgd7820c0000gn/T//ccBUdQBH.s 			page 69


 984:Drivers/STM32F0xx_HAL_Driver/Src/stm32f0xx_hal_pcd.c ****     }
 2622              		.loc 1 984 7 is_stmt 0 view .LVU618
 2623 0082 5352     		strh	r3, [r2, r1]
 984:Drivers/STM32F0xx_HAL_Driver/Src/stm32f0xx_hal_pcd.c ****     }
 2624              		.loc 1 984 7 view .LVU619
 2625              	.LBE30:
 2626 0084 E3E7     		b	.L120
 2627              	.LVL200:
 2628              	.L121:
 2629              	.LBB31:
 988:Drivers/STM32F0xx_HAL_Driver/Src/stm32f0xx_hal_pcd.c ****     }
 2630              		.loc 1 988 7 is_stmt 1 view .LVU620
 988:Drivers/STM32F0xx_HAL_Driver/Src/stm32f0xx_hal_pcd.c ****     }
 2631              		.loc 1 988 7 view .LVU621
 2632 0086 0468     		ldr	r4, [r0]
 2633 0088 8900     		lsls	r1, r1, #2
 2634 008a 625A     		ldrh	r2, [r4, r1]
 2635 008c 094B     		ldr	r3, .L124+16
 2636              	.LVL201:
 988:Drivers/STM32F0xx_HAL_Driver/Src/stm32f0xx_hal_pcd.c ****     }
 2637              		.loc 1 988 7 is_stmt 0 view .LVU622
 2638 008e 1A40     		ands	r2, r3
 2639              	.LVL202:
 988:Drivers/STM32F0xx_HAL_Driver/Src/stm32f0xx_hal_pcd.c ****     }
 2640              		.loc 1 988 7 is_stmt 1 view .LVU623
 988:Drivers/STM32F0xx_HAL_Driver/Src/stm32f0xx_hal_pcd.c ****     }
 2641              		.loc 1 988 7 view .LVU624
 2642 0090 8023     		movs	r3, #128
 2643 0092 5B01     		lsls	r3, r3, #5
 2644 0094 5A40     		eors	r2, r3
 2645              	.LVL203:
 988:Drivers/STM32F0xx_HAL_Driver/Src/stm32f0xx_hal_pcd.c ****     }
 2646              		.loc 1 988 7 view .LVU625
 988:Drivers/STM32F0xx_HAL_Driver/Src/stm32f0xx_hal_pcd.c ****     }
 2647              		.loc 1 988 7 view .LVU626
 2648 0096 054B     		ldr	r3, .L124+8
 2649 0098 1343     		orrs	r3, r2
 2650 009a 6352     		strh	r3, [r4, r1]
 2651 009c D7E7     		b	.L120
 2652              	.LVL204:
 2653              	.L122:
 988:Drivers/STM32F0xx_HAL_Driver/Src/stm32f0xx_hal_pcd.c ****     }
 2654              		.loc 1 988 7 is_stmt 0 view .LVU627
 2655              	.LBE31:
 960:Drivers/STM32F0xx_HAL_Driver/Src/stm32f0xx_hal_pcd.c ****    
 2656              		.loc 1 960 3 view .LVU628
 2657 009e 0220     		movs	r0, #2
 2658              	.LVL205:
 960:Drivers/STM32F0xx_HAL_Driver/Src/stm32f0xx_hal_pcd.c ****    
 2659              		.loc 1 960 3 view .LVU629
 2660 00a0 DAE7     		b	.L116
 2661              	.L125:
 2662 00a2 C046     		.align	2
 2663              	.L124:
 2664 00a4 BFBFFFFF 		.word	-16449
 2665 00a8 10100000 		.word	4112
 2666 00ac 8080FFFF 		.word	-32640
ARM GAS  /var/folders/rf/wfq6hz5s56g3yh4wqgd7820c0000gn/T//ccBUdQBH.s 			page 70


 2667 00b0 BF8FFFFF 		.word	-28737
 2668 00b4 8FBFFFFF 		.word	-16497
 2669              		.cfi_endproc
 2670              	.LFE63:
 2672              		.section	.text.HAL_PCD_EP_ClrStall,"ax",%progbits
 2673              		.align	1
 2674              		.global	HAL_PCD_EP_ClrStall
 2675              		.syntax unified
 2676              		.code	16
 2677              		.thumb_func
 2678              		.fpu softvfp
 2680              	HAL_PCD_EP_ClrStall:
 2681              	.LVL206:
 2682              	.LFB64:
 995:Drivers/STM32F0xx_HAL_Driver/Src/stm32f0xx_hal_pcd.c **** 
 996:Drivers/STM32F0xx_HAL_Driver/Src/stm32f0xx_hal_pcd.c **** /**
 997:Drivers/STM32F0xx_HAL_Driver/Src/stm32f0xx_hal_pcd.c ****   * @brief  Clear a STALL condition over in an endpoint
 998:Drivers/STM32F0xx_HAL_Driver/Src/stm32f0xx_hal_pcd.c ****   * @param  hpcd PCD handle
 999:Drivers/STM32F0xx_HAL_Driver/Src/stm32f0xx_hal_pcd.c ****   * @param  ep_addr endpoint address
1000:Drivers/STM32F0xx_HAL_Driver/Src/stm32f0xx_hal_pcd.c ****   * @retval HAL status
1001:Drivers/STM32F0xx_HAL_Driver/Src/stm32f0xx_hal_pcd.c ****   */
1002:Drivers/STM32F0xx_HAL_Driver/Src/stm32f0xx_hal_pcd.c **** HAL_StatusTypeDef HAL_PCD_EP_ClrStall(PCD_HandleTypeDef *hpcd, uint8_t ep_addr)
1003:Drivers/STM32F0xx_HAL_Driver/Src/stm32f0xx_hal_pcd.c **** {
 2683              		.loc 1 1003 1 is_stmt 1 view -0
 2684              		.cfi_startproc
 2685              		@ args = 0, pretend = 0, frame = 0
 2686              		@ frame_needed = 0, uses_anonymous_args = 0
 2687              		.loc 1 1003 1 is_stmt 0 view .LVU631
 2688 0000 10B5     		push	{r4, lr}
 2689              	.LCFI9:
 2690              		.cfi_def_cfa_offset 8
 2691              		.cfi_offset 4, -8
 2692              		.cfi_offset 14, -4
 2693 0002 0C00     		movs	r4, r1
1004:Drivers/STM32F0xx_HAL_Driver/Src/stm32f0xx_hal_pcd.c ****   PCD_EPTypeDef *ep;
 2694              		.loc 1 1004 3 is_stmt 1 view .LVU632
1005:Drivers/STM32F0xx_HAL_Driver/Src/stm32f0xx_hal_pcd.c ****   
1006:Drivers/STM32F0xx_HAL_Driver/Src/stm32f0xx_hal_pcd.c ****   if ((0x80U & ep_addr) == 0x80U)
 2695              		.loc 1 1006 3 view .LVU633
 2696              		.loc 1 1006 25 is_stmt 0 view .LVU634
 2697 0004 4AB2     		sxtb	r2, r1
 2698              		.loc 1 1006 6 view .LVU635
 2699 0006 002A     		cmp	r2, #0
 2700 0008 36DB     		blt	.L135
1007:Drivers/STM32F0xx_HAL_Driver/Src/stm32f0xx_hal_pcd.c ****   {
1008:Drivers/STM32F0xx_HAL_Driver/Src/stm32f0xx_hal_pcd.c ****     ep = &hpcd->IN_ep[ep_addr & 0x7FU];
1009:Drivers/STM32F0xx_HAL_Driver/Src/stm32f0xx_hal_pcd.c ****   }
1010:Drivers/STM32F0xx_HAL_Driver/Src/stm32f0xx_hal_pcd.c ****   else
1011:Drivers/STM32F0xx_HAL_Driver/Src/stm32f0xx_hal_pcd.c ****   {
1012:Drivers/STM32F0xx_HAL_Driver/Src/stm32f0xx_hal_pcd.c ****     ep = &hpcd->OUT_ep[ep_addr];
 2701              		.loc 1 1012 5 is_stmt 1 view .LVU636
 2702              		.loc 1 1012 8 is_stmt 0 view .LVU637
 2703 000a CB00     		lsls	r3, r1, #3
 2704 000c 5B1A     		subs	r3, r3, r1
 2705 000e 9B00     		lsls	r3, r3, #2
 2706 0010 0933     		adds	r3, r3, #9
 2707 0012 FF33     		adds	r3, r3, #255
ARM GAS  /var/folders/rf/wfq6hz5s56g3yh4wqgd7820c0000gn/T//ccBUdQBH.s 			page 71


 2708 0014 C318     		adds	r3, r0, r3
 2709              	.LVL207:
 2710              	.L128:
1013:Drivers/STM32F0xx_HAL_Driver/Src/stm32f0xx_hal_pcd.c ****   }
1014:Drivers/STM32F0xx_HAL_Driver/Src/stm32f0xx_hal_pcd.c ****   
1015:Drivers/STM32F0xx_HAL_Driver/Src/stm32f0xx_hal_pcd.c ****   ep->is_stall = 0U;
 2711              		.loc 1 1015 3 is_stmt 1 view .LVU638
 2712              		.loc 1 1015 16 is_stmt 0 view .LVU639
 2713 0016 0021     		movs	r1, #0
 2714 0018 9970     		strb	r1, [r3, #2]
1016:Drivers/STM32F0xx_HAL_Driver/Src/stm32f0xx_hal_pcd.c ****   ep->num   = ep_addr & 0x7FU;
 2715              		.loc 1 1016 3 is_stmt 1 view .LVU640
 2716              		.loc 1 1016 23 is_stmt 0 view .LVU641
 2717 001a 7F31     		adds	r1, r1, #127
 2718 001c 2140     		ands	r1, r4
 2719              		.loc 1 1016 13 view .LVU642
 2720 001e 1970     		strb	r1, [r3]
1017:Drivers/STM32F0xx_HAL_Driver/Src/stm32f0xx_hal_pcd.c ****   ep->is_in = ((ep_addr & 0x80U) == 0x80U);
 2721              		.loc 1 1017 3 is_stmt 1 view .LVU643
 2722              		.loc 1 1017 34 is_stmt 0 view .LVU644
 2723 0020 D20F     		lsrs	r2, r2, #31
 2724              	.LVL208:
 2725              		.loc 1 1017 13 view .LVU645
 2726 0022 5A70     		strb	r2, [r3, #1]
1018:Drivers/STM32F0xx_HAL_Driver/Src/stm32f0xx_hal_pcd.c ****   
1019:Drivers/STM32F0xx_HAL_Driver/Src/stm32f0xx_hal_pcd.c ****   __HAL_LOCK(hpcd); 
 2727              		.loc 1 1019 3 is_stmt 1 view .LVU646
 2728              		.loc 1 1019 3 view .LVU647
 2729 0024 F422     		movs	r2, #244
 2730 0026 5200     		lsls	r2, r2, #1
 2731 0028 825C     		ldrb	r2, [r0, r2]
 2732 002a 012A     		cmp	r2, #1
 2733 002c 45D0     		beq	.L134
 2734              		.loc 1 1019 3 discriminator 2 view .LVU648
 2735 002e F422     		movs	r2, #244
 2736 0030 5200     		lsls	r2, r2, #1
 2737 0032 0121     		movs	r1, #1
 2738 0034 8154     		strb	r1, [r0, r2]
 2739              		.loc 1 1019 3 discriminator 2 view .LVU649
1020:Drivers/STM32F0xx_HAL_Driver/Src/stm32f0xx_hal_pcd.c ****   
1021:Drivers/STM32F0xx_HAL_Driver/Src/stm32f0xx_hal_pcd.c ****   if (ep->is_in)
 2740              		.loc 1 1021 3 discriminator 2 view .LVU650
 2741              		.loc 1 1021 9 is_stmt 0 discriminator 2 view .LVU651
 2742 0036 5A78     		ldrb	r2, [r3, #1]
 2743              		.loc 1 1021 6 discriminator 2 view .LVU652
 2744 0038 002A     		cmp	r2, #0
 2745 003a 25D0     		beq	.L130
1022:Drivers/STM32F0xx_HAL_Driver/Src/stm32f0xx_hal_pcd.c ****   {
1023:Drivers/STM32F0xx_HAL_Driver/Src/stm32f0xx_hal_pcd.c ****     PCD_CLEAR_TX_DTOG(hpcd->Instance, ep->num)
 2746              		.loc 1 1023 5 is_stmt 1 view .LVU653
 2747 003c 0168     		ldr	r1, [r0]
 2748 003e 1A78     		ldrb	r2, [r3]
 2749 0040 9200     		lsls	r2, r2, #2
 2750 0042 8C18     		adds	r4, r1, r2
 2751 0044 8A5A     		ldrh	r2, [r1, r2]
 2752 0046 5106     		lsls	r1, r2, #25
 2753 0048 04D5     		bpl	.L131
ARM GAS  /var/folders/rf/wfq6hz5s56g3yh4wqgd7820c0000gn/T//ccBUdQBH.s 			page 72


 2754              		.loc 1 1023 5 discriminator 1 view .LVU654
 2755 004a 1D49     		ldr	r1, .L136
 2756 004c 0A40     		ands	r2, r1
 2757 004e 1D49     		ldr	r1, .L136+4
 2758 0050 0A43     		orrs	r2, r1
 2759 0052 2280     		strh	r2, [r4]
 2760              	.L131:
 2761              	.LBB32:
1024:Drivers/STM32F0xx_HAL_Driver/Src/stm32f0xx_hal_pcd.c ****     PCD_SET_EP_TX_STATUS(hpcd->Instance, ep->num, USB_EP_TX_VALID)
 2762              		.loc 1 1024 5 view .LVU655
 2763              		.loc 1 1024 5 view .LVU656
 2764 0054 0168     		ldr	r1, [r0]
 2765 0056 1A78     		ldrb	r2, [r3]
 2766 0058 9200     		lsls	r2, r2, #2
 2767 005a 8B5A     		ldrh	r3, [r1, r2]
 2768              	.LVL209:
 2769              		.loc 1 1024 5 is_stmt 0 view .LVU657
 2770 005c 1A4C     		ldr	r4, .L136+8
 2771 005e 2340     		ands	r3, r4
 2772              	.LVL210:
 2773              		.loc 1 1024 5 is_stmt 1 view .LVU658
 2774              		.loc 1 1024 5 view .LVU659
 2775              		.loc 1 1024 5 view .LVU660
 2776              		.loc 1 1024 5 view .LVU661
 2777 0060 3024     		movs	r4, #48
 2778 0062 6340     		eors	r3, r4
 2779              	.LVL211:
 2780              		.loc 1 1024 5 is_stmt 0 view .LVU662
 2781 0064 9BB2     		uxth	r3, r3
 2782              	.LVL212:
 2783              		.loc 1 1024 5 is_stmt 1 view .LVU663
 2784 0066 194C     		ldr	r4, .L136+12
 2785 0068 2343     		orrs	r3, r4
 2786              	.LVL213:
 2787              		.loc 1 1024 5 is_stmt 0 view .LVU664
 2788 006a 8B52     		strh	r3, [r1, r2]
 2789              	.L132:
 2790              		.loc 1 1024 5 view .LVU665
 2791              	.LBE32:
1025:Drivers/STM32F0xx_HAL_Driver/Src/stm32f0xx_hal_pcd.c ****   }
1026:Drivers/STM32F0xx_HAL_Driver/Src/stm32f0xx_hal_pcd.c ****   else
1027:Drivers/STM32F0xx_HAL_Driver/Src/stm32f0xx_hal_pcd.c ****   {
1028:Drivers/STM32F0xx_HAL_Driver/Src/stm32f0xx_hal_pcd.c ****     PCD_CLEAR_RX_DTOG(hpcd->Instance, ep->num)
1029:Drivers/STM32F0xx_HAL_Driver/Src/stm32f0xx_hal_pcd.c ****     PCD_SET_EP_RX_STATUS(hpcd->Instance, ep->num, USB_EP_RX_VALID)
1030:Drivers/STM32F0xx_HAL_Driver/Src/stm32f0xx_hal_pcd.c ****   }
1031:Drivers/STM32F0xx_HAL_Driver/Src/stm32f0xx_hal_pcd.c ****   __HAL_UNLOCK(hpcd); 
 2792              		.loc 1 1031 3 is_stmt 1 view .LVU666
 2793              		.loc 1 1031 3 view .LVU667
 2794 006c F423     		movs	r3, #244
 2795 006e 5B00     		lsls	r3, r3, #1
 2796 0070 0022     		movs	r2, #0
 2797 0072 C254     		strb	r2, [r0, r3]
 2798              		.loc 1 1031 3 view .LVU668
1032:Drivers/STM32F0xx_HAL_Driver/Src/stm32f0xx_hal_pcd.c ****     
1033:Drivers/STM32F0xx_HAL_Driver/Src/stm32f0xx_hal_pcd.c ****   return HAL_OK;
 2799              		.loc 1 1033 3 view .LVU669
 2800              		.loc 1 1033 10 is_stmt 0 view .LVU670
ARM GAS  /var/folders/rf/wfq6hz5s56g3yh4wqgd7820c0000gn/T//ccBUdQBH.s 			page 73


 2801 0074 0020     		movs	r0, #0
 2802              	.LVL214:
 2803              	.L129:
1034:Drivers/STM32F0xx_HAL_Driver/Src/stm32f0xx_hal_pcd.c **** }
 2804              		.loc 1 1034 1 view .LVU671
 2805              		@ sp needed
 2806 0076 10BD     		pop	{r4, pc}
 2807              	.LVL215:
 2808              	.L135:
1008:Drivers/STM32F0xx_HAL_Driver/Src/stm32f0xx_hal_pcd.c ****   }
 2809              		.loc 1 1008 5 is_stmt 1 view .LVU672
1008:Drivers/STM32F0xx_HAL_Driver/Src/stm32f0xx_hal_pcd.c ****   }
 2810              		.loc 1 1008 31 is_stmt 0 view .LVU673
 2811 0078 7F21     		movs	r1, #127
 2812              	.LVL216:
1008:Drivers/STM32F0xx_HAL_Driver/Src/stm32f0xx_hal_pcd.c ****   }
 2813              		.loc 1 1008 31 view .LVU674
 2814 007a 2140     		ands	r1, r4
1008:Drivers/STM32F0xx_HAL_Driver/Src/stm32f0xx_hal_pcd.c ****   }
 2815              		.loc 1 1008 8 view .LVU675
 2816 007c CB00     		lsls	r3, r1, #3
 2817 007e 5B1A     		subs	r3, r3, r1
 2818 0080 9B00     		lsls	r3, r3, #2
 2819 0082 2833     		adds	r3, r3, #40
 2820 0084 C318     		adds	r3, r0, r3
 2821              	.LVL217:
1008:Drivers/STM32F0xx_HAL_Driver/Src/stm32f0xx_hal_pcd.c ****   }
 2822              		.loc 1 1008 8 view .LVU676
 2823 0086 C6E7     		b	.L128
 2824              	.LVL218:
 2825              	.L130:
1028:Drivers/STM32F0xx_HAL_Driver/Src/stm32f0xx_hal_pcd.c ****     PCD_SET_EP_RX_STATUS(hpcd->Instance, ep->num, USB_EP_RX_VALID)
 2826              		.loc 1 1028 5 is_stmt 1 view .LVU677
 2827 0088 0168     		ldr	r1, [r0]
 2828 008a 1A78     		ldrb	r2, [r3]
 2829 008c 9200     		lsls	r2, r2, #2
 2830 008e 8C18     		adds	r4, r1, r2
 2831 0090 8A5A     		ldrh	r2, [r1, r2]
 2832 0092 5104     		lsls	r1, r2, #17
 2833 0094 04D5     		bpl	.L133
1028:Drivers/STM32F0xx_HAL_Driver/Src/stm32f0xx_hal_pcd.c ****     PCD_SET_EP_RX_STATUS(hpcd->Instance, ep->num, USB_EP_RX_VALID)
 2834              		.loc 1 1028 5 discriminator 1 view .LVU678
 2835 0096 0A49     		ldr	r1, .L136
 2836 0098 0A40     		ands	r2, r1
 2837 009a 0D49     		ldr	r1, .L136+16
 2838 009c 0A43     		orrs	r2, r1
 2839 009e 2280     		strh	r2, [r4]
 2840              	.L133:
 2841              	.LBB33:
1029:Drivers/STM32F0xx_HAL_Driver/Src/stm32f0xx_hal_pcd.c ****   }
 2842              		.loc 1 1029 5 view .LVU679
1029:Drivers/STM32F0xx_HAL_Driver/Src/stm32f0xx_hal_pcd.c ****   }
 2843              		.loc 1 1029 5 view .LVU680
 2844 00a0 0468     		ldr	r4, [r0]
 2845 00a2 1B78     		ldrb	r3, [r3]
 2846              	.LVL219:
1029:Drivers/STM32F0xx_HAL_Driver/Src/stm32f0xx_hal_pcd.c ****   }
ARM GAS  /var/folders/rf/wfq6hz5s56g3yh4wqgd7820c0000gn/T//ccBUdQBH.s 			page 74


 2847              		.loc 1 1029 5 is_stmt 0 view .LVU681
 2848 00a4 9B00     		lsls	r3, r3, #2
 2849 00a6 E15A     		ldrh	r1, [r4, r3]
 2850 00a8 0A4A     		ldr	r2, .L136+20
 2851 00aa 1140     		ands	r1, r2
 2852              	.LVL220:
1029:Drivers/STM32F0xx_HAL_Driver/Src/stm32f0xx_hal_pcd.c ****   }
 2853              		.loc 1 1029 5 is_stmt 1 view .LVU682
1029:Drivers/STM32F0xx_HAL_Driver/Src/stm32f0xx_hal_pcd.c ****   }
 2854              		.loc 1 1029 5 view .LVU683
1029:Drivers/STM32F0xx_HAL_Driver/Src/stm32f0xx_hal_pcd.c ****   }
 2855              		.loc 1 1029 5 view .LVU684
1029:Drivers/STM32F0xx_HAL_Driver/Src/stm32f0xx_hal_pcd.c ****   }
 2856              		.loc 1 1029 5 view .LVU685
 2857 00ac C022     		movs	r2, #192
 2858 00ae 9201     		lsls	r2, r2, #6
 2859 00b0 5140     		eors	r1, r2
 2860              	.LVL221:
1029:Drivers/STM32F0xx_HAL_Driver/Src/stm32f0xx_hal_pcd.c ****   }
 2861              		.loc 1 1029 5 view .LVU686
 2862 00b2 064A     		ldr	r2, .L136+12
 2863 00b4 0A43     		orrs	r2, r1
 2864 00b6 E252     		strh	r2, [r4, r3]
 2865 00b8 D8E7     		b	.L132
 2866              	.LVL222:
 2867              	.L134:
1029:Drivers/STM32F0xx_HAL_Driver/Src/stm32f0xx_hal_pcd.c ****   }
 2868              		.loc 1 1029 5 is_stmt 0 view .LVU687
 2869              	.LBE33:
1019:Drivers/STM32F0xx_HAL_Driver/Src/stm32f0xx_hal_pcd.c ****   
 2870              		.loc 1 1019 3 view .LVU688
 2871 00ba 0220     		movs	r0, #2
 2872              	.LVL223:
1019:Drivers/STM32F0xx_HAL_Driver/Src/stm32f0xx_hal_pcd.c ****   
 2873              		.loc 1 1019 3 view .LVU689
 2874 00bc DBE7     		b	.L129
 2875              	.L137:
 2876 00be C046     		.align	2
 2877              	.L136:
 2878 00c0 0F0F0000 		.word	3855
 2879 00c4 C080FFFF 		.word	-32576
 2880 00c8 BF8FFFFF 		.word	-28737
 2881 00cc 8080FFFF 		.word	-32640
 2882 00d0 80C0FFFF 		.word	-16256
 2883 00d4 8FBFFFFF 		.word	-16497
 2884              		.cfi_endproc
 2885              	.LFE64:
 2887              		.section	.text.HAL_PCD_EP_Flush,"ax",%progbits
 2888              		.align	1
 2889              		.global	HAL_PCD_EP_Flush
 2890              		.syntax unified
 2891              		.code	16
 2892              		.thumb_func
 2893              		.fpu softvfp
 2895              	HAL_PCD_EP_Flush:
 2896              	.LVL224:
 2897              	.LFB65:
ARM GAS  /var/folders/rf/wfq6hz5s56g3yh4wqgd7820c0000gn/T//ccBUdQBH.s 			page 75


1035:Drivers/STM32F0xx_HAL_Driver/Src/stm32f0xx_hal_pcd.c **** 
1036:Drivers/STM32F0xx_HAL_Driver/Src/stm32f0xx_hal_pcd.c **** /**
1037:Drivers/STM32F0xx_HAL_Driver/Src/stm32f0xx_hal_pcd.c ****   * @brief  Flush an endpoint
1038:Drivers/STM32F0xx_HAL_Driver/Src/stm32f0xx_hal_pcd.c ****   * @param  hpcd PCD handle
1039:Drivers/STM32F0xx_HAL_Driver/Src/stm32f0xx_hal_pcd.c ****   * @param  ep_addr endpoint address
1040:Drivers/STM32F0xx_HAL_Driver/Src/stm32f0xx_hal_pcd.c ****   * @retval HAL status
1041:Drivers/STM32F0xx_HAL_Driver/Src/stm32f0xx_hal_pcd.c ****   */
1042:Drivers/STM32F0xx_HAL_Driver/Src/stm32f0xx_hal_pcd.c **** HAL_StatusTypeDef HAL_PCD_EP_Flush(PCD_HandleTypeDef *hpcd, uint8_t ep_addr)
1043:Drivers/STM32F0xx_HAL_Driver/Src/stm32f0xx_hal_pcd.c **** { 
 2898              		.loc 1 1043 1 is_stmt 1 view -0
 2899              		.cfi_startproc
 2900              		@ args = 0, pretend = 0, frame = 0
 2901              		@ frame_needed = 0, uses_anonymous_args = 0
 2902              		@ link register save eliminated.
1044:Drivers/STM32F0xx_HAL_Driver/Src/stm32f0xx_hal_pcd.c ****   return HAL_OK;
 2903              		.loc 1 1044 3 view .LVU691
1045:Drivers/STM32F0xx_HAL_Driver/Src/stm32f0xx_hal_pcd.c **** }
 2904              		.loc 1 1045 1 is_stmt 0 view .LVU692
 2905 0000 0020     		movs	r0, #0
 2906              	.LVL225:
 2907              		.loc 1 1045 1 view .LVU693
 2908              		@ sp needed
 2909 0002 7047     		bx	lr
 2910              		.cfi_endproc
 2911              	.LFE65:
 2913              		.section	.text.HAL_PCD_ActivateRemoteWakeup,"ax",%progbits
 2914              		.align	1
 2915              		.global	HAL_PCD_ActivateRemoteWakeup
 2916              		.syntax unified
 2917              		.code	16
 2918              		.thumb_func
 2919              		.fpu softvfp
 2921              	HAL_PCD_ActivateRemoteWakeup:
 2922              	.LVL226:
 2923              	.LFB66:
1046:Drivers/STM32F0xx_HAL_Driver/Src/stm32f0xx_hal_pcd.c **** 
1047:Drivers/STM32F0xx_HAL_Driver/Src/stm32f0xx_hal_pcd.c **** /**
1048:Drivers/STM32F0xx_HAL_Driver/Src/stm32f0xx_hal_pcd.c ****   * @brief  HAL_PCD_ActivateRemoteWakeup : active remote wakeup signalling
1049:Drivers/STM32F0xx_HAL_Driver/Src/stm32f0xx_hal_pcd.c **** * @param  hpcd PCD handle
1050:Drivers/STM32F0xx_HAL_Driver/Src/stm32f0xx_hal_pcd.c **** * @retval HAL status
1051:Drivers/STM32F0xx_HAL_Driver/Src/stm32f0xx_hal_pcd.c **** */
1052:Drivers/STM32F0xx_HAL_Driver/Src/stm32f0xx_hal_pcd.c **** HAL_StatusTypeDef HAL_PCD_ActivateRemoteWakeup(PCD_HandleTypeDef *hpcd)
1053:Drivers/STM32F0xx_HAL_Driver/Src/stm32f0xx_hal_pcd.c **** {
 2924              		.loc 1 1053 1 is_stmt 1 view -0
 2925              		.cfi_startproc
 2926              		@ args = 0, pretend = 0, frame = 0
 2927              		@ frame_needed = 0, uses_anonymous_args = 0
 2928              		@ link register save eliminated.
1054:Drivers/STM32F0xx_HAL_Driver/Src/stm32f0xx_hal_pcd.c ****   if (hpcd->Init.lpm_enable ==1)
 2929              		.loc 1 1054 3 view .LVU695
 2930              		.loc 1 1054 6 is_stmt 0 view .LVU696
 2931 0000 C369     		ldr	r3, [r0, #28]
 2932 0002 012B     		cmp	r3, #1
 2933 0004 08D0     		beq	.L142
1055:Drivers/STM32F0xx_HAL_Driver/Src/stm32f0xx_hal_pcd.c ****   {
1056:Drivers/STM32F0xx_HAL_Driver/Src/stm32f0xx_hal_pcd.c ****     /* Apply L1 Resume */
1057:Drivers/STM32F0xx_HAL_Driver/Src/stm32f0xx_hal_pcd.c ****     hpcd->Instance->CNTR |= USB_CNTR_L1RESUME;
ARM GAS  /var/folders/rf/wfq6hz5s56g3yh4wqgd7820c0000gn/T//ccBUdQBH.s 			page 76


1058:Drivers/STM32F0xx_HAL_Driver/Src/stm32f0xx_hal_pcd.c ****   }
1059:Drivers/STM32F0xx_HAL_Driver/Src/stm32f0xx_hal_pcd.c ****   else
1060:Drivers/STM32F0xx_HAL_Driver/Src/stm32f0xx_hal_pcd.c ****   {
1061:Drivers/STM32F0xx_HAL_Driver/Src/stm32f0xx_hal_pcd.c ****     /* Apply L2 Resume */
1062:Drivers/STM32F0xx_HAL_Driver/Src/stm32f0xx_hal_pcd.c ****     hpcd->Instance->CNTR |= USB_CNTR_RESUME;
 2934              		.loc 1 1062 5 is_stmt 1 view .LVU697
 2935              		.loc 1 1062 9 is_stmt 0 view .LVU698
 2936 0006 0168     		ldr	r1, [r0]
 2937              		.loc 1 1062 26 view .LVU699
 2938 0008 4022     		movs	r2, #64
 2939 000a 8B5A     		ldrh	r3, [r1, r2]
 2940 000c 1020     		movs	r0, #16
 2941              	.LVL227:
 2942              		.loc 1 1062 26 view .LVU700
 2943 000e 0343     		orrs	r3, r0
 2944 0010 9BB2     		uxth	r3, r3
 2945 0012 8B52     		strh	r3, [r1, r2]
 2946              	.L141:
1063:Drivers/STM32F0xx_HAL_Driver/Src/stm32f0xx_hal_pcd.c ****   }
1064:Drivers/STM32F0xx_HAL_Driver/Src/stm32f0xx_hal_pcd.c ****   
1065:Drivers/STM32F0xx_HAL_Driver/Src/stm32f0xx_hal_pcd.c ****   return (HAL_OK);
 2947              		.loc 1 1065 3 is_stmt 1 view .LVU701
1066:Drivers/STM32F0xx_HAL_Driver/Src/stm32f0xx_hal_pcd.c **** }
 2948              		.loc 1 1066 1 is_stmt 0 view .LVU702
 2949 0014 0020     		movs	r0, #0
 2950              		@ sp needed
 2951 0016 7047     		bx	lr
 2952              	.LVL228:
 2953              	.L142:
1057:Drivers/STM32F0xx_HAL_Driver/Src/stm32f0xx_hal_pcd.c ****   }
 2954              		.loc 1 1057 5 is_stmt 1 view .LVU703
1057:Drivers/STM32F0xx_HAL_Driver/Src/stm32f0xx_hal_pcd.c ****   }
 2955              		.loc 1 1057 9 is_stmt 0 view .LVU704
 2956 0018 0168     		ldr	r1, [r0]
1057:Drivers/STM32F0xx_HAL_Driver/Src/stm32f0xx_hal_pcd.c ****   }
 2957              		.loc 1 1057 26 view .LVU705
 2958 001a 4022     		movs	r2, #64
 2959 001c 8B5A     		ldrh	r3, [r1, r2]
 2960 001e 2020     		movs	r0, #32
 2961              	.LVL229:
1057:Drivers/STM32F0xx_HAL_Driver/Src/stm32f0xx_hal_pcd.c ****   }
 2962              		.loc 1 1057 26 view .LVU706
 2963 0020 0343     		orrs	r3, r0
 2964 0022 9BB2     		uxth	r3, r3
 2965 0024 8B52     		strh	r3, [r1, r2]
 2966 0026 F5E7     		b	.L141
 2967              		.cfi_endproc
 2968              	.LFE66:
 2970              		.section	.text.HAL_PCD_DeActivateRemoteWakeup,"ax",%progbits
 2971              		.align	1
 2972              		.global	HAL_PCD_DeActivateRemoteWakeup
 2973              		.syntax unified
 2974              		.code	16
 2975              		.thumb_func
 2976              		.fpu softvfp
 2978              	HAL_PCD_DeActivateRemoteWakeup:
 2979              	.LVL230:
ARM GAS  /var/folders/rf/wfq6hz5s56g3yh4wqgd7820c0000gn/T//ccBUdQBH.s 			page 77


 2980              	.LFB67:
1067:Drivers/STM32F0xx_HAL_Driver/Src/stm32f0xx_hal_pcd.c **** 
1068:Drivers/STM32F0xx_HAL_Driver/Src/stm32f0xx_hal_pcd.c **** /**
1069:Drivers/STM32F0xx_HAL_Driver/Src/stm32f0xx_hal_pcd.c **** * @brief  HAL_PCD_DeActivateRemoteWakeup : de-active remote wakeup signalling
1070:Drivers/STM32F0xx_HAL_Driver/Src/stm32f0xx_hal_pcd.c **** * @param  hpcd PCD handle
1071:Drivers/STM32F0xx_HAL_Driver/Src/stm32f0xx_hal_pcd.c **** * @retval HAL status
1072:Drivers/STM32F0xx_HAL_Driver/Src/stm32f0xx_hal_pcd.c **** */
1073:Drivers/STM32F0xx_HAL_Driver/Src/stm32f0xx_hal_pcd.c **** HAL_StatusTypeDef HAL_PCD_DeActivateRemoteWakeup(PCD_HandleTypeDef *hpcd)
1074:Drivers/STM32F0xx_HAL_Driver/Src/stm32f0xx_hal_pcd.c **** {
 2981              		.loc 1 1074 1 is_stmt 1 view -0
 2982              		.cfi_startproc
 2983              		@ args = 0, pretend = 0, frame = 0
 2984              		@ frame_needed = 0, uses_anonymous_args = 0
 2985              		@ link register save eliminated.
1075:Drivers/STM32F0xx_HAL_Driver/Src/stm32f0xx_hal_pcd.c ****   if (hpcd->Init.lpm_enable ==1)
 2986              		.loc 1 1075 3 view .LVU708
 2987              		.loc 1 1075 6 is_stmt 0 view .LVU709
 2988 0000 C369     		ldr	r3, [r0, #28]
 2989 0002 012B     		cmp	r3, #1
 2990 0004 07D0     		beq	.L146
1076:Drivers/STM32F0xx_HAL_Driver/Src/stm32f0xx_hal_pcd.c ****   {
1077:Drivers/STM32F0xx_HAL_Driver/Src/stm32f0xx_hal_pcd.c ****     /* Release L1 Resume */
1078:Drivers/STM32F0xx_HAL_Driver/Src/stm32f0xx_hal_pcd.c ****     hpcd->Instance->CNTR &= ((uint16_t)(~ USB_CNTR_L1RESUME));
1079:Drivers/STM32F0xx_HAL_Driver/Src/stm32f0xx_hal_pcd.c ****   }
1080:Drivers/STM32F0xx_HAL_Driver/Src/stm32f0xx_hal_pcd.c ****   else
1081:Drivers/STM32F0xx_HAL_Driver/Src/stm32f0xx_hal_pcd.c ****   {
1082:Drivers/STM32F0xx_HAL_Driver/Src/stm32f0xx_hal_pcd.c ****     /* Release L2 Resume */
1083:Drivers/STM32F0xx_HAL_Driver/Src/stm32f0xx_hal_pcd.c ****     hpcd->Instance->CNTR &= ((uint16_t)(~ USB_CNTR_RESUME)) ;
 2991              		.loc 1 1083 5 is_stmt 1 view .LVU710
 2992              		.loc 1 1083 9 is_stmt 0 view .LVU711
 2993 0006 0168     		ldr	r1, [r0]
 2994              		.loc 1 1083 26 view .LVU712
 2995 0008 4022     		movs	r2, #64
 2996 000a 8B5A     		ldrh	r3, [r1, r2]
 2997 000c 1020     		movs	r0, #16
 2998              	.LVL231:
 2999              		.loc 1 1083 26 view .LVU713
 3000 000e 8343     		bics	r3, r0
 3001 0010 8B52     		strh	r3, [r1, r2]
 3002              	.L145:
1084:Drivers/STM32F0xx_HAL_Driver/Src/stm32f0xx_hal_pcd.c ****   }
1085:Drivers/STM32F0xx_HAL_Driver/Src/stm32f0xx_hal_pcd.c ****   
1086:Drivers/STM32F0xx_HAL_Driver/Src/stm32f0xx_hal_pcd.c ****   return (HAL_OK);
 3003              		.loc 1 1086 3 is_stmt 1 view .LVU714
1087:Drivers/STM32F0xx_HAL_Driver/Src/stm32f0xx_hal_pcd.c **** }
 3004              		.loc 1 1087 1 is_stmt 0 view .LVU715
 3005 0012 0020     		movs	r0, #0
 3006              		@ sp needed
 3007 0014 7047     		bx	lr
 3008              	.LVL232:
 3009              	.L146:
1078:Drivers/STM32F0xx_HAL_Driver/Src/stm32f0xx_hal_pcd.c ****   }
 3010              		.loc 1 1078 5 is_stmt 1 view .LVU716
1078:Drivers/STM32F0xx_HAL_Driver/Src/stm32f0xx_hal_pcd.c ****   }
 3011              		.loc 1 1078 9 is_stmt 0 view .LVU717
 3012 0016 0168     		ldr	r1, [r0]
1078:Drivers/STM32F0xx_HAL_Driver/Src/stm32f0xx_hal_pcd.c ****   }
ARM GAS  /var/folders/rf/wfq6hz5s56g3yh4wqgd7820c0000gn/T//ccBUdQBH.s 			page 78


 3013              		.loc 1 1078 26 view .LVU718
 3014 0018 4022     		movs	r2, #64
 3015 001a 8B5A     		ldrh	r3, [r1, r2]
 3016 001c 2020     		movs	r0, #32
 3017              	.LVL233:
1078:Drivers/STM32F0xx_HAL_Driver/Src/stm32f0xx_hal_pcd.c ****   }
 3018              		.loc 1 1078 26 view .LVU719
 3019 001e 8343     		bics	r3, r0
 3020 0020 8B52     		strh	r3, [r1, r2]
 3021 0022 F6E7     		b	.L145
 3022              		.cfi_endproc
 3023              	.LFE67:
 3025              		.section	.text.HAL_PCD_GetState,"ax",%progbits
 3026              		.align	1
 3027              		.global	HAL_PCD_GetState
 3028              		.syntax unified
 3029              		.code	16
 3030              		.thumb_func
 3031              		.fpu softvfp
 3033              	HAL_PCD_GetState:
 3034              	.LVL234:
 3035              	.LFB68:
1088:Drivers/STM32F0xx_HAL_Driver/Src/stm32f0xx_hal_pcd.c **** /**
1089:Drivers/STM32F0xx_HAL_Driver/Src/stm32f0xx_hal_pcd.c ****   * @}
1090:Drivers/STM32F0xx_HAL_Driver/Src/stm32f0xx_hal_pcd.c ****   */
1091:Drivers/STM32F0xx_HAL_Driver/Src/stm32f0xx_hal_pcd.c **** 
1092:Drivers/STM32F0xx_HAL_Driver/Src/stm32f0xx_hal_pcd.c **** /** @defgroup PCD_Exported_Functions_Group4 Peripheral State functions 
1093:Drivers/STM32F0xx_HAL_Driver/Src/stm32f0xx_hal_pcd.c ****  *  @brief   Peripheral State functions 
1094:Drivers/STM32F0xx_HAL_Driver/Src/stm32f0xx_hal_pcd.c ****  *
1095:Drivers/STM32F0xx_HAL_Driver/Src/stm32f0xx_hal_pcd.c **** @verbatim   
1096:Drivers/STM32F0xx_HAL_Driver/Src/stm32f0xx_hal_pcd.c ****  ===============================================================================
1097:Drivers/STM32F0xx_HAL_Driver/Src/stm32f0xx_hal_pcd.c ****                       ##### Peripheral State functions #####
1098:Drivers/STM32F0xx_HAL_Driver/Src/stm32f0xx_hal_pcd.c ****  ===============================================================================  
1099:Drivers/STM32F0xx_HAL_Driver/Src/stm32f0xx_hal_pcd.c ****     [..]
1100:Drivers/STM32F0xx_HAL_Driver/Src/stm32f0xx_hal_pcd.c ****     This subsection permits to get in run-time the status of the peripheral 
1101:Drivers/STM32F0xx_HAL_Driver/Src/stm32f0xx_hal_pcd.c ****     and the data flow.
1102:Drivers/STM32F0xx_HAL_Driver/Src/stm32f0xx_hal_pcd.c **** 
1103:Drivers/STM32F0xx_HAL_Driver/Src/stm32f0xx_hal_pcd.c **** @endverbatim
1104:Drivers/STM32F0xx_HAL_Driver/Src/stm32f0xx_hal_pcd.c ****   * @{
1105:Drivers/STM32F0xx_HAL_Driver/Src/stm32f0xx_hal_pcd.c ****   */
1106:Drivers/STM32F0xx_HAL_Driver/Src/stm32f0xx_hal_pcd.c **** 
1107:Drivers/STM32F0xx_HAL_Driver/Src/stm32f0xx_hal_pcd.c **** /**
1108:Drivers/STM32F0xx_HAL_Driver/Src/stm32f0xx_hal_pcd.c ****   * @brief  Return the PCD state
1109:Drivers/STM32F0xx_HAL_Driver/Src/stm32f0xx_hal_pcd.c ****   * @param  hpcd PCD handle
1110:Drivers/STM32F0xx_HAL_Driver/Src/stm32f0xx_hal_pcd.c ****   * @retval HAL state
1111:Drivers/STM32F0xx_HAL_Driver/Src/stm32f0xx_hal_pcd.c ****   */
1112:Drivers/STM32F0xx_HAL_Driver/Src/stm32f0xx_hal_pcd.c **** PCD_StateTypeDef HAL_PCD_GetState(PCD_HandleTypeDef *hpcd)
1113:Drivers/STM32F0xx_HAL_Driver/Src/stm32f0xx_hal_pcd.c **** {
 3036              		.loc 1 1113 1 is_stmt 1 view -0
 3037              		.cfi_startproc
 3038              		@ args = 0, pretend = 0, frame = 0
 3039              		@ frame_needed = 0, uses_anonymous_args = 0
 3040              		@ link register save eliminated.
1114:Drivers/STM32F0xx_HAL_Driver/Src/stm32f0xx_hal_pcd.c ****   return hpcd->State;
 3041              		.loc 1 1114 3 view .LVU721
 3042              		.loc 1 1114 14 is_stmt 0 view .LVU722
 3043 0000 EA23     		movs	r3, #234
ARM GAS  /var/folders/rf/wfq6hz5s56g3yh4wqgd7820c0000gn/T//ccBUdQBH.s 			page 79


 3044 0002 FF33     		adds	r3, r3, #255
 3045 0004 C05C     		ldrb	r0, [r0, r3]
 3046              	.LVL235:
 3047              		.loc 1 1114 14 view .LVU723
 3048 0006 C0B2     		uxtb	r0, r0
1115:Drivers/STM32F0xx_HAL_Driver/Src/stm32f0xx_hal_pcd.c **** }
 3049              		.loc 1 1115 1 view .LVU724
 3050              		@ sp needed
 3051 0008 7047     		bx	lr
 3052              		.cfi_endproc
 3053              	.LFE68:
 3055              		.section	.text.PCD_WritePMA,"ax",%progbits
 3056              		.align	1
 3057              		.global	PCD_WritePMA
 3058              		.syntax unified
 3059              		.code	16
 3060              		.thumb_func
 3061              		.fpu softvfp
 3063              	PCD_WritePMA:
 3064              	.LVL236:
 3065              	.LFB69:
1116:Drivers/STM32F0xx_HAL_Driver/Src/stm32f0xx_hal_pcd.c **** /**
1117:Drivers/STM32F0xx_HAL_Driver/Src/stm32f0xx_hal_pcd.c ****   * @}
1118:Drivers/STM32F0xx_HAL_Driver/Src/stm32f0xx_hal_pcd.c ****   */
1119:Drivers/STM32F0xx_HAL_Driver/Src/stm32f0xx_hal_pcd.c ****   
1120:Drivers/STM32F0xx_HAL_Driver/Src/stm32f0xx_hal_pcd.c **** /**
1121:Drivers/STM32F0xx_HAL_Driver/Src/stm32f0xx_hal_pcd.c ****   * @}
1122:Drivers/STM32F0xx_HAL_Driver/Src/stm32f0xx_hal_pcd.c ****   */
1123:Drivers/STM32F0xx_HAL_Driver/Src/stm32f0xx_hal_pcd.c **** 
1124:Drivers/STM32F0xx_HAL_Driver/Src/stm32f0xx_hal_pcd.c **** /** @addtogroup PCD_Private_Functions
1125:Drivers/STM32F0xx_HAL_Driver/Src/stm32f0xx_hal_pcd.c ****   * @{
1126:Drivers/STM32F0xx_HAL_Driver/Src/stm32f0xx_hal_pcd.c ****   */
1127:Drivers/STM32F0xx_HAL_Driver/Src/stm32f0xx_hal_pcd.c **** /**
1128:Drivers/STM32F0xx_HAL_Driver/Src/stm32f0xx_hal_pcd.c ****   * @brief Copy a buffer from user memory area to packet memory area (PMA)
1129:Drivers/STM32F0xx_HAL_Driver/Src/stm32f0xx_hal_pcd.c ****   * @param   USBx USB peripheral instance register address.
1130:Drivers/STM32F0xx_HAL_Driver/Src/stm32f0xx_hal_pcd.c ****   * @param   pbUsrBuf pointer to user memory area.
1131:Drivers/STM32F0xx_HAL_Driver/Src/stm32f0xx_hal_pcd.c ****   * @param   wPMABufAddr address into PMA.
1132:Drivers/STM32F0xx_HAL_Driver/Src/stm32f0xx_hal_pcd.c ****   * @param   wNBytes no. of bytes to be copied.
1133:Drivers/STM32F0xx_HAL_Driver/Src/stm32f0xx_hal_pcd.c ****   * @retval None
1134:Drivers/STM32F0xx_HAL_Driver/Src/stm32f0xx_hal_pcd.c ****   */
1135:Drivers/STM32F0xx_HAL_Driver/Src/stm32f0xx_hal_pcd.c **** void PCD_WritePMA(USB_TypeDef  *USBx, uint8_t *pbUsrBuf, uint16_t wPMABufAddr, uint16_t wNBytes)
1136:Drivers/STM32F0xx_HAL_Driver/Src/stm32f0xx_hal_pcd.c **** {
 3066              		.loc 1 1136 1 is_stmt 1 view -0
 3067              		.cfi_startproc
 3068              		@ args = 0, pretend = 0, frame = 0
 3069              		@ frame_needed = 0, uses_anonymous_args = 0
 3070              		.loc 1 1136 1 is_stmt 0 view .LVU726
 3071 0000 10B5     		push	{r4, lr}
 3072              	.LCFI10:
 3073              		.cfi_def_cfa_offset 8
 3074              		.cfi_offset 4, -8
 3075              		.cfi_offset 14, -4
1137:Drivers/STM32F0xx_HAL_Driver/Src/stm32f0xx_hal_pcd.c ****   uint32_t n =  ((uint32_t)((uint32_t)wNBytes + 1U)) >> 1U;
 3076              		.loc 1 1137 3 is_stmt 1 view .LVU727
 3077              		.loc 1 1137 18 is_stmt 0 view .LVU728
 3078 0002 0133     		adds	r3, r3, #1
 3079              	.LVL237:
ARM GAS  /var/folders/rf/wfq6hz5s56g3yh4wqgd7820c0000gn/T//ccBUdQBH.s 			page 80


 3080              		.loc 1 1137 12 view .LVU729
 3081 0004 5B08     		lsrs	r3, r3, #1
 3082              	.LVL238:
1138:Drivers/STM32F0xx_HAL_Driver/Src/stm32f0xx_hal_pcd.c ****   uint32_t i;
 3083              		.loc 1 1138 3 is_stmt 1 view .LVU730
1139:Drivers/STM32F0xx_HAL_Driver/Src/stm32f0xx_hal_pcd.c ****   uint16_t temp1, temp2;
 3084              		.loc 1 1139 3 view .LVU731
1140:Drivers/STM32F0xx_HAL_Driver/Src/stm32f0xx_hal_pcd.c ****   uint16_t *pdwVal;
 3085              		.loc 1 1140 3 view .LVU732
1141:Drivers/STM32F0xx_HAL_Driver/Src/stm32f0xx_hal_pcd.c ****   pdwVal = (uint16_t *)((uint32_t)(wPMABufAddr + (uint32_t)USBx + 0x400U));
 3086              		.loc 1 1141 3 view .LVU733
 3087              		.loc 1 1141 48 is_stmt 0 view .LVU734
 3088 0006 1018     		adds	r0, r2, r0
 3089              	.LVL239:
 3090              		.loc 1 1141 25 view .LVU735
 3091 0008 8022     		movs	r2, #128
 3092              	.LVL240:
 3093              		.loc 1 1141 25 view .LVU736
 3094 000a D200     		lsls	r2, r2, #3
 3095 000c 9446     		mov	ip, r2
 3096 000e 6044     		add	r0, r0, ip
 3097              	.LVL241:
1142:Drivers/STM32F0xx_HAL_Driver/Src/stm32f0xx_hal_pcd.c ****   
1143:Drivers/STM32F0xx_HAL_Driver/Src/stm32f0xx_hal_pcd.c ****   for (i = n; i != 0; i--)
 3098              		.loc 1 1143 3 is_stmt 1 view .LVU737
 3099              	.L149:
 3100              		.loc 1 1143 15 discriminator 1 view .LVU738
 3101              		.loc 1 1143 3 is_stmt 0 discriminator 1 view .LVU739
 3102 0010 002B     		cmp	r3, #0
 3103 0012 08D0     		beq	.L151
1144:Drivers/STM32F0xx_HAL_Driver/Src/stm32f0xx_hal_pcd.c ****   {
1145:Drivers/STM32F0xx_HAL_Driver/Src/stm32f0xx_hal_pcd.c ****     temp1 = (uint16_t) * pbUsrBuf;
 3104              		.loc 1 1145 5 is_stmt 1 discriminator 3 view .LVU740
 3105              		.loc 1 1145 11 is_stmt 0 discriminator 3 view .LVU741
 3106 0014 0C78     		ldrb	r4, [r1]
 3107              	.LVL242:
1146:Drivers/STM32F0xx_HAL_Driver/Src/stm32f0xx_hal_pcd.c ****     pbUsrBuf++;
 3108              		.loc 1 1146 5 is_stmt 1 discriminator 3 view .LVU742
1147:Drivers/STM32F0xx_HAL_Driver/Src/stm32f0xx_hal_pcd.c ****     temp2 = temp1 | ((uint16_t)((uint16_t)  * pbUsrBuf << 8U)) ;
 3109              		.loc 1 1147 5 discriminator 3 view .LVU743
 3110              		.loc 1 1147 45 is_stmt 0 discriminator 3 view .LVU744
 3111 0016 4A78     		ldrb	r2, [r1, #1]
 3112              		.loc 1 1147 22 discriminator 3 view .LVU745
 3113 0018 1202     		lsls	r2, r2, #8
 3114              		.loc 1 1147 11 discriminator 3 view .LVU746
 3115 001a 2243     		orrs	r2, r4
 3116              	.LVL243:
1148:Drivers/STM32F0xx_HAL_Driver/Src/stm32f0xx_hal_pcd.c ****     *pdwVal++ = temp2;
 3117              		.loc 1 1148 5 is_stmt 1 discriminator 3 view .LVU747
 3118              		.loc 1 1148 15 is_stmt 0 discriminator 3 view .LVU748
 3119 001c 0280     		strh	r2, [r0]
1149:Drivers/STM32F0xx_HAL_Driver/Src/stm32f0xx_hal_pcd.c ****     pbUsrBuf++;
 3120              		.loc 1 1149 5 is_stmt 1 discriminator 3 view .LVU749
 3121              		.loc 1 1149 13 is_stmt 0 discriminator 3 view .LVU750
 3122 001e 0231     		adds	r1, r1, #2
 3123              	.LVL244:
1143:Drivers/STM32F0xx_HAL_Driver/Src/stm32f0xx_hal_pcd.c ****   {
ARM GAS  /var/folders/rf/wfq6hz5s56g3yh4wqgd7820c0000gn/T//ccBUdQBH.s 			page 81


 3124              		.loc 1 1143 23 is_stmt 1 discriminator 3 view .LVU751
1143:Drivers/STM32F0xx_HAL_Driver/Src/stm32f0xx_hal_pcd.c ****   {
 3125              		.loc 1 1143 24 is_stmt 0 discriminator 3 view .LVU752
 3126 0020 013B     		subs	r3, r3, #1
 3127              	.LVL245:
1148:Drivers/STM32F0xx_HAL_Driver/Src/stm32f0xx_hal_pcd.c ****     *pdwVal++ = temp2;
 3128              		.loc 1 1148 12 discriminator 3 view .LVU753
 3129 0022 0230     		adds	r0, r0, #2
 3130              	.LVL246:
1148:Drivers/STM32F0xx_HAL_Driver/Src/stm32f0xx_hal_pcd.c ****     *pdwVal++ = temp2;
 3131              		.loc 1 1148 12 discriminator 3 view .LVU754
 3132 0024 F4E7     		b	.L149
 3133              	.LVL247:
 3134              	.L151:
1150:Drivers/STM32F0xx_HAL_Driver/Src/stm32f0xx_hal_pcd.c ****   }
1151:Drivers/STM32F0xx_HAL_Driver/Src/stm32f0xx_hal_pcd.c **** }
 3135              		.loc 1 1151 1 view .LVU755
 3136              		@ sp needed
 3137 0026 10BD     		pop	{r4, pc}
 3138              		.cfi_endproc
 3139              	.LFE69:
 3141              		.section	.text.HAL_PCD_EP_Transmit,"ax",%progbits
 3142              		.align	1
 3143              		.global	HAL_PCD_EP_Transmit
 3144              		.syntax unified
 3145              		.code	16
 3146              		.thumb_func
 3147              		.fpu softvfp
 3149              	HAL_PCD_EP_Transmit:
 3150              	.LVL248:
 3151              	.LFB62:
 894:Drivers/STM32F0xx_HAL_Driver/Src/stm32f0xx_hal_pcd.c ****   PCD_EPTypeDef *ep;
 3152              		.loc 1 894 1 is_stmt 1 view -0
 3153              		.cfi_startproc
 3154              		@ args = 0, pretend = 0, frame = 0
 3155              		@ frame_needed = 0, uses_anonymous_args = 0
 894:Drivers/STM32F0xx_HAL_Driver/Src/stm32f0xx_hal_pcd.c ****   PCD_EPTypeDef *ep;
 3156              		.loc 1 894 1 is_stmt 0 view .LVU757
 3157 0000 F8B5     		push	{r3, r4, r5, r6, r7, lr}
 3158              	.LCFI11:
 3159              		.cfi_def_cfa_offset 24
 3160              		.cfi_offset 3, -24
 3161              		.cfi_offset 4, -20
 3162              		.cfi_offset 5, -16
 3163              		.cfi_offset 6, -12
 3164              		.cfi_offset 7, -8
 3165              		.cfi_offset 14, -4
 3166 0002 0500     		movs	r5, r0
 895:Drivers/STM32F0xx_HAL_Driver/Src/stm32f0xx_hal_pcd.c ****   uint16_t pmabuffer = 0U;
 3167              		.loc 1 895 3 is_stmt 1 view .LVU758
 896:Drivers/STM32F0xx_HAL_Driver/Src/stm32f0xx_hal_pcd.c ****     
 3168              		.loc 1 896 3 view .LVU759
 3169              	.LVL249:
 898:Drivers/STM32F0xx_HAL_Driver/Src/stm32f0xx_hal_pcd.c ****   
 3170              		.loc 1 898 3 view .LVU760
 3171 0004 7F24     		movs	r4, #127
 3172 0006 0C40     		ands	r4, r1
ARM GAS  /var/folders/rf/wfq6hz5s56g3yh4wqgd7820c0000gn/T//ccBUdQBH.s 			page 82


 3173              	.LVL250:
 901:Drivers/STM32F0xx_HAL_Driver/Src/stm32f0xx_hal_pcd.c ****   ep->xfer_len = len;
 3174              		.loc 1 901 3 view .LVU761
 901:Drivers/STM32F0xx_HAL_Driver/Src/stm32f0xx_hal_pcd.c ****   ep->xfer_len = len;
 3175              		.loc 1 901 17 is_stmt 0 view .LVU762
 3176 0008 E100     		lsls	r1, r4, #3
 3177              	.LVL251:
 901:Drivers/STM32F0xx_HAL_Driver/Src/stm32f0xx_hal_pcd.c ****   ep->xfer_len = len;
 3178              		.loc 1 901 17 view .LVU763
 3179 000a 091B     		subs	r1, r1, r4
 3180 000c 8900     		lsls	r1, r1, #2
 3181 000e 4118     		adds	r1, r0, r1
 3182 0010 8A63     		str	r2, [r1, #56]
 902:Drivers/STM32F0xx_HAL_Driver/Src/stm32f0xx_hal_pcd.c ****   ep->xfer_count = 0U;
 3183              		.loc 1 902 3 is_stmt 1 view .LVU764
 902:Drivers/STM32F0xx_HAL_Driver/Src/stm32f0xx_hal_pcd.c ****   ep->xfer_count = 0U;
 3184              		.loc 1 902 16 is_stmt 0 view .LVU765
 3185 0012 CB63     		str	r3, [r1, #60]
 903:Drivers/STM32F0xx_HAL_Driver/Src/stm32f0xx_hal_pcd.c ****   ep->is_in = 1U;
 3186              		.loc 1 903 3 is_stmt 1 view .LVU766
 903:Drivers/STM32F0xx_HAL_Driver/Src/stm32f0xx_hal_pcd.c ****   ep->is_in = 1U;
 3187              		.loc 1 903 18 is_stmt 0 view .LVU767
 3188 0014 0022     		movs	r2, #0
 3189              	.LVL252:
 903:Drivers/STM32F0xx_HAL_Driver/Src/stm32f0xx_hal_pcd.c ****   ep->is_in = 1U;
 3190              		.loc 1 903 18 view .LVU768
 3191 0016 0A64     		str	r2, [r1, #64]
 904:Drivers/STM32F0xx_HAL_Driver/Src/stm32f0xx_hal_pcd.c ****   ep->num = ep_addr & 0x7FU;
 3192              		.loc 1 904 3 is_stmt 1 view .LVU769
 904:Drivers/STM32F0xx_HAL_Driver/Src/stm32f0xx_hal_pcd.c ****   ep->num = ep_addr & 0x7FU;
 3193              		.loc 1 904 13 is_stmt 0 view .LVU770
 3194 0018 0A00     		movs	r2, r1
 3195 001a 2932     		adds	r2, r2, #41
 3196 001c 0120     		movs	r0, #1
 3197              	.LVL253:
 904:Drivers/STM32F0xx_HAL_Driver/Src/stm32f0xx_hal_pcd.c ****   ep->num = ep_addr & 0x7FU;
 3198              		.loc 1 904 13 view .LVU771
 3199 001e 1070     		strb	r0, [r2]
 905:Drivers/STM32F0xx_HAL_Driver/Src/stm32f0xx_hal_pcd.c ****   
 3200              		.loc 1 905 3 is_stmt 1 view .LVU772
 905:Drivers/STM32F0xx_HAL_Driver/Src/stm32f0xx_hal_pcd.c ****   
 3201              		.loc 1 905 11 is_stmt 0 view .LVU773
 3202 0020 013A     		subs	r2, r2, #1
 3203 0022 1470     		strb	r4, [r2]
 908:Drivers/STM32F0xx_HAL_Driver/Src/stm32f0xx_hal_pcd.c ****   {
 3204              		.loc 1 908 3 is_stmt 1 view .LVU774
 908:Drivers/STM32F0xx_HAL_Driver/Src/stm32f0xx_hal_pcd.c ****   {
 3205              		.loc 1 908 24 is_stmt 0 view .LVU775
 3206 0024 4F6B     		ldr	r7, [r1, #52]
 908:Drivers/STM32F0xx_HAL_Driver/Src/stm32f0xx_hal_pcd.c ****   {
 3207              		.loc 1 908 6 view .LVU776
 3208 0026 BB42     		cmp	r3, r7
 3209 0028 33D9     		bls	.L153
 910:Drivers/STM32F0xx_HAL_Driver/Src/stm32f0xx_hal_pcd.c ****     ep->xfer_len-=len; 
 3210              		.loc 1 910 5 is_stmt 1 view .LVU777
 3211              	.LVL254:
 911:Drivers/STM32F0xx_HAL_Driver/Src/stm32f0xx_hal_pcd.c ****   }
ARM GAS  /var/folders/rf/wfq6hz5s56g3yh4wqgd7820c0000gn/T//ccBUdQBH.s 			page 83


 3212              		.loc 1 911 5 view .LVU778
 911:Drivers/STM32F0xx_HAL_Driver/Src/stm32f0xx_hal_pcd.c ****   }
 3213              		.loc 1 911 17 is_stmt 0 view .LVU779
 3214 002a DB1B     		subs	r3, r3, r7
 3215 002c CB63     		str	r3, [r1, #60]
 3216              	.LVL255:
 3217              	.L154:
 920:Drivers/STM32F0xx_HAL_Driver/Src/stm32f0xx_hal_pcd.c ****   {
 3218              		.loc 1 920 3 is_stmt 1 view .LVU780
 920:Drivers/STM32F0xx_HAL_Driver/Src/stm32f0xx_hal_pcd.c ****   {
 3219              		.loc 1 920 9 is_stmt 0 view .LVU781
 3220 002e E200     		lsls	r2, r4, #3
 3221 0030 121B     		subs	r2, r2, r4
 3222 0032 9200     		lsls	r2, r2, #2
 3223 0034 AA18     		adds	r2, r5, r2
 3224 0036 3232     		adds	r2, r2, #50
 3225 0038 1378     		ldrb	r3, [r2]
 920:Drivers/STM32F0xx_HAL_Driver/Src/stm32f0xx_hal_pcd.c ****   {
 3226              		.loc 1 920 6 view .LVU782
 3227 003a 002B     		cmp	r3, #0
 3228 003c 31D0     		beq	.L170
 928:Drivers/STM32F0xx_HAL_Driver/Src/stm32f0xx_hal_pcd.c ****     {
 3229              		.loc 1 928 5 is_stmt 1 view .LVU783
 928:Drivers/STM32F0xx_HAL_Driver/Src/stm32f0xx_hal_pcd.c ****     {
 3230              		.loc 1 928 10 is_stmt 0 view .LVU784
 3231 003e 2A68     		ldr	r2, [r5]
 3232 0040 E300     		lsls	r3, r4, #3
 3233 0042 1B1B     		subs	r3, r3, r4
 3234 0044 9B00     		lsls	r3, r3, #2
 3235 0046 EB18     		adds	r3, r5, r3
 3236 0048 2833     		adds	r3, r3, #40
 3237 004a 1878     		ldrb	r0, [r3]
 3238 004c 8300     		lsls	r3, r0, #2
 3239 004e D35A     		ldrh	r3, [r2, r3]
 928:Drivers/STM32F0xx_HAL_Driver/Src/stm32f0xx_hal_pcd.c ****     {
 3240              		.loc 1 928 8 view .LVU785
 3241 0050 5B06     		lsls	r3, r3, #25
 3242 0052 00D4     		bmi	.LCB3242
 3243 0054 85E0     		b	.L157	@long jump
 3244              	.LCB3242:
 931:Drivers/STM32F0xx_HAL_Driver/Src/stm32f0xx_hal_pcd.c ****       pmabuffer = ep->pmaaddr1;
 3245              		.loc 1 931 7 is_stmt 1 view .LVU786
 3246 0056 E300     		lsls	r3, r4, #3
 3247 0058 1B1B     		subs	r3, r3, r4
 3248 005a 9B00     		lsls	r3, r3, #2
 3249 005c EB18     		adds	r3, r5, r3
 3250 005e 2933     		adds	r3, r3, #41
 3251 0060 1B78     		ldrb	r3, [r3]
 3252 0062 002B     		cmp	r3, #0
 3253 0064 3ED1     		bne	.L158
 3254              	.LBB34:
 931:Drivers/STM32F0xx_HAL_Driver/Src/stm32f0xx_hal_pcd.c ****       pmabuffer = ep->pmaaddr1;
 3255              		.loc 1 931 7 discriminator 1 view .LVU787
 3256 0066 5033     		adds	r3, r3, #80
 3257 0068 D35A     		ldrh	r3, [r2, r3]
 3258 006a C000     		lsls	r0, r0, #3
 3259 006c 1818     		adds	r0, r3, r0
ARM GAS  /var/folders/rf/wfq6hz5s56g3yh4wqgd7820c0000gn/T//ccBUdQBH.s 			page 84


 3260 006e 8218     		adds	r2, r0, r2
 3261 0070 614B     		ldr	r3, .L173
 3262 0072 9C46     		mov	ip, r3
 3263 0074 6244     		add	r2, r2, ip
 3264              	.LVL256:
 3265              	.LBB35:
 931:Drivers/STM32F0xx_HAL_Driver/Src/stm32f0xx_hal_pcd.c ****       pmabuffer = ep->pmaaddr1;
 3266              		.loc 1 931 7 discriminator 1 view .LVU788
 931:Drivers/STM32F0xx_HAL_Driver/Src/stm32f0xx_hal_pcd.c ****       pmabuffer = ep->pmaaddr1;
 3267              		.loc 1 931 7 discriminator 1 view .LVU789
 3268 0076 3E2F     		cmp	r7, #62
 3269 0078 2BD9     		bls	.L159
 931:Drivers/STM32F0xx_HAL_Driver/Src/stm32f0xx_hal_pcd.c ****       pmabuffer = ep->pmaaddr1;
 3270              		.loc 1 931 7 discriminator 3 view .LVU790
 3271 007a 7B09     		lsrs	r3, r7, #5
 3272 007c 9BB2     		uxth	r3, r3
 3273              	.LVL257:
 931:Drivers/STM32F0xx_HAL_Driver/Src/stm32f0xx_hal_pcd.c ****       pmabuffer = ep->pmaaddr1;
 3274              		.loc 1 931 7 discriminator 3 view .LVU791
 3275 007e F906     		lsls	r1, r7, #27
 3276 0080 01D1     		bne	.L160
 931:Drivers/STM32F0xx_HAL_Driver/Src/stm32f0xx_hal_pcd.c ****       pmabuffer = ep->pmaaddr1;
 3277              		.loc 1 931 7 discriminator 5 view .LVU792
 3278 0082 013B     		subs	r3, r3, #1
 3279              	.LVL258:
 931:Drivers/STM32F0xx_HAL_Driver/Src/stm32f0xx_hal_pcd.c ****       pmabuffer = ep->pmaaddr1;
 3280              		.loc 1 931 7 is_stmt 0 discriminator 5 view .LVU793
 3281 0084 9BB2     		uxth	r3, r3
 3282              	.LVL259:
 3283              	.L160:
 931:Drivers/STM32F0xx_HAL_Driver/Src/stm32f0xx_hal_pcd.c ****       pmabuffer = ep->pmaaddr1;
 3284              		.loc 1 931 7 is_stmt 1 discriminator 7 view .LVU794
 3285 0086 9B02     		lsls	r3, r3, #10
 3286              	.LVL260:
 931:Drivers/STM32F0xx_HAL_Driver/Src/stm32f0xx_hal_pcd.c ****       pmabuffer = ep->pmaaddr1;
 3287              		.loc 1 931 7 is_stmt 0 discriminator 7 view .LVU795
 3288 0088 9BB2     		uxth	r3, r3
 3289 008a 5C48     		ldr	r0, .L173+4
 3290 008c 0343     		orrs	r3, r0
 3291 008e 1380     		strh	r3, [r2]
 3292 0090 2AE0     		b	.L161
 3293              	.LVL261:
 3294              	.L153:
 931:Drivers/STM32F0xx_HAL_Driver/Src/stm32f0xx_hal_pcd.c ****       pmabuffer = ep->pmaaddr1;
 3295              		.loc 1 931 7 discriminator 7 view .LVU796
 3296              	.LBE35:
 3297              	.LBE34:
 915:Drivers/STM32F0xx_HAL_Driver/Src/stm32f0xx_hal_pcd.c ****     ep->xfer_len =0U;
 3298              		.loc 1 915 5 is_stmt 1 view .LVU797
 916:Drivers/STM32F0xx_HAL_Driver/Src/stm32f0xx_hal_pcd.c ****   }
 3299              		.loc 1 916 5 view .LVU798
 916:Drivers/STM32F0xx_HAL_Driver/Src/stm32f0xx_hal_pcd.c ****   }
 3300              		.loc 1 916 18 is_stmt 0 view .LVU799
 3301 0092 E200     		lsls	r2, r4, #3
 3302 0094 121B     		subs	r2, r2, r4
 3303 0096 9200     		lsls	r2, r2, #2
 3304 0098 AA18     		adds	r2, r5, r2
ARM GAS  /var/folders/rf/wfq6hz5s56g3yh4wqgd7820c0000gn/T//ccBUdQBH.s 			page 85


 3305 009a 0021     		movs	r1, #0
 3306              	.LVL262:
 916:Drivers/STM32F0xx_HAL_Driver/Src/stm32f0xx_hal_pcd.c ****   }
 3307              		.loc 1 916 18 view .LVU800
 3308 009c D163     		str	r1, [r2, #60]
 3309              	.LVL263:
 915:Drivers/STM32F0xx_HAL_Driver/Src/stm32f0xx_hal_pcd.c ****     ep->xfer_len =0U;
 3310              		.loc 1 915 8 view .LVU801
 3311 009e 1F00     		movs	r7, r3
 3312 00a0 C5E7     		b	.L154
 3313              	.LVL264:
 3314              	.L170:
 922:Drivers/STM32F0xx_HAL_Driver/Src/stm32f0xx_hal_pcd.c ****     PCD_SET_EP_TX_CNT(hpcd->Instance, ep->num, len);
 3315              		.loc 1 922 5 is_stmt 1 view .LVU802
 3316 00a2 BFB2     		uxth	r7, r7
 3317              	.LVL265:
 922:Drivers/STM32F0xx_HAL_Driver/Src/stm32f0xx_hal_pcd.c ****     PCD_SET_EP_TX_CNT(hpcd->Instance, ep->num, len);
 3318              		.loc 1 922 5 is_stmt 0 view .LVU803
 3319 00a4 E600     		lsls	r6, r4, #3
 3320 00a6 361B     		subs	r6, r6, r4
 3321 00a8 B600     		lsls	r6, r6, #2
 3322 00aa AE19     		adds	r6, r5, r6
 3323 00ac B28D     		ldrh	r2, [r6, #44]
 3324 00ae 3B00     		movs	r3, r7
 3325 00b0 B16B     		ldr	r1, [r6, #56]
 3326 00b2 2868     		ldr	r0, [r5]
 3327 00b4 FFF7FEFF 		bl	PCD_WritePMA
 3328              	.LVL266:
 923:Drivers/STM32F0xx_HAL_Driver/Src/stm32f0xx_hal_pcd.c ****   }
 3329              		.loc 1 923 5 is_stmt 1 view .LVU804
 3330 00b8 2A68     		ldr	r2, [r5]
 3331 00ba 5023     		movs	r3, #80
 3332 00bc D35A     		ldrh	r3, [r2, r3]
 3333 00be 2836     		adds	r6, r6, #40
 3334 00c0 3178     		ldrb	r1, [r6]
 3335 00c2 C900     		lsls	r1, r1, #3
 3336 00c4 5B18     		adds	r3, r3, r1
 3337 00c6 9B18     		adds	r3, r3, r2
 3338 00c8 4D4A     		ldr	r2, .L173+8
 3339 00ca 9446     		mov	ip, r2
 3340 00cc 6344     		add	r3, r3, ip
 3341 00ce 1F80     		strh	r7, [r3]
 3342 00d0 2AE0     		b	.L156
 3343              	.LVL267:
 3344              	.L159:
 3345              	.LBB37:
 3346              	.LBB36:
 931:Drivers/STM32F0xx_HAL_Driver/Src/stm32f0xx_hal_pcd.c ****       pmabuffer = ep->pmaaddr1;
 3347              		.loc 1 931 7 discriminator 4 view .LVU805
 3348 00d2 7B08     		lsrs	r3, r7, #1
 3349 00d4 9BB2     		uxth	r3, r3
 3350              	.LVL268:
 931:Drivers/STM32F0xx_HAL_Driver/Src/stm32f0xx_hal_pcd.c ****       pmabuffer = ep->pmaaddr1;
 3351              		.loc 1 931 7 discriminator 4 view .LVU806
 3352 00d6 F907     		lsls	r1, r7, #31
 3353 00d8 01D5     		bpl	.L162
 931:Drivers/STM32F0xx_HAL_Driver/Src/stm32f0xx_hal_pcd.c ****       pmabuffer = ep->pmaaddr1;
ARM GAS  /var/folders/rf/wfq6hz5s56g3yh4wqgd7820c0000gn/T//ccBUdQBH.s 			page 86


 3354              		.loc 1 931 7 discriminator 8 view .LVU807
 3355 00da 0133     		adds	r3, r3, #1
 3356              	.LVL269:
 931:Drivers/STM32F0xx_HAL_Driver/Src/stm32f0xx_hal_pcd.c ****       pmabuffer = ep->pmaaddr1;
 3357              		.loc 1 931 7 is_stmt 0 discriminator 8 view .LVU808
 3358 00dc 9BB2     		uxth	r3, r3
 3359              	.LVL270:
 3360              	.L162:
 931:Drivers/STM32F0xx_HAL_Driver/Src/stm32f0xx_hal_pcd.c ****       pmabuffer = ep->pmaaddr1;
 3361              		.loc 1 931 7 is_stmt 1 discriminator 10 view .LVU809
 3362 00de 9B02     		lsls	r3, r3, #10
 3363              	.LVL271:
 931:Drivers/STM32F0xx_HAL_Driver/Src/stm32f0xx_hal_pcd.c ****       pmabuffer = ep->pmaaddr1;
 3364              		.loc 1 931 7 is_stmt 0 discriminator 10 view .LVU810
 3365 00e0 1380     		strh	r3, [r2]
 3366 00e2 01E0     		b	.L161
 3367              	.LVL272:
 3368              	.L158:
 931:Drivers/STM32F0xx_HAL_Driver/Src/stm32f0xx_hal_pcd.c ****       pmabuffer = ep->pmaaddr1;
 3369              		.loc 1 931 7 discriminator 10 view .LVU811
 3370              	.LBE36:
 3371              	.LBE37:
 931:Drivers/STM32F0xx_HAL_Driver/Src/stm32f0xx_hal_pcd.c ****       pmabuffer = ep->pmaaddr1;
 3372              		.loc 1 931 7 is_stmt 1 discriminator 2 view .LVU812
 3373 00e4 012B     		cmp	r3, #1
 3374 00e6 32D0     		beq	.L171
 3375              	.L161:
 932:Drivers/STM32F0xx_HAL_Driver/Src/stm32f0xx_hal_pcd.c ****     }
 3376              		.loc 1 932 7 view .LVU813
 932:Drivers/STM32F0xx_HAL_Driver/Src/stm32f0xx_hal_pcd.c ****     }
 3377              		.loc 1 932 17 is_stmt 0 view .LVU814
 3378 00e8 E300     		lsls	r3, r4, #3
 3379 00ea 1B1B     		subs	r3, r3, r4
 3380 00ec 9B00     		lsls	r3, r3, #2
 3381 00ee EB18     		adds	r3, r5, r3
 3382 00f0 1A8E     		ldrh	r2, [r3, #48]
 3383              	.LVL273:
 3384              	.L163:
 941:Drivers/STM32F0xx_HAL_Driver/Src/stm32f0xx_hal_pcd.c ****     PCD_FreeUserBuffer(hpcd->Instance, ep->num, ep->is_in)
 3385              		.loc 1 941 5 is_stmt 1 view .LVU815
 3386 00f2 BBB2     		uxth	r3, r7
 3387 00f4 E600     		lsls	r6, r4, #3
 3388 00f6 361B     		subs	r6, r6, r4
 3389 00f8 B600     		lsls	r6, r6, #2
 3390 00fa AE19     		adds	r6, r5, r6
 3391 00fc B16B     		ldr	r1, [r6, #56]
 3392 00fe 2868     		ldr	r0, [r5]
 3393 0100 FFF7FEFF 		bl	PCD_WritePMA
 3394              	.LVL274:
 942:Drivers/STM32F0xx_HAL_Driver/Src/stm32f0xx_hal_pcd.c ****   }
 3395              		.loc 1 942 5 view .LVU816
 3396 0104 2936     		adds	r6, r6, #41
 3397 0106 3378     		ldrb	r3, [r6]
 3398 0108 002B     		cmp	r3, #0
 3399 010a 63D1     		bne	.L169
 942:Drivers/STM32F0xx_HAL_Driver/Src/stm32f0xx_hal_pcd.c ****   }
 3400              		.loc 1 942 5 discriminator 1 view .LVU817
ARM GAS  /var/folders/rf/wfq6hz5s56g3yh4wqgd7820c0000gn/T//ccBUdQBH.s 			page 87


 3401 010c 2A68     		ldr	r2, [r5]
 3402 010e E300     		lsls	r3, r4, #3
 3403 0110 1B1B     		subs	r3, r3, r4
 3404 0112 9B00     		lsls	r3, r3, #2
 3405 0114 EB18     		adds	r3, r5, r3
 3406 0116 2833     		adds	r3, r3, #40
 3407 0118 1B78     		ldrb	r3, [r3]
 3408 011a 9B00     		lsls	r3, r3, #2
 3409 011c D15A     		ldrh	r1, [r2, r3]
 3410 011e 3948     		ldr	r0, .L173+12
 3411 0120 0840     		ands	r0, r1
 3412 0122 3949     		ldr	r1, .L173+16
 3413 0124 0143     		orrs	r1, r0
 3414 0126 D152     		strh	r1, [r2, r3]
 3415              	.LVL275:
 3416              	.L156:
 3417              	.LBB38:
 945:Drivers/STM32F0xx_HAL_Driver/Src/stm32f0xx_hal_pcd.c ****      
 3418              		.loc 1 945 3 view .LVU818
 945:Drivers/STM32F0xx_HAL_Driver/Src/stm32f0xx_hal_pcd.c ****      
 3419              		.loc 1 945 3 view .LVU819
 3420 0128 2868     		ldr	r0, [r5]
 3421 012a E100     		lsls	r1, r4, #3
 3422 012c 0C1B     		subs	r4, r1, r4
 3423              	.LVL276:
 945:Drivers/STM32F0xx_HAL_Driver/Src/stm32f0xx_hal_pcd.c ****      
 3424              		.loc 1 945 3 is_stmt 0 view .LVU820
 3425 012e A400     		lsls	r4, r4, #2
 3426 0130 2D19     		adds	r5, r5, r4
 3427              	.LVL277:
 945:Drivers/STM32F0xx_HAL_Driver/Src/stm32f0xx_hal_pcd.c ****      
 3428              		.loc 1 945 3 view .LVU821
 3429 0132 2835     		adds	r5, r5, #40
 3430 0134 2A78     		ldrb	r2, [r5]
 3431 0136 9200     		lsls	r2, r2, #2
 3432 0138 835A     		ldrh	r3, [r0, r2]
 3433 013a 3449     		ldr	r1, .L173+20
 3434 013c 0B40     		ands	r3, r1
 3435              	.LVL278:
 945:Drivers/STM32F0xx_HAL_Driver/Src/stm32f0xx_hal_pcd.c ****      
 3436              		.loc 1 945 3 is_stmt 1 view .LVU822
 945:Drivers/STM32F0xx_HAL_Driver/Src/stm32f0xx_hal_pcd.c ****      
 3437              		.loc 1 945 3 view .LVU823
 945:Drivers/STM32F0xx_HAL_Driver/Src/stm32f0xx_hal_pcd.c ****      
 3438              		.loc 1 945 3 view .LVU824
 945:Drivers/STM32F0xx_HAL_Driver/Src/stm32f0xx_hal_pcd.c ****      
 3439              		.loc 1 945 3 view .LVU825
 3440 013e 3021     		movs	r1, #48
 3441 0140 4B40     		eors	r3, r1
 3442              	.LVL279:
 945:Drivers/STM32F0xx_HAL_Driver/Src/stm32f0xx_hal_pcd.c ****      
 3443              		.loc 1 945 3 is_stmt 0 view .LVU826
 3444 0142 9BB2     		uxth	r3, r3
 3445              	.LVL280:
 945:Drivers/STM32F0xx_HAL_Driver/Src/stm32f0xx_hal_pcd.c ****      
 3446              		.loc 1 945 3 is_stmt 1 view .LVU827
 3447 0144 3249     		ldr	r1, .L173+24
ARM GAS  /var/folders/rf/wfq6hz5s56g3yh4wqgd7820c0000gn/T//ccBUdQBH.s 			page 88


 3448 0146 0B43     		orrs	r3, r1
 3449              	.LVL281:
 945:Drivers/STM32F0xx_HAL_Driver/Src/stm32f0xx_hal_pcd.c ****      
 3450              		.loc 1 945 3 is_stmt 0 view .LVU828
 3451 0148 8352     		strh	r3, [r0, r2]
 945:Drivers/STM32F0xx_HAL_Driver/Src/stm32f0xx_hal_pcd.c ****      
 3452              		.loc 1 945 3 view .LVU829
 3453              	.LBE38:
 947:Drivers/STM32F0xx_HAL_Driver/Src/stm32f0xx_hal_pcd.c **** }
 3454              		.loc 1 947 3 is_stmt 1 view .LVU830
 948:Drivers/STM32F0xx_HAL_Driver/Src/stm32f0xx_hal_pcd.c **** 
 3455              		.loc 1 948 1 is_stmt 0 view .LVU831
 3456 014a 0020     		movs	r0, #0
 3457              		@ sp needed
 3458 014c F8BD     		pop	{r3, r4, r5, r6, r7, pc}
 3459              	.LVL282:
 3460              	.L171:
 931:Drivers/STM32F0xx_HAL_Driver/Src/stm32f0xx_hal_pcd.c ****       pmabuffer = ep->pmaaddr1;
 3461              		.loc 1 931 7 is_stmt 1 discriminator 11 view .LVU832
 3462 014e 4F33     		adds	r3, r3, #79
 3463 0150 D35A     		ldrh	r3, [r2, r3]
 3464 0152 C000     		lsls	r0, r0, #3
 3465 0154 1818     		adds	r0, r3, r0
 3466 0156 8218     		adds	r2, r0, r2
 3467 0158 274B     		ldr	r3, .L173
 3468 015a 9C46     		mov	ip, r3
 3469 015c 6244     		add	r2, r2, ip
 3470 015e 1780     		strh	r7, [r2]
 3471 0160 C2E7     		b	.L161
 3472              	.L157:
 937:Drivers/STM32F0xx_HAL_Driver/Src/stm32f0xx_hal_pcd.c ****       pmabuffer = ep->pmaaddr0;
 3473              		.loc 1 937 7 view .LVU833
 3474 0162 E300     		lsls	r3, r4, #3
 3475 0164 1B1B     		subs	r3, r3, r4
 3476 0166 9B00     		lsls	r3, r3, #2
 3477 0168 EB18     		adds	r3, r5, r3
 3478 016a 2933     		adds	r3, r3, #41
 3479 016c 1B78     		ldrb	r3, [r3]
 3480 016e 002B     		cmp	r3, #0
 3481 0170 1ED1     		bne	.L164
 3482              	.LBB39:
 937:Drivers/STM32F0xx_HAL_Driver/Src/stm32f0xx_hal_pcd.c ****       pmabuffer = ep->pmaaddr0;
 3483              		.loc 1 937 7 discriminator 1 view .LVU834
 3484 0172 5033     		adds	r3, r3, #80
 3485 0174 D35A     		ldrh	r3, [r2, r3]
 3486 0176 C000     		lsls	r0, r0, #3
 3487 0178 1818     		adds	r0, r3, r0
 3488 017a 8218     		adds	r2, r0, r2
 3489 017c 204B     		ldr	r3, .L173+8
 3490 017e 9C46     		mov	ip, r3
 3491 0180 6244     		add	r2, r2, ip
 3492              	.LVL283:
 3493              	.LBB40:
 937:Drivers/STM32F0xx_HAL_Driver/Src/stm32f0xx_hal_pcd.c ****       pmabuffer = ep->pmaaddr0;
 3494              		.loc 1 937 7 discriminator 1 view .LVU835
 937:Drivers/STM32F0xx_HAL_Driver/Src/stm32f0xx_hal_pcd.c ****       pmabuffer = ep->pmaaddr0;
 3495              		.loc 1 937 7 discriminator 1 view .LVU836
ARM GAS  /var/folders/rf/wfq6hz5s56g3yh4wqgd7820c0000gn/T//ccBUdQBH.s 			page 89


 3496 0182 3E2F     		cmp	r7, #62
 3497 0184 0BD9     		bls	.L165
 937:Drivers/STM32F0xx_HAL_Driver/Src/stm32f0xx_hal_pcd.c ****       pmabuffer = ep->pmaaddr0;
 3498              		.loc 1 937 7 discriminator 3 view .LVU837
 3499 0186 7B09     		lsrs	r3, r7, #5
 3500 0188 9BB2     		uxth	r3, r3
 3501              	.LVL284:
 937:Drivers/STM32F0xx_HAL_Driver/Src/stm32f0xx_hal_pcd.c ****       pmabuffer = ep->pmaaddr0;
 3502              		.loc 1 937 7 discriminator 3 view .LVU838
 3503 018a F906     		lsls	r1, r7, #27
 3504 018c 01D1     		bne	.L166
 937:Drivers/STM32F0xx_HAL_Driver/Src/stm32f0xx_hal_pcd.c ****       pmabuffer = ep->pmaaddr0;
 3505              		.loc 1 937 7 discriminator 5 view .LVU839
 3506 018e 013B     		subs	r3, r3, #1
 3507              	.LVL285:
 937:Drivers/STM32F0xx_HAL_Driver/Src/stm32f0xx_hal_pcd.c ****       pmabuffer = ep->pmaaddr0;
 3508              		.loc 1 937 7 is_stmt 0 discriminator 5 view .LVU840
 3509 0190 9BB2     		uxth	r3, r3
 3510              	.LVL286:
 3511              	.L166:
 937:Drivers/STM32F0xx_HAL_Driver/Src/stm32f0xx_hal_pcd.c ****       pmabuffer = ep->pmaaddr0;
 3512              		.loc 1 937 7 is_stmt 1 discriminator 7 view .LVU841
 3513 0192 9B02     		lsls	r3, r3, #10
 3514              	.LVL287:
 937:Drivers/STM32F0xx_HAL_Driver/Src/stm32f0xx_hal_pcd.c ****       pmabuffer = ep->pmaaddr0;
 3515              		.loc 1 937 7 is_stmt 0 discriminator 7 view .LVU842
 3516 0194 9BB2     		uxth	r3, r3
 3517 0196 1948     		ldr	r0, .L173+4
 3518 0198 0343     		orrs	r3, r0
 3519 019a 1380     		strh	r3, [r2]
 3520 019c 0AE0     		b	.L167
 3521              	.L165:
 937:Drivers/STM32F0xx_HAL_Driver/Src/stm32f0xx_hal_pcd.c ****       pmabuffer = ep->pmaaddr0;
 3522              		.loc 1 937 7 is_stmt 1 discriminator 4 view .LVU843
 3523 019e 7B08     		lsrs	r3, r7, #1
 3524 01a0 9BB2     		uxth	r3, r3
 3525              	.LVL288:
 937:Drivers/STM32F0xx_HAL_Driver/Src/stm32f0xx_hal_pcd.c ****       pmabuffer = ep->pmaaddr0;
 3526              		.loc 1 937 7 discriminator 4 view .LVU844
 3527 01a2 F907     		lsls	r1, r7, #31
 3528 01a4 01D5     		bpl	.L168
 937:Drivers/STM32F0xx_HAL_Driver/Src/stm32f0xx_hal_pcd.c ****       pmabuffer = ep->pmaaddr0;
 3529              		.loc 1 937 7 discriminator 8 view .LVU845
 3530 01a6 0133     		adds	r3, r3, #1
 3531              	.LVL289:
 937:Drivers/STM32F0xx_HAL_Driver/Src/stm32f0xx_hal_pcd.c ****       pmabuffer = ep->pmaaddr0;
 3532              		.loc 1 937 7 is_stmt 0 discriminator 8 view .LVU846
 3533 01a8 9BB2     		uxth	r3, r3
 3534              	.LVL290:
 3535              	.L168:
 937:Drivers/STM32F0xx_HAL_Driver/Src/stm32f0xx_hal_pcd.c ****       pmabuffer = ep->pmaaddr0;
 3536              		.loc 1 937 7 is_stmt 1 discriminator 10 view .LVU847
 3537 01aa 9B02     		lsls	r3, r3, #10
 3538              	.LVL291:
 937:Drivers/STM32F0xx_HAL_Driver/Src/stm32f0xx_hal_pcd.c ****       pmabuffer = ep->pmaaddr0;
 3539              		.loc 1 937 7 is_stmt 0 discriminator 10 view .LVU848
 3540 01ac 1380     		strh	r3, [r2]
ARM GAS  /var/folders/rf/wfq6hz5s56g3yh4wqgd7820c0000gn/T//ccBUdQBH.s 			page 90


 3541 01ae 01E0     		b	.L167
 3542              	.LVL292:
 3543              	.L164:
 937:Drivers/STM32F0xx_HAL_Driver/Src/stm32f0xx_hal_pcd.c ****       pmabuffer = ep->pmaaddr0;
 3544              		.loc 1 937 7 discriminator 10 view .LVU849
 3545              	.LBE40:
 3546              	.LBE39:
 937:Drivers/STM32F0xx_HAL_Driver/Src/stm32f0xx_hal_pcd.c ****       pmabuffer = ep->pmaaddr0;
 3547              		.loc 1 937 7 is_stmt 1 discriminator 2 view .LVU850
 3548 01b0 012B     		cmp	r3, #1
 3549 01b2 05D0     		beq	.L172
 3550              	.L167:
 938:Drivers/STM32F0xx_HAL_Driver/Src/stm32f0xx_hal_pcd.c ****     }
 3551              		.loc 1 938 7 view .LVU851
 938:Drivers/STM32F0xx_HAL_Driver/Src/stm32f0xx_hal_pcd.c ****     }
 3552              		.loc 1 938 17 is_stmt 0 view .LVU852
 3553 01b4 E300     		lsls	r3, r4, #3
 3554 01b6 1B1B     		subs	r3, r3, r4
 3555 01b8 9B00     		lsls	r3, r3, #2
 3556 01ba EB18     		adds	r3, r5, r3
 3557 01bc DA8D     		ldrh	r2, [r3, #46]
 3558              	.LVL293:
 938:Drivers/STM32F0xx_HAL_Driver/Src/stm32f0xx_hal_pcd.c ****     }
 3559              		.loc 1 938 17 view .LVU853
 3560 01be 98E7     		b	.L163
 3561              	.LVL294:
 3562              	.L172:
 937:Drivers/STM32F0xx_HAL_Driver/Src/stm32f0xx_hal_pcd.c ****       pmabuffer = ep->pmaaddr0;
 3563              		.loc 1 937 7 is_stmt 1 discriminator 11 view .LVU854
 3564 01c0 4F33     		adds	r3, r3, #79
 3565 01c2 D35A     		ldrh	r3, [r2, r3]
 3566 01c4 C000     		lsls	r0, r0, #3
 3567 01c6 1818     		adds	r0, r3, r0
 3568 01c8 8218     		adds	r2, r0, r2
 3569 01ca 0D4B     		ldr	r3, .L173+8
 3570 01cc 9C46     		mov	ip, r3
 3571 01ce 6244     		add	r2, r2, ip
 3572 01d0 1780     		strh	r7, [r2]
 3573 01d2 EFE7     		b	.L167
 3574              	.LVL295:
 3575              	.L169:
 942:Drivers/STM32F0xx_HAL_Driver/Src/stm32f0xx_hal_pcd.c ****   }
 3576              		.loc 1 942 5 discriminator 2 view .LVU855
 3577 01d4 012B     		cmp	r3, #1
 3578 01d6 A7D1     		bne	.L156
 942:Drivers/STM32F0xx_HAL_Driver/Src/stm32f0xx_hal_pcd.c ****   }
 3579              		.loc 1 942 5 discriminator 3 view .LVU856
 3580 01d8 2A68     		ldr	r2, [r5]
 3581 01da E300     		lsls	r3, r4, #3
 3582 01dc 1B1B     		subs	r3, r3, r4
 3583 01de 9B00     		lsls	r3, r3, #2
 3584 01e0 EB18     		adds	r3, r5, r3
 3585 01e2 2833     		adds	r3, r3, #40
 3586 01e4 1B78     		ldrb	r3, [r3]
 3587 01e6 9B00     		lsls	r3, r3, #2
 3588 01e8 D15A     		ldrh	r1, [r2, r3]
 3589 01ea 0648     		ldr	r0, .L173+12
ARM GAS  /var/folders/rf/wfq6hz5s56g3yh4wqgd7820c0000gn/T//ccBUdQBH.s 			page 91


 3590 01ec 0840     		ands	r0, r1
 3591 01ee 0949     		ldr	r1, .L173+28
 3592 01f0 0143     		orrs	r1, r0
 3593 01f2 D152     		strh	r1, [r2, r3]
 3594 01f4 98E7     		b	.L156
 3595              	.L174:
 3596 01f6 C046     		.align	2
 3597              	.L173:
 3598 01f8 06040000 		.word	1030
 3599 01fc 0080FFFF 		.word	-32768
 3600 0200 02040000 		.word	1026
 3601 0204 0F0F0000 		.word	3855
 3602 0208 C080FFFF 		.word	-32576
 3603 020c BF8FFFFF 		.word	-28737
 3604 0210 8080FFFF 		.word	-32640
 3605 0214 80C0FFFF 		.word	-16256
 3606              		.cfi_endproc
 3607              	.LFE62:
 3609              		.section	.text.PCD_ReadPMA,"ax",%progbits
 3610              		.align	1
 3611              		.global	PCD_ReadPMA
 3612              		.syntax unified
 3613              		.code	16
 3614              		.thumb_func
 3615              		.fpu softvfp
 3617              	PCD_ReadPMA:
 3618              	.LVL296:
 3619              	.LFB70:
1152:Drivers/STM32F0xx_HAL_Driver/Src/stm32f0xx_hal_pcd.c **** 
1153:Drivers/STM32F0xx_HAL_Driver/Src/stm32f0xx_hal_pcd.c **** /**
1154:Drivers/STM32F0xx_HAL_Driver/Src/stm32f0xx_hal_pcd.c ****   * @brief Copy a buffer from user memory area to packet memory area (PMA)
1155:Drivers/STM32F0xx_HAL_Driver/Src/stm32f0xx_hal_pcd.c ****   * @param   USBx USB peripheral instance register address.
1156:Drivers/STM32F0xx_HAL_Driver/Src/stm32f0xx_hal_pcd.c ****   * @param   pbUsrBuf    = pointer to user memory area.
1157:Drivers/STM32F0xx_HAL_Driver/Src/stm32f0xx_hal_pcd.c ****   * @param   wPMABufAddr address into PMA.
1158:Drivers/STM32F0xx_HAL_Driver/Src/stm32f0xx_hal_pcd.c ****   * @param   wNBytes no. of bytes to be copied.
1159:Drivers/STM32F0xx_HAL_Driver/Src/stm32f0xx_hal_pcd.c ****   * @retval None
1160:Drivers/STM32F0xx_HAL_Driver/Src/stm32f0xx_hal_pcd.c ****   */
1161:Drivers/STM32F0xx_HAL_Driver/Src/stm32f0xx_hal_pcd.c **** void PCD_ReadPMA(USB_TypeDef  *USBx, uint8_t *pbUsrBuf, uint16_t wPMABufAddr, uint16_t wNBytes)
1162:Drivers/STM32F0xx_HAL_Driver/Src/stm32f0xx_hal_pcd.c **** {
 3620              		.loc 1 1162 1 view -0
 3621              		.cfi_startproc
 3622              		@ args = 0, pretend = 0, frame = 0
 3623              		@ frame_needed = 0, uses_anonymous_args = 0
 3624              		.loc 1 1162 1 is_stmt 0 view .LVU858
 3625 0000 10B5     		push	{r4, lr}
 3626              	.LCFI12:
 3627              		.cfi_def_cfa_offset 8
 3628              		.cfi_offset 4, -8
 3629              		.cfi_offset 14, -4
1163:Drivers/STM32F0xx_HAL_Driver/Src/stm32f0xx_hal_pcd.c ****   uint32_t n = (uint32_t)wNBytes >> 1U;
 3630              		.loc 1 1163 3 is_stmt 1 view .LVU859
 3631              		.loc 1 1163 34 is_stmt 0 view .LVU860
 3632 0002 5C08     		lsrs	r4, r3, #1
 3633              	.LVL297:
1164:Drivers/STM32F0xx_HAL_Driver/Src/stm32f0xx_hal_pcd.c ****   uint32_t i;
 3634              		.loc 1 1164 3 is_stmt 1 view .LVU861
1165:Drivers/STM32F0xx_HAL_Driver/Src/stm32f0xx_hal_pcd.c ****   uint16_t *pdwVal;
ARM GAS  /var/folders/rf/wfq6hz5s56g3yh4wqgd7820c0000gn/T//ccBUdQBH.s 			page 92


 3635              		.loc 1 1165 3 view .LVU862
1166:Drivers/STM32F0xx_HAL_Driver/Src/stm32f0xx_hal_pcd.c ****   uint32_t temp;
 3636              		.loc 1 1166 3 view .LVU863
1167:Drivers/STM32F0xx_HAL_Driver/Src/stm32f0xx_hal_pcd.c ****   pdwVal = (uint16_t *)((uint32_t)(wPMABufAddr + (uint32_t)USBx + 0x400U));
 3637              		.loc 1 1167 3 view .LVU864
 3638              		.loc 1 1167 48 is_stmt 0 view .LVU865
 3639 0004 1018     		adds	r0, r2, r0
 3640              	.LVL298:
 3641              		.loc 1 1167 25 view .LVU866
 3642 0006 8022     		movs	r2, #128
 3643              	.LVL299:
 3644              		.loc 1 1167 25 view .LVU867
 3645 0008 D200     		lsls	r2, r2, #3
 3646 000a 9446     		mov	ip, r2
 3647 000c 6044     		add	r0, r0, ip
 3648              	.LVL300:
1168:Drivers/STM32F0xx_HAL_Driver/Src/stm32f0xx_hal_pcd.c ****   
1169:Drivers/STM32F0xx_HAL_Driver/Src/stm32f0xx_hal_pcd.c ****   for (i = n; i != 0U; i--)
 3649              		.loc 1 1169 3 is_stmt 1 view .LVU868
 3650              	.L176:
 3651              		.loc 1 1169 15 discriminator 1 view .LVU869
 3652              		.loc 1 1169 3 is_stmt 0 discriminator 1 view .LVU870
 3653 000e 002C     		cmp	r4, #0
 3654 0010 07D0     		beq	.L179
1170:Drivers/STM32F0xx_HAL_Driver/Src/stm32f0xx_hal_pcd.c ****   {
1171:Drivers/STM32F0xx_HAL_Driver/Src/stm32f0xx_hal_pcd.c ****     temp = *pdwVal++;
 3655              		.loc 1 1171 5 is_stmt 1 discriminator 3 view .LVU871
 3656              	.LVL301:
 3657              		.loc 1 1171 12 is_stmt 0 discriminator 3 view .LVU872
 3658 0012 0288     		ldrh	r2, [r0]
 3659              	.LVL302:
1172:Drivers/STM32F0xx_HAL_Driver/Src/stm32f0xx_hal_pcd.c ****     *pbUsrBuf++ = ((temp >> 0) & 0xFF);
 3660              		.loc 1 1172 5 is_stmt 1 discriminator 3 view .LVU873
 3661              		.loc 1 1172 17 is_stmt 0 discriminator 3 view .LVU874
 3662 0014 0A70     		strb	r2, [r1]
1173:Drivers/STM32F0xx_HAL_Driver/Src/stm32f0xx_hal_pcd.c ****     *pbUsrBuf++ = ((temp >> 8) & 0xFF);
 3663              		.loc 1 1173 5 is_stmt 1 discriminator 3 view .LVU875
 3664              		.loc 1 1173 26 is_stmt 0 discriminator 3 view .LVU876
 3665 0016 120A     		lsrs	r2, r2, #8
 3666              	.LVL303:
 3667              		.loc 1 1173 17 discriminator 3 view .LVU877
 3668 0018 4A70     		strb	r2, [r1, #1]
1169:Drivers/STM32F0xx_HAL_Driver/Src/stm32f0xx_hal_pcd.c ****   {
 3669              		.loc 1 1169 24 is_stmt 1 discriminator 3 view .LVU878
1169:Drivers/STM32F0xx_HAL_Driver/Src/stm32f0xx_hal_pcd.c ****   {
 3670              		.loc 1 1169 25 is_stmt 0 discriminator 3 view .LVU879
 3671 001a 013C     		subs	r4, r4, #1
 3672              	.LVL304:
1171:Drivers/STM32F0xx_HAL_Driver/Src/stm32f0xx_hal_pcd.c ****     *pbUsrBuf++ = ((temp >> 0) & 0xFF);
 3673              		.loc 1 1171 19 discriminator 3 view .LVU880
 3674 001c 0230     		adds	r0, r0, #2
 3675              	.LVL305:
 3676              		.loc 1 1173 14 discriminator 3 view .LVU881
 3677 001e 0231     		adds	r1, r1, #2
 3678              	.LVL306:
 3679              		.loc 1 1173 14 discriminator 3 view .LVU882
 3680 0020 F5E7     		b	.L176
ARM GAS  /var/folders/rf/wfq6hz5s56g3yh4wqgd7820c0000gn/T//ccBUdQBH.s 			page 93


 3681              	.L179:
1174:Drivers/STM32F0xx_HAL_Driver/Src/stm32f0xx_hal_pcd.c ****   }
1175:Drivers/STM32F0xx_HAL_Driver/Src/stm32f0xx_hal_pcd.c ****   
1176:Drivers/STM32F0xx_HAL_Driver/Src/stm32f0xx_hal_pcd.c ****   if (wNBytes % 2)
 3682              		.loc 1 1176 3 is_stmt 1 view .LVU883
 3683              		.loc 1 1176 6 is_stmt 0 view .LVU884
 3684 0022 DB07     		lsls	r3, r3, #31
 3685 0024 01D5     		bpl	.L175
 3686              	.LVL307:
1177:Drivers/STM32F0xx_HAL_Driver/Src/stm32f0xx_hal_pcd.c ****   {
1178:Drivers/STM32F0xx_HAL_Driver/Src/stm32f0xx_hal_pcd.c ****     temp = *pdwVal++;
 3687              		.loc 1 1178 5 is_stmt 1 view .LVU885
 3688              		.loc 1 1178 12 is_stmt 0 view .LVU886
 3689 0026 0388     		ldrh	r3, [r0]
 3690              	.LVL308:
1179:Drivers/STM32F0xx_HAL_Driver/Src/stm32f0xx_hal_pcd.c ****     *pbUsrBuf++ = ((temp >> 0) & 0xFF);
 3691              		.loc 1 1179 5 is_stmt 1 view .LVU887
 3692              		.loc 1 1179 17 is_stmt 0 view .LVU888
 3693 0028 0B70     		strb	r3, [r1]
 3694              	.LVL309:
 3695              	.L175:
1180:Drivers/STM32F0xx_HAL_Driver/Src/stm32f0xx_hal_pcd.c ****   }
1181:Drivers/STM32F0xx_HAL_Driver/Src/stm32f0xx_hal_pcd.c **** }
 3696              		.loc 1 1181 1 view .LVU889
 3697              		@ sp needed
 3698              	.LVL310:
 3699              		.loc 1 1181 1 view .LVU890
 3700 002a 10BD     		pop	{r4, pc}
 3701              		.cfi_endproc
 3702              	.LFE70:
 3704              		.section	.text.PCD_EP_ISR_Handler,"ax",%progbits
 3705              		.align	1
 3706              		.syntax unified
 3707              		.code	16
 3708              		.thumb_func
 3709              		.fpu softvfp
 3711              	PCD_EP_ISR_Handler:
 3712              	.LVL311:
 3713              	.LFB71:
1182:Drivers/STM32F0xx_HAL_Driver/Src/stm32f0xx_hal_pcd.c **** 
1183:Drivers/STM32F0xx_HAL_Driver/Src/stm32f0xx_hal_pcd.c **** /**
1184:Drivers/STM32F0xx_HAL_Driver/Src/stm32f0xx_hal_pcd.c ****   * @brief  This function handles PCD Endpoint interrupt request.
1185:Drivers/STM32F0xx_HAL_Driver/Src/stm32f0xx_hal_pcd.c ****   * @param  hpcd PCD handle
1186:Drivers/STM32F0xx_HAL_Driver/Src/stm32f0xx_hal_pcd.c ****   * @retval HAL status
1187:Drivers/STM32F0xx_HAL_Driver/Src/stm32f0xx_hal_pcd.c ****   */
1188:Drivers/STM32F0xx_HAL_Driver/Src/stm32f0xx_hal_pcd.c **** static HAL_StatusTypeDef PCD_EP_ISR_Handler(PCD_HandleTypeDef *hpcd)
1189:Drivers/STM32F0xx_HAL_Driver/Src/stm32f0xx_hal_pcd.c **** {
 3714              		.loc 1 1189 1 is_stmt 1 view -0
 3715              		.cfi_startproc
 3716              		@ args = 0, pretend = 0, frame = 8
 3717              		@ frame_needed = 0, uses_anonymous_args = 0
 3718              		.loc 1 1189 1 is_stmt 0 view .LVU892
 3719 0000 F0B5     		push	{r4, r5, r6, r7, lr}
 3720              	.LCFI13:
 3721              		.cfi_def_cfa_offset 20
 3722              		.cfi_offset 4, -20
 3723              		.cfi_offset 5, -16
ARM GAS  /var/folders/rf/wfq6hz5s56g3yh4wqgd7820c0000gn/T//ccBUdQBH.s 			page 94


 3724              		.cfi_offset 6, -12
 3725              		.cfi_offset 7, -8
 3726              		.cfi_offset 14, -4
 3727 0002 83B0     		sub	sp, sp, #12
 3728              	.LCFI14:
 3729              		.cfi_def_cfa_offset 32
 3730 0004 0400     		movs	r4, r0
1190:Drivers/STM32F0xx_HAL_Driver/Src/stm32f0xx_hal_pcd.c ****   PCD_EPTypeDef *ep;
 3731              		.loc 1 1190 3 is_stmt 1 view .LVU893
1191:Drivers/STM32F0xx_HAL_Driver/Src/stm32f0xx_hal_pcd.c ****   uint16_t count=0U;
 3732              		.loc 1 1191 3 view .LVU894
 3733              	.LVL312:
1192:Drivers/STM32F0xx_HAL_Driver/Src/stm32f0xx_hal_pcd.c ****   uint8_t EPindex;
 3734              		.loc 1 1192 3 view .LVU895
1193:Drivers/STM32F0xx_HAL_Driver/Src/stm32f0xx_hal_pcd.c ****   __IO uint16_t wIstr;  
 3735              		.loc 1 1193 3 view .LVU896
1194:Drivers/STM32F0xx_HAL_Driver/Src/stm32f0xx_hal_pcd.c ****   __IO uint16_t wEPVal = 0U;
 3736              		.loc 1 1194 3 view .LVU897
 3737              		.loc 1 1194 17 is_stmt 0 view .LVU898
 3738 0006 01AB     		add	r3, sp, #4
 3739 0008 0022     		movs	r2, #0
 3740 000a 1A80     		strh	r2, [r3]
1195:Drivers/STM32F0xx_HAL_Driver/Src/stm32f0xx_hal_pcd.c ****   
1196:Drivers/STM32F0xx_HAL_Driver/Src/stm32f0xx_hal_pcd.c ****   /* stay in loop while pending interrupts */
1197:Drivers/STM32F0xx_HAL_Driver/Src/stm32f0xx_hal_pcd.c ****   while (((wIstr = hpcd->Instance->ISTR) & USB_ISTR_CTR) != 0U)
 3741              		.loc 1 1197 3 is_stmt 1 view .LVU899
 3742              		.loc 1 1197 9 is_stmt 0 view .LVU900
 3743 000c B4E1     		b	.L181
 3744              	.LVL313:
 3745              	.L208:
1198:Drivers/STM32F0xx_HAL_Driver/Src/stm32f0xx_hal_pcd.c ****   {
1199:Drivers/STM32F0xx_HAL_Driver/Src/stm32f0xx_hal_pcd.c ****     /* extract highest priority endpoint number */
1200:Drivers/STM32F0xx_HAL_Driver/Src/stm32f0xx_hal_pcd.c ****     EPindex = (uint8_t)(wIstr & USB_ISTR_EP_ID);
1201:Drivers/STM32F0xx_HAL_Driver/Src/stm32f0xx_hal_pcd.c ****     
1202:Drivers/STM32F0xx_HAL_Driver/Src/stm32f0xx_hal_pcd.c ****     if (EPindex == 0U)
1203:Drivers/STM32F0xx_HAL_Driver/Src/stm32f0xx_hal_pcd.c ****     {
1204:Drivers/STM32F0xx_HAL_Driver/Src/stm32f0xx_hal_pcd.c ****       /* Decode and service control endpoint interrupt */
1205:Drivers/STM32F0xx_HAL_Driver/Src/stm32f0xx_hal_pcd.c ****       
1206:Drivers/STM32F0xx_HAL_Driver/Src/stm32f0xx_hal_pcd.c ****       /* DIR bit = origin of the interrupt */   
1207:Drivers/STM32F0xx_HAL_Driver/Src/stm32f0xx_hal_pcd.c ****       if ((wIstr & USB_ISTR_DIR) == 0U)
1208:Drivers/STM32F0xx_HAL_Driver/Src/stm32f0xx_hal_pcd.c ****       {
1209:Drivers/STM32F0xx_HAL_Driver/Src/stm32f0xx_hal_pcd.c ****         /* DIR = 0 */
1210:Drivers/STM32F0xx_HAL_Driver/Src/stm32f0xx_hal_pcd.c ****         
1211:Drivers/STM32F0xx_HAL_Driver/Src/stm32f0xx_hal_pcd.c ****         /* DIR = 0      => IN  int */
1212:Drivers/STM32F0xx_HAL_Driver/Src/stm32f0xx_hal_pcd.c ****         /* DIR = 0 implies that (EP_CTR_TX = 1) always  */
1213:Drivers/STM32F0xx_HAL_Driver/Src/stm32f0xx_hal_pcd.c ****         PCD_CLEAR_TX_EP_CTR(hpcd->Instance, PCD_ENDP0);
 3746              		.loc 1 1213 9 is_stmt 1 view .LVU901
 3747 000e 0388     		ldrh	r3, [r0]
 3748 0010 AA4A     		ldr	r2, .L211
 3749 0012 1340     		ands	r3, r2
 3750 0014 0380     		strh	r3, [r0]
1214:Drivers/STM32F0xx_HAL_Driver/Src/stm32f0xx_hal_pcd.c ****         ep = &hpcd->IN_ep[0];
 3751              		.loc 1 1214 9 view .LVU902
 3752              	.LVL314:
1215:Drivers/STM32F0xx_HAL_Driver/Src/stm32f0xx_hal_pcd.c ****         
1216:Drivers/STM32F0xx_HAL_Driver/Src/stm32f0xx_hal_pcd.c ****         ep->xfer_count = PCD_GET_EP_TX_CNT(hpcd->Instance, ep->num);
 3753              		.loc 1 1216 9 view .LVU903
ARM GAS  /var/folders/rf/wfq6hz5s56g3yh4wqgd7820c0000gn/T//ccBUdQBH.s 			page 95


 3754              		.loc 1 1216 26 is_stmt 0 view .LVU904
 3755 0016 2168     		ldr	r1, [r4]
 3756 0018 5023     		movs	r3, #80
 3757 001a CB5A     		ldrh	r3, [r1, r3]
 3758 001c 2822     		movs	r2, #40
 3759 001e A25C     		ldrb	r2, [r4, r2]
 3760 0020 D200     		lsls	r2, r2, #3
 3761 0022 9B18     		adds	r3, r3, r2
 3762 0024 5B18     		adds	r3, r3, r1
 3763 0026 A64A     		ldr	r2, .L211+4
 3764 0028 9446     		mov	ip, r2
 3765 002a 6344     		add	r3, r3, ip
 3766 002c 1B88     		ldrh	r3, [r3]
 3767 002e 9B05     		lsls	r3, r3, #22
 3768 0030 9B0D     		lsrs	r3, r3, #22
 3769              		.loc 1 1216 24 view .LVU905
 3770 0032 2364     		str	r3, [r4, #64]
1217:Drivers/STM32F0xx_HAL_Driver/Src/stm32f0xx_hal_pcd.c ****         ep->xfer_buff += ep->xfer_count;
 3771              		.loc 1 1217 9 is_stmt 1 view .LVU906
 3772              		.loc 1 1217 23 is_stmt 0 view .LVU907
 3773 0034 A26B     		ldr	r2, [r4, #56]
 3774 0036 9446     		mov	ip, r2
 3775 0038 6344     		add	r3, r3, ip
 3776 003a A363     		str	r3, [r4, #56]
1218:Drivers/STM32F0xx_HAL_Driver/Src/stm32f0xx_hal_pcd.c ****  
1219:Drivers/STM32F0xx_HAL_Driver/Src/stm32f0xx_hal_pcd.c ****         /* TX COMPLETE */
1220:Drivers/STM32F0xx_HAL_Driver/Src/stm32f0xx_hal_pcd.c ****         HAL_PCD_DataInStageCallback(hpcd, 0U);
 3777              		.loc 1 1220 9 is_stmt 1 view .LVU908
 3778 003c 0021     		movs	r1, #0
 3779 003e 2000     		movs	r0, r4
 3780 0040 FFF7FEFF 		bl	HAL_PCD_DataInStageCallback
 3781              	.LVL315:
1221:Drivers/STM32F0xx_HAL_Driver/Src/stm32f0xx_hal_pcd.c ****         
1222:Drivers/STM32F0xx_HAL_Driver/Src/stm32f0xx_hal_pcd.c ****         
1223:Drivers/STM32F0xx_HAL_Driver/Src/stm32f0xx_hal_pcd.c ****         if((hpcd->USB_Address > 0U)&& ( ep->xfer_len == 0U))
 3782              		.loc 1 1223 9 view .LVU909
 3783              		.loc 1 1223 17 is_stmt 0 view .LVU910
 3784 0044 2423     		movs	r3, #36
 3785 0046 E35C     		ldrb	r3, [r4, r3]
 3786              		.loc 1 1223 11 view .LVU911
 3787 0048 002B     		cmp	r3, #0
 3788 004a 00D1     		bne	.LCB3873
 3789 004c 94E1     		b	.L181	@long jump
 3790              	.LCB3873:
 3791              		.loc 1 1223 36 discriminator 1 view .LVU912
 3792 004e E36B     		ldr	r3, [r4, #60]
 3793 0050 002B     		cmp	r3, #0
 3794 0052 00D0     		beq	.LCB3877
 3795 0054 90E1     		b	.L181	@long jump
 3796              	.LCB3877:
1224:Drivers/STM32F0xx_HAL_Driver/Src/stm32f0xx_hal_pcd.c ****         {
1225:Drivers/STM32F0xx_HAL_Driver/Src/stm32f0xx_hal_pcd.c ****           hpcd->Instance->DADDR = (hpcd->USB_Address | USB_DADDR_EF);
 3797              		.loc 1 1225 11 is_stmt 1 view .LVU913
 3798              		.loc 1 1225 40 is_stmt 0 view .LVU914
 3799 0056 2422     		movs	r2, #36
 3800 0058 A35C     		ldrb	r3, [r4, r2]
 3801              		.loc 1 1225 33 view .LVU915
ARM GAS  /var/folders/rf/wfq6hz5s56g3yh4wqgd7820c0000gn/T//ccBUdQBH.s 			page 96


 3802 005a 8021     		movs	r1, #128
 3803 005c 4942     		rsbs	r1, r1, #0
 3804 005e 0B43     		orrs	r3, r1
 3805 0060 DBB2     		uxtb	r3, r3
 3806 0062 CC31     		adds	r1, r1, #204
 3807 0064 2068     		ldr	r0, [r4]
 3808 0066 4352     		strh	r3, [r0, r1]
1226:Drivers/STM32F0xx_HAL_Driver/Src/stm32f0xx_hal_pcd.c ****           hpcd->USB_Address = 0U;
 3809              		.loc 1 1226 11 is_stmt 1 view .LVU916
 3810              		.loc 1 1226 29 is_stmt 0 view .LVU917
 3811 0068 0023     		movs	r3, #0
 3812 006a A354     		strb	r3, [r4, r2]
 3813 006c 84E1     		b	.L181
 3814              	.LVL316:
 3815              	.L209:
1227:Drivers/STM32F0xx_HAL_Driver/Src/stm32f0xx_hal_pcd.c ****         }
1228:Drivers/STM32F0xx_HAL_Driver/Src/stm32f0xx_hal_pcd.c ****         
1229:Drivers/STM32F0xx_HAL_Driver/Src/stm32f0xx_hal_pcd.c ****       }
1230:Drivers/STM32F0xx_HAL_Driver/Src/stm32f0xx_hal_pcd.c ****       else
1231:Drivers/STM32F0xx_HAL_Driver/Src/stm32f0xx_hal_pcd.c ****       {
1232:Drivers/STM32F0xx_HAL_Driver/Src/stm32f0xx_hal_pcd.c ****         /* DIR = 1 */
1233:Drivers/STM32F0xx_HAL_Driver/Src/stm32f0xx_hal_pcd.c ****         
1234:Drivers/STM32F0xx_HAL_Driver/Src/stm32f0xx_hal_pcd.c ****         /* DIR = 1 & CTR_RX       => SETUP or OUT int */
1235:Drivers/STM32F0xx_HAL_Driver/Src/stm32f0xx_hal_pcd.c ****         /* DIR = 1 & (CTR_TX | CTR_RX) => 2 int pending */
1236:Drivers/STM32F0xx_HAL_Driver/Src/stm32f0xx_hal_pcd.c ****         ep = &hpcd->OUT_ep[0];
1237:Drivers/STM32F0xx_HAL_Driver/Src/stm32f0xx_hal_pcd.c ****         wEPVal = PCD_GET_ENDPOINT(hpcd->Instance, PCD_ENDP0);
1238:Drivers/STM32F0xx_HAL_Driver/Src/stm32f0xx_hal_pcd.c ****         
1239:Drivers/STM32F0xx_HAL_Driver/Src/stm32f0xx_hal_pcd.c ****         if ((wEPVal & USB_EP_SETUP) != 0U)
1240:Drivers/STM32F0xx_HAL_Driver/Src/stm32f0xx_hal_pcd.c ****         {
1241:Drivers/STM32F0xx_HAL_Driver/Src/stm32f0xx_hal_pcd.c ****           /* Get SETUP Packet*/
1242:Drivers/STM32F0xx_HAL_Driver/Src/stm32f0xx_hal_pcd.c ****           ep->xfer_count = PCD_GET_EP_RX_CNT(hpcd->Instance, ep->num);
 3816              		.loc 1 1242 11 is_stmt 1 view .LVU918
 3817              		.loc 1 1242 28 is_stmt 0 view .LVU919
 3818 006e 5023     		movs	r3, #80
 3819 0070 C35A     		ldrh	r3, [r0, r3]
 3820 0072 8422     		movs	r2, #132
 3821 0074 5200     		lsls	r2, r2, #1
 3822 0076 A25C     		ldrb	r2, [r4, r2]
 3823 0078 D200     		lsls	r2, r2, #3
 3824 007a 9B18     		adds	r3, r3, r2
 3825 007c 1B18     		adds	r3, r3, r0
 3826 007e 914A     		ldr	r2, .L211+8
 3827 0080 9446     		mov	ip, r2
 3828 0082 6344     		add	r3, r3, ip
 3829 0084 1B88     		ldrh	r3, [r3]
 3830 0086 9B05     		lsls	r3, r3, #22
 3831 0088 9B0D     		lsrs	r3, r3, #22
 3832              		.loc 1 1242 26 view .LVU920
 3833 008a 2200     		movs	r2, r4
 3834 008c 0932     		adds	r2, r2, #9
 3835 008e FF32     		adds	r2, r2, #255
 3836 0090 9361     		str	r3, [r2, #24]
1243:Drivers/STM32F0xx_HAL_Driver/Src/stm32f0xx_hal_pcd.c ****           PCD_ReadPMA(hpcd->Instance, (uint8_t*)(void*)hpcd->Setup ,ep->pmaadress , ep->xfer_count)
 3837              		.loc 1 1243 11 is_stmt 1 view .LVU921
 3838              		.loc 1 1243 56 is_stmt 0 view .LVU922
 3839 0092 2100     		movs	r1, r4
 3840 0094 ED31     		adds	r1, r1, #237
ARM GAS  /var/folders/rf/wfq6hz5s56g3yh4wqgd7820c0000gn/T//ccBUdQBH.s 			page 97


 3841 0096 FF31     		adds	r1, r1, #255
 3842              		.loc 1 1243 11 view .LVU923
 3843 0098 9288     		ldrh	r2, [r2, #4]
 3844 009a FFF7FEFF 		bl	PCD_ReadPMA
 3845              	.LVL317:
1244:Drivers/STM32F0xx_HAL_Driver/Src/stm32f0xx_hal_pcd.c ****           /* SETUP bit kept frozen while CTR_RX = 1*/ 
1245:Drivers/STM32F0xx_HAL_Driver/Src/stm32f0xx_hal_pcd.c ****           PCD_CLEAR_RX_EP_CTR(hpcd->Instance, PCD_ENDP0); 
 3846              		.loc 1 1245 11 is_stmt 1 view .LVU924
 3847 009e 2268     		ldr	r2, [r4]
 3848 00a0 1388     		ldrh	r3, [r2]
 3849 00a2 8949     		ldr	r1, .L211+12
 3850 00a4 0B40     		ands	r3, r1
 3851 00a6 1380     		strh	r3, [r2]
1246:Drivers/STM32F0xx_HAL_Driver/Src/stm32f0xx_hal_pcd.c ****           
1247:Drivers/STM32F0xx_HAL_Driver/Src/stm32f0xx_hal_pcd.c ****           /* Process SETUP Packet*/
1248:Drivers/STM32F0xx_HAL_Driver/Src/stm32f0xx_hal_pcd.c ****           HAL_PCD_SetupStageCallback(hpcd);
 3852              		.loc 1 1248 11 view .LVU925
 3853 00a8 2000     		movs	r0, r4
 3854 00aa FFF7FEFF 		bl	HAL_PCD_SetupStageCallback
 3855              	.LVL318:
 3856 00ae 63E1     		b	.L181
 3857              	.L210:
1249:Drivers/STM32F0xx_HAL_Driver/Src/stm32f0xx_hal_pcd.c ****         }
1250:Drivers/STM32F0xx_HAL_Driver/Src/stm32f0xx_hal_pcd.c ****         
1251:Drivers/STM32F0xx_HAL_Driver/Src/stm32f0xx_hal_pcd.c ****         else if ((wEPVal & USB_EP_CTR_RX) != 0U)
1252:Drivers/STM32F0xx_HAL_Driver/Src/stm32f0xx_hal_pcd.c ****         {
1253:Drivers/STM32F0xx_HAL_Driver/Src/stm32f0xx_hal_pcd.c ****           PCD_CLEAR_RX_EP_CTR(hpcd->Instance, PCD_ENDP0);
1254:Drivers/STM32F0xx_HAL_Driver/Src/stm32f0xx_hal_pcd.c ****           /* Get Control Data OUT Packet*/
1255:Drivers/STM32F0xx_HAL_Driver/Src/stm32f0xx_hal_pcd.c ****           ep->xfer_count = PCD_GET_EP_RX_CNT(hpcd->Instance, ep->num);
1256:Drivers/STM32F0xx_HAL_Driver/Src/stm32f0xx_hal_pcd.c ****           
1257:Drivers/STM32F0xx_HAL_Driver/Src/stm32f0xx_hal_pcd.c ****           if (ep->xfer_count != 0U)
1258:Drivers/STM32F0xx_HAL_Driver/Src/stm32f0xx_hal_pcd.c ****           {
1259:Drivers/STM32F0xx_HAL_Driver/Src/stm32f0xx_hal_pcd.c ****             PCD_ReadPMA(hpcd->Instance, ep->xfer_buff, ep->pmaadress, ep->xfer_count);
 3858              		.loc 1 1259 13 view .LVU926
 3859 00b0 1500     		movs	r5, r2
 3860              	.LVL319:
 3861              		.loc 1 1259 13 is_stmt 0 view .LVU927
 3862 00b2 9288     		ldrh	r2, [r2, #4]
 3863 00b4 2969     		ldr	r1, [r5, #16]
 3864 00b6 FFF7FEFF 		bl	PCD_ReadPMA
 3865              	.LVL320:
1260:Drivers/STM32F0xx_HAL_Driver/Src/stm32f0xx_hal_pcd.c ****             ep->xfer_buff+=ep->xfer_count;
 3866              		.loc 1 1260 13 is_stmt 1 view .LVU928
 3867              		.loc 1 1260 26 is_stmt 0 view .LVU929
 3868 00ba 2B69     		ldr	r3, [r5, #16]
 3869 00bc AA69     		ldr	r2, [r5, #24]
 3870 00be 9446     		mov	ip, r2
 3871 00c0 6344     		add	r3, r3, ip
 3872 00c2 2B61     		str	r3, [r5, #16]
 3873 00c4 96E1     		b	.L186
 3874              	.LVL321:
 3875              	.L187:
 3876              	.LBB41:
 3877              	.LBB42:
1261:Drivers/STM32F0xx_HAL_Driver/Src/stm32f0xx_hal_pcd.c ****           }
1262:Drivers/STM32F0xx_HAL_Driver/Src/stm32f0xx_hal_pcd.c ****           
1263:Drivers/STM32F0xx_HAL_Driver/Src/stm32f0xx_hal_pcd.c ****           /* Process Control Data OUT Packet*/
ARM GAS  /var/folders/rf/wfq6hz5s56g3yh4wqgd7820c0000gn/T//ccBUdQBH.s 			page 98


1264:Drivers/STM32F0xx_HAL_Driver/Src/stm32f0xx_hal_pcd.c ****            HAL_PCD_DataOutStageCallback(hpcd, 0U);
1265:Drivers/STM32F0xx_HAL_Driver/Src/stm32f0xx_hal_pcd.c ****           
1266:Drivers/STM32F0xx_HAL_Driver/Src/stm32f0xx_hal_pcd.c ****           PCD_SET_EP_RX_CNT(hpcd->Instance, PCD_ENDP0, ep->maxpacket)
 3878              		.loc 1 1266 11 is_stmt 1 discriminator 2 view .LVU930
 3879 00c6 4B08     		lsrs	r3, r1, #1
 3880 00c8 9BB2     		uxth	r3, r3
 3881              	.LVL322:
 3882              		.loc 1 1266 11 discriminator 2 view .LVU931
 3883 00ca C907     		lsls	r1, r1, #31
 3884 00cc 01D5     		bpl	.L190
 3885              		.loc 1 1266 11 discriminator 6 view .LVU932
 3886 00ce 0133     		adds	r3, r3, #1
 3887              	.LVL323:
 3888              		.loc 1 1266 11 is_stmt 0 discriminator 6 view .LVU933
 3889 00d0 9BB2     		uxth	r3, r3
 3890              	.LVL324:
 3891              	.L190:
 3892              		.loc 1 1266 11 is_stmt 1 discriminator 8 view .LVU934
 3893 00d2 9B02     		lsls	r3, r3, #10
 3894              	.LVL325:
 3895              		.loc 1 1266 11 is_stmt 0 discriminator 8 view .LVU935
 3896 00d4 1380     		strh	r3, [r2]
 3897 00d6 AAE1     		b	.L189
 3898              	.LVL326:
 3899              	.L182:
 3900              		.loc 1 1266 11 discriminator 8 view .LVU936
 3901              	.LBE42:
 3902              	.LBE41:
1267:Drivers/STM32F0xx_HAL_Driver/Src/stm32f0xx_hal_pcd.c ****           PCD_SET_EP_RX_STATUS(hpcd->Instance, PCD_ENDP0, USB_EP_RX_VALID)
1268:Drivers/STM32F0xx_HAL_Driver/Src/stm32f0xx_hal_pcd.c ****         }
1269:Drivers/STM32F0xx_HAL_Driver/Src/stm32f0xx_hal_pcd.c ****       }
1270:Drivers/STM32F0xx_HAL_Driver/Src/stm32f0xx_hal_pcd.c ****     }
1271:Drivers/STM32F0xx_HAL_Driver/Src/stm32f0xx_hal_pcd.c ****     else
1272:Drivers/STM32F0xx_HAL_Driver/Src/stm32f0xx_hal_pcd.c ****     {
1273:Drivers/STM32F0xx_HAL_Driver/Src/stm32f0xx_hal_pcd.c ****       
1274:Drivers/STM32F0xx_HAL_Driver/Src/stm32f0xx_hal_pcd.c ****       /* Decode and service non control endpoints interrupt  */
1275:Drivers/STM32F0xx_HAL_Driver/Src/stm32f0xx_hal_pcd.c ****       
1276:Drivers/STM32F0xx_HAL_Driver/Src/stm32f0xx_hal_pcd.c ****       /* process related endpoint register */
1277:Drivers/STM32F0xx_HAL_Driver/Src/stm32f0xx_hal_pcd.c ****       wEPVal = PCD_GET_ENDPOINT(hpcd->Instance, EPindex);
 3903              		.loc 1 1277 7 is_stmt 1 view .LVU937
 3904              		.loc 1 1277 16 is_stmt 0 view .LVU938
 3905 00d8 AE00     		lsls	r6, r5, #2
 3906 00da 8119     		adds	r1, r0, r6
 3907 00dc 825B     		ldrh	r2, [r0, r6]
 3908              		.loc 1 1277 14 view .LVU939
 3909 00de 01AB     		add	r3, sp, #4
 3910 00e0 1A80     		strh	r2, [r3]
1278:Drivers/STM32F0xx_HAL_Driver/Src/stm32f0xx_hal_pcd.c ****       if ((wEPVal & USB_EP_CTR_RX) != 0U)
 3911              		.loc 1 1278 7 is_stmt 1 view .LVU940
 3912              		.loc 1 1278 36 is_stmt 0 view .LVU941
 3913 00e2 1B88     		ldrh	r3, [r3]
 3914 00e4 1BB2     		sxth	r3, r3
 3915              		.loc 1 1278 10 view .LVU942
 3916 00e6 002B     		cmp	r3, #0
 3917 00e8 2EDB     		blt	.L204
 3918              	.L191:
1279:Drivers/STM32F0xx_HAL_Driver/Src/stm32f0xx_hal_pcd.c ****       {  
ARM GAS  /var/folders/rf/wfq6hz5s56g3yh4wqgd7820c0000gn/T//ccBUdQBH.s 			page 99


1280:Drivers/STM32F0xx_HAL_Driver/Src/stm32f0xx_hal_pcd.c ****         /* clear int flag */
1281:Drivers/STM32F0xx_HAL_Driver/Src/stm32f0xx_hal_pcd.c ****         PCD_CLEAR_RX_EP_CTR(hpcd->Instance, EPindex);
1282:Drivers/STM32F0xx_HAL_Driver/Src/stm32f0xx_hal_pcd.c ****         ep = &hpcd->OUT_ep[EPindex];
1283:Drivers/STM32F0xx_HAL_Driver/Src/stm32f0xx_hal_pcd.c ****         
1284:Drivers/STM32F0xx_HAL_Driver/Src/stm32f0xx_hal_pcd.c ****         /* OUT double Buffering*/
1285:Drivers/STM32F0xx_HAL_Driver/Src/stm32f0xx_hal_pcd.c ****         if (ep->doublebuffer == 0U)
1286:Drivers/STM32F0xx_HAL_Driver/Src/stm32f0xx_hal_pcd.c ****         {
1287:Drivers/STM32F0xx_HAL_Driver/Src/stm32f0xx_hal_pcd.c ****           count = PCD_GET_EP_RX_CNT(hpcd->Instance, ep->num);
1288:Drivers/STM32F0xx_HAL_Driver/Src/stm32f0xx_hal_pcd.c ****           if (count != 0U)
1289:Drivers/STM32F0xx_HAL_Driver/Src/stm32f0xx_hal_pcd.c ****           {
1290:Drivers/STM32F0xx_HAL_Driver/Src/stm32f0xx_hal_pcd.c ****             PCD_ReadPMA(hpcd->Instance, ep->xfer_buff, ep->pmaadress, count);
1291:Drivers/STM32F0xx_HAL_Driver/Src/stm32f0xx_hal_pcd.c ****           }
1292:Drivers/STM32F0xx_HAL_Driver/Src/stm32f0xx_hal_pcd.c ****         }
1293:Drivers/STM32F0xx_HAL_Driver/Src/stm32f0xx_hal_pcd.c ****         else
1294:Drivers/STM32F0xx_HAL_Driver/Src/stm32f0xx_hal_pcd.c ****         {
1295:Drivers/STM32F0xx_HAL_Driver/Src/stm32f0xx_hal_pcd.c ****           
1296:Drivers/STM32F0xx_HAL_Driver/Src/stm32f0xx_hal_pcd.c ****           if ((PCD_GET_ENDPOINT(hpcd->Instance, ep->num)& USB_EP_DTOG_RX) == USB_EP_DTOG_RX)
1297:Drivers/STM32F0xx_HAL_Driver/Src/stm32f0xx_hal_pcd.c ****           {
1298:Drivers/STM32F0xx_HAL_Driver/Src/stm32f0xx_hal_pcd.c ****             /*read from endpoint BUF0Addr buffer*/
1299:Drivers/STM32F0xx_HAL_Driver/Src/stm32f0xx_hal_pcd.c ****             count = PCD_GET_EP_DBUF0_CNT(hpcd->Instance, ep->num);
1300:Drivers/STM32F0xx_HAL_Driver/Src/stm32f0xx_hal_pcd.c ****             if (count != 0U)
1301:Drivers/STM32F0xx_HAL_Driver/Src/stm32f0xx_hal_pcd.c ****             {
1302:Drivers/STM32F0xx_HAL_Driver/Src/stm32f0xx_hal_pcd.c ****               PCD_ReadPMA(hpcd->Instance, ep->xfer_buff, ep->pmaaddr0, count);
1303:Drivers/STM32F0xx_HAL_Driver/Src/stm32f0xx_hal_pcd.c ****             }
1304:Drivers/STM32F0xx_HAL_Driver/Src/stm32f0xx_hal_pcd.c ****           }
1305:Drivers/STM32F0xx_HAL_Driver/Src/stm32f0xx_hal_pcd.c ****           else
1306:Drivers/STM32F0xx_HAL_Driver/Src/stm32f0xx_hal_pcd.c ****           {
1307:Drivers/STM32F0xx_HAL_Driver/Src/stm32f0xx_hal_pcd.c ****             /*read from endpoint BUF1Addr buffer*/
1308:Drivers/STM32F0xx_HAL_Driver/Src/stm32f0xx_hal_pcd.c ****             count = PCD_GET_EP_DBUF1_CNT(hpcd->Instance, ep->num);
1309:Drivers/STM32F0xx_HAL_Driver/Src/stm32f0xx_hal_pcd.c ****             if (count != 0U)
1310:Drivers/STM32F0xx_HAL_Driver/Src/stm32f0xx_hal_pcd.c ****             {
1311:Drivers/STM32F0xx_HAL_Driver/Src/stm32f0xx_hal_pcd.c ****               PCD_ReadPMA(hpcd->Instance, ep->xfer_buff, ep->pmaaddr1, count);
1312:Drivers/STM32F0xx_HAL_Driver/Src/stm32f0xx_hal_pcd.c ****             }
1313:Drivers/STM32F0xx_HAL_Driver/Src/stm32f0xx_hal_pcd.c ****           }
1314:Drivers/STM32F0xx_HAL_Driver/Src/stm32f0xx_hal_pcd.c ****           PCD_FreeUserBuffer(hpcd->Instance, ep->num, PCD_EP_DBUF_OUT)  
1315:Drivers/STM32F0xx_HAL_Driver/Src/stm32f0xx_hal_pcd.c ****         }
1316:Drivers/STM32F0xx_HAL_Driver/Src/stm32f0xx_hal_pcd.c ****         /*multi-packet on the NON control OUT endpoint*/
1317:Drivers/STM32F0xx_HAL_Driver/Src/stm32f0xx_hal_pcd.c ****         ep->xfer_count+=count;
1318:Drivers/STM32F0xx_HAL_Driver/Src/stm32f0xx_hal_pcd.c ****         ep->xfer_buff+=count;
1319:Drivers/STM32F0xx_HAL_Driver/Src/stm32f0xx_hal_pcd.c ****        
1320:Drivers/STM32F0xx_HAL_Driver/Src/stm32f0xx_hal_pcd.c ****         if ((ep->xfer_len == 0U) || (count < ep->maxpacket))
1321:Drivers/STM32F0xx_HAL_Driver/Src/stm32f0xx_hal_pcd.c ****         {
1322:Drivers/STM32F0xx_HAL_Driver/Src/stm32f0xx_hal_pcd.c ****           /* RX COMPLETE */
1323:Drivers/STM32F0xx_HAL_Driver/Src/stm32f0xx_hal_pcd.c ****           HAL_PCD_DataOutStageCallback(hpcd, ep->num);
1324:Drivers/STM32F0xx_HAL_Driver/Src/stm32f0xx_hal_pcd.c ****         }
1325:Drivers/STM32F0xx_HAL_Driver/Src/stm32f0xx_hal_pcd.c ****         else
1326:Drivers/STM32F0xx_HAL_Driver/Src/stm32f0xx_hal_pcd.c ****         {
1327:Drivers/STM32F0xx_HAL_Driver/Src/stm32f0xx_hal_pcd.c ****           HAL_PCD_EP_Receive(hpcd, ep->num, ep->xfer_buff, ep->xfer_len);
1328:Drivers/STM32F0xx_HAL_Driver/Src/stm32f0xx_hal_pcd.c ****         }
1329:Drivers/STM32F0xx_HAL_Driver/Src/stm32f0xx_hal_pcd.c ****         
1330:Drivers/STM32F0xx_HAL_Driver/Src/stm32f0xx_hal_pcd.c ****       } /* if((wEPVal & EP_CTR_RX) */
1331:Drivers/STM32F0xx_HAL_Driver/Src/stm32f0xx_hal_pcd.c ****       
1332:Drivers/STM32F0xx_HAL_Driver/Src/stm32f0xx_hal_pcd.c ****       if ((wEPVal & USB_EP_CTR_TX) != 0U)
 3919              		.loc 1 1332 7 is_stmt 1 view .LVU943
 3920              		.loc 1 1332 19 is_stmt 0 view .LVU944
 3921 00ea 01AB     		add	r3, sp, #4
 3922 00ec 1B88     		ldrh	r3, [r3]
ARM GAS  /var/folders/rf/wfq6hz5s56g3yh4wqgd7820c0000gn/T//ccBUdQBH.s 			page 100


 3923              		.loc 1 1332 10 view .LVU945
 3924 00ee 1B06     		lsls	r3, r3, #24
 3925 00f0 00D4     		bmi	.LCB4023
 3926 00f2 41E1     		b	.L181	@long jump
 3927              	.LCB4023:
1333:Drivers/STM32F0xx_HAL_Driver/Src/stm32f0xx_hal_pcd.c ****       {
1334:Drivers/STM32F0xx_HAL_Driver/Src/stm32f0xx_hal_pcd.c ****         ep = &hpcd->IN_ep[EPindex];
 3928              		.loc 1 1334 9 is_stmt 1 view .LVU946
 3929              	.LVL327:
1335:Drivers/STM32F0xx_HAL_Driver/Src/stm32f0xx_hal_pcd.c ****         
1336:Drivers/STM32F0xx_HAL_Driver/Src/stm32f0xx_hal_pcd.c ****         /* clear int flag */
1337:Drivers/STM32F0xx_HAL_Driver/Src/stm32f0xx_hal_pcd.c ****         PCD_CLEAR_TX_EP_CTR(hpcd->Instance, EPindex);
 3930              		.loc 1 1337 9 view .LVU947
 3931 00f4 2268     		ldr	r2, [r4]
 3932 00f6 935B     		ldrh	r3, [r2, r6]
 3933 00f8 7049     		ldr	r1, .L211
 3934 00fa 0B40     		ands	r3, r1
 3935 00fc 9353     		strh	r3, [r2, r6]
1338:Drivers/STM32F0xx_HAL_Driver/Src/stm32f0xx_hal_pcd.c ****         
1339:Drivers/STM32F0xx_HAL_Driver/Src/stm32f0xx_hal_pcd.c ****         /* IN double Buffering*/
1340:Drivers/STM32F0xx_HAL_Driver/Src/stm32f0xx_hal_pcd.c ****         if (ep->doublebuffer == 0U)
 3936              		.loc 1 1340 9 view .LVU948
 3937              		.loc 1 1340 15 is_stmt 0 view .LVU949
 3938 00fe EB00     		lsls	r3, r5, #3
 3939 0100 5B1B     		subs	r3, r3, r5
 3940 0102 9B00     		lsls	r3, r3, #2
 3941 0104 E318     		adds	r3, r4, r3
 3942 0106 3233     		adds	r3, r3, #50
 3943 0108 1B78     		ldrb	r3, [r3]
 3944              		.loc 1 1340 12 view .LVU950
 3945 010a 002B     		cmp	r3, #0
 3946 010c 00D0     		beq	.LCB4042
 3947 010e E1E0     		b	.L198	@long jump
 3948              	.LCB4042:
1341:Drivers/STM32F0xx_HAL_Driver/Src/stm32f0xx_hal_pcd.c ****         {
1342:Drivers/STM32F0xx_HAL_Driver/Src/stm32f0xx_hal_pcd.c ****           ep->xfer_count = PCD_GET_EP_TX_CNT(hpcd->Instance, ep->num);
 3949              		.loc 1 1342 11 is_stmt 1 view .LVU951
 3950              		.loc 1 1342 28 is_stmt 0 view .LVU952
 3951 0110 2068     		ldr	r0, [r4]
 3952 0112 5033     		adds	r3, r3, #80
 3953 0114 C35A     		ldrh	r3, [r0, r3]
 3954 0116 EA00     		lsls	r2, r5, #3
 3955 0118 521B     		subs	r2, r2, r5
 3956 011a 9200     		lsls	r2, r2, #2
 3957 011c A218     		adds	r2, r4, r2
 3958 011e 1100     		movs	r1, r2
 3959 0120 2831     		adds	r1, r1, #40
 3960 0122 0978     		ldrb	r1, [r1]
 3961 0124 C900     		lsls	r1, r1, #3
 3962 0126 5B18     		adds	r3, r3, r1
 3963 0128 1B18     		adds	r3, r3, r0
 3964 012a 6549     		ldr	r1, .L211+4
 3965 012c 8C46     		mov	ip, r1
 3966 012e 6344     		add	r3, r3, ip
 3967 0130 1B88     		ldrh	r3, [r3]
 3968 0132 9B05     		lsls	r3, r3, #22
 3969 0134 9B0D     		lsrs	r3, r3, #22
ARM GAS  /var/folders/rf/wfq6hz5s56g3yh4wqgd7820c0000gn/T//ccBUdQBH.s 			page 101


 3970              		.loc 1 1342 26 view .LVU953
 3971 0136 1364     		str	r3, [r2, #64]
1343:Drivers/STM32F0xx_HAL_Driver/Src/stm32f0xx_hal_pcd.c ****           if (ep->xfer_count != 0)
 3972              		.loc 1 1343 11 is_stmt 1 view .LVU954
 3973              		.loc 1 1343 14 is_stmt 0 view .LVU955
 3974 0138 00D1     		bne	.LCB4068
 3975 013a F8E0     		b	.L199	@long jump
 3976              	.LCB4068:
1344:Drivers/STM32F0xx_HAL_Driver/Src/stm32f0xx_hal_pcd.c ****           {
1345:Drivers/STM32F0xx_HAL_Driver/Src/stm32f0xx_hal_pcd.c ****             PCD_WritePMA(hpcd->Instance, ep->xfer_buff, ep->pmaadress, ep->xfer_count);
 3977              		.loc 1 1345 13 is_stmt 1 view .LVU956
 3978 013c 1100     		movs	r1, r2
 3979 013e 928D     		ldrh	r2, [r2, #44]
 3980 0140 896B     		ldr	r1, [r1, #56]
 3981 0142 FFF7FEFF 		bl	PCD_WritePMA
 3982              	.LVL328:
 3983 0146 F2E0     		b	.L199
 3984              	.LVL329:
 3985              	.L204:
1281:Drivers/STM32F0xx_HAL_Driver/Src/stm32f0xx_hal_pcd.c ****         ep = &hpcd->OUT_ep[EPindex];
 3986              		.loc 1 1281 9 view .LVU957
 3987 0148 5F4B     		ldr	r3, .L211+12
 3988 014a 1A40     		ands	r2, r3
 3989 014c 0A80     		strh	r2, [r1]
1282:Drivers/STM32F0xx_HAL_Driver/Src/stm32f0xx_hal_pcd.c ****         
 3990              		.loc 1 1282 9 view .LVU958
 3991              	.LVL330:
1285:Drivers/STM32F0xx_HAL_Driver/Src/stm32f0xx_hal_pcd.c ****         {
 3992              		.loc 1 1285 9 view .LVU959
1285:Drivers/STM32F0xx_HAL_Driver/Src/stm32f0xx_hal_pcd.c ****         {
 3993              		.loc 1 1285 15 is_stmt 0 view .LVU960
 3994 014e EB00     		lsls	r3, r5, #3
 3995 0150 5B1B     		subs	r3, r3, r5
 3996 0152 9B00     		lsls	r3, r3, #2
 3997 0154 E318     		adds	r3, r4, r3
 3998 0156 1333     		adds	r3, r3, #19
 3999 0158 FF33     		adds	r3, r3, #255
 4000 015a 1B78     		ldrb	r3, [r3]
1285:Drivers/STM32F0xx_HAL_Driver/Src/stm32f0xx_hal_pcd.c ****         {
 4001              		.loc 1 1285 12 view .LVU961
 4002 015c 002B     		cmp	r3, #0
 4003 015e 23D1     		bne	.L192
1287:Drivers/STM32F0xx_HAL_Driver/Src/stm32f0xx_hal_pcd.c ****           if (count != 0U)
 4004              		.loc 1 1287 11 is_stmt 1 view .LVU962
1287:Drivers/STM32F0xx_HAL_Driver/Src/stm32f0xx_hal_pcd.c ****           if (count != 0U)
 4005              		.loc 1 1287 19 is_stmt 0 view .LVU963
 4006 0160 2068     		ldr	r0, [r4]
 4007 0162 5033     		adds	r3, r3, #80
 4008 0164 C25A     		ldrh	r2, [r0, r3]
 4009 0166 EB00     		lsls	r3, r5, #3
 4010 0168 5B1B     		subs	r3, r3, r5
 4011 016a 9B00     		lsls	r3, r3, #2
 4012 016c E318     		adds	r3, r4, r3
 4013 016e 0933     		adds	r3, r3, #9
 4014 0170 FF33     		adds	r3, r3, #255
 4015 0172 1B78     		ldrb	r3, [r3]
 4016 0174 DB00     		lsls	r3, r3, #3
ARM GAS  /var/folders/rf/wfq6hz5s56g3yh4wqgd7820c0000gn/T//ccBUdQBH.s 			page 102


 4017 0176 D318     		adds	r3, r2, r3
 4018 0178 1B18     		adds	r3, r3, r0
 4019 017a 524A     		ldr	r2, .L211+8
 4020 017c 9446     		mov	ip, r2
 4021 017e 6344     		add	r3, r3, ip
 4022 0180 1B88     		ldrh	r3, [r3]
1287:Drivers/STM32F0xx_HAL_Driver/Src/stm32f0xx_hal_pcd.c ****           if (count != 0U)
 4023              		.loc 1 1287 17 view .LVU964
 4024 0182 9B05     		lsls	r3, r3, #22
 4025 0184 9F0D     		lsrs	r7, r3, #22
 4026              	.LVL331:
1288:Drivers/STM32F0xx_HAL_Driver/Src/stm32f0xx_hal_pcd.c ****           {
 4027              		.loc 1 1288 11 is_stmt 1 view .LVU965
1288:Drivers/STM32F0xx_HAL_Driver/Src/stm32f0xx_hal_pcd.c ****           {
 4028              		.loc 1 1288 14 is_stmt 0 view .LVU966
 4029 0186 002B     		cmp	r3, #0
 4030 0188 36D0     		beq	.L193
1290:Drivers/STM32F0xx_HAL_Driver/Src/stm32f0xx_hal_pcd.c ****           }
 4031              		.loc 1 1290 13 is_stmt 1 view .LVU967
 4032 018a EB00     		lsls	r3, r5, #3
 4033 018c 5B1B     		subs	r3, r3, r5
 4034 018e 9B00     		lsls	r3, r3, #2
 4035 0190 E318     		adds	r3, r4, r3
 4036 0192 1A00     		movs	r2, r3
 4037 0194 0D32     		adds	r2, r2, #13
 4038 0196 FF32     		adds	r2, r2, #255
 4039 0198 1288     		ldrh	r2, [r2]
 4040 019a 1933     		adds	r3, r3, #25
 4041 019c FF33     		adds	r3, r3, #255
 4042 019e 1968     		ldr	r1, [r3]
 4043 01a0 3B00     		movs	r3, r7
 4044 01a2 FFF7FEFF 		bl	PCD_ReadPMA
 4045              	.LVL332:
 4046 01a6 27E0     		b	.L193
 4047              	.LVL333:
 4048              	.L192:
1296:Drivers/STM32F0xx_HAL_Driver/Src/stm32f0xx_hal_pcd.c ****           {
 4049              		.loc 1 1296 11 view .LVU968
1296:Drivers/STM32F0xx_HAL_Driver/Src/stm32f0xx_hal_pcd.c ****           {
 4050              		.loc 1 1296 16 is_stmt 0 view .LVU969
 4051 01a8 2068     		ldr	r0, [r4]
 4052 01aa EB00     		lsls	r3, r5, #3
 4053 01ac 5B1B     		subs	r3, r3, r5
 4054 01ae 9B00     		lsls	r3, r3, #2
 4055 01b0 E318     		adds	r3, r4, r3
 4056 01b2 0933     		adds	r3, r3, #9
 4057 01b4 FF33     		adds	r3, r3, #255
 4058 01b6 1B78     		ldrb	r3, [r3]
 4059 01b8 9A00     		lsls	r2, r3, #2
 4060 01ba 825A     		ldrh	r2, [r0, r2]
1296:Drivers/STM32F0xx_HAL_Driver/Src/stm32f0xx_hal_pcd.c ****           {
 4061              		.loc 1 1296 14 view .LVU970
 4062 01bc 5204     		lsls	r2, r2, #17
 4063 01be 55D5     		bpl	.L194
1299:Drivers/STM32F0xx_HAL_Driver/Src/stm32f0xx_hal_pcd.c ****             if (count != 0U)
 4064              		.loc 1 1299 13 is_stmt 1 view .LVU971
1299:Drivers/STM32F0xx_HAL_Driver/Src/stm32f0xx_hal_pcd.c ****             if (count != 0U)
ARM GAS  /var/folders/rf/wfq6hz5s56g3yh4wqgd7820c0000gn/T//ccBUdQBH.s 			page 103


 4065              		.loc 1 1299 21 is_stmt 0 view .LVU972
 4066 01c0 5022     		movs	r2, #80
 4067 01c2 825A     		ldrh	r2, [r0, r2]
 4068 01c4 DB00     		lsls	r3, r3, #3
 4069 01c6 D318     		adds	r3, r2, r3
 4070 01c8 1B18     		adds	r3, r3, r0
 4071 01ca 3D4A     		ldr	r2, .L211+4
 4072 01cc 9446     		mov	ip, r2
 4073 01ce 6344     		add	r3, r3, ip
 4074 01d0 1B88     		ldrh	r3, [r3]
1299:Drivers/STM32F0xx_HAL_Driver/Src/stm32f0xx_hal_pcd.c ****             if (count != 0U)
 4075              		.loc 1 1299 19 view .LVU973
 4076 01d2 9B05     		lsls	r3, r3, #22
 4077 01d4 9F0D     		lsrs	r7, r3, #22
 4078              	.LVL334:
1300:Drivers/STM32F0xx_HAL_Driver/Src/stm32f0xx_hal_pcd.c ****             {
 4079              		.loc 1 1300 13 is_stmt 1 view .LVU974
1300:Drivers/STM32F0xx_HAL_Driver/Src/stm32f0xx_hal_pcd.c ****             {
 4080              		.loc 1 1300 16 is_stmt 0 view .LVU975
 4081 01d6 002B     		cmp	r3, #0
 4082 01d8 39D1     		bne	.L205
 4083              	.L195:
1314:Drivers/STM32F0xx_HAL_Driver/Src/stm32f0xx_hal_pcd.c ****         }
 4084              		.loc 1 1314 11 is_stmt 1 discriminator 1 view .LVU976
1314:Drivers/STM32F0xx_HAL_Driver/Src/stm32f0xx_hal_pcd.c ****         }
 4085              		.loc 1 1314 11 discriminator 1 view .LVU977
 4086 01da 2268     		ldr	r2, [r4]
 4087 01dc EB00     		lsls	r3, r5, #3
 4088 01de 5B1B     		subs	r3, r3, r5
 4089 01e0 9B00     		lsls	r3, r3, #2
 4090 01e2 E318     		adds	r3, r4, r3
 4091 01e4 0933     		adds	r3, r3, #9
 4092 01e6 FF33     		adds	r3, r3, #255
 4093 01e8 1B78     		ldrb	r3, [r3]
 4094 01ea 9B00     		lsls	r3, r3, #2
 4095 01ec D15A     		ldrh	r1, [r2, r3]
 4096 01ee 3748     		ldr	r0, .L211+16
 4097 01f0 0840     		ands	r0, r1
 4098 01f2 3749     		ldr	r1, .L211+20
 4099 01f4 0143     		orrs	r1, r0
 4100 01f6 D152     		strh	r1, [r2, r3]
 4101              	.L193:
1317:Drivers/STM32F0xx_HAL_Driver/Src/stm32f0xx_hal_pcd.c ****         ep->xfer_buff+=count;
 4102              		.loc 1 1317 9 view .LVU978
1317:Drivers/STM32F0xx_HAL_Driver/Src/stm32f0xx_hal_pcd.c ****         ep->xfer_buff+=count;
 4103              		.loc 1 1317 23 is_stmt 0 view .LVU979
 4104 01f8 3800     		movs	r0, r7
 4105 01fa E900     		lsls	r1, r5, #3
 4106 01fc 491B     		subs	r1, r1, r5
 4107 01fe 8900     		lsls	r1, r1, #2
 4108 0200 6118     		adds	r1, r4, r1
 4109 0202 0A00     		movs	r2, r1
 4110 0204 2132     		adds	r2, r2, #33
 4111 0206 FF32     		adds	r2, r2, #255
 4112 0208 1368     		ldr	r3, [r2]
 4113 020a DB19     		adds	r3, r3, r7
 4114 020c 1360     		str	r3, [r2]
ARM GAS  /var/folders/rf/wfq6hz5s56g3yh4wqgd7820c0000gn/T//ccBUdQBH.s 			page 104


1318:Drivers/STM32F0xx_HAL_Driver/Src/stm32f0xx_hal_pcd.c ****        
 4115              		.loc 1 1318 9 is_stmt 1 view .LVU980
1318:Drivers/STM32F0xx_HAL_Driver/Src/stm32f0xx_hal_pcd.c ****        
 4116              		.loc 1 1318 22 is_stmt 0 view .LVU981
 4117 020e 0B00     		movs	r3, r1
 4118 0210 1933     		adds	r3, r3, #25
 4119 0212 FF33     		adds	r3, r3, #255
 4120 0214 1A68     		ldr	r2, [r3]
 4121 0216 9446     		mov	ip, r2
 4122 0218 6744     		add	r7, r7, ip
 4123              	.LVL335:
1318:Drivers/STM32F0xx_HAL_Driver/Src/stm32f0xx_hal_pcd.c ****        
 4124              		.loc 1 1318 22 view .LVU982
 4125 021a 1F60     		str	r7, [r3]
1320:Drivers/STM32F0xx_HAL_Driver/Src/stm32f0xx_hal_pcd.c ****         {
 4126              		.loc 1 1320 9 is_stmt 1 view .LVU983
1320:Drivers/STM32F0xx_HAL_Driver/Src/stm32f0xx_hal_pcd.c ****         {
 4127              		.loc 1 1320 16 is_stmt 0 view .LVU984
 4128 021c 1D31     		adds	r1, r1, #29
 4129 021e FF31     		adds	r1, r1, #255
 4130 0220 0B68     		ldr	r3, [r1]
1320:Drivers/STM32F0xx_HAL_Driver/Src/stm32f0xx_hal_pcd.c ****         {
 4131              		.loc 1 1320 12 view .LVU985
 4132 0222 002B     		cmp	r3, #0
 4133 0224 08D0     		beq	.L196
1320:Drivers/STM32F0xx_HAL_Driver/Src/stm32f0xx_hal_pcd.c ****         {
 4134              		.loc 1 1320 48 discriminator 1 view .LVU986
 4135 0226 E900     		lsls	r1, r5, #3
 4136 0228 491B     		subs	r1, r1, r5
 4137 022a 8900     		lsls	r1, r1, #2
 4138 022c 6118     		adds	r1, r4, r1
 4139 022e 1531     		adds	r1, r1, #21
 4140 0230 FF31     		adds	r1, r1, #255
 4141 0232 0A68     		ldr	r2, [r1]
1320:Drivers/STM32F0xx_HAL_Driver/Src/stm32f0xx_hal_pcd.c ****         {
 4142              		.loc 1 1320 34 discriminator 1 view .LVU987
 4143 0234 9042     		cmp	r0, r2
 4144 0236 35D2     		bcs	.L197
 4145              	.L196:
1323:Drivers/STM32F0xx_HAL_Driver/Src/stm32f0xx_hal_pcd.c ****         }
 4146              		.loc 1 1323 11 is_stmt 1 view .LVU988
 4147 0238 EB00     		lsls	r3, r5, #3
 4148 023a 5B1B     		subs	r3, r3, r5
 4149 023c 9B00     		lsls	r3, r3, #2
 4150 023e E318     		adds	r3, r4, r3
 4151 0240 0933     		adds	r3, r3, #9
 4152 0242 FF33     		adds	r3, r3, #255
 4153 0244 1978     		ldrb	r1, [r3]
 4154 0246 2000     		movs	r0, r4
 4155 0248 FFF7FEFF 		bl	HAL_PCD_DataOutStageCallback
 4156              	.LVL336:
 4157 024c 4DE7     		b	.L191
 4158              	.LVL337:
 4159              	.L205:
1302:Drivers/STM32F0xx_HAL_Driver/Src/stm32f0xx_hal_pcd.c ****             }
 4160              		.loc 1 1302 15 view .LVU989
 4161 024e EB00     		lsls	r3, r5, #3
ARM GAS  /var/folders/rf/wfq6hz5s56g3yh4wqgd7820c0000gn/T//ccBUdQBH.s 			page 105


 4162 0250 5B1B     		subs	r3, r3, r5
 4163 0252 9B00     		lsls	r3, r3, #2
 4164 0254 E318     		adds	r3, r4, r3
 4165 0256 1A00     		movs	r2, r3
 4166 0258 0F32     		adds	r2, r2, #15
 4167 025a FF32     		adds	r2, r2, #255
 4168 025c 1288     		ldrh	r2, [r2]
 4169 025e 1933     		adds	r3, r3, #25
 4170 0260 FF33     		adds	r3, r3, #255
 4171 0262 1968     		ldr	r1, [r3]
 4172 0264 3B00     		movs	r3, r7
 4173 0266 FFF7FEFF 		bl	PCD_ReadPMA
 4174              	.LVL338:
 4175 026a B6E7     		b	.L195
 4176              	.LVL339:
 4177              	.L194:
1308:Drivers/STM32F0xx_HAL_Driver/Src/stm32f0xx_hal_pcd.c ****             if (count != 0U)
 4178              		.loc 1 1308 13 view .LVU990
1308:Drivers/STM32F0xx_HAL_Driver/Src/stm32f0xx_hal_pcd.c ****             if (count != 0U)
 4179              		.loc 1 1308 21 is_stmt 0 view .LVU991
 4180 026c 5022     		movs	r2, #80
 4181 026e 825A     		ldrh	r2, [r0, r2]
 4182 0270 DB00     		lsls	r3, r3, #3
 4183 0272 D318     		adds	r3, r2, r3
 4184 0274 1B18     		adds	r3, r3, r0
 4185 0276 134A     		ldr	r2, .L211+8
 4186 0278 9446     		mov	ip, r2
 4187 027a 6344     		add	r3, r3, ip
 4188 027c 1B88     		ldrh	r3, [r3]
1308:Drivers/STM32F0xx_HAL_Driver/Src/stm32f0xx_hal_pcd.c ****             if (count != 0U)
 4189              		.loc 1 1308 19 view .LVU992
 4190 027e 9B05     		lsls	r3, r3, #22
 4191 0280 9F0D     		lsrs	r7, r3, #22
 4192              	.LVL340:
1309:Drivers/STM32F0xx_HAL_Driver/Src/stm32f0xx_hal_pcd.c ****             {
 4193              		.loc 1 1309 13 is_stmt 1 view .LVU993
1309:Drivers/STM32F0xx_HAL_Driver/Src/stm32f0xx_hal_pcd.c ****             {
 4194              		.loc 1 1309 16 is_stmt 0 view .LVU994
 4195 0282 002B     		cmp	r3, #0
 4196 0284 A9D0     		beq	.L195
1311:Drivers/STM32F0xx_HAL_Driver/Src/stm32f0xx_hal_pcd.c ****             }
 4197              		.loc 1 1311 15 is_stmt 1 view .LVU995
 4198 0286 EB00     		lsls	r3, r5, #3
 4199 0288 5B1B     		subs	r3, r3, r5
 4200 028a 9B00     		lsls	r3, r3, #2
 4201 028c E318     		adds	r3, r4, r3
 4202 028e 1A00     		movs	r2, r3
 4203 0290 1132     		adds	r2, r2, #17
 4204 0292 FF32     		adds	r2, r2, #255
 4205 0294 1288     		ldrh	r2, [r2]
 4206 0296 1933     		adds	r3, r3, #25
 4207 0298 FF33     		adds	r3, r3, #255
 4208 029a 1968     		ldr	r1, [r3]
 4209 029c 3B00     		movs	r3, r7
 4210 029e FFF7FEFF 		bl	PCD_ReadPMA
 4211              	.LVL341:
 4212 02a2 9AE7     		b	.L195
ARM GAS  /var/folders/rf/wfq6hz5s56g3yh4wqgd7820c0000gn/T//ccBUdQBH.s 			page 106


 4213              	.LVL342:
 4214              	.L197:
1327:Drivers/STM32F0xx_HAL_Driver/Src/stm32f0xx_hal_pcd.c ****         }
 4215              		.loc 1 1327 11 view .LVU996
 4216 02a4 EA00     		lsls	r2, r5, #3
 4217 02a6 521B     		subs	r2, r2, r5
 4218 02a8 9200     		lsls	r2, r2, #2
 4219 02aa A218     		adds	r2, r4, r2
 4220 02ac 0932     		adds	r2, r2, #9
 4221 02ae FF32     		adds	r2, r2, #255
 4222 02b0 1178     		ldrb	r1, [r2]
 4223 02b2 3A00     		movs	r2, r7
 4224 02b4 2000     		movs	r0, r4
 4225 02b6 FFF7FEFF 		bl	HAL_PCD_EP_Receive
 4226              	.LVL343:
 4227 02ba 16E7     		b	.L191
 4228              	.L212:
 4229              		.align	2
 4230              	.L211:
 4231 02bc 0F8FFFFF 		.word	-28913
 4232 02c0 02040000 		.word	1026
 4233 02c4 06040000 		.word	1030
 4234 02c8 8F0F0000 		.word	3983
 4235 02cc 0F0F0000 		.word	3855
 4236 02d0 C080FFFF 		.word	-32576
 4237              	.LVL344:
 4238              	.L198:
1346:Drivers/STM32F0xx_HAL_Driver/Src/stm32f0xx_hal_pcd.c ****           }
1347:Drivers/STM32F0xx_HAL_Driver/Src/stm32f0xx_hal_pcd.c ****         }
1348:Drivers/STM32F0xx_HAL_Driver/Src/stm32f0xx_hal_pcd.c ****         else
1349:Drivers/STM32F0xx_HAL_Driver/Src/stm32f0xx_hal_pcd.c ****         {
1350:Drivers/STM32F0xx_HAL_Driver/Src/stm32f0xx_hal_pcd.c ****           if ((PCD_GET_ENDPOINT(hpcd->Instance, ep->num)& USB_EP_DTOG_TX) == USB_EP_DTOG_TX)
 4239              		.loc 1 1350 11 view .LVU997
 4240              		.loc 1 1350 16 is_stmt 0 view .LVU998
 4241 02d4 2068     		ldr	r0, [r4]
 4242 02d6 EB00     		lsls	r3, r5, #3
 4243 02d8 5B1B     		subs	r3, r3, r5
 4244 02da 9B00     		lsls	r3, r3, #2
 4245 02dc E318     		adds	r3, r4, r3
 4246 02de 2833     		adds	r3, r3, #40
 4247 02e0 1B78     		ldrb	r3, [r3]
 4248 02e2 9A00     		lsls	r2, r3, #2
 4249 02e4 825A     		ldrh	r2, [r0, r2]
 4250              		.loc 1 1350 14 view .LVU999
 4251 02e6 5206     		lsls	r2, r2, #25
 4252 02e8 00D4     		bmi	.LCB4366
 4253 02ea B1E0     		b	.L200	@long jump
 4254              	.LCB4366:
1351:Drivers/STM32F0xx_HAL_Driver/Src/stm32f0xx_hal_pcd.c ****           {
1352:Drivers/STM32F0xx_HAL_Driver/Src/stm32f0xx_hal_pcd.c ****             /*read from endpoint BUF0Addr buffer*/
1353:Drivers/STM32F0xx_HAL_Driver/Src/stm32f0xx_hal_pcd.c ****             ep->xfer_count = PCD_GET_EP_DBUF0_CNT(hpcd->Instance, ep->num);
 4255              		.loc 1 1353 13 is_stmt 1 view .LVU1000
 4256              		.loc 1 1353 30 is_stmt 0 view .LVU1001
 4257 02ec 5022     		movs	r2, #80
 4258 02ee 825A     		ldrh	r2, [r0, r2]
 4259 02f0 DB00     		lsls	r3, r3, #3
 4260 02f2 D318     		adds	r3, r2, r3
ARM GAS  /var/folders/rf/wfq6hz5s56g3yh4wqgd7820c0000gn/T//ccBUdQBH.s 			page 107


 4261 02f4 1B18     		adds	r3, r3, r0
 4262 02f6 694A     		ldr	r2, .L213
 4263 02f8 9446     		mov	ip, r2
 4264 02fa 6344     		add	r3, r3, ip
 4265 02fc 1B88     		ldrh	r3, [r3]
 4266 02fe 9B05     		lsls	r3, r3, #22
 4267 0300 9B0D     		lsrs	r3, r3, #22
 4268              		.loc 1 1353 28 view .LVU1002
 4269 0302 EA00     		lsls	r2, r5, #3
 4270 0304 521B     		subs	r2, r2, r5
 4271 0306 9200     		lsls	r2, r2, #2
 4272 0308 A218     		adds	r2, r4, r2
 4273 030a 1364     		str	r3, [r2, #64]
1354:Drivers/STM32F0xx_HAL_Driver/Src/stm32f0xx_hal_pcd.c ****             if (ep->xfer_count != 0U)
 4274              		.loc 1 1354 13 is_stmt 1 view .LVU1003
 4275              		.loc 1 1354 16 is_stmt 0 view .LVU1004
 4276 030c 002B     		cmp	r3, #0
 4277 030e 00D0     		beq	.LCB4388
 4278 0310 98E0     		b	.L206	@long jump
 4279              	.LCB4388:
 4280              	.L201:
1355:Drivers/STM32F0xx_HAL_Driver/Src/stm32f0xx_hal_pcd.c ****             {
1356:Drivers/STM32F0xx_HAL_Driver/Src/stm32f0xx_hal_pcd.c ****               PCD_WritePMA(hpcd->Instance, ep->xfer_buff, ep->pmaaddr0, ep->xfer_count);
1357:Drivers/STM32F0xx_HAL_Driver/Src/stm32f0xx_hal_pcd.c ****             }
1358:Drivers/STM32F0xx_HAL_Driver/Src/stm32f0xx_hal_pcd.c ****           }
1359:Drivers/STM32F0xx_HAL_Driver/Src/stm32f0xx_hal_pcd.c ****           else
1360:Drivers/STM32F0xx_HAL_Driver/Src/stm32f0xx_hal_pcd.c ****           {
1361:Drivers/STM32F0xx_HAL_Driver/Src/stm32f0xx_hal_pcd.c ****             /*read from endpoint BUF1Addr buffer*/
1362:Drivers/STM32F0xx_HAL_Driver/Src/stm32f0xx_hal_pcd.c ****             ep->xfer_count = PCD_GET_EP_DBUF1_CNT(hpcd->Instance, ep->num);
1363:Drivers/STM32F0xx_HAL_Driver/Src/stm32f0xx_hal_pcd.c ****             if (ep->xfer_count != 0U)
1364:Drivers/STM32F0xx_HAL_Driver/Src/stm32f0xx_hal_pcd.c ****             {
1365:Drivers/STM32F0xx_HAL_Driver/Src/stm32f0xx_hal_pcd.c ****               PCD_WritePMA(hpcd->Instance, ep->xfer_buff, ep->pmaaddr1, ep->xfer_count);
1366:Drivers/STM32F0xx_HAL_Driver/Src/stm32f0xx_hal_pcd.c ****             }
1367:Drivers/STM32F0xx_HAL_Driver/Src/stm32f0xx_hal_pcd.c ****           }
1368:Drivers/STM32F0xx_HAL_Driver/Src/stm32f0xx_hal_pcd.c ****           PCD_FreeUserBuffer(hpcd->Instance, ep->num, PCD_EP_DBUF_IN) 
 4281              		.loc 1 1368 11 is_stmt 1 discriminator 3 view .LVU1005
 4282              		.loc 1 1368 11 discriminator 3 view .LVU1006
 4283              		.loc 1 1368 11 discriminator 3 view .LVU1007
 4284 0312 2268     		ldr	r2, [r4]
 4285 0314 EB00     		lsls	r3, r5, #3
 4286 0316 5B1B     		subs	r3, r3, r5
 4287 0318 9B00     		lsls	r3, r3, #2
 4288 031a E318     		adds	r3, r4, r3
 4289 031c 2833     		adds	r3, r3, #40
 4290 031e 1B78     		ldrb	r3, [r3]
 4291 0320 9B00     		lsls	r3, r3, #2
 4292 0322 D15A     		ldrh	r1, [r2, r3]
 4293 0324 5E48     		ldr	r0, .L213+4
 4294 0326 0840     		ands	r0, r1
 4295 0328 5E49     		ldr	r1, .L213+8
 4296 032a 0143     		orrs	r1, r0
 4297 032c D152     		strh	r1, [r2, r3]
 4298              	.L199:
1369:Drivers/STM32F0xx_HAL_Driver/Src/stm32f0xx_hal_pcd.c ****         }
1370:Drivers/STM32F0xx_HAL_Driver/Src/stm32f0xx_hal_pcd.c ****         /*multi-packet on the NON control IN endpoint*/
1371:Drivers/STM32F0xx_HAL_Driver/Src/stm32f0xx_hal_pcd.c ****         ep->xfer_count = PCD_GET_EP_TX_CNT(hpcd->Instance, ep->num);
 4299              		.loc 1 1371 9 view .LVU1008
ARM GAS  /var/folders/rf/wfq6hz5s56g3yh4wqgd7820c0000gn/T//ccBUdQBH.s 			page 108


 4300              		.loc 1 1371 26 is_stmt 0 view .LVU1009
 4301 032e 2168     		ldr	r1, [r4]
 4302 0330 5023     		movs	r3, #80
 4303 0332 CA5A     		ldrh	r2, [r1, r3]
 4304 0334 EB00     		lsls	r3, r5, #3
 4305 0336 5B1B     		subs	r3, r3, r5
 4306 0338 9B00     		lsls	r3, r3, #2
 4307 033a E318     		adds	r3, r4, r3
 4308 033c 1800     		movs	r0, r3
 4309 033e 2830     		adds	r0, r0, #40
 4310 0340 0078     		ldrb	r0, [r0]
 4311 0342 C000     		lsls	r0, r0, #3
 4312 0344 1218     		adds	r2, r2, r0
 4313 0346 5218     		adds	r2, r2, r1
 4314 0348 5449     		ldr	r1, .L213
 4315 034a 8C46     		mov	ip, r1
 4316 034c 6244     		add	r2, r2, ip
 4317 034e 1288     		ldrh	r2, [r2]
 4318 0350 9205     		lsls	r2, r2, #22
 4319 0352 920D     		lsrs	r2, r2, #22
 4320              		.loc 1 1371 24 view .LVU1010
 4321 0354 1A64     		str	r2, [r3, #64]
1372:Drivers/STM32F0xx_HAL_Driver/Src/stm32f0xx_hal_pcd.c ****         ep->xfer_buff+=ep->xfer_count;
 4322              		.loc 1 1372 9 is_stmt 1 view .LVU1011
 4323              		.loc 1 1372 22 is_stmt 0 view .LVU1012
 4324 0356 996B     		ldr	r1, [r3, #56]
 4325 0358 8C46     		mov	ip, r1
 4326 035a 6244     		add	r2, r2, ip
 4327 035c 9A63     		str	r2, [r3, #56]
1373:Drivers/STM32F0xx_HAL_Driver/Src/stm32f0xx_hal_pcd.c ****        
1374:Drivers/STM32F0xx_HAL_Driver/Src/stm32f0xx_hal_pcd.c ****         /* Zero Length Packet? */
1375:Drivers/STM32F0xx_HAL_Driver/Src/stm32f0xx_hal_pcd.c ****         if (ep->xfer_len == 0U)
 4328              		.loc 1 1375 9 is_stmt 1 view .LVU1013
 4329              		.loc 1 1375 15 is_stmt 0 view .LVU1014
 4330 035e DB6B     		ldr	r3, [r3, #60]
 4331              		.loc 1 1375 12 view .LVU1015
 4332 0360 002B     		cmp	r3, #0
 4333 0362 00D0     		beq	.LCB4446
 4334 0364 8DE0     		b	.L202	@long jump
 4335              	.LCB4446:
1376:Drivers/STM32F0xx_HAL_Driver/Src/stm32f0xx_hal_pcd.c ****         {
1377:Drivers/STM32F0xx_HAL_Driver/Src/stm32f0xx_hal_pcd.c ****           /* TX COMPLETE */
1378:Drivers/STM32F0xx_HAL_Driver/Src/stm32f0xx_hal_pcd.c ****           HAL_PCD_DataInStageCallback(hpcd, ep->num);
 4336              		.loc 1 1378 11 is_stmt 1 view .LVU1016
 4337 0366 EB00     		lsls	r3, r5, #3
 4338 0368 5B1B     		subs	r3, r3, r5
 4339 036a 9B00     		lsls	r3, r3, #2
 4340 036c E318     		adds	r3, r4, r3
 4341 036e 2833     		adds	r3, r3, #40
 4342 0370 1978     		ldrb	r1, [r3]
 4343 0372 2000     		movs	r0, r4
 4344 0374 FFF7FEFF 		bl	HAL_PCD_DataInStageCallback
 4345              	.LVL345:
 4346              	.L181:
1197:Drivers/STM32F0xx_HAL_Driver/Src/stm32f0xx_hal_pcd.c ****   {
 4347              		.loc 1 1197 9 view .LVU1017
1197:Drivers/STM32F0xx_HAL_Driver/Src/stm32f0xx_hal_pcd.c ****   {
ARM GAS  /var/folders/rf/wfq6hz5s56g3yh4wqgd7820c0000gn/T//ccBUdQBH.s 			page 109


 4348              		.loc 1 1197 24 is_stmt 0 view .LVU1018
 4349 0378 2068     		ldr	r0, [r4]
1197:Drivers/STM32F0xx_HAL_Driver/Src/stm32f0xx_hal_pcd.c ****   {
 4350              		.loc 1 1197 34 view .LVU1019
 4351 037a 4423     		movs	r3, #68
 4352 037c C35A     		ldrh	r3, [r0, r3]
 4353 037e 9BB2     		uxth	r3, r3
1197:Drivers/STM32F0xx_HAL_Driver/Src/stm32f0xx_hal_pcd.c ****   {
 4354              		.loc 1 1197 18 view .LVU1020
 4355 0380 6A46     		mov	r2, sp
 4356 0382 D380     		strh	r3, [r2, #6]
1197:Drivers/STM32F0xx_HAL_Driver/Src/stm32f0xx_hal_pcd.c ****   {
 4357              		.loc 1 1197 58 view .LVU1021
 4358 0384 1BB2     		sxth	r3, r3
1197:Drivers/STM32F0xx_HAL_Driver/Src/stm32f0xx_hal_pcd.c ****   {
 4359              		.loc 1 1197 9 view .LVU1022
 4360 0386 002B     		cmp	r3, #0
 4361 0388 00DB     		blt	.LCB4470
 4362 038a 84E0     		b	.L207	@long jump
 4363              	.LCB4470:
1200:Drivers/STM32F0xx_HAL_Driver/Src/stm32f0xx_hal_pcd.c ****     
 4364              		.loc 1 1200 5 is_stmt 1 view .LVU1023
1200:Drivers/STM32F0xx_HAL_Driver/Src/stm32f0xx_hal_pcd.c ****     
 4365              		.loc 1 1200 31 is_stmt 0 view .LVU1024
 4366 038c 6B46     		mov	r3, sp
 4367 038e DA88     		ldrh	r2, [r3, #6]
1200:Drivers/STM32F0xx_HAL_Driver/Src/stm32f0xx_hal_pcd.c ****     
 4368              		.loc 1 1200 13 view .LVU1025
 4369 0390 0F23     		movs	r3, #15
 4370 0392 1500     		movs	r5, r2
 4371 0394 1D40     		ands	r5, r3
 4372              	.LVL346:
1202:Drivers/STM32F0xx_HAL_Driver/Src/stm32f0xx_hal_pcd.c ****     {
 4373              		.loc 1 1202 5 is_stmt 1 view .LVU1026
1202:Drivers/STM32F0xx_HAL_Driver/Src/stm32f0xx_hal_pcd.c ****     {
 4374              		.loc 1 1202 8 is_stmt 0 view .LVU1027
 4375 0396 1A42     		tst	r2, r3
 4376 0398 00D0     		beq	.LCB4483
 4377 039a 9DE6     		b	.L182	@long jump
 4378              	.LCB4483:
1207:Drivers/STM32F0xx_HAL_Driver/Src/stm32f0xx_hal_pcd.c ****       {
 4379              		.loc 1 1207 7 is_stmt 1 view .LVU1028
1207:Drivers/STM32F0xx_HAL_Driver/Src/stm32f0xx_hal_pcd.c ****       {
 4380              		.loc 1 1207 18 is_stmt 0 view .LVU1029
 4381 039c 6B46     		mov	r3, sp
 4382 039e 0633     		adds	r3, r3, #6
 4383 03a0 1B88     		ldrh	r3, [r3]
1207:Drivers/STM32F0xx_HAL_Driver/Src/stm32f0xx_hal_pcd.c ****       {
 4384              		.loc 1 1207 10 view .LVU1030
 4385 03a2 DB06     		lsls	r3, r3, #27
 4386 03a4 00D4     		bmi	.LCB4493
 4387 03a6 32E6     		b	.L208	@long jump
 4388              	.LCB4493:
1236:Drivers/STM32F0xx_HAL_Driver/Src/stm32f0xx_hal_pcd.c ****         wEPVal = PCD_GET_ENDPOINT(hpcd->Instance, PCD_ENDP0);
 4389              		.loc 1 1236 9 is_stmt 1 view .LVU1031
 4390              	.LVL347:
1237:Drivers/STM32F0xx_HAL_Driver/Src/stm32f0xx_hal_pcd.c ****         
ARM GAS  /var/folders/rf/wfq6hz5s56g3yh4wqgd7820c0000gn/T//ccBUdQBH.s 			page 110


 4391              		.loc 1 1237 9 view .LVU1032
1237:Drivers/STM32F0xx_HAL_Driver/Src/stm32f0xx_hal_pcd.c ****         
 4392              		.loc 1 1237 18 is_stmt 0 view .LVU1033
 4393 03a8 0288     		ldrh	r2, [r0]
1237:Drivers/STM32F0xx_HAL_Driver/Src/stm32f0xx_hal_pcd.c ****         
 4394              		.loc 1 1237 16 view .LVU1034
 4395 03aa 01AB     		add	r3, sp, #4
 4396 03ac 1A80     		strh	r2, [r3]
1239:Drivers/STM32F0xx_HAL_Driver/Src/stm32f0xx_hal_pcd.c ****         {
 4397              		.loc 1 1239 9 is_stmt 1 view .LVU1035
1239:Drivers/STM32F0xx_HAL_Driver/Src/stm32f0xx_hal_pcd.c ****         {
 4398              		.loc 1 1239 21 is_stmt 0 view .LVU1036
 4399 03ae 1B88     		ldrh	r3, [r3]
1239:Drivers/STM32F0xx_HAL_Driver/Src/stm32f0xx_hal_pcd.c ****         {
 4400              		.loc 1 1239 12 view .LVU1037
 4401 03b0 1B05     		lsls	r3, r3, #20
 4402 03b2 00D5     		bpl	.LCB4507
 4403 03b4 5BE6     		b	.L209	@long jump
 4404              	.LCB4507:
1251:Drivers/STM32F0xx_HAL_Driver/Src/stm32f0xx_hal_pcd.c ****         {
 4405              		.loc 1 1251 14 is_stmt 1 view .LVU1038
1251:Drivers/STM32F0xx_HAL_Driver/Src/stm32f0xx_hal_pcd.c ****         {
 4406              		.loc 1 1251 43 is_stmt 0 view .LVU1039
 4407 03b6 01AB     		add	r3, sp, #4
 4408 03b8 1B88     		ldrh	r3, [r3]
 4409 03ba 1BB2     		sxth	r3, r3
1251:Drivers/STM32F0xx_HAL_Driver/Src/stm32f0xx_hal_pcd.c ****         {
 4410              		.loc 1 1251 17 view .LVU1040
 4411 03bc 002B     		cmp	r3, #0
 4412 03be DBDA     		bge	.L181
1253:Drivers/STM32F0xx_HAL_Driver/Src/stm32f0xx_hal_pcd.c ****           /* Get Control Data OUT Packet*/
 4413              		.loc 1 1253 11 is_stmt 1 view .LVU1041
 4414 03c0 0388     		ldrh	r3, [r0]
 4415 03c2 394A     		ldr	r2, .L213+12
 4416 03c4 1340     		ands	r3, r2
 4417 03c6 0380     		strh	r3, [r0]
1255:Drivers/STM32F0xx_HAL_Driver/Src/stm32f0xx_hal_pcd.c ****           
 4418              		.loc 1 1255 11 view .LVU1042
1255:Drivers/STM32F0xx_HAL_Driver/Src/stm32f0xx_hal_pcd.c ****           
 4419              		.loc 1 1255 28 is_stmt 0 view .LVU1043
 4420 03c8 2068     		ldr	r0, [r4]
 4421 03ca 5023     		movs	r3, #80
 4422 03cc C35A     		ldrh	r3, [r0, r3]
 4423 03ce 8422     		movs	r2, #132
 4424 03d0 5200     		lsls	r2, r2, #1
 4425 03d2 A25C     		ldrb	r2, [r4, r2]
 4426 03d4 D200     		lsls	r2, r2, #3
 4427 03d6 9B18     		adds	r3, r3, r2
 4428 03d8 1B18     		adds	r3, r3, r0
 4429 03da 344A     		ldr	r2, .L213+16
 4430 03dc 9446     		mov	ip, r2
 4431 03de 6344     		add	r3, r3, ip
 4432 03e0 1B88     		ldrh	r3, [r3]
 4433 03e2 9B05     		lsls	r3, r3, #22
 4434 03e4 9B0D     		lsrs	r3, r3, #22
1255:Drivers/STM32F0xx_HAL_Driver/Src/stm32f0xx_hal_pcd.c ****           
 4435              		.loc 1 1255 26 view .LVU1044
ARM GAS  /var/folders/rf/wfq6hz5s56g3yh4wqgd7820c0000gn/T//ccBUdQBH.s 			page 111


 4436 03e6 2200     		movs	r2, r4
 4437 03e8 0932     		adds	r2, r2, #9
 4438 03ea FF32     		adds	r2, r2, #255
 4439 03ec 9361     		str	r3, [r2, #24]
1257:Drivers/STM32F0xx_HAL_Driver/Src/stm32f0xx_hal_pcd.c ****           {
 4440              		.loc 1 1257 11 is_stmt 1 view .LVU1045
1257:Drivers/STM32F0xx_HAL_Driver/Src/stm32f0xx_hal_pcd.c ****           {
 4441              		.loc 1 1257 14 is_stmt 0 view .LVU1046
 4442 03ee 002B     		cmp	r3, #0
 4443 03f0 00D0     		beq	.LCB4545
 4444 03f2 5DE6     		b	.L210	@long jump
 4445              	.LCB4545:
 4446              	.LVL348:
 4447              	.L186:
1264:Drivers/STM32F0xx_HAL_Driver/Src/stm32f0xx_hal_pcd.c ****           
 4448              		.loc 1 1264 12 is_stmt 1 view .LVU1047
 4449 03f4 0021     		movs	r1, #0
 4450 03f6 2000     		movs	r0, r4
 4451 03f8 FFF7FEFF 		bl	HAL_PCD_DataOutStageCallback
 4452              	.LVL349:
 4453              	.LBB44:
1266:Drivers/STM32F0xx_HAL_Driver/Src/stm32f0xx_hal_pcd.c ****           PCD_SET_EP_RX_STATUS(hpcd->Instance, PCD_ENDP0, USB_EP_RX_VALID)
 4454              		.loc 1 1266 11 view .LVU1048
 4455 03fc 2368     		ldr	r3, [r4]
 4456 03fe 5022     		movs	r2, #80
 4457 0400 9A5A     		ldrh	r2, [r3, r2]
 4458 0402 9A18     		adds	r2, r3, r2
 4459 0404 294B     		ldr	r3, .L213+16
 4460 0406 9C46     		mov	ip, r3
 4461 0408 6244     		add	r2, r2, ip
 4462              	.LVL350:
 4463              	.LBB43:
1266:Drivers/STM32F0xx_HAL_Driver/Src/stm32f0xx_hal_pcd.c ****           PCD_SET_EP_RX_STATUS(hpcd->Instance, PCD_ENDP0, USB_EP_RX_VALID)
 4464              		.loc 1 1266 11 view .LVU1049
1266:Drivers/STM32F0xx_HAL_Driver/Src/stm32f0xx_hal_pcd.c ****           PCD_SET_EP_RX_STATUS(hpcd->Instance, PCD_ENDP0, USB_EP_RX_VALID)
 4465              		.loc 1 1266 11 view .LVU1050
 4466 040a 2300     		movs	r3, r4
 4467 040c 0933     		adds	r3, r3, #9
 4468 040e FF33     		adds	r3, r3, #255
 4469 0410 D968     		ldr	r1, [r3, #12]
 4470 0412 3E29     		cmp	r1, #62
 4471 0414 00D8     		bhi	.LCB4571
 4472 0416 56E6     		b	.L187	@long jump
 4473              	.LCB4571:
1266:Drivers/STM32F0xx_HAL_Driver/Src/stm32f0xx_hal_pcd.c ****           PCD_SET_EP_RX_STATUS(hpcd->Instance, PCD_ENDP0, USB_EP_RX_VALID)
 4474              		.loc 1 1266 11 discriminator 1 view .LVU1051
 4475 0418 4B09     		lsrs	r3, r1, #5
 4476 041a 9BB2     		uxth	r3, r3
 4477              	.LVL351:
1266:Drivers/STM32F0xx_HAL_Driver/Src/stm32f0xx_hal_pcd.c ****           PCD_SET_EP_RX_STATUS(hpcd->Instance, PCD_ENDP0, USB_EP_RX_VALID)
 4478              		.loc 1 1266 11 discriminator 1 view .LVU1052
 4479 041c C906     		lsls	r1, r1, #27
 4480 041e 01D1     		bne	.L188
1266:Drivers/STM32F0xx_HAL_Driver/Src/stm32f0xx_hal_pcd.c ****           PCD_SET_EP_RX_STATUS(hpcd->Instance, PCD_ENDP0, USB_EP_RX_VALID)
 4481              		.loc 1 1266 11 discriminator 3 view .LVU1053
 4482 0420 013B     		subs	r3, r3, #1
 4483              	.LVL352:
ARM GAS  /var/folders/rf/wfq6hz5s56g3yh4wqgd7820c0000gn/T//ccBUdQBH.s 			page 112


1266:Drivers/STM32F0xx_HAL_Driver/Src/stm32f0xx_hal_pcd.c ****           PCD_SET_EP_RX_STATUS(hpcd->Instance, PCD_ENDP0, USB_EP_RX_VALID)
 4484              		.loc 1 1266 11 is_stmt 0 discriminator 3 view .LVU1054
 4485 0422 9BB2     		uxth	r3, r3
 4486              	.LVL353:
 4487              	.L188:
1266:Drivers/STM32F0xx_HAL_Driver/Src/stm32f0xx_hal_pcd.c ****           PCD_SET_EP_RX_STATUS(hpcd->Instance, PCD_ENDP0, USB_EP_RX_VALID)
 4488              		.loc 1 1266 11 is_stmt 1 discriminator 5 view .LVU1055
 4489 0424 9B02     		lsls	r3, r3, #10
 4490              	.LVL354:
1266:Drivers/STM32F0xx_HAL_Driver/Src/stm32f0xx_hal_pcd.c ****           PCD_SET_EP_RX_STATUS(hpcd->Instance, PCD_ENDP0, USB_EP_RX_VALID)
 4491              		.loc 1 1266 11 is_stmt 0 discriminator 5 view .LVU1056
 4492 0426 9BB2     		uxth	r3, r3
 4493 0428 2149     		ldr	r1, .L213+20
 4494 042a 0B43     		orrs	r3, r1
 4495 042c 1380     		strh	r3, [r2]
 4496              	.L189:
1266:Drivers/STM32F0xx_HAL_Driver/Src/stm32f0xx_hal_pcd.c ****           PCD_SET_EP_RX_STATUS(hpcd->Instance, PCD_ENDP0, USB_EP_RX_VALID)
 4497              		.loc 1 1266 11 discriminator 5 view .LVU1057
 4498              	.LBE43:
 4499              	.LBE44:
 4500              	.LBB45:
1267:Drivers/STM32F0xx_HAL_Driver/Src/stm32f0xx_hal_pcd.c ****         }
 4501              		.loc 1 1267 11 is_stmt 1 view .LVU1058
1267:Drivers/STM32F0xx_HAL_Driver/Src/stm32f0xx_hal_pcd.c ****         }
 4502              		.loc 1 1267 11 view .LVU1059
 4503 042e 2168     		ldr	r1, [r4]
 4504 0430 0A88     		ldrh	r2, [r1]
 4505              	.LVL355:
1267:Drivers/STM32F0xx_HAL_Driver/Src/stm32f0xx_hal_pcd.c ****         }
 4506              		.loc 1 1267 11 is_stmt 0 view .LVU1060
 4507 0432 204B     		ldr	r3, .L213+24
 4508 0434 1A40     		ands	r2, r3
 4509              	.LVL356:
1267:Drivers/STM32F0xx_HAL_Driver/Src/stm32f0xx_hal_pcd.c ****         }
 4510              		.loc 1 1267 11 is_stmt 1 view .LVU1061
1267:Drivers/STM32F0xx_HAL_Driver/Src/stm32f0xx_hal_pcd.c ****         }
 4511              		.loc 1 1267 11 view .LVU1062
1267:Drivers/STM32F0xx_HAL_Driver/Src/stm32f0xx_hal_pcd.c ****         }
 4512              		.loc 1 1267 11 view .LVU1063
1267:Drivers/STM32F0xx_HAL_Driver/Src/stm32f0xx_hal_pcd.c ****         }
 4513              		.loc 1 1267 11 view .LVU1064
 4514 0436 C023     		movs	r3, #192
 4515 0438 9B01     		lsls	r3, r3, #6
 4516 043a 5A40     		eors	r2, r3
 4517              	.LVL357:
1267:Drivers/STM32F0xx_HAL_Driver/Src/stm32f0xx_hal_pcd.c ****         }
 4518              		.loc 1 1267 11 view .LVU1065
 4519 043c 1E4B     		ldr	r3, .L213+28
 4520 043e 1343     		orrs	r3, r2
 4521 0440 0B80     		strh	r3, [r1]
 4522 0442 99E7     		b	.L181
 4523              	.LVL358:
 4524              	.L206:
1267:Drivers/STM32F0xx_HAL_Driver/Src/stm32f0xx_hal_pcd.c ****         }
 4525              		.loc 1 1267 11 is_stmt 0 view .LVU1066
 4526              	.LBE45:
1356:Drivers/STM32F0xx_HAL_Driver/Src/stm32f0xx_hal_pcd.c ****             }
ARM GAS  /var/folders/rf/wfq6hz5s56g3yh4wqgd7820c0000gn/T//ccBUdQBH.s 			page 113


 4527              		.loc 1 1356 15 is_stmt 1 view .LVU1067
 4528 0444 1100     		movs	r1, r2
 4529 0446 D28D     		ldrh	r2, [r2, #46]
 4530 0448 896B     		ldr	r1, [r1, #56]
 4531 044a FFF7FEFF 		bl	PCD_WritePMA
 4532              	.LVL359:
 4533 044e 60E7     		b	.L201
 4534              	.L200:
1362:Drivers/STM32F0xx_HAL_Driver/Src/stm32f0xx_hal_pcd.c ****             if (ep->xfer_count != 0U)
 4535              		.loc 1 1362 13 view .LVU1068
1362:Drivers/STM32F0xx_HAL_Driver/Src/stm32f0xx_hal_pcd.c ****             if (ep->xfer_count != 0U)
 4536              		.loc 1 1362 30 is_stmt 0 view .LVU1069
 4537 0450 5022     		movs	r2, #80
 4538 0452 825A     		ldrh	r2, [r0, r2]
 4539 0454 DB00     		lsls	r3, r3, #3
 4540 0456 D318     		adds	r3, r2, r3
 4541 0458 1B18     		adds	r3, r3, r0
 4542 045a 144A     		ldr	r2, .L213+16
 4543 045c 9446     		mov	ip, r2
 4544 045e 6344     		add	r3, r3, ip
 4545 0460 1B88     		ldrh	r3, [r3]
 4546 0462 9B05     		lsls	r3, r3, #22
 4547 0464 9B0D     		lsrs	r3, r3, #22
1362:Drivers/STM32F0xx_HAL_Driver/Src/stm32f0xx_hal_pcd.c ****             if (ep->xfer_count != 0U)
 4548              		.loc 1 1362 28 view .LVU1070
 4549 0466 EA00     		lsls	r2, r5, #3
 4550 0468 521B     		subs	r2, r2, r5
 4551 046a 9200     		lsls	r2, r2, #2
 4552 046c A218     		adds	r2, r4, r2
 4553 046e 1364     		str	r3, [r2, #64]
1363:Drivers/STM32F0xx_HAL_Driver/Src/stm32f0xx_hal_pcd.c ****             {
 4554              		.loc 1 1363 13 is_stmt 1 view .LVU1071
1363:Drivers/STM32F0xx_HAL_Driver/Src/stm32f0xx_hal_pcd.c ****             {
 4555              		.loc 1 1363 16 is_stmt 0 view .LVU1072
 4556 0470 002B     		cmp	r3, #0
 4557 0472 00D1     		bne	.LCB4671
 4558 0474 4DE7     		b	.L201	@long jump
 4559              	.LCB4671:
1365:Drivers/STM32F0xx_HAL_Driver/Src/stm32f0xx_hal_pcd.c ****             }
 4560              		.loc 1 1365 15 is_stmt 1 view .LVU1073
 4561 0476 1100     		movs	r1, r2
 4562 0478 128E     		ldrh	r2, [r2, #48]
 4563 047a 896B     		ldr	r1, [r1, #56]
 4564 047c FFF7FEFF 		bl	PCD_WritePMA
 4565              	.LVL360:
 4566 0480 47E7     		b	.L201
 4567              	.L202:
1379:Drivers/STM32F0xx_HAL_Driver/Src/stm32f0xx_hal_pcd.c ****         }
1380:Drivers/STM32F0xx_HAL_Driver/Src/stm32f0xx_hal_pcd.c ****         else
1381:Drivers/STM32F0xx_HAL_Driver/Src/stm32f0xx_hal_pcd.c ****         {
1382:Drivers/STM32F0xx_HAL_Driver/Src/stm32f0xx_hal_pcd.c ****           HAL_PCD_EP_Transmit(hpcd, ep->num, ep->xfer_buff, ep->xfer_len);
 4568              		.loc 1 1382 11 view .LVU1074
 4569 0482 E900     		lsls	r1, r5, #3
 4570 0484 491B     		subs	r1, r1, r5
 4571 0486 8900     		lsls	r1, r1, #2
 4572 0488 6118     		adds	r1, r4, r1
 4573 048a 2831     		adds	r1, r1, #40
ARM GAS  /var/folders/rf/wfq6hz5s56g3yh4wqgd7820c0000gn/T//ccBUdQBH.s 			page 114


 4574 048c 0978     		ldrb	r1, [r1]
 4575 048e 2000     		movs	r0, r4
 4576 0490 FFF7FEFF 		bl	HAL_PCD_EP_Transmit
 4577              	.LVL361:
 4578 0494 70E7     		b	.L181
 4579              	.LVL362:
 4580              	.L207:
1383:Drivers/STM32F0xx_HAL_Driver/Src/stm32f0xx_hal_pcd.c ****         }
1384:Drivers/STM32F0xx_HAL_Driver/Src/stm32f0xx_hal_pcd.c ****       } 
1385:Drivers/STM32F0xx_HAL_Driver/Src/stm32f0xx_hal_pcd.c ****     }
1386:Drivers/STM32F0xx_HAL_Driver/Src/stm32f0xx_hal_pcd.c ****   }
1387:Drivers/STM32F0xx_HAL_Driver/Src/stm32f0xx_hal_pcd.c ****   return HAL_OK;
 4581              		.loc 1 1387 3 view .LVU1075
1388:Drivers/STM32F0xx_HAL_Driver/Src/stm32f0xx_hal_pcd.c **** }
 4582              		.loc 1 1388 1 is_stmt 0 view .LVU1076
 4583 0496 0020     		movs	r0, #0
 4584 0498 03B0     		add	sp, sp, #12
 4585              		@ sp needed
 4586              	.LVL363:
 4587              		.loc 1 1388 1 view .LVU1077
 4588 049a F0BD     		pop	{r4, r5, r6, r7, pc}
 4589              	.L214:
 4590              		.align	2
 4591              	.L213:
 4592 049c 02040000 		.word	1026
 4593 04a0 0F0F0000 		.word	3855
 4594 04a4 80C0FFFF 		.word	-16256
 4595 04a8 8F0F0000 		.word	3983
 4596 04ac 06040000 		.word	1030
 4597 04b0 0080FFFF 		.word	-32768
 4598 04b4 8FBFFFFF 		.word	-16497
 4599 04b8 8080FFFF 		.word	-32640
 4600              		.cfi_endproc
 4601              	.LFE71:
 4603              		.section	.text.HAL_PCD_IRQHandler,"ax",%progbits
 4604              		.align	1
 4605              		.global	HAL_PCD_IRQHandler
 4606              		.syntax unified
 4607              		.code	16
 4608              		.thumb_func
 4609              		.fpu softvfp
 4611              	HAL_PCD_IRQHandler:
 4612              	.LVL364:
 4613              	.LFB43:
 328:Drivers/STM32F0xx_HAL_Driver/Src/stm32f0xx_hal_pcd.c ****   uint32_t wInterrupt_Mask = 0U;
 4614              		.loc 1 328 1 is_stmt 1 view -0
 4615              		.cfi_startproc
 4616              		@ args = 0, pretend = 0, frame = 0
 4617              		@ frame_needed = 0, uses_anonymous_args = 0
 328:Drivers/STM32F0xx_HAL_Driver/Src/stm32f0xx_hal_pcd.c ****   uint32_t wInterrupt_Mask = 0U;
 4618              		.loc 1 328 1 is_stmt 0 view .LVU1079
 4619 0000 70B5     		push	{r4, r5, r6, lr}
 4620              	.LCFI15:
 4621              		.cfi_def_cfa_offset 16
 4622              		.cfi_offset 4, -16
 4623              		.cfi_offset 5, -12
 4624              		.cfi_offset 6, -8
ARM GAS  /var/folders/rf/wfq6hz5s56g3yh4wqgd7820c0000gn/T//ccBUdQBH.s 			page 115


 4625              		.cfi_offset 14, -4
 4626 0002 0400     		movs	r4, r0
 329:Drivers/STM32F0xx_HAL_Driver/Src/stm32f0xx_hal_pcd.c ****   
 4627              		.loc 1 329 3 is_stmt 1 view .LVU1080
 4628              	.LVL365:
 331:Drivers/STM32F0xx_HAL_Driver/Src/stm32f0xx_hal_pcd.c ****   {
 4629              		.loc 1 331 3 view .LVU1081
 331:Drivers/STM32F0xx_HAL_Driver/Src/stm32f0xx_hal_pcd.c ****   {
 4630              		.loc 1 331 7 is_stmt 0 view .LVU1082
 4631 0004 4423     		movs	r3, #68
 4632 0006 0268     		ldr	r2, [r0]
 4633 0008 D35A     		ldrh	r3, [r2, r3]
 331:Drivers/STM32F0xx_HAL_Driver/Src/stm32f0xx_hal_pcd.c ****   {
 4634              		.loc 1 331 6 view .LVU1083
 4635 000a 1BB2     		sxth	r3, r3
 4636 000c 002B     		cmp	r3, #0
 4637 000e 48DB     		blt	.L224
 4638              	.LVL366:
 4639              	.L216:
 338:Drivers/STM32F0xx_HAL_Driver/Src/stm32f0xx_hal_pcd.c ****   {
 4640              		.loc 1 338 3 is_stmt 1 view .LVU1084
 338:Drivers/STM32F0xx_HAL_Driver/Src/stm32f0xx_hal_pcd.c ****   {
 4641              		.loc 1 338 7 is_stmt 0 view .LVU1085
 4642 0010 2368     		ldr	r3, [r4]
 4643 0012 4422     		movs	r2, #68
 4644 0014 9A5A     		ldrh	r2, [r3, r2]
 338:Drivers/STM32F0xx_HAL_Driver/Src/stm32f0xx_hal_pcd.c ****   {
 4645              		.loc 1 338 6 view .LVU1086
 4646 0016 5205     		lsls	r2, r2, #21
 4647 0018 46D4     		bmi	.L225
 4648              	.L217:
 345:Drivers/STM32F0xx_HAL_Driver/Src/stm32f0xx_hal_pcd.c ****   {
 4649              		.loc 1 345 3 is_stmt 1 view .LVU1087
 345:Drivers/STM32F0xx_HAL_Driver/Src/stm32f0xx_hal_pcd.c ****   {
 4650              		.loc 1 345 7 is_stmt 0 view .LVU1088
 4651 001a 2368     		ldr	r3, [r4]
 4652 001c 4422     		movs	r2, #68
 4653 001e 9A5A     		ldrh	r2, [r3, r2]
 345:Drivers/STM32F0xx_HAL_Driver/Src/stm32f0xx_hal_pcd.c ****   {
 4654              		.loc 1 345 6 view .LVU1089
 4655 0020 5204     		lsls	r2, r2, #17
 4656 0022 04D5     		bpl	.L218
 347:Drivers/STM32F0xx_HAL_Driver/Src/stm32f0xx_hal_pcd.c ****   }
 4657              		.loc 1 347 5 is_stmt 1 view .LVU1090
 4658 0024 4421     		movs	r1, #68
 4659 0026 5A5A     		ldrh	r2, [r3, r1]
 4660 0028 3548     		ldr	r0, .L229
 4661 002a 0240     		ands	r2, r0
 4662 002c 5A52     		strh	r2, [r3, r1]
 4663              	.L218:
 350:Drivers/STM32F0xx_HAL_Driver/Src/stm32f0xx_hal_pcd.c ****   {
 4664              		.loc 1 350 3 view .LVU1091
 350:Drivers/STM32F0xx_HAL_Driver/Src/stm32f0xx_hal_pcd.c ****   {
 4665              		.loc 1 350 7 is_stmt 0 view .LVU1092
 4666 002e 2368     		ldr	r3, [r4]
 4667 0030 4422     		movs	r2, #68
 4668 0032 9A5A     		ldrh	r2, [r3, r2]
ARM GAS  /var/folders/rf/wfq6hz5s56g3yh4wqgd7820c0000gn/T//ccBUdQBH.s 			page 116


 350:Drivers/STM32F0xx_HAL_Driver/Src/stm32f0xx_hal_pcd.c ****   {
 4669              		.loc 1 350 6 view .LVU1093
 4670 0034 9204     		lsls	r2, r2, #18
 4671 0036 04D5     		bpl	.L219
 352:Drivers/STM32F0xx_HAL_Driver/Src/stm32f0xx_hal_pcd.c ****   }
 4672              		.loc 1 352 5 is_stmt 1 view .LVU1094
 4673 0038 4421     		movs	r1, #68
 4674 003a 5A5A     		ldrh	r2, [r3, r1]
 4675 003c 3148     		ldr	r0, .L229+4
 4676 003e 0240     		ands	r2, r0
 4677 0040 5A52     		strh	r2, [r3, r1]
 4678              	.L219:
 355:Drivers/STM32F0xx_HAL_Driver/Src/stm32f0xx_hal_pcd.c ****   {
 4679              		.loc 1 355 3 view .LVU1095
 355:Drivers/STM32F0xx_HAL_Driver/Src/stm32f0xx_hal_pcd.c ****   {
 4680              		.loc 1 355 7 is_stmt 0 view .LVU1096
 4681 0042 2368     		ldr	r3, [r4]
 4682 0044 4422     		movs	r2, #68
 4683 0046 9A5A     		ldrh	r2, [r3, r2]
 355:Drivers/STM32F0xx_HAL_Driver/Src/stm32f0xx_hal_pcd.c ****   {
 4684              		.loc 1 355 6 view .LVU1097
 4685 0048 D204     		lsls	r2, r2, #19
 4686 004a 3AD4     		bmi	.L226
 4687              	.LVL367:
 4688              	.L220:
 372:Drivers/STM32F0xx_HAL_Driver/Src/stm32f0xx_hal_pcd.c ****   {    
 4689              		.loc 1 372 3 is_stmt 1 view .LVU1098
 372:Drivers/STM32F0xx_HAL_Driver/Src/stm32f0xx_hal_pcd.c ****   {    
 4690              		.loc 1 372 7 is_stmt 0 view .LVU1099
 4691 004c 2368     		ldr	r3, [r4]
 4692 004e 4422     		movs	r2, #68
 4693 0050 9A5A     		ldrh	r2, [r3, r2]
 372:Drivers/STM32F0xx_HAL_Driver/Src/stm32f0xx_hal_pcd.c ****   {    
 4694              		.loc 1 372 6 view .LVU1100
 4695 0052 1205     		lsls	r2, r2, #20
 4696 0054 15D5     		bpl	.L221
 375:Drivers/STM32F0xx_HAL_Driver/Src/stm32f0xx_hal_pcd.c ****     
 4697              		.loc 1 375 5 is_stmt 1 view .LVU1101
 4698 0056 4421     		movs	r1, #68
 4699 0058 5A5A     		ldrh	r2, [r3, r1]
 4700 005a 2B48     		ldr	r0, .L229+8
 4701 005c 0240     		ands	r2, r0
 4702 005e 5A52     		strh	r2, [r3, r1]
 378:Drivers/STM32F0xx_HAL_Driver/Src/stm32f0xx_hal_pcd.c ****     hpcd->Instance->CNTR |= USB_CNTR_LPMODE;
 4703              		.loc 1 378 5 view .LVU1102
 378:Drivers/STM32F0xx_HAL_Driver/Src/stm32f0xx_hal_pcd.c ****     hpcd->Instance->CNTR |= USB_CNTR_LPMODE;
 4704              		.loc 1 378 9 is_stmt 0 view .LVU1103
 4705 0060 2068     		ldr	r0, [r4]
 378:Drivers/STM32F0xx_HAL_Driver/Src/stm32f0xx_hal_pcd.c ****     hpcd->Instance->CNTR |= USB_CNTR_LPMODE;
 4706              		.loc 1 378 26 view .LVU1104
 4707 0062 4022     		movs	r2, #64
 4708 0064 835A     		ldrh	r3, [r0, r2]
 4709 0066 0825     		movs	r5, #8
 4710 0068 2B43     		orrs	r3, r5
 4711 006a 9BB2     		uxth	r3, r3
 4712 006c 8352     		strh	r3, [r0, r2]
 379:Drivers/STM32F0xx_HAL_Driver/Src/stm32f0xx_hal_pcd.c **** 
ARM GAS  /var/folders/rf/wfq6hz5s56g3yh4wqgd7820c0000gn/T//ccBUdQBH.s 			page 117


 4713              		.loc 1 379 5 is_stmt 1 view .LVU1105
 379:Drivers/STM32F0xx_HAL_Driver/Src/stm32f0xx_hal_pcd.c **** 
 4714              		.loc 1 379 9 is_stmt 0 view .LVU1106
 4715 006e 2068     		ldr	r0, [r4]
 379:Drivers/STM32F0xx_HAL_Driver/Src/stm32f0xx_hal_pcd.c **** 
 4716              		.loc 1 379 26 view .LVU1107
 4717 0070 835A     		ldrh	r3, [r0, r2]
 4718 0072 0425     		movs	r5, #4
 4719 0074 2B43     		orrs	r3, r5
 4720 0076 9BB2     		uxth	r3, r3
 4721 0078 8352     		strh	r3, [r0, r2]
 381:Drivers/STM32F0xx_HAL_Driver/Src/stm32f0xx_hal_pcd.c ****     {
 4722              		.loc 1 381 5 is_stmt 1 view .LVU1108
 381:Drivers/STM32F0xx_HAL_Driver/Src/stm32f0xx_hal_pcd.c ****     {
 4723              		.loc 1 381 9 is_stmt 0 view .LVU1109
 4724 007a 2368     		ldr	r3, [r4]
 4725 007c 5B5A     		ldrh	r3, [r3, r1]
 381:Drivers/STM32F0xx_HAL_Driver/Src/stm32f0xx_hal_pcd.c ****     {
 4726              		.loc 1 381 8 view .LVU1110
 4727 007e DB04     		lsls	r3, r3, #19
 4728 0080 31D5     		bpl	.L227
 4729              	.L221:
 387:Drivers/STM32F0xx_HAL_Driver/Src/stm32f0xx_hal_pcd.c ****   {
 4730              		.loc 1 387 3 is_stmt 1 view .LVU1111
 387:Drivers/STM32F0xx_HAL_Driver/Src/stm32f0xx_hal_pcd.c ****   {
 4731              		.loc 1 387 7 is_stmt 0 view .LVU1112
 4732 0082 2368     		ldr	r3, [r4]
 4733 0084 4422     		movs	r2, #68
 4734 0086 9A5A     		ldrh	r2, [r3, r2]
 387:Drivers/STM32F0xx_HAL_Driver/Src/stm32f0xx_hal_pcd.c ****   {
 4735              		.loc 1 387 6 view .LVU1113
 4736 0088 9205     		lsls	r2, r2, #22
 4737 008a 30D4     		bmi	.L228
 4738              	.L222:
 393:Drivers/STM32F0xx_HAL_Driver/Src/stm32f0xx_hal_pcd.c ****   {
 4739              		.loc 1 393 3 is_stmt 1 view .LVU1114
 393:Drivers/STM32F0xx_HAL_Driver/Src/stm32f0xx_hal_pcd.c ****   {
 4740              		.loc 1 393 7 is_stmt 0 view .LVU1115
 4741 008c 2368     		ldr	r3, [r4]
 4742 008e 4422     		movs	r2, #68
 4743 0090 9A5A     		ldrh	r2, [r3, r2]
 393:Drivers/STM32F0xx_HAL_Driver/Src/stm32f0xx_hal_pcd.c ****   {
 4744              		.loc 1 393 6 view .LVU1116
 4745 0092 D205     		lsls	r2, r2, #23
 4746 0094 04D5     		bpl	.L215
 396:Drivers/STM32F0xx_HAL_Driver/Src/stm32f0xx_hal_pcd.c ****   }
 4747              		.loc 1 396 5 is_stmt 1 view .LVU1117
 4748 0096 4421     		movs	r1, #68
 4749 0098 5A5A     		ldrh	r2, [r3, r1]
 4750 009a 1C48     		ldr	r0, .L229+12
 4751 009c 0240     		ands	r2, r0
 4752 009e 5A52     		strh	r2, [r3, r1]
 4753              	.L215:
 398:Drivers/STM32F0xx_HAL_Driver/Src/stm32f0xx_hal_pcd.c **** 
 4754              		.loc 1 398 1 is_stmt 0 view .LVU1118
 4755              		@ sp needed
 4756              	.LVL368:
ARM GAS  /var/folders/rf/wfq6hz5s56g3yh4wqgd7820c0000gn/T//ccBUdQBH.s 			page 118


 398:Drivers/STM32F0xx_HAL_Driver/Src/stm32f0xx_hal_pcd.c **** 
 4757              		.loc 1 398 1 view .LVU1119
 4758 00a0 70BD     		pop	{r4, r5, r6, pc}
 4759              	.LVL369:
 4760              	.L224:
 335:Drivers/STM32F0xx_HAL_Driver/Src/stm32f0xx_hal_pcd.c ****   }
 4761              		.loc 1 335 5 is_stmt 1 view .LVU1120
 4762 00a2 FFF7FEFF 		bl	PCD_EP_ISR_Handler
 4763              	.LVL370:
 335:Drivers/STM32F0xx_HAL_Driver/Src/stm32f0xx_hal_pcd.c ****   }
 4764              		.loc 1 335 5 is_stmt 0 view .LVU1121
 4765 00a6 B3E7     		b	.L216
 4766              	.L225:
 340:Drivers/STM32F0xx_HAL_Driver/Src/stm32f0xx_hal_pcd.c ****     HAL_PCD_ResetCallback(hpcd);
 4767              		.loc 1 340 5 is_stmt 1 view .LVU1122
 4768 00a8 4421     		movs	r1, #68
 4769 00aa 5A5A     		ldrh	r2, [r3, r1]
 4770 00ac 1848     		ldr	r0, .L229+16
 4771 00ae 0240     		ands	r2, r0
 4772 00b0 5A52     		strh	r2, [r3, r1]
 341:Drivers/STM32F0xx_HAL_Driver/Src/stm32f0xx_hal_pcd.c ****     HAL_PCD_SetAddress(hpcd, 0U);
 4773              		.loc 1 341 5 view .LVU1123
 4774 00b2 2000     		movs	r0, r4
 4775 00b4 FFF7FEFF 		bl	HAL_PCD_ResetCallback
 4776              	.LVL371:
 342:Drivers/STM32F0xx_HAL_Driver/Src/stm32f0xx_hal_pcd.c ****   }
 4777              		.loc 1 342 5 view .LVU1124
 4778 00b8 0021     		movs	r1, #0
 4779 00ba 2000     		movs	r0, r4
 4780 00bc FFF7FEFF 		bl	HAL_PCD_SetAddress
 4781              	.LVL372:
 4782 00c0 ABE7     		b	.L217
 4783              	.L226:
 358:Drivers/STM32F0xx_HAL_Driver/Src/stm32f0xx_hal_pcd.c **** 
 4784              		.loc 1 358 5 view .LVU1125
 358:Drivers/STM32F0xx_HAL_Driver/Src/stm32f0xx_hal_pcd.c **** 
 4785              		.loc 1 358 26 is_stmt 0 view .LVU1126
 4786 00c2 4022     		movs	r2, #64
 4787 00c4 995A     		ldrh	r1, [r3, r2]
 4788 00c6 0420     		movs	r0, #4
 4789 00c8 8143     		bics	r1, r0
 4790 00ca 9952     		strh	r1, [r3, r2]
 361:Drivers/STM32F0xx_HAL_Driver/Src/stm32f0xx_hal_pcd.c ****       | USB_CNTR_ESOFM | USB_CNTR_RESETM;
 4791              		.loc 1 361 5 is_stmt 1 view .LVU1127
 4792              	.LVL373:
 365:Drivers/STM32F0xx_HAL_Driver/Src/stm32f0xx_hal_pcd.c ****     
 4793              		.loc 1 365 5 view .LVU1128
 365:Drivers/STM32F0xx_HAL_Driver/Src/stm32f0xx_hal_pcd.c ****     
 4794              		.loc 1 365 26 is_stmt 0 view .LVU1129
 4795 00cc 114B     		ldr	r3, .L229+20
 4796 00ce 2168     		ldr	r1, [r4]
 4797 00d0 8B52     		strh	r3, [r1, r2]
 367:Drivers/STM32F0xx_HAL_Driver/Src/stm32f0xx_hal_pcd.c ****     
 4798              		.loc 1 367 5 is_stmt 1 view .LVU1130
 4799 00d2 2000     		movs	r0, r4
 4800 00d4 FFF7FEFF 		bl	HAL_PCD_ResumeCallback
 4801              	.LVL374:
ARM GAS  /var/folders/rf/wfq6hz5s56g3yh4wqgd7820c0000gn/T//ccBUdQBH.s 			page 119


 369:Drivers/STM32F0xx_HAL_Driver/Src/stm32f0xx_hal_pcd.c ****   }
 4802              		.loc 1 369 5 view .LVU1131
 4803 00d8 2168     		ldr	r1, [r4]
 4804 00da 4422     		movs	r2, #68
 4805 00dc 8B5A     		ldrh	r3, [r1, r2]
 4806 00de 0E48     		ldr	r0, .L229+24
 4807 00e0 0340     		ands	r3, r0
 4808 00e2 8B52     		strh	r3, [r1, r2]
 4809 00e4 B2E7     		b	.L220
 4810              	.LVL375:
 4811              	.L227:
 383:Drivers/STM32F0xx_HAL_Driver/Src/stm32f0xx_hal_pcd.c ****     }
 4812              		.loc 1 383 7 view .LVU1132
 4813 00e6 2000     		movs	r0, r4
 4814 00e8 FFF7FEFF 		bl	HAL_PCD_SuspendCallback
 4815              	.LVL376:
 4816 00ec C9E7     		b	.L221
 4817              	.L228:
 389:Drivers/STM32F0xx_HAL_Driver/Src/stm32f0xx_hal_pcd.c ****     HAL_PCD_SOFCallback(hpcd);
 4818              		.loc 1 389 5 view .LVU1133
 4819 00ee 4421     		movs	r1, #68
 4820 00f0 5A5A     		ldrh	r2, [r3, r1]
 4821 00f2 0A48     		ldr	r0, .L229+28
 4822 00f4 0240     		ands	r2, r0
 4823 00f6 5A52     		strh	r2, [r3, r1]
 390:Drivers/STM32F0xx_HAL_Driver/Src/stm32f0xx_hal_pcd.c ****   }
 4824              		.loc 1 390 5 view .LVU1134
 4825 00f8 2000     		movs	r0, r4
 4826 00fa FFF7FEFF 		bl	HAL_PCD_SOFCallback
 4827              	.LVL377:
 4828 00fe C5E7     		b	.L222
 4829              	.L230:
 4830              		.align	2
 4831              	.L229:
 4832 0100 FFBFFFFF 		.word	-16385
 4833 0104 FFDFFFFF 		.word	-8193
 4834 0108 FFF7FFFF 		.word	-2049
 4835 010c FFFEFFFF 		.word	-257
 4836 0110 FFFBFFFF 		.word	-1025
 4837 0114 00BDFFFF 		.word	-17152
 4838 0118 FFEFFFFF 		.word	-4097
 4839 011c FFFDFFFF 		.word	-513
 4840              		.cfi_endproc
 4841              	.LFE43:
 4843              		.text
 4844              	.Letext0:
 4845              		.file 2 "/usr/local/Cellar/arm-gcc-bin/9-2019-q4-major/arm-none-eabi/include/machine/_default_type
 4846              		.file 3 "/usr/local/Cellar/arm-gcc-bin/9-2019-q4-major/arm-none-eabi/include/sys/_stdint.h"
 4847              		.file 4 "Drivers/CMSIS/Device/ST/STM32F0xx/Include/system_stm32f0xx.h"
 4848              		.file 5 "Drivers/CMSIS/Device/ST/STM32F0xx/Include/stm32f072xb.h"
 4849              		.file 6 "/usr/local/Cellar/arm-gcc-bin/9-2019-q4-major/arm-none-eabi/include/sys/lock.h"
 4850              		.file 7 "/usr/local/Cellar/arm-gcc-bin/9-2019-q4-major/arm-none-eabi/include/sys/_types.h"
 4851              		.file 8 "/usr/local/Cellar/arm-gcc-bin/9-2019-q4-major/lib/gcc/arm-none-eabi/9.2.1/include/stddef.
 4852              		.file 9 "/usr/local/Cellar/arm-gcc-bin/9-2019-q4-major/arm-none-eabi/include/sys/reent.h"
 4853              		.file 10 "Drivers/STM32F0xx_HAL_Driver/Inc/stm32f0xx_hal_def.h"
 4854              		.file 11 "Drivers/STM32F0xx_HAL_Driver/Inc/stm32f0xx_hal_pcd.h"
ARM GAS  /var/folders/rf/wfq6hz5s56g3yh4wqgd7820c0000gn/T//ccBUdQBH.s 			page 120


DEFINED SYMBOLS
                            *ABS*:0000000000000000 stm32f0xx_hal_pcd.c
/var/folders/rf/wfq6hz5s56g3yh4wqgd7820c0000gn/T//ccBUdQBH.s:16     .text.HAL_PCD_MspInit:0000000000000000 $t
/var/folders/rf/wfq6hz5s56g3yh4wqgd7820c0000gn/T//ccBUdQBH.s:24     .text.HAL_PCD_MspInit:0000000000000000 HAL_PCD_MspInit
/var/folders/rf/wfq6hz5s56g3yh4wqgd7820c0000gn/T//ccBUdQBH.s:41     .text.HAL_PCD_Init:0000000000000000 $t
/var/folders/rf/wfq6hz5s56g3yh4wqgd7820c0000gn/T//ccBUdQBH.s:48     .text.HAL_PCD_Init:0000000000000000 HAL_PCD_Init
/var/folders/rf/wfq6hz5s56g3yh4wqgd7820c0000gn/T//ccBUdQBH.s:257    .text.HAL_PCD_Init:00000000000000bc $d
/var/folders/rf/wfq6hz5s56g3yh4wqgd7820c0000gn/T//ccBUdQBH.s:262    .text.HAL_PCD_MspDeInit:0000000000000000 $t
/var/folders/rf/wfq6hz5s56g3yh4wqgd7820c0000gn/T//ccBUdQBH.s:269    .text.HAL_PCD_MspDeInit:0000000000000000 HAL_PCD_MspDeInit
/var/folders/rf/wfq6hz5s56g3yh4wqgd7820c0000gn/T//ccBUdQBH.s:285    .text.HAL_PCD_Start:0000000000000000 $t
/var/folders/rf/wfq6hz5s56g3yh4wqgd7820c0000gn/T//ccBUdQBH.s:292    .text.HAL_PCD_Start:0000000000000000 HAL_PCD_Start
/var/folders/rf/wfq6hz5s56g3yh4wqgd7820c0000gn/T//ccBUdQBH.s:320    .text.HAL_PCD_Start:0000000000000014 $d
/var/folders/rf/wfq6hz5s56g3yh4wqgd7820c0000gn/T//ccBUdQBH.s:325    .text.HAL_PCD_Stop:0000000000000000 $t
/var/folders/rf/wfq6hz5s56g3yh4wqgd7820c0000gn/T//ccBUdQBH.s:332    .text.HAL_PCD_Stop:0000000000000000 HAL_PCD_Stop
/var/folders/rf/wfq6hz5s56g3yh4wqgd7820c0000gn/T//ccBUdQBH.s:397    .text.HAL_PCD_DeInit:0000000000000000 $t
/var/folders/rf/wfq6hz5s56g3yh4wqgd7820c0000gn/T//ccBUdQBH.s:404    .text.HAL_PCD_DeInit:0000000000000000 HAL_PCD_DeInit
/var/folders/rf/wfq6hz5s56g3yh4wqgd7820c0000gn/T//ccBUdQBH.s:460    .text.HAL_PCD_DataOutStageCallback:0000000000000000 $t
/var/folders/rf/wfq6hz5s56g3yh4wqgd7820c0000gn/T//ccBUdQBH.s:467    .text.HAL_PCD_DataOutStageCallback:0000000000000000 HAL_PCD_DataOutStageCallback
/var/folders/rf/wfq6hz5s56g3yh4wqgd7820c0000gn/T//ccBUdQBH.s:484    .text.HAL_PCD_DataInStageCallback:0000000000000000 $t
/var/folders/rf/wfq6hz5s56g3yh4wqgd7820c0000gn/T//ccBUdQBH.s:491    .text.HAL_PCD_DataInStageCallback:0000000000000000 HAL_PCD_DataInStageCallback
/var/folders/rf/wfq6hz5s56g3yh4wqgd7820c0000gn/T//ccBUdQBH.s:508    .text.HAL_PCD_SetupStageCallback:0000000000000000 $t
/var/folders/rf/wfq6hz5s56g3yh4wqgd7820c0000gn/T//ccBUdQBH.s:515    .text.HAL_PCD_SetupStageCallback:0000000000000000 HAL_PCD_SetupStageCallback
/var/folders/rf/wfq6hz5s56g3yh4wqgd7820c0000gn/T//ccBUdQBH.s:531    .text.HAL_PCD_SOFCallback:0000000000000000 $t
/var/folders/rf/wfq6hz5s56g3yh4wqgd7820c0000gn/T//ccBUdQBH.s:538    .text.HAL_PCD_SOFCallback:0000000000000000 HAL_PCD_SOFCallback
/var/folders/rf/wfq6hz5s56g3yh4wqgd7820c0000gn/T//ccBUdQBH.s:554    .text.HAL_PCD_ResetCallback:0000000000000000 $t
/var/folders/rf/wfq6hz5s56g3yh4wqgd7820c0000gn/T//ccBUdQBH.s:561    .text.HAL_PCD_ResetCallback:0000000000000000 HAL_PCD_ResetCallback
/var/folders/rf/wfq6hz5s56g3yh4wqgd7820c0000gn/T//ccBUdQBH.s:577    .text.HAL_PCD_SuspendCallback:0000000000000000 $t
/var/folders/rf/wfq6hz5s56g3yh4wqgd7820c0000gn/T//ccBUdQBH.s:584    .text.HAL_PCD_SuspendCallback:0000000000000000 HAL_PCD_SuspendCallback
/var/folders/rf/wfq6hz5s56g3yh4wqgd7820c0000gn/T//ccBUdQBH.s:600    .text.HAL_PCD_ResumeCallback:0000000000000000 $t
/var/folders/rf/wfq6hz5s56g3yh4wqgd7820c0000gn/T//ccBUdQBH.s:607    .text.HAL_PCD_ResumeCallback:0000000000000000 HAL_PCD_ResumeCallback
/var/folders/rf/wfq6hz5s56g3yh4wqgd7820c0000gn/T//ccBUdQBH.s:623    .text.HAL_PCD_ISOOUTIncompleteCallback:0000000000000000 $t
/var/folders/rf/wfq6hz5s56g3yh4wqgd7820c0000gn/T//ccBUdQBH.s:630    .text.HAL_PCD_ISOOUTIncompleteCallback:0000000000000000 HAL_PCD_ISOOUTIncompleteCallback
/var/folders/rf/wfq6hz5s56g3yh4wqgd7820c0000gn/T//ccBUdQBH.s:647    .text.HAL_PCD_ISOINIncompleteCallback:0000000000000000 $t
/var/folders/rf/wfq6hz5s56g3yh4wqgd7820c0000gn/T//ccBUdQBH.s:654    .text.HAL_PCD_ISOINIncompleteCallback:0000000000000000 HAL_PCD_ISOINIncompleteCallback
/var/folders/rf/wfq6hz5s56g3yh4wqgd7820c0000gn/T//ccBUdQBH.s:671    .text.HAL_PCD_ConnectCallback:0000000000000000 $t
/var/folders/rf/wfq6hz5s56g3yh4wqgd7820c0000gn/T//ccBUdQBH.s:678    .text.HAL_PCD_ConnectCallback:0000000000000000 HAL_PCD_ConnectCallback
/var/folders/rf/wfq6hz5s56g3yh4wqgd7820c0000gn/T//ccBUdQBH.s:694    .text.HAL_PCD_DisconnectCallback:0000000000000000 $t
/var/folders/rf/wfq6hz5s56g3yh4wqgd7820c0000gn/T//ccBUdQBH.s:701    .text.HAL_PCD_DisconnectCallback:0000000000000000 HAL_PCD_DisconnectCallback
/var/folders/rf/wfq6hz5s56g3yh4wqgd7820c0000gn/T//ccBUdQBH.s:717    .text.HAL_PCD_DevConnect:0000000000000000 $t
/var/folders/rf/wfq6hz5s56g3yh4wqgd7820c0000gn/T//ccBUdQBH.s:724    .text.HAL_PCD_DevConnect:0000000000000000 HAL_PCD_DevConnect
/var/folders/rf/wfq6hz5s56g3yh4wqgd7820c0000gn/T//ccBUdQBH.s:784    .text.HAL_PCD_DevConnect:0000000000000030 $d
/var/folders/rf/wfq6hz5s56g3yh4wqgd7820c0000gn/T//ccBUdQBH.s:789    .text.HAL_PCD_DevDisconnect:0000000000000000 $t
/var/folders/rf/wfq6hz5s56g3yh4wqgd7820c0000gn/T//ccBUdQBH.s:796    .text.HAL_PCD_DevDisconnect:0000000000000000 HAL_PCD_DevDisconnect
/var/folders/rf/wfq6hz5s56g3yh4wqgd7820c0000gn/T//ccBUdQBH.s:855    .text.HAL_PCD_SetAddress:0000000000000000 $t
/var/folders/rf/wfq6hz5s56g3yh4wqgd7820c0000gn/T//ccBUdQBH.s:862    .text.HAL_PCD_SetAddress:0000000000000000 HAL_PCD_SetAddress
/var/folders/rf/wfq6hz5s56g3yh4wqgd7820c0000gn/T//ccBUdQBH.s:929    .text.HAL_PCD_EP_Open:0000000000000000 $t
/var/folders/rf/wfq6hz5s56g3yh4wqgd7820c0000gn/T//ccBUdQBH.s:936    .text.HAL_PCD_EP_Open:0000000000000000 HAL_PCD_EP_Open
/var/folders/rf/wfq6hz5s56g3yh4wqgd7820c0000gn/T//ccBUdQBH.s:1554   .text.HAL_PCD_EP_Open:00000000000002dc $d
/var/folders/rf/wfq6hz5s56g3yh4wqgd7820c0000gn/T//ccBUdQBH.s:1570   .text.HAL_PCD_EP_Close:0000000000000000 $t
/var/folders/rf/wfq6hz5s56g3yh4wqgd7820c0000gn/T//ccBUdQBH.s:1577   .text.HAL_PCD_EP_Close:0000000000000000 HAL_PCD_EP_Close
/var/folders/rf/wfq6hz5s56g3yh4wqgd7820c0000gn/T//ccBUdQBH.s:1941   .text.HAL_PCD_EP_Close:000000000000018c $d
/var/folders/rf/wfq6hz5s56g3yh4wqgd7820c0000gn/T//ccBUdQBH.s:1951   .text.HAL_PCD_EP_Receive:0000000000000000 $t
/var/folders/rf/wfq6hz5s56g3yh4wqgd7820c0000gn/T//ccBUdQBH.s:1958   .text.HAL_PCD_EP_Receive:0000000000000000 HAL_PCD_EP_Receive
/var/folders/rf/wfq6hz5s56g3yh4wqgd7820c0000gn/T//ccBUdQBH.s:2411   .text.HAL_PCD_EP_Receive:00000000000001f8 $d
/var/folders/rf/wfq6hz5s56g3yh4wqgd7820c0000gn/T//ccBUdQBH.s:2420   .text.HAL_PCD_EP_GetRxCount:0000000000000000 $t
/var/folders/rf/wfq6hz5s56g3yh4wqgd7820c0000gn/T//ccBUdQBH.s:2427   .text.HAL_PCD_EP_GetRxCount:0000000000000000 HAL_PCD_EP_GetRxCount
/var/folders/rf/wfq6hz5s56g3yh4wqgd7820c0000gn/T//ccBUdQBH.s:2460   .text.HAL_PCD_EP_SetStall:0000000000000000 $t
ARM GAS  /var/folders/rf/wfq6hz5s56g3yh4wqgd7820c0000gn/T//ccBUdQBH.s 			page 121


/var/folders/rf/wfq6hz5s56g3yh4wqgd7820c0000gn/T//ccBUdQBH.s:2467   .text.HAL_PCD_EP_SetStall:0000000000000000 HAL_PCD_EP_SetStall
/var/folders/rf/wfq6hz5s56g3yh4wqgd7820c0000gn/T//ccBUdQBH.s:2664   .text.HAL_PCD_EP_SetStall:00000000000000a4 $d
/var/folders/rf/wfq6hz5s56g3yh4wqgd7820c0000gn/T//ccBUdQBH.s:2673   .text.HAL_PCD_EP_ClrStall:0000000000000000 $t
/var/folders/rf/wfq6hz5s56g3yh4wqgd7820c0000gn/T//ccBUdQBH.s:2680   .text.HAL_PCD_EP_ClrStall:0000000000000000 HAL_PCD_EP_ClrStall
/var/folders/rf/wfq6hz5s56g3yh4wqgd7820c0000gn/T//ccBUdQBH.s:2878   .text.HAL_PCD_EP_ClrStall:00000000000000c0 $d
/var/folders/rf/wfq6hz5s56g3yh4wqgd7820c0000gn/T//ccBUdQBH.s:2888   .text.HAL_PCD_EP_Flush:0000000000000000 $t
/var/folders/rf/wfq6hz5s56g3yh4wqgd7820c0000gn/T//ccBUdQBH.s:2895   .text.HAL_PCD_EP_Flush:0000000000000000 HAL_PCD_EP_Flush
/var/folders/rf/wfq6hz5s56g3yh4wqgd7820c0000gn/T//ccBUdQBH.s:2914   .text.HAL_PCD_ActivateRemoteWakeup:0000000000000000 $t
/var/folders/rf/wfq6hz5s56g3yh4wqgd7820c0000gn/T//ccBUdQBH.s:2921   .text.HAL_PCD_ActivateRemoteWakeup:0000000000000000 HAL_PCD_ActivateRemoteWakeup
/var/folders/rf/wfq6hz5s56g3yh4wqgd7820c0000gn/T//ccBUdQBH.s:2971   .text.HAL_PCD_DeActivateRemoteWakeup:0000000000000000 $t
/var/folders/rf/wfq6hz5s56g3yh4wqgd7820c0000gn/T//ccBUdQBH.s:2978   .text.HAL_PCD_DeActivateRemoteWakeup:0000000000000000 HAL_PCD_DeActivateRemoteWakeup
/var/folders/rf/wfq6hz5s56g3yh4wqgd7820c0000gn/T//ccBUdQBH.s:3026   .text.HAL_PCD_GetState:0000000000000000 $t
/var/folders/rf/wfq6hz5s56g3yh4wqgd7820c0000gn/T//ccBUdQBH.s:3033   .text.HAL_PCD_GetState:0000000000000000 HAL_PCD_GetState
/var/folders/rf/wfq6hz5s56g3yh4wqgd7820c0000gn/T//ccBUdQBH.s:3056   .text.PCD_WritePMA:0000000000000000 $t
/var/folders/rf/wfq6hz5s56g3yh4wqgd7820c0000gn/T//ccBUdQBH.s:3063   .text.PCD_WritePMA:0000000000000000 PCD_WritePMA
/var/folders/rf/wfq6hz5s56g3yh4wqgd7820c0000gn/T//ccBUdQBH.s:3142   .text.HAL_PCD_EP_Transmit:0000000000000000 $t
/var/folders/rf/wfq6hz5s56g3yh4wqgd7820c0000gn/T//ccBUdQBH.s:3149   .text.HAL_PCD_EP_Transmit:0000000000000000 HAL_PCD_EP_Transmit
/var/folders/rf/wfq6hz5s56g3yh4wqgd7820c0000gn/T//ccBUdQBH.s:3598   .text.HAL_PCD_EP_Transmit:00000000000001f8 $d
/var/folders/rf/wfq6hz5s56g3yh4wqgd7820c0000gn/T//ccBUdQBH.s:3610   .text.PCD_ReadPMA:0000000000000000 $t
/var/folders/rf/wfq6hz5s56g3yh4wqgd7820c0000gn/T//ccBUdQBH.s:3617   .text.PCD_ReadPMA:0000000000000000 PCD_ReadPMA
/var/folders/rf/wfq6hz5s56g3yh4wqgd7820c0000gn/T//ccBUdQBH.s:3705   .text.PCD_EP_ISR_Handler:0000000000000000 $t
/var/folders/rf/wfq6hz5s56g3yh4wqgd7820c0000gn/T//ccBUdQBH.s:3711   .text.PCD_EP_ISR_Handler:0000000000000000 PCD_EP_ISR_Handler
/var/folders/rf/wfq6hz5s56g3yh4wqgd7820c0000gn/T//ccBUdQBH.s:4231   .text.PCD_EP_ISR_Handler:00000000000002bc $d
/var/folders/rf/wfq6hz5s56g3yh4wqgd7820c0000gn/T//ccBUdQBH.s:4241   .text.PCD_EP_ISR_Handler:00000000000002d4 $t
/var/folders/rf/wfq6hz5s56g3yh4wqgd7820c0000gn/T//ccBUdQBH.s:4592   .text.PCD_EP_ISR_Handler:000000000000049c $d
/var/folders/rf/wfq6hz5s56g3yh4wqgd7820c0000gn/T//ccBUdQBH.s:4604   .text.HAL_PCD_IRQHandler:0000000000000000 $t
/var/folders/rf/wfq6hz5s56g3yh4wqgd7820c0000gn/T//ccBUdQBH.s:4611   .text.HAL_PCD_IRQHandler:0000000000000000 HAL_PCD_IRQHandler
/var/folders/rf/wfq6hz5s56g3yh4wqgd7820c0000gn/T//ccBUdQBH.s:4832   .text.HAL_PCD_IRQHandler:0000000000000100 $d

NO UNDEFINED SYMBOLS
