ARM GAS  /var/folders/rf/wfq6hz5s56g3yh4wqgd7820c0000gn/T//ccCQD8Z0.s 			page 1


   1              		.cpu cortex-m3
   2              		.eabi_attribute 20, 1
   3              		.eabi_attribute 21, 1
   4              		.eabi_attribute 23, 3
   5              		.eabi_attribute 24, 1
   6              		.eabi_attribute 25, 1
   7              		.eabi_attribute 26, 1
   8              		.eabi_attribute 30, 1
   9              		.eabi_attribute 34, 1
  10              		.eabi_attribute 18, 4
  11              		.file	"stm32f1xx_hal_dma.c"
  12              		.text
  13              	.Ltext0:
  14              		.cfi_sections	.debug_frame
  15              		.section	.text.DMA_SetConfig,"ax",%progbits
  16              		.align	1
  17              		.arch armv7-m
  18              		.syntax unified
  19              		.thumb
  20              		.thumb_func
  21              		.fpu softvfp
  23              	DMA_SetConfig:
  24              	.LVL0:
  25              	.LFB78:
  26              		.file 1 "Drivers/STM32F1xx_HAL_Driver/Src/stm32f1xx_hal_dma.c"
   1:Drivers/STM32F1xx_HAL_Driver/Src/stm32f1xx_hal_dma.c **** /**
   2:Drivers/STM32F1xx_HAL_Driver/Src/stm32f1xx_hal_dma.c ****   ******************************************************************************
   3:Drivers/STM32F1xx_HAL_Driver/Src/stm32f1xx_hal_dma.c ****   * @file    stm32f1xx_hal_dma.c
   4:Drivers/STM32F1xx_HAL_Driver/Src/stm32f1xx_hal_dma.c ****   * @author  MCD Application Team
   5:Drivers/STM32F1xx_HAL_Driver/Src/stm32f1xx_hal_dma.c ****   * @brief   DMA HAL module driver.
   6:Drivers/STM32F1xx_HAL_Driver/Src/stm32f1xx_hal_dma.c ****   *         This file provides firmware functions to manage the following
   7:Drivers/STM32F1xx_HAL_Driver/Src/stm32f1xx_hal_dma.c ****   *         functionalities of the Direct Memory Access (DMA) peripheral:
   8:Drivers/STM32F1xx_HAL_Driver/Src/stm32f1xx_hal_dma.c ****   *           + Initialization and de-initialization functions
   9:Drivers/STM32F1xx_HAL_Driver/Src/stm32f1xx_hal_dma.c ****   *           + IO operation functions
  10:Drivers/STM32F1xx_HAL_Driver/Src/stm32f1xx_hal_dma.c ****   *           + Peripheral State and errors functions
  11:Drivers/STM32F1xx_HAL_Driver/Src/stm32f1xx_hal_dma.c ****   @verbatim
  12:Drivers/STM32F1xx_HAL_Driver/Src/stm32f1xx_hal_dma.c ****   ==============================================================================
  13:Drivers/STM32F1xx_HAL_Driver/Src/stm32f1xx_hal_dma.c ****                         ##### How to use this driver #####
  14:Drivers/STM32F1xx_HAL_Driver/Src/stm32f1xx_hal_dma.c ****   ==============================================================================
  15:Drivers/STM32F1xx_HAL_Driver/Src/stm32f1xx_hal_dma.c ****   [..]
  16:Drivers/STM32F1xx_HAL_Driver/Src/stm32f1xx_hal_dma.c ****    (#) Enable and configure the peripheral to be connected to the DMA Channel
  17:Drivers/STM32F1xx_HAL_Driver/Src/stm32f1xx_hal_dma.c ****        (except for internal SRAM / FLASH memories: no initialization is 
  18:Drivers/STM32F1xx_HAL_Driver/Src/stm32f1xx_hal_dma.c ****        necessary). Please refer to the Reference manual for connection between peripherals
  19:Drivers/STM32F1xx_HAL_Driver/Src/stm32f1xx_hal_dma.c ****        and DMA requests.
  20:Drivers/STM32F1xx_HAL_Driver/Src/stm32f1xx_hal_dma.c **** 
  21:Drivers/STM32F1xx_HAL_Driver/Src/stm32f1xx_hal_dma.c ****    (#) For a given Channel, program the required configuration through the following parameters:
  22:Drivers/STM32F1xx_HAL_Driver/Src/stm32f1xx_hal_dma.c ****        Channel request, Transfer Direction, Source and Destination data formats,
  23:Drivers/STM32F1xx_HAL_Driver/Src/stm32f1xx_hal_dma.c ****        Circular or Normal mode, Channel Priority level, Source and Destination Increment mode
  24:Drivers/STM32F1xx_HAL_Driver/Src/stm32f1xx_hal_dma.c ****        using HAL_DMA_Init() function.
  25:Drivers/STM32F1xx_HAL_Driver/Src/stm32f1xx_hal_dma.c **** 
  26:Drivers/STM32F1xx_HAL_Driver/Src/stm32f1xx_hal_dma.c ****    (#) Use HAL_DMA_GetState() function to return the DMA state and HAL_DMA_GetError() in case of er
  27:Drivers/STM32F1xx_HAL_Driver/Src/stm32f1xx_hal_dma.c ****        detection.
  28:Drivers/STM32F1xx_HAL_Driver/Src/stm32f1xx_hal_dma.c ****                     
  29:Drivers/STM32F1xx_HAL_Driver/Src/stm32f1xx_hal_dma.c ****    (#) Use HAL_DMA_Abort() function to abort the current transfer
  30:Drivers/STM32F1xx_HAL_Driver/Src/stm32f1xx_hal_dma.c ****                    
  31:Drivers/STM32F1xx_HAL_Driver/Src/stm32f1xx_hal_dma.c ****      -@-   In Memory-to-Memory transfer mode, Circular mode is not allowed.
  32:Drivers/STM32F1xx_HAL_Driver/Src/stm32f1xx_hal_dma.c ****      *** Polling mode IO operation ***
ARM GAS  /var/folders/rf/wfq6hz5s56g3yh4wqgd7820c0000gn/T//ccCQD8Z0.s 			page 2


  33:Drivers/STM32F1xx_HAL_Driver/Src/stm32f1xx_hal_dma.c ****      =================================
  34:Drivers/STM32F1xx_HAL_Driver/Src/stm32f1xx_hal_dma.c ****     [..]
  35:Drivers/STM32F1xx_HAL_Driver/Src/stm32f1xx_hal_dma.c ****           (+) Use HAL_DMA_Start() to start DMA transfer after the configuration of Source
  36:Drivers/STM32F1xx_HAL_Driver/Src/stm32f1xx_hal_dma.c ****               address and destination address and the Length of data to be transferred
  37:Drivers/STM32F1xx_HAL_Driver/Src/stm32f1xx_hal_dma.c ****           (+) Use HAL_DMA_PollForTransfer() to poll for the end of current transfer, in this
  38:Drivers/STM32F1xx_HAL_Driver/Src/stm32f1xx_hal_dma.c ****               case a fixed Timeout can be configured by User depending from his application.
  39:Drivers/STM32F1xx_HAL_Driver/Src/stm32f1xx_hal_dma.c **** 
  40:Drivers/STM32F1xx_HAL_Driver/Src/stm32f1xx_hal_dma.c ****      *** Interrupt mode IO operation ***
  41:Drivers/STM32F1xx_HAL_Driver/Src/stm32f1xx_hal_dma.c ****      ===================================
  42:Drivers/STM32F1xx_HAL_Driver/Src/stm32f1xx_hal_dma.c ****     [..]
  43:Drivers/STM32F1xx_HAL_Driver/Src/stm32f1xx_hal_dma.c ****           (+) Configure the DMA interrupt priority using HAL_NVIC_SetPriority()
  44:Drivers/STM32F1xx_HAL_Driver/Src/stm32f1xx_hal_dma.c ****           (+) Enable the DMA IRQ handler using HAL_NVIC_EnableIRQ()
  45:Drivers/STM32F1xx_HAL_Driver/Src/stm32f1xx_hal_dma.c ****           (+) Use HAL_DMA_Start_IT() to start DMA transfer after the configuration of
  46:Drivers/STM32F1xx_HAL_Driver/Src/stm32f1xx_hal_dma.c ****               Source address and destination address and the Length of data to be transferred.
  47:Drivers/STM32F1xx_HAL_Driver/Src/stm32f1xx_hal_dma.c ****               In this case the DMA interrupt is configured
  48:Drivers/STM32F1xx_HAL_Driver/Src/stm32f1xx_hal_dma.c ****           (+) Use HAL_DMA_IRQHandler() called under DMA_IRQHandler() Interrupt subroutine
  49:Drivers/STM32F1xx_HAL_Driver/Src/stm32f1xx_hal_dma.c ****           (+) At the end of data transfer HAL_DMA_IRQHandler() function is executed and user can
  50:Drivers/STM32F1xx_HAL_Driver/Src/stm32f1xx_hal_dma.c ****               add his own function by customization of function pointer XferCpltCallback and
  51:Drivers/STM32F1xx_HAL_Driver/Src/stm32f1xx_hal_dma.c ****               XferErrorCallback (i.e. a member of DMA handle structure).
  52:Drivers/STM32F1xx_HAL_Driver/Src/stm32f1xx_hal_dma.c **** 
  53:Drivers/STM32F1xx_HAL_Driver/Src/stm32f1xx_hal_dma.c ****      *** DMA HAL driver macros list ***
  54:Drivers/STM32F1xx_HAL_Driver/Src/stm32f1xx_hal_dma.c ****      ============================================= 
  55:Drivers/STM32F1xx_HAL_Driver/Src/stm32f1xx_hal_dma.c ****       [..]
  56:Drivers/STM32F1xx_HAL_Driver/Src/stm32f1xx_hal_dma.c ****        Below the list of most used macros in DMA HAL driver.
  57:Drivers/STM32F1xx_HAL_Driver/Src/stm32f1xx_hal_dma.c **** 
  58:Drivers/STM32F1xx_HAL_Driver/Src/stm32f1xx_hal_dma.c ****        (+) __HAL_DMA_ENABLE: Enable the specified DMA Channel.
  59:Drivers/STM32F1xx_HAL_Driver/Src/stm32f1xx_hal_dma.c ****        (+) __HAL_DMA_DISABLE: Disable the specified DMA Channel.
  60:Drivers/STM32F1xx_HAL_Driver/Src/stm32f1xx_hal_dma.c ****        (+) __HAL_DMA_GET_FLAG: Get the DMA Channel pending flags.
  61:Drivers/STM32F1xx_HAL_Driver/Src/stm32f1xx_hal_dma.c ****        (+) __HAL_DMA_CLEAR_FLAG: Clear the DMA Channel pending flags.
  62:Drivers/STM32F1xx_HAL_Driver/Src/stm32f1xx_hal_dma.c ****        (+) __HAL_DMA_ENABLE_IT: Enable the specified DMA Channel interrupts.
  63:Drivers/STM32F1xx_HAL_Driver/Src/stm32f1xx_hal_dma.c ****        (+) __HAL_DMA_DISABLE_IT: Disable the specified DMA Channel interrupts.
  64:Drivers/STM32F1xx_HAL_Driver/Src/stm32f1xx_hal_dma.c ****        (+) __HAL_DMA_GET_IT_SOURCE: Check whether the specified DMA Channel interrupt has occurred 
  65:Drivers/STM32F1xx_HAL_Driver/Src/stm32f1xx_hal_dma.c **** 
  66:Drivers/STM32F1xx_HAL_Driver/Src/stm32f1xx_hal_dma.c ****      [..] 
  67:Drivers/STM32F1xx_HAL_Driver/Src/stm32f1xx_hal_dma.c ****       (@) You can refer to the DMA HAL driver header file for more useful macros  
  68:Drivers/STM32F1xx_HAL_Driver/Src/stm32f1xx_hal_dma.c **** 
  69:Drivers/STM32F1xx_HAL_Driver/Src/stm32f1xx_hal_dma.c ****   @endverbatim
  70:Drivers/STM32F1xx_HAL_Driver/Src/stm32f1xx_hal_dma.c ****   ******************************************************************************
  71:Drivers/STM32F1xx_HAL_Driver/Src/stm32f1xx_hal_dma.c ****   * @attention
  72:Drivers/STM32F1xx_HAL_Driver/Src/stm32f1xx_hal_dma.c ****   *
  73:Drivers/STM32F1xx_HAL_Driver/Src/stm32f1xx_hal_dma.c ****   * <h2><center>&copy; COPYRIGHT(c) 2017 STMicroelectronics</center></h2>
  74:Drivers/STM32F1xx_HAL_Driver/Src/stm32f1xx_hal_dma.c ****   *
  75:Drivers/STM32F1xx_HAL_Driver/Src/stm32f1xx_hal_dma.c ****   * Redistribution and use in source and binary forms, with or without modification,
  76:Drivers/STM32F1xx_HAL_Driver/Src/stm32f1xx_hal_dma.c ****   * are permitted provided that the following conditions are met:
  77:Drivers/STM32F1xx_HAL_Driver/Src/stm32f1xx_hal_dma.c ****   *   1. Redistributions of source code must retain the above copyright notice,
  78:Drivers/STM32F1xx_HAL_Driver/Src/stm32f1xx_hal_dma.c ****   *      this list of conditions and the following disclaimer.
  79:Drivers/STM32F1xx_HAL_Driver/Src/stm32f1xx_hal_dma.c ****   *   2. Redistributions in binary form must reproduce the above copyright notice,
  80:Drivers/STM32F1xx_HAL_Driver/Src/stm32f1xx_hal_dma.c ****   *      this list of conditions and the following disclaimer in the documentation
  81:Drivers/STM32F1xx_HAL_Driver/Src/stm32f1xx_hal_dma.c ****   *      and/or other materials provided with the distribution.
  82:Drivers/STM32F1xx_HAL_Driver/Src/stm32f1xx_hal_dma.c ****   *   3. Neither the name of STMicroelectronics nor the names of its contributors
  83:Drivers/STM32F1xx_HAL_Driver/Src/stm32f1xx_hal_dma.c ****   *      may be used to endorse or promote products derived from this software
  84:Drivers/STM32F1xx_HAL_Driver/Src/stm32f1xx_hal_dma.c ****   *      without specific prior written permission.
  85:Drivers/STM32F1xx_HAL_Driver/Src/stm32f1xx_hal_dma.c ****   *
  86:Drivers/STM32F1xx_HAL_Driver/Src/stm32f1xx_hal_dma.c ****   * THIS SOFTWARE IS PROVIDED BY THE COPYRIGHT HOLDERS AND CONTRIBUTORS "AS IS"
  87:Drivers/STM32F1xx_HAL_Driver/Src/stm32f1xx_hal_dma.c ****   * AND ANY EXPRESS OR IMPLIED WARRANTIES, INCLUDING, BUT NOT LIMITED TO, THE
  88:Drivers/STM32F1xx_HAL_Driver/Src/stm32f1xx_hal_dma.c ****   * IMPLIED WARRANTIES OF MERCHANTABILITY AND FITNESS FOR A PARTICULAR PURPOSE ARE
  89:Drivers/STM32F1xx_HAL_Driver/Src/stm32f1xx_hal_dma.c ****   * DISCLAIMED. IN NO EVENT SHALL THE COPYRIGHT HOLDER OR CONTRIBUTORS BE LIABLE
ARM GAS  /var/folders/rf/wfq6hz5s56g3yh4wqgd7820c0000gn/T//ccCQD8Z0.s 			page 3


  90:Drivers/STM32F1xx_HAL_Driver/Src/stm32f1xx_hal_dma.c ****   * FOR ANY DIRECT, INDIRECT, INCIDENTAL, SPECIAL, EXEMPLARY, OR CONSEQUENTIAL
  91:Drivers/STM32F1xx_HAL_Driver/Src/stm32f1xx_hal_dma.c ****   * DAMAGES (INCLUDING, BUT NOT LIMITED TO, PROCUREMENT OF SUBSTITUTE GOODS OR
  92:Drivers/STM32F1xx_HAL_Driver/Src/stm32f1xx_hal_dma.c ****   * SERVICES; LOSS OF USE, DATA, OR PROFITS; OR BUSINESS INTERRUPTION) HOWEVER
  93:Drivers/STM32F1xx_HAL_Driver/Src/stm32f1xx_hal_dma.c ****   * CAUSED AND ON ANY THEORY OF LIABILITY, WHETHER IN CONTRACT, STRICT LIABILITY,
  94:Drivers/STM32F1xx_HAL_Driver/Src/stm32f1xx_hal_dma.c ****   * OR TORT (INCLUDING NEGLIGENCE OR OTHERWISE) ARISING IN ANY WAY OUT OF THE USE
  95:Drivers/STM32F1xx_HAL_Driver/Src/stm32f1xx_hal_dma.c ****   * OF THIS SOFTWARE, EVEN IF ADVISED OF THE POSSIBILITY OF SUCH DAMAGE.
  96:Drivers/STM32F1xx_HAL_Driver/Src/stm32f1xx_hal_dma.c ****   *
  97:Drivers/STM32F1xx_HAL_Driver/Src/stm32f1xx_hal_dma.c ****   ******************************************************************************
  98:Drivers/STM32F1xx_HAL_Driver/Src/stm32f1xx_hal_dma.c ****   */
  99:Drivers/STM32F1xx_HAL_Driver/Src/stm32f1xx_hal_dma.c **** 
 100:Drivers/STM32F1xx_HAL_Driver/Src/stm32f1xx_hal_dma.c **** /* Includes ------------------------------------------------------------------*/
 101:Drivers/STM32F1xx_HAL_Driver/Src/stm32f1xx_hal_dma.c **** #include "stm32f1xx_hal.h"
 102:Drivers/STM32F1xx_HAL_Driver/Src/stm32f1xx_hal_dma.c **** 
 103:Drivers/STM32F1xx_HAL_Driver/Src/stm32f1xx_hal_dma.c **** /** @addtogroup STM32F1xx_HAL_Driver
 104:Drivers/STM32F1xx_HAL_Driver/Src/stm32f1xx_hal_dma.c ****   * @{
 105:Drivers/STM32F1xx_HAL_Driver/Src/stm32f1xx_hal_dma.c ****   */
 106:Drivers/STM32F1xx_HAL_Driver/Src/stm32f1xx_hal_dma.c **** 
 107:Drivers/STM32F1xx_HAL_Driver/Src/stm32f1xx_hal_dma.c **** /** @defgroup DMA DMA
 108:Drivers/STM32F1xx_HAL_Driver/Src/stm32f1xx_hal_dma.c ****   * @brief DMA HAL module driver
 109:Drivers/STM32F1xx_HAL_Driver/Src/stm32f1xx_hal_dma.c ****   * @{
 110:Drivers/STM32F1xx_HAL_Driver/Src/stm32f1xx_hal_dma.c ****   */
 111:Drivers/STM32F1xx_HAL_Driver/Src/stm32f1xx_hal_dma.c **** 
 112:Drivers/STM32F1xx_HAL_Driver/Src/stm32f1xx_hal_dma.c **** #ifdef HAL_DMA_MODULE_ENABLED
 113:Drivers/STM32F1xx_HAL_Driver/Src/stm32f1xx_hal_dma.c **** 
 114:Drivers/STM32F1xx_HAL_Driver/Src/stm32f1xx_hal_dma.c **** /* Private typedef -----------------------------------------------------------*/
 115:Drivers/STM32F1xx_HAL_Driver/Src/stm32f1xx_hal_dma.c **** /* Private define ------------------------------------------------------------*/
 116:Drivers/STM32F1xx_HAL_Driver/Src/stm32f1xx_hal_dma.c **** /* Private macro -------------------------------------------------------------*/
 117:Drivers/STM32F1xx_HAL_Driver/Src/stm32f1xx_hal_dma.c **** /* Private variables ---------------------------------------------------------*/
 118:Drivers/STM32F1xx_HAL_Driver/Src/stm32f1xx_hal_dma.c **** /* Private function prototypes -----------------------------------------------*/
 119:Drivers/STM32F1xx_HAL_Driver/Src/stm32f1xx_hal_dma.c **** /** @defgroup DMA_Private_Functions DMA Private Functions
 120:Drivers/STM32F1xx_HAL_Driver/Src/stm32f1xx_hal_dma.c ****   * @{
 121:Drivers/STM32F1xx_HAL_Driver/Src/stm32f1xx_hal_dma.c ****   */
 122:Drivers/STM32F1xx_HAL_Driver/Src/stm32f1xx_hal_dma.c **** static void DMA_SetConfig(DMA_HandleTypeDef *hdma, uint32_t SrcAddress, uint32_t DstAddress, uint32
 123:Drivers/STM32F1xx_HAL_Driver/Src/stm32f1xx_hal_dma.c **** /**
 124:Drivers/STM32F1xx_HAL_Driver/Src/stm32f1xx_hal_dma.c ****   * @}
 125:Drivers/STM32F1xx_HAL_Driver/Src/stm32f1xx_hal_dma.c ****   */
 126:Drivers/STM32F1xx_HAL_Driver/Src/stm32f1xx_hal_dma.c **** 
 127:Drivers/STM32F1xx_HAL_Driver/Src/stm32f1xx_hal_dma.c **** /* Exported functions ---------------------------------------------------------*/
 128:Drivers/STM32F1xx_HAL_Driver/Src/stm32f1xx_hal_dma.c **** 
 129:Drivers/STM32F1xx_HAL_Driver/Src/stm32f1xx_hal_dma.c **** /** @defgroup DMA_Exported_Functions DMA Exported Functions
 130:Drivers/STM32F1xx_HAL_Driver/Src/stm32f1xx_hal_dma.c ****   * @{
 131:Drivers/STM32F1xx_HAL_Driver/Src/stm32f1xx_hal_dma.c ****   */
 132:Drivers/STM32F1xx_HAL_Driver/Src/stm32f1xx_hal_dma.c **** 
 133:Drivers/STM32F1xx_HAL_Driver/Src/stm32f1xx_hal_dma.c **** /** @defgroup DMA_Exported_Functions_Group1 Initialization and de-initialization functions
 134:Drivers/STM32F1xx_HAL_Driver/Src/stm32f1xx_hal_dma.c ****   *  @brief   Initialization and de-initialization functions 
 135:Drivers/STM32F1xx_HAL_Driver/Src/stm32f1xx_hal_dma.c ****   *
 136:Drivers/STM32F1xx_HAL_Driver/Src/stm32f1xx_hal_dma.c **** @verbatim
 137:Drivers/STM32F1xx_HAL_Driver/Src/stm32f1xx_hal_dma.c ****  ===============================================================================
 138:Drivers/STM32F1xx_HAL_Driver/Src/stm32f1xx_hal_dma.c ****              ##### Initialization and de-initialization functions  #####
 139:Drivers/STM32F1xx_HAL_Driver/Src/stm32f1xx_hal_dma.c ****  ===============================================================================
 140:Drivers/STM32F1xx_HAL_Driver/Src/stm32f1xx_hal_dma.c ****     [..]
 141:Drivers/STM32F1xx_HAL_Driver/Src/stm32f1xx_hal_dma.c ****     This section provides functions allowing to initialize the DMA Channel source
 142:Drivers/STM32F1xx_HAL_Driver/Src/stm32f1xx_hal_dma.c ****     and destination addresses, incrementation and data sizes, transfer direction, 
 143:Drivers/STM32F1xx_HAL_Driver/Src/stm32f1xx_hal_dma.c ****     circular/normal mode selection, memory-to-memory mode selection and Channel priority value.
 144:Drivers/STM32F1xx_HAL_Driver/Src/stm32f1xx_hal_dma.c ****     [..]
 145:Drivers/STM32F1xx_HAL_Driver/Src/stm32f1xx_hal_dma.c ****     The HAL_DMA_Init() function follows the DMA configuration procedures as described in
 146:Drivers/STM32F1xx_HAL_Driver/Src/stm32f1xx_hal_dma.c ****     reference manual.  
ARM GAS  /var/folders/rf/wfq6hz5s56g3yh4wqgd7820c0000gn/T//ccCQD8Z0.s 			page 4


 147:Drivers/STM32F1xx_HAL_Driver/Src/stm32f1xx_hal_dma.c **** 
 148:Drivers/STM32F1xx_HAL_Driver/Src/stm32f1xx_hal_dma.c **** @endverbatim
 149:Drivers/STM32F1xx_HAL_Driver/Src/stm32f1xx_hal_dma.c ****   * @{
 150:Drivers/STM32F1xx_HAL_Driver/Src/stm32f1xx_hal_dma.c ****   */
 151:Drivers/STM32F1xx_HAL_Driver/Src/stm32f1xx_hal_dma.c **** 
 152:Drivers/STM32F1xx_HAL_Driver/Src/stm32f1xx_hal_dma.c **** /**
 153:Drivers/STM32F1xx_HAL_Driver/Src/stm32f1xx_hal_dma.c ****   * @brief  Initialize the DMA according to the specified
 154:Drivers/STM32F1xx_HAL_Driver/Src/stm32f1xx_hal_dma.c ****   *         parameters in the DMA_InitTypeDef and initialize the associated handle.
 155:Drivers/STM32F1xx_HAL_Driver/Src/stm32f1xx_hal_dma.c ****   * @param  hdma: Pointer to a DMA_HandleTypeDef structure that contains
 156:Drivers/STM32F1xx_HAL_Driver/Src/stm32f1xx_hal_dma.c ****   *               the configuration information for the specified DMA Channel.
 157:Drivers/STM32F1xx_HAL_Driver/Src/stm32f1xx_hal_dma.c ****   * @retval HAL status
 158:Drivers/STM32F1xx_HAL_Driver/Src/stm32f1xx_hal_dma.c ****   */
 159:Drivers/STM32F1xx_HAL_Driver/Src/stm32f1xx_hal_dma.c **** HAL_StatusTypeDef HAL_DMA_Init(DMA_HandleTypeDef *hdma)
 160:Drivers/STM32F1xx_HAL_Driver/Src/stm32f1xx_hal_dma.c **** {
 161:Drivers/STM32F1xx_HAL_Driver/Src/stm32f1xx_hal_dma.c ****   uint32_t tmp = 0U;
 162:Drivers/STM32F1xx_HAL_Driver/Src/stm32f1xx_hal_dma.c **** 
 163:Drivers/STM32F1xx_HAL_Driver/Src/stm32f1xx_hal_dma.c ****   /* Check the DMA handle allocation */
 164:Drivers/STM32F1xx_HAL_Driver/Src/stm32f1xx_hal_dma.c ****   if(hdma == NULL)
 165:Drivers/STM32F1xx_HAL_Driver/Src/stm32f1xx_hal_dma.c ****   {
 166:Drivers/STM32F1xx_HAL_Driver/Src/stm32f1xx_hal_dma.c ****     return HAL_ERROR;
 167:Drivers/STM32F1xx_HAL_Driver/Src/stm32f1xx_hal_dma.c ****   }
 168:Drivers/STM32F1xx_HAL_Driver/Src/stm32f1xx_hal_dma.c **** 
 169:Drivers/STM32F1xx_HAL_Driver/Src/stm32f1xx_hal_dma.c ****   /* Check the parameters */
 170:Drivers/STM32F1xx_HAL_Driver/Src/stm32f1xx_hal_dma.c ****   assert_param(IS_DMA_ALL_INSTANCE(hdma->Instance));
 171:Drivers/STM32F1xx_HAL_Driver/Src/stm32f1xx_hal_dma.c ****   assert_param(IS_DMA_DIRECTION(hdma->Init.Direction));
 172:Drivers/STM32F1xx_HAL_Driver/Src/stm32f1xx_hal_dma.c ****   assert_param(IS_DMA_PERIPHERAL_INC_STATE(hdma->Init.PeriphInc));
 173:Drivers/STM32F1xx_HAL_Driver/Src/stm32f1xx_hal_dma.c ****   assert_param(IS_DMA_MEMORY_INC_STATE(hdma->Init.MemInc));
 174:Drivers/STM32F1xx_HAL_Driver/Src/stm32f1xx_hal_dma.c ****   assert_param(IS_DMA_PERIPHERAL_DATA_SIZE(hdma->Init.PeriphDataAlignment));
 175:Drivers/STM32F1xx_HAL_Driver/Src/stm32f1xx_hal_dma.c ****   assert_param(IS_DMA_MEMORY_DATA_SIZE(hdma->Init.MemDataAlignment));
 176:Drivers/STM32F1xx_HAL_Driver/Src/stm32f1xx_hal_dma.c ****   assert_param(IS_DMA_MODE(hdma->Init.Mode));
 177:Drivers/STM32F1xx_HAL_Driver/Src/stm32f1xx_hal_dma.c ****   assert_param(IS_DMA_PRIORITY(hdma->Init.Priority));
 178:Drivers/STM32F1xx_HAL_Driver/Src/stm32f1xx_hal_dma.c **** 
 179:Drivers/STM32F1xx_HAL_Driver/Src/stm32f1xx_hal_dma.c **** #if defined (STM32F101xE) || defined (STM32F101xG) || defined (STM32F103xE) || defined (STM32F103xG
 180:Drivers/STM32F1xx_HAL_Driver/Src/stm32f1xx_hal_dma.c ****   /* calculation of the channel index */
 181:Drivers/STM32F1xx_HAL_Driver/Src/stm32f1xx_hal_dma.c ****   if ((uint32_t)(hdma->Instance) < (uint32_t)(DMA2_Channel1))
 182:Drivers/STM32F1xx_HAL_Driver/Src/stm32f1xx_hal_dma.c ****   {
 183:Drivers/STM32F1xx_HAL_Driver/Src/stm32f1xx_hal_dma.c ****     /* DMA1 */
 184:Drivers/STM32F1xx_HAL_Driver/Src/stm32f1xx_hal_dma.c ****     hdma->ChannelIndex = (((uint32_t)hdma->Instance - (uint32_t)DMA1_Channel1) / ((uint32_t)DMA1_Ch
 185:Drivers/STM32F1xx_HAL_Driver/Src/stm32f1xx_hal_dma.c ****     hdma->DmaBaseAddress = DMA1;
 186:Drivers/STM32F1xx_HAL_Driver/Src/stm32f1xx_hal_dma.c ****   }
 187:Drivers/STM32F1xx_HAL_Driver/Src/stm32f1xx_hal_dma.c ****   else 
 188:Drivers/STM32F1xx_HAL_Driver/Src/stm32f1xx_hal_dma.c ****   {
 189:Drivers/STM32F1xx_HAL_Driver/Src/stm32f1xx_hal_dma.c ****     /* DMA2 */
 190:Drivers/STM32F1xx_HAL_Driver/Src/stm32f1xx_hal_dma.c ****     hdma->ChannelIndex = (((uint32_t)hdma->Instance - (uint32_t)DMA2_Channel1) / ((uint32_t)DMA2_Ch
 191:Drivers/STM32F1xx_HAL_Driver/Src/stm32f1xx_hal_dma.c ****     hdma->DmaBaseAddress = DMA2;
 192:Drivers/STM32F1xx_HAL_Driver/Src/stm32f1xx_hal_dma.c ****   }
 193:Drivers/STM32F1xx_HAL_Driver/Src/stm32f1xx_hal_dma.c **** #else
 194:Drivers/STM32F1xx_HAL_Driver/Src/stm32f1xx_hal_dma.c ****   /* DMA1 */
 195:Drivers/STM32F1xx_HAL_Driver/Src/stm32f1xx_hal_dma.c ****   hdma->ChannelIndex = (((uint32_t)hdma->Instance - (uint32_t)DMA1_Channel1) / ((uint32_t)DMA1_Chan
 196:Drivers/STM32F1xx_HAL_Driver/Src/stm32f1xx_hal_dma.c ****   hdma->DmaBaseAddress = DMA1;
 197:Drivers/STM32F1xx_HAL_Driver/Src/stm32f1xx_hal_dma.c **** #endif /* STM32F101xE || STM32F101xG || STM32F103xE || STM32F103xG || STM32F100xE || STM32F105xC ||
 198:Drivers/STM32F1xx_HAL_Driver/Src/stm32f1xx_hal_dma.c **** 
 199:Drivers/STM32F1xx_HAL_Driver/Src/stm32f1xx_hal_dma.c ****   /* Change DMA peripheral state */
 200:Drivers/STM32F1xx_HAL_Driver/Src/stm32f1xx_hal_dma.c ****   hdma->State = HAL_DMA_STATE_BUSY;
 201:Drivers/STM32F1xx_HAL_Driver/Src/stm32f1xx_hal_dma.c **** 
 202:Drivers/STM32F1xx_HAL_Driver/Src/stm32f1xx_hal_dma.c ****   /* Get the CR register value */
 203:Drivers/STM32F1xx_HAL_Driver/Src/stm32f1xx_hal_dma.c ****   tmp = hdma->Instance->CCR;
ARM GAS  /var/folders/rf/wfq6hz5s56g3yh4wqgd7820c0000gn/T//ccCQD8Z0.s 			page 5


 204:Drivers/STM32F1xx_HAL_Driver/Src/stm32f1xx_hal_dma.c **** 
 205:Drivers/STM32F1xx_HAL_Driver/Src/stm32f1xx_hal_dma.c ****   /* Clear PL, MSIZE, PSIZE, MINC, PINC, CIRC and DIR bits */
 206:Drivers/STM32F1xx_HAL_Driver/Src/stm32f1xx_hal_dma.c ****   tmp &= ((uint32_t)~(DMA_CCR_PL    | DMA_CCR_MSIZE  | DMA_CCR_PSIZE  | \
 207:Drivers/STM32F1xx_HAL_Driver/Src/stm32f1xx_hal_dma.c ****                       DMA_CCR_MINC  | DMA_CCR_PINC   | DMA_CCR_CIRC   | \
 208:Drivers/STM32F1xx_HAL_Driver/Src/stm32f1xx_hal_dma.c ****                       DMA_CCR_DIR));
 209:Drivers/STM32F1xx_HAL_Driver/Src/stm32f1xx_hal_dma.c **** 
 210:Drivers/STM32F1xx_HAL_Driver/Src/stm32f1xx_hal_dma.c ****   /* Prepare the DMA Channel configuration */
 211:Drivers/STM32F1xx_HAL_Driver/Src/stm32f1xx_hal_dma.c ****   tmp |=  hdma->Init.Direction        |
 212:Drivers/STM32F1xx_HAL_Driver/Src/stm32f1xx_hal_dma.c ****           hdma->Init.PeriphInc           | hdma->Init.MemInc           |
 213:Drivers/STM32F1xx_HAL_Driver/Src/stm32f1xx_hal_dma.c ****           hdma->Init.PeriphDataAlignment | hdma->Init.MemDataAlignment |
 214:Drivers/STM32F1xx_HAL_Driver/Src/stm32f1xx_hal_dma.c ****           hdma->Init.Mode                | hdma->Init.Priority;
 215:Drivers/STM32F1xx_HAL_Driver/Src/stm32f1xx_hal_dma.c **** 
 216:Drivers/STM32F1xx_HAL_Driver/Src/stm32f1xx_hal_dma.c ****   /* Write to DMA Channel CR register */
 217:Drivers/STM32F1xx_HAL_Driver/Src/stm32f1xx_hal_dma.c ****   hdma->Instance->CCR = tmp;
 218:Drivers/STM32F1xx_HAL_Driver/Src/stm32f1xx_hal_dma.c **** 
 219:Drivers/STM32F1xx_HAL_Driver/Src/stm32f1xx_hal_dma.c **** 
 220:Drivers/STM32F1xx_HAL_Driver/Src/stm32f1xx_hal_dma.c ****   /* Clean callbacks */
 221:Drivers/STM32F1xx_HAL_Driver/Src/stm32f1xx_hal_dma.c ****   hdma->XferCpltCallback = NULL;
 222:Drivers/STM32F1xx_HAL_Driver/Src/stm32f1xx_hal_dma.c ****   hdma->XferHalfCpltCallback = NULL;
 223:Drivers/STM32F1xx_HAL_Driver/Src/stm32f1xx_hal_dma.c ****   hdma->XferErrorCallback = NULL;
 224:Drivers/STM32F1xx_HAL_Driver/Src/stm32f1xx_hal_dma.c ****   hdma->XferAbortCallback = NULL;
 225:Drivers/STM32F1xx_HAL_Driver/Src/stm32f1xx_hal_dma.c **** 
 226:Drivers/STM32F1xx_HAL_Driver/Src/stm32f1xx_hal_dma.c ****   /* Initialise the error code */
 227:Drivers/STM32F1xx_HAL_Driver/Src/stm32f1xx_hal_dma.c ****   hdma->ErrorCode = HAL_DMA_ERROR_NONE;
 228:Drivers/STM32F1xx_HAL_Driver/Src/stm32f1xx_hal_dma.c **** 
 229:Drivers/STM32F1xx_HAL_Driver/Src/stm32f1xx_hal_dma.c ****   /* Initialize the DMA state*/
 230:Drivers/STM32F1xx_HAL_Driver/Src/stm32f1xx_hal_dma.c ****   hdma->State = HAL_DMA_STATE_READY;
 231:Drivers/STM32F1xx_HAL_Driver/Src/stm32f1xx_hal_dma.c ****   /* Allocate lock resource and initialize it */
 232:Drivers/STM32F1xx_HAL_Driver/Src/stm32f1xx_hal_dma.c ****   hdma->Lock = HAL_UNLOCKED;
 233:Drivers/STM32F1xx_HAL_Driver/Src/stm32f1xx_hal_dma.c ****   
 234:Drivers/STM32F1xx_HAL_Driver/Src/stm32f1xx_hal_dma.c ****   return HAL_OK;
 235:Drivers/STM32F1xx_HAL_Driver/Src/stm32f1xx_hal_dma.c **** }
 236:Drivers/STM32F1xx_HAL_Driver/Src/stm32f1xx_hal_dma.c **** 
 237:Drivers/STM32F1xx_HAL_Driver/Src/stm32f1xx_hal_dma.c **** /**
 238:Drivers/STM32F1xx_HAL_Driver/Src/stm32f1xx_hal_dma.c ****   * @brief  DeInitialize the DMA peripheral.
 239:Drivers/STM32F1xx_HAL_Driver/Src/stm32f1xx_hal_dma.c ****   * @param  hdma: pointer to a DMA_HandleTypeDef structure that contains
 240:Drivers/STM32F1xx_HAL_Driver/Src/stm32f1xx_hal_dma.c ****   *               the configuration information for the specified DMA Channel.
 241:Drivers/STM32F1xx_HAL_Driver/Src/stm32f1xx_hal_dma.c ****   * @retval HAL status
 242:Drivers/STM32F1xx_HAL_Driver/Src/stm32f1xx_hal_dma.c ****   */
 243:Drivers/STM32F1xx_HAL_Driver/Src/stm32f1xx_hal_dma.c **** HAL_StatusTypeDef HAL_DMA_DeInit(DMA_HandleTypeDef *hdma)
 244:Drivers/STM32F1xx_HAL_Driver/Src/stm32f1xx_hal_dma.c **** {
 245:Drivers/STM32F1xx_HAL_Driver/Src/stm32f1xx_hal_dma.c ****   /* Check the DMA handle allocation */
 246:Drivers/STM32F1xx_HAL_Driver/Src/stm32f1xx_hal_dma.c ****   if(hdma == NULL)
 247:Drivers/STM32F1xx_HAL_Driver/Src/stm32f1xx_hal_dma.c ****   {
 248:Drivers/STM32F1xx_HAL_Driver/Src/stm32f1xx_hal_dma.c ****     return HAL_ERROR;
 249:Drivers/STM32F1xx_HAL_Driver/Src/stm32f1xx_hal_dma.c ****   }
 250:Drivers/STM32F1xx_HAL_Driver/Src/stm32f1xx_hal_dma.c **** 
 251:Drivers/STM32F1xx_HAL_Driver/Src/stm32f1xx_hal_dma.c ****   /* Check the parameters */
 252:Drivers/STM32F1xx_HAL_Driver/Src/stm32f1xx_hal_dma.c ****   assert_param(IS_DMA_ALL_INSTANCE(hdma->Instance));
 253:Drivers/STM32F1xx_HAL_Driver/Src/stm32f1xx_hal_dma.c **** 
 254:Drivers/STM32F1xx_HAL_Driver/Src/stm32f1xx_hal_dma.c ****   /* Disable the selected DMA Channelx */
 255:Drivers/STM32F1xx_HAL_Driver/Src/stm32f1xx_hal_dma.c ****   __HAL_DMA_DISABLE(hdma);
 256:Drivers/STM32F1xx_HAL_Driver/Src/stm32f1xx_hal_dma.c **** 
 257:Drivers/STM32F1xx_HAL_Driver/Src/stm32f1xx_hal_dma.c ****   /* Reset DMA Channel control register */
 258:Drivers/STM32F1xx_HAL_Driver/Src/stm32f1xx_hal_dma.c ****   hdma->Instance->CCR  = 0U;
 259:Drivers/STM32F1xx_HAL_Driver/Src/stm32f1xx_hal_dma.c **** 
 260:Drivers/STM32F1xx_HAL_Driver/Src/stm32f1xx_hal_dma.c ****   /* Reset DMA Channel Number of Data to Transfer register */
ARM GAS  /var/folders/rf/wfq6hz5s56g3yh4wqgd7820c0000gn/T//ccCQD8Z0.s 			page 6


 261:Drivers/STM32F1xx_HAL_Driver/Src/stm32f1xx_hal_dma.c ****   hdma->Instance->CNDTR = 0U;
 262:Drivers/STM32F1xx_HAL_Driver/Src/stm32f1xx_hal_dma.c **** 
 263:Drivers/STM32F1xx_HAL_Driver/Src/stm32f1xx_hal_dma.c ****   /* Reset DMA Channel peripheral address register */
 264:Drivers/STM32F1xx_HAL_Driver/Src/stm32f1xx_hal_dma.c ****   hdma->Instance->CPAR  = 0U;
 265:Drivers/STM32F1xx_HAL_Driver/Src/stm32f1xx_hal_dma.c **** 
 266:Drivers/STM32F1xx_HAL_Driver/Src/stm32f1xx_hal_dma.c ****   /* Reset DMA Channel memory address register */
 267:Drivers/STM32F1xx_HAL_Driver/Src/stm32f1xx_hal_dma.c ****   hdma->Instance->CMAR = 0U;
 268:Drivers/STM32F1xx_HAL_Driver/Src/stm32f1xx_hal_dma.c **** 
 269:Drivers/STM32F1xx_HAL_Driver/Src/stm32f1xx_hal_dma.c **** #if defined (STM32F101xE) || defined (STM32F101xG) || defined (STM32F103xE) || defined (STM32F103xG
 270:Drivers/STM32F1xx_HAL_Driver/Src/stm32f1xx_hal_dma.c ****   /* calculation of the channel index */
 271:Drivers/STM32F1xx_HAL_Driver/Src/stm32f1xx_hal_dma.c ****   if ((uint32_t)(hdma->Instance) < (uint32_t)(DMA2_Channel1))
 272:Drivers/STM32F1xx_HAL_Driver/Src/stm32f1xx_hal_dma.c ****   {
 273:Drivers/STM32F1xx_HAL_Driver/Src/stm32f1xx_hal_dma.c ****     /* DMA1 */
 274:Drivers/STM32F1xx_HAL_Driver/Src/stm32f1xx_hal_dma.c ****     hdma->ChannelIndex = (((uint32_t)hdma->Instance - (uint32_t)DMA1_Channel1) / ((uint32_t)DMA1_Ch
 275:Drivers/STM32F1xx_HAL_Driver/Src/stm32f1xx_hal_dma.c ****     hdma->DmaBaseAddress = DMA1;
 276:Drivers/STM32F1xx_HAL_Driver/Src/stm32f1xx_hal_dma.c ****   }
 277:Drivers/STM32F1xx_HAL_Driver/Src/stm32f1xx_hal_dma.c ****   else 
 278:Drivers/STM32F1xx_HAL_Driver/Src/stm32f1xx_hal_dma.c ****   {
 279:Drivers/STM32F1xx_HAL_Driver/Src/stm32f1xx_hal_dma.c ****     /* DMA2 */
 280:Drivers/STM32F1xx_HAL_Driver/Src/stm32f1xx_hal_dma.c ****     hdma->ChannelIndex = (((uint32_t)hdma->Instance - (uint32_t)DMA2_Channel1) / ((uint32_t)DMA2_Ch
 281:Drivers/STM32F1xx_HAL_Driver/Src/stm32f1xx_hal_dma.c ****     hdma->DmaBaseAddress = DMA2;
 282:Drivers/STM32F1xx_HAL_Driver/Src/stm32f1xx_hal_dma.c ****   }
 283:Drivers/STM32F1xx_HAL_Driver/Src/stm32f1xx_hal_dma.c **** #else
 284:Drivers/STM32F1xx_HAL_Driver/Src/stm32f1xx_hal_dma.c ****   /* DMA1 */
 285:Drivers/STM32F1xx_HAL_Driver/Src/stm32f1xx_hal_dma.c ****   hdma->ChannelIndex = (((uint32_t)hdma->Instance - (uint32_t)DMA1_Channel1) / ((uint32_t)DMA1_Chan
 286:Drivers/STM32F1xx_HAL_Driver/Src/stm32f1xx_hal_dma.c ****   hdma->DmaBaseAddress = DMA1;
 287:Drivers/STM32F1xx_HAL_Driver/Src/stm32f1xx_hal_dma.c **** #endif /* STM32F101xE || STM32F101xG || STM32F103xE || STM32F103xG || STM32F100xE || STM32F105xC ||
 288:Drivers/STM32F1xx_HAL_Driver/Src/stm32f1xx_hal_dma.c **** 
 289:Drivers/STM32F1xx_HAL_Driver/Src/stm32f1xx_hal_dma.c ****   /* Clear all flags */
 290:Drivers/STM32F1xx_HAL_Driver/Src/stm32f1xx_hal_dma.c ****   hdma->DmaBaseAddress->IFCR = (DMA_ISR_GIF1 << (hdma->ChannelIndex));
 291:Drivers/STM32F1xx_HAL_Driver/Src/stm32f1xx_hal_dma.c **** 
 292:Drivers/STM32F1xx_HAL_Driver/Src/stm32f1xx_hal_dma.c ****   /* Initialize the error code */
 293:Drivers/STM32F1xx_HAL_Driver/Src/stm32f1xx_hal_dma.c ****   hdma->ErrorCode = HAL_DMA_ERROR_NONE;
 294:Drivers/STM32F1xx_HAL_Driver/Src/stm32f1xx_hal_dma.c **** 
 295:Drivers/STM32F1xx_HAL_Driver/Src/stm32f1xx_hal_dma.c ****   /* Initialize the DMA state */
 296:Drivers/STM32F1xx_HAL_Driver/Src/stm32f1xx_hal_dma.c ****   hdma->State = HAL_DMA_STATE_RESET;
 297:Drivers/STM32F1xx_HAL_Driver/Src/stm32f1xx_hal_dma.c **** 
 298:Drivers/STM32F1xx_HAL_Driver/Src/stm32f1xx_hal_dma.c ****   /* Release Lock */
 299:Drivers/STM32F1xx_HAL_Driver/Src/stm32f1xx_hal_dma.c ****   __HAL_UNLOCK(hdma);
 300:Drivers/STM32F1xx_HAL_Driver/Src/stm32f1xx_hal_dma.c **** 
 301:Drivers/STM32F1xx_HAL_Driver/Src/stm32f1xx_hal_dma.c ****   return HAL_OK;
 302:Drivers/STM32F1xx_HAL_Driver/Src/stm32f1xx_hal_dma.c **** }
 303:Drivers/STM32F1xx_HAL_Driver/Src/stm32f1xx_hal_dma.c **** 
 304:Drivers/STM32F1xx_HAL_Driver/Src/stm32f1xx_hal_dma.c **** /**
 305:Drivers/STM32F1xx_HAL_Driver/Src/stm32f1xx_hal_dma.c ****   * @}
 306:Drivers/STM32F1xx_HAL_Driver/Src/stm32f1xx_hal_dma.c ****   */
 307:Drivers/STM32F1xx_HAL_Driver/Src/stm32f1xx_hal_dma.c **** 
 308:Drivers/STM32F1xx_HAL_Driver/Src/stm32f1xx_hal_dma.c **** /** @defgroup DMA_Exported_Functions_Group2 Input and Output operation functions
 309:Drivers/STM32F1xx_HAL_Driver/Src/stm32f1xx_hal_dma.c ****   *  @brief   Input and Output operation functions
 310:Drivers/STM32F1xx_HAL_Driver/Src/stm32f1xx_hal_dma.c ****   *
 311:Drivers/STM32F1xx_HAL_Driver/Src/stm32f1xx_hal_dma.c **** @verbatim
 312:Drivers/STM32F1xx_HAL_Driver/Src/stm32f1xx_hal_dma.c ****  ===============================================================================
 313:Drivers/STM32F1xx_HAL_Driver/Src/stm32f1xx_hal_dma.c ****                       #####  IO operation functions  #####
 314:Drivers/STM32F1xx_HAL_Driver/Src/stm32f1xx_hal_dma.c ****  ===============================================================================
 315:Drivers/STM32F1xx_HAL_Driver/Src/stm32f1xx_hal_dma.c ****     [..]  This section provides functions allowing to:
 316:Drivers/STM32F1xx_HAL_Driver/Src/stm32f1xx_hal_dma.c ****       (+) Configure the source, destination address and data length and Start DMA transfer
 317:Drivers/STM32F1xx_HAL_Driver/Src/stm32f1xx_hal_dma.c ****       (+) Configure the source, destination address and data length and
ARM GAS  /var/folders/rf/wfq6hz5s56g3yh4wqgd7820c0000gn/T//ccCQD8Z0.s 			page 7


 318:Drivers/STM32F1xx_HAL_Driver/Src/stm32f1xx_hal_dma.c ****           Start DMA transfer with interrupt
 319:Drivers/STM32F1xx_HAL_Driver/Src/stm32f1xx_hal_dma.c ****       (+) Abort DMA transfer
 320:Drivers/STM32F1xx_HAL_Driver/Src/stm32f1xx_hal_dma.c ****       (+) Poll for transfer complete
 321:Drivers/STM32F1xx_HAL_Driver/Src/stm32f1xx_hal_dma.c ****       (+) Handle DMA interrupt request
 322:Drivers/STM32F1xx_HAL_Driver/Src/stm32f1xx_hal_dma.c **** 
 323:Drivers/STM32F1xx_HAL_Driver/Src/stm32f1xx_hal_dma.c **** @endverbatim
 324:Drivers/STM32F1xx_HAL_Driver/Src/stm32f1xx_hal_dma.c ****   * @{
 325:Drivers/STM32F1xx_HAL_Driver/Src/stm32f1xx_hal_dma.c ****   */
 326:Drivers/STM32F1xx_HAL_Driver/Src/stm32f1xx_hal_dma.c **** 
 327:Drivers/STM32F1xx_HAL_Driver/Src/stm32f1xx_hal_dma.c **** /**
 328:Drivers/STM32F1xx_HAL_Driver/Src/stm32f1xx_hal_dma.c ****   * @brief  Start the DMA Transfer.
 329:Drivers/STM32F1xx_HAL_Driver/Src/stm32f1xx_hal_dma.c ****   * @param  hdma: pointer to a DMA_HandleTypeDef structure that contains
 330:Drivers/STM32F1xx_HAL_Driver/Src/stm32f1xx_hal_dma.c ****   *               the configuration information for the specified DMA Channel.
 331:Drivers/STM32F1xx_HAL_Driver/Src/stm32f1xx_hal_dma.c ****   * @param  SrcAddress: The source memory Buffer address
 332:Drivers/STM32F1xx_HAL_Driver/Src/stm32f1xx_hal_dma.c ****   * @param  DstAddress: The destination memory Buffer address
 333:Drivers/STM32F1xx_HAL_Driver/Src/stm32f1xx_hal_dma.c ****   * @param  DataLength: The length of data to be transferred from source to destination
 334:Drivers/STM32F1xx_HAL_Driver/Src/stm32f1xx_hal_dma.c ****   * @retval HAL status
 335:Drivers/STM32F1xx_HAL_Driver/Src/stm32f1xx_hal_dma.c ****   */
 336:Drivers/STM32F1xx_HAL_Driver/Src/stm32f1xx_hal_dma.c **** HAL_StatusTypeDef HAL_DMA_Start(DMA_HandleTypeDef *hdma, uint32_t SrcAddress, uint32_t DstAddress, 
 337:Drivers/STM32F1xx_HAL_Driver/Src/stm32f1xx_hal_dma.c **** {
 338:Drivers/STM32F1xx_HAL_Driver/Src/stm32f1xx_hal_dma.c ****   HAL_StatusTypeDef status = HAL_OK;
 339:Drivers/STM32F1xx_HAL_Driver/Src/stm32f1xx_hal_dma.c **** 
 340:Drivers/STM32F1xx_HAL_Driver/Src/stm32f1xx_hal_dma.c ****   /* Check the parameters */
 341:Drivers/STM32F1xx_HAL_Driver/Src/stm32f1xx_hal_dma.c ****   assert_param(IS_DMA_BUFFER_SIZE(DataLength));
 342:Drivers/STM32F1xx_HAL_Driver/Src/stm32f1xx_hal_dma.c **** 
 343:Drivers/STM32F1xx_HAL_Driver/Src/stm32f1xx_hal_dma.c ****   /* Process locked */
 344:Drivers/STM32F1xx_HAL_Driver/Src/stm32f1xx_hal_dma.c ****   __HAL_LOCK(hdma);
 345:Drivers/STM32F1xx_HAL_Driver/Src/stm32f1xx_hal_dma.c **** 
 346:Drivers/STM32F1xx_HAL_Driver/Src/stm32f1xx_hal_dma.c ****   if(HAL_DMA_STATE_READY == hdma->State)
 347:Drivers/STM32F1xx_HAL_Driver/Src/stm32f1xx_hal_dma.c ****   {
 348:Drivers/STM32F1xx_HAL_Driver/Src/stm32f1xx_hal_dma.c ****     /* Change DMA peripheral state */
 349:Drivers/STM32F1xx_HAL_Driver/Src/stm32f1xx_hal_dma.c ****     hdma->State = HAL_DMA_STATE_BUSY;
 350:Drivers/STM32F1xx_HAL_Driver/Src/stm32f1xx_hal_dma.c ****     hdma->ErrorCode = HAL_DMA_ERROR_NONE;
 351:Drivers/STM32F1xx_HAL_Driver/Src/stm32f1xx_hal_dma.c ****             
 352:Drivers/STM32F1xx_HAL_Driver/Src/stm32f1xx_hal_dma.c ****     /* Disable the peripheral */
 353:Drivers/STM32F1xx_HAL_Driver/Src/stm32f1xx_hal_dma.c ****     __HAL_DMA_DISABLE(hdma);
 354:Drivers/STM32F1xx_HAL_Driver/Src/stm32f1xx_hal_dma.c ****     
 355:Drivers/STM32F1xx_HAL_Driver/Src/stm32f1xx_hal_dma.c ****     /* Configure the source, destination address and the data length & clear flags*/
 356:Drivers/STM32F1xx_HAL_Driver/Src/stm32f1xx_hal_dma.c ****     DMA_SetConfig(hdma, SrcAddress, DstAddress, DataLength);
 357:Drivers/STM32F1xx_HAL_Driver/Src/stm32f1xx_hal_dma.c ****     
 358:Drivers/STM32F1xx_HAL_Driver/Src/stm32f1xx_hal_dma.c ****     /* Enable the Peripheral */
 359:Drivers/STM32F1xx_HAL_Driver/Src/stm32f1xx_hal_dma.c ****     __HAL_DMA_ENABLE(hdma);
 360:Drivers/STM32F1xx_HAL_Driver/Src/stm32f1xx_hal_dma.c ****   }
 361:Drivers/STM32F1xx_HAL_Driver/Src/stm32f1xx_hal_dma.c ****   else
 362:Drivers/STM32F1xx_HAL_Driver/Src/stm32f1xx_hal_dma.c ****   {
 363:Drivers/STM32F1xx_HAL_Driver/Src/stm32f1xx_hal_dma.c ****    /* Process Unlocked */
 364:Drivers/STM32F1xx_HAL_Driver/Src/stm32f1xx_hal_dma.c ****    __HAL_UNLOCK(hdma);  
 365:Drivers/STM32F1xx_HAL_Driver/Src/stm32f1xx_hal_dma.c ****    status = HAL_BUSY;
 366:Drivers/STM32F1xx_HAL_Driver/Src/stm32f1xx_hal_dma.c ****   }  
 367:Drivers/STM32F1xx_HAL_Driver/Src/stm32f1xx_hal_dma.c ****   return status;
 368:Drivers/STM32F1xx_HAL_Driver/Src/stm32f1xx_hal_dma.c **** }
 369:Drivers/STM32F1xx_HAL_Driver/Src/stm32f1xx_hal_dma.c **** 
 370:Drivers/STM32F1xx_HAL_Driver/Src/stm32f1xx_hal_dma.c **** /**
 371:Drivers/STM32F1xx_HAL_Driver/Src/stm32f1xx_hal_dma.c ****   * @brief  Start the DMA Transfer with interrupt enabled.
 372:Drivers/STM32F1xx_HAL_Driver/Src/stm32f1xx_hal_dma.c ****   * @param  hdma: pointer to a DMA_HandleTypeDef structure that contains
 373:Drivers/STM32F1xx_HAL_Driver/Src/stm32f1xx_hal_dma.c ****   *               the configuration information for the specified DMA Channel.
 374:Drivers/STM32F1xx_HAL_Driver/Src/stm32f1xx_hal_dma.c ****   * @param  SrcAddress: The source memory Buffer address
ARM GAS  /var/folders/rf/wfq6hz5s56g3yh4wqgd7820c0000gn/T//ccCQD8Z0.s 			page 8


 375:Drivers/STM32F1xx_HAL_Driver/Src/stm32f1xx_hal_dma.c ****   * @param  DstAddress: The destination memory Buffer address
 376:Drivers/STM32F1xx_HAL_Driver/Src/stm32f1xx_hal_dma.c ****   * @param  DataLength: The length of data to be transferred from source to destination
 377:Drivers/STM32F1xx_HAL_Driver/Src/stm32f1xx_hal_dma.c ****   * @retval HAL status
 378:Drivers/STM32F1xx_HAL_Driver/Src/stm32f1xx_hal_dma.c ****   */
 379:Drivers/STM32F1xx_HAL_Driver/Src/stm32f1xx_hal_dma.c **** HAL_StatusTypeDef HAL_DMA_Start_IT(DMA_HandleTypeDef *hdma, uint32_t SrcAddress, uint32_t DstAddres
 380:Drivers/STM32F1xx_HAL_Driver/Src/stm32f1xx_hal_dma.c **** {
 381:Drivers/STM32F1xx_HAL_Driver/Src/stm32f1xx_hal_dma.c ****   HAL_StatusTypeDef status = HAL_OK;
 382:Drivers/STM32F1xx_HAL_Driver/Src/stm32f1xx_hal_dma.c **** 
 383:Drivers/STM32F1xx_HAL_Driver/Src/stm32f1xx_hal_dma.c ****   /* Check the parameters */
 384:Drivers/STM32F1xx_HAL_Driver/Src/stm32f1xx_hal_dma.c ****   assert_param(IS_DMA_BUFFER_SIZE(DataLength));
 385:Drivers/STM32F1xx_HAL_Driver/Src/stm32f1xx_hal_dma.c **** 
 386:Drivers/STM32F1xx_HAL_Driver/Src/stm32f1xx_hal_dma.c ****   /* Process locked */
 387:Drivers/STM32F1xx_HAL_Driver/Src/stm32f1xx_hal_dma.c ****   __HAL_LOCK(hdma);
 388:Drivers/STM32F1xx_HAL_Driver/Src/stm32f1xx_hal_dma.c ****   
 389:Drivers/STM32F1xx_HAL_Driver/Src/stm32f1xx_hal_dma.c ****   if(HAL_DMA_STATE_READY == hdma->State)
 390:Drivers/STM32F1xx_HAL_Driver/Src/stm32f1xx_hal_dma.c ****   {
 391:Drivers/STM32F1xx_HAL_Driver/Src/stm32f1xx_hal_dma.c ****     /* Change DMA peripheral state */
 392:Drivers/STM32F1xx_HAL_Driver/Src/stm32f1xx_hal_dma.c ****     hdma->State = HAL_DMA_STATE_BUSY;
 393:Drivers/STM32F1xx_HAL_Driver/Src/stm32f1xx_hal_dma.c ****     hdma->ErrorCode = HAL_DMA_ERROR_NONE;
 394:Drivers/STM32F1xx_HAL_Driver/Src/stm32f1xx_hal_dma.c ****     
 395:Drivers/STM32F1xx_HAL_Driver/Src/stm32f1xx_hal_dma.c ****     /* Disable the peripheral */
 396:Drivers/STM32F1xx_HAL_Driver/Src/stm32f1xx_hal_dma.c ****     __HAL_DMA_DISABLE(hdma);
 397:Drivers/STM32F1xx_HAL_Driver/Src/stm32f1xx_hal_dma.c ****     
 398:Drivers/STM32F1xx_HAL_Driver/Src/stm32f1xx_hal_dma.c ****     /* Configure the source, destination address and the data length & clear flags*/
 399:Drivers/STM32F1xx_HAL_Driver/Src/stm32f1xx_hal_dma.c ****     DMA_SetConfig(hdma, SrcAddress, DstAddress, DataLength);
 400:Drivers/STM32F1xx_HAL_Driver/Src/stm32f1xx_hal_dma.c ****     
 401:Drivers/STM32F1xx_HAL_Driver/Src/stm32f1xx_hal_dma.c ****     /* Enable the transfer complete interrupt */
 402:Drivers/STM32F1xx_HAL_Driver/Src/stm32f1xx_hal_dma.c ****     /* Enable the transfer Error interrupt */
 403:Drivers/STM32F1xx_HAL_Driver/Src/stm32f1xx_hal_dma.c ****     if(NULL != hdma->XferHalfCpltCallback)
 404:Drivers/STM32F1xx_HAL_Driver/Src/stm32f1xx_hal_dma.c ****     {
 405:Drivers/STM32F1xx_HAL_Driver/Src/stm32f1xx_hal_dma.c ****       /* Enable the Half transfer complete interrupt as well */
 406:Drivers/STM32F1xx_HAL_Driver/Src/stm32f1xx_hal_dma.c ****       __HAL_DMA_ENABLE_IT(hdma, (DMA_IT_TC | DMA_IT_HT | DMA_IT_TE));
 407:Drivers/STM32F1xx_HAL_Driver/Src/stm32f1xx_hal_dma.c ****     }
 408:Drivers/STM32F1xx_HAL_Driver/Src/stm32f1xx_hal_dma.c ****     else
 409:Drivers/STM32F1xx_HAL_Driver/Src/stm32f1xx_hal_dma.c ****     {
 410:Drivers/STM32F1xx_HAL_Driver/Src/stm32f1xx_hal_dma.c ****       __HAL_DMA_DISABLE_IT(hdma, DMA_IT_HT);
 411:Drivers/STM32F1xx_HAL_Driver/Src/stm32f1xx_hal_dma.c ****       __HAL_DMA_ENABLE_IT(hdma, (DMA_IT_TC | DMA_IT_TE));
 412:Drivers/STM32F1xx_HAL_Driver/Src/stm32f1xx_hal_dma.c ****     }
 413:Drivers/STM32F1xx_HAL_Driver/Src/stm32f1xx_hal_dma.c ****     /* Enable the Peripheral */
 414:Drivers/STM32F1xx_HAL_Driver/Src/stm32f1xx_hal_dma.c ****     __HAL_DMA_ENABLE(hdma);
 415:Drivers/STM32F1xx_HAL_Driver/Src/stm32f1xx_hal_dma.c ****   }
 416:Drivers/STM32F1xx_HAL_Driver/Src/stm32f1xx_hal_dma.c ****   else
 417:Drivers/STM32F1xx_HAL_Driver/Src/stm32f1xx_hal_dma.c ****   {      
 418:Drivers/STM32F1xx_HAL_Driver/Src/stm32f1xx_hal_dma.c ****     /* Process Unlocked */
 419:Drivers/STM32F1xx_HAL_Driver/Src/stm32f1xx_hal_dma.c ****     __HAL_UNLOCK(hdma); 
 420:Drivers/STM32F1xx_HAL_Driver/Src/stm32f1xx_hal_dma.c **** 
 421:Drivers/STM32F1xx_HAL_Driver/Src/stm32f1xx_hal_dma.c ****     /* Remain BUSY */
 422:Drivers/STM32F1xx_HAL_Driver/Src/stm32f1xx_hal_dma.c ****     status = HAL_BUSY;
 423:Drivers/STM32F1xx_HAL_Driver/Src/stm32f1xx_hal_dma.c ****   }    
 424:Drivers/STM32F1xx_HAL_Driver/Src/stm32f1xx_hal_dma.c ****   return status;
 425:Drivers/STM32F1xx_HAL_Driver/Src/stm32f1xx_hal_dma.c **** }
 426:Drivers/STM32F1xx_HAL_Driver/Src/stm32f1xx_hal_dma.c **** 
 427:Drivers/STM32F1xx_HAL_Driver/Src/stm32f1xx_hal_dma.c **** /**
 428:Drivers/STM32F1xx_HAL_Driver/Src/stm32f1xx_hal_dma.c ****   * @brief  Abort the DMA Transfer.
 429:Drivers/STM32F1xx_HAL_Driver/Src/stm32f1xx_hal_dma.c ****   * @param  hdma: pointer to a DMA_HandleTypeDef structure that contains
 430:Drivers/STM32F1xx_HAL_Driver/Src/stm32f1xx_hal_dma.c ****   *               the configuration information for the specified DMA Channel.
 431:Drivers/STM32F1xx_HAL_Driver/Src/stm32f1xx_hal_dma.c ****   * @retval HAL status
ARM GAS  /var/folders/rf/wfq6hz5s56g3yh4wqgd7820c0000gn/T//ccCQD8Z0.s 			page 9


 432:Drivers/STM32F1xx_HAL_Driver/Src/stm32f1xx_hal_dma.c ****   */
 433:Drivers/STM32F1xx_HAL_Driver/Src/stm32f1xx_hal_dma.c **** HAL_StatusTypeDef HAL_DMA_Abort(DMA_HandleTypeDef *hdma)
 434:Drivers/STM32F1xx_HAL_Driver/Src/stm32f1xx_hal_dma.c **** {
 435:Drivers/STM32F1xx_HAL_Driver/Src/stm32f1xx_hal_dma.c ****   HAL_StatusTypeDef status = HAL_OK;
 436:Drivers/STM32F1xx_HAL_Driver/Src/stm32f1xx_hal_dma.c **** 
 437:Drivers/STM32F1xx_HAL_Driver/Src/stm32f1xx_hal_dma.c ****   /* Disable DMA IT */
 438:Drivers/STM32F1xx_HAL_Driver/Src/stm32f1xx_hal_dma.c ****   __HAL_DMA_DISABLE_IT(hdma, (DMA_IT_TC | DMA_IT_HT | DMA_IT_TE));
 439:Drivers/STM32F1xx_HAL_Driver/Src/stm32f1xx_hal_dma.c ****     
 440:Drivers/STM32F1xx_HAL_Driver/Src/stm32f1xx_hal_dma.c ****   /* Disable the channel */
 441:Drivers/STM32F1xx_HAL_Driver/Src/stm32f1xx_hal_dma.c ****   __HAL_DMA_DISABLE(hdma);
 442:Drivers/STM32F1xx_HAL_Driver/Src/stm32f1xx_hal_dma.c ****     
 443:Drivers/STM32F1xx_HAL_Driver/Src/stm32f1xx_hal_dma.c ****   /* Clear all flags */
 444:Drivers/STM32F1xx_HAL_Driver/Src/stm32f1xx_hal_dma.c ****   hdma->DmaBaseAddress->IFCR = (DMA_ISR_GIF1 << hdma->ChannelIndex);
 445:Drivers/STM32F1xx_HAL_Driver/Src/stm32f1xx_hal_dma.c **** 
 446:Drivers/STM32F1xx_HAL_Driver/Src/stm32f1xx_hal_dma.c ****   /* Change the DMA state */
 447:Drivers/STM32F1xx_HAL_Driver/Src/stm32f1xx_hal_dma.c ****   hdma->State = HAL_DMA_STATE_READY;
 448:Drivers/STM32F1xx_HAL_Driver/Src/stm32f1xx_hal_dma.c **** 
 449:Drivers/STM32F1xx_HAL_Driver/Src/stm32f1xx_hal_dma.c ****   /* Process Unlocked */
 450:Drivers/STM32F1xx_HAL_Driver/Src/stm32f1xx_hal_dma.c ****   __HAL_UNLOCK(hdma);      
 451:Drivers/STM32F1xx_HAL_Driver/Src/stm32f1xx_hal_dma.c ****   
 452:Drivers/STM32F1xx_HAL_Driver/Src/stm32f1xx_hal_dma.c ****   return status; 
 453:Drivers/STM32F1xx_HAL_Driver/Src/stm32f1xx_hal_dma.c **** }
 454:Drivers/STM32F1xx_HAL_Driver/Src/stm32f1xx_hal_dma.c **** 
 455:Drivers/STM32F1xx_HAL_Driver/Src/stm32f1xx_hal_dma.c **** /**
 456:Drivers/STM32F1xx_HAL_Driver/Src/stm32f1xx_hal_dma.c ****   * @brief  Aborts the DMA Transfer in Interrupt mode.
 457:Drivers/STM32F1xx_HAL_Driver/Src/stm32f1xx_hal_dma.c ****   * @param  hdma  : pointer to a DMA_HandleTypeDef structure that contains
 458:Drivers/STM32F1xx_HAL_Driver/Src/stm32f1xx_hal_dma.c ****   *                 the configuration information for the specified DMA Channel.
 459:Drivers/STM32F1xx_HAL_Driver/Src/stm32f1xx_hal_dma.c ****   * @retval HAL status
 460:Drivers/STM32F1xx_HAL_Driver/Src/stm32f1xx_hal_dma.c ****   */
 461:Drivers/STM32F1xx_HAL_Driver/Src/stm32f1xx_hal_dma.c **** HAL_StatusTypeDef HAL_DMA_Abort_IT(DMA_HandleTypeDef *hdma)
 462:Drivers/STM32F1xx_HAL_Driver/Src/stm32f1xx_hal_dma.c **** {  
 463:Drivers/STM32F1xx_HAL_Driver/Src/stm32f1xx_hal_dma.c ****   HAL_StatusTypeDef status = HAL_OK;
 464:Drivers/STM32F1xx_HAL_Driver/Src/stm32f1xx_hal_dma.c ****   
 465:Drivers/STM32F1xx_HAL_Driver/Src/stm32f1xx_hal_dma.c ****   if(HAL_DMA_STATE_BUSY != hdma->State)
 466:Drivers/STM32F1xx_HAL_Driver/Src/stm32f1xx_hal_dma.c ****   {
 467:Drivers/STM32F1xx_HAL_Driver/Src/stm32f1xx_hal_dma.c ****     /* no transfer ongoing */
 468:Drivers/STM32F1xx_HAL_Driver/Src/stm32f1xx_hal_dma.c ****     hdma->ErrorCode = HAL_DMA_ERROR_NO_XFER;
 469:Drivers/STM32F1xx_HAL_Driver/Src/stm32f1xx_hal_dma.c ****         
 470:Drivers/STM32F1xx_HAL_Driver/Src/stm32f1xx_hal_dma.c ****     status = HAL_ERROR;
 471:Drivers/STM32F1xx_HAL_Driver/Src/stm32f1xx_hal_dma.c ****   }
 472:Drivers/STM32F1xx_HAL_Driver/Src/stm32f1xx_hal_dma.c ****   else
 473:Drivers/STM32F1xx_HAL_Driver/Src/stm32f1xx_hal_dma.c ****   { 
 474:Drivers/STM32F1xx_HAL_Driver/Src/stm32f1xx_hal_dma.c ****     /* Disable DMA IT */
 475:Drivers/STM32F1xx_HAL_Driver/Src/stm32f1xx_hal_dma.c ****     __HAL_DMA_DISABLE_IT(hdma, (DMA_IT_TC | DMA_IT_HT | DMA_IT_TE));
 476:Drivers/STM32F1xx_HAL_Driver/Src/stm32f1xx_hal_dma.c **** 
 477:Drivers/STM32F1xx_HAL_Driver/Src/stm32f1xx_hal_dma.c ****     /* Disable the channel */
 478:Drivers/STM32F1xx_HAL_Driver/Src/stm32f1xx_hal_dma.c ****     __HAL_DMA_DISABLE(hdma);
 479:Drivers/STM32F1xx_HAL_Driver/Src/stm32f1xx_hal_dma.c **** 
 480:Drivers/STM32F1xx_HAL_Driver/Src/stm32f1xx_hal_dma.c ****     /* Clear all flags */
 481:Drivers/STM32F1xx_HAL_Driver/Src/stm32f1xx_hal_dma.c ****     __HAL_DMA_CLEAR_FLAG(hdma, __HAL_DMA_GET_GI_FLAG_INDEX(hdma));
 482:Drivers/STM32F1xx_HAL_Driver/Src/stm32f1xx_hal_dma.c **** 
 483:Drivers/STM32F1xx_HAL_Driver/Src/stm32f1xx_hal_dma.c ****     /* Change the DMA state */
 484:Drivers/STM32F1xx_HAL_Driver/Src/stm32f1xx_hal_dma.c ****     hdma->State = HAL_DMA_STATE_READY;
 485:Drivers/STM32F1xx_HAL_Driver/Src/stm32f1xx_hal_dma.c **** 
 486:Drivers/STM32F1xx_HAL_Driver/Src/stm32f1xx_hal_dma.c ****     /* Process Unlocked */
 487:Drivers/STM32F1xx_HAL_Driver/Src/stm32f1xx_hal_dma.c ****     __HAL_UNLOCK(hdma);
 488:Drivers/STM32F1xx_HAL_Driver/Src/stm32f1xx_hal_dma.c **** 
ARM GAS  /var/folders/rf/wfq6hz5s56g3yh4wqgd7820c0000gn/T//ccCQD8Z0.s 			page 10


 489:Drivers/STM32F1xx_HAL_Driver/Src/stm32f1xx_hal_dma.c ****     /* Call User Abort callback */
 490:Drivers/STM32F1xx_HAL_Driver/Src/stm32f1xx_hal_dma.c ****     if(hdma->XferAbortCallback != NULL)
 491:Drivers/STM32F1xx_HAL_Driver/Src/stm32f1xx_hal_dma.c ****     {
 492:Drivers/STM32F1xx_HAL_Driver/Src/stm32f1xx_hal_dma.c ****       hdma->XferAbortCallback(hdma);
 493:Drivers/STM32F1xx_HAL_Driver/Src/stm32f1xx_hal_dma.c ****     } 
 494:Drivers/STM32F1xx_HAL_Driver/Src/stm32f1xx_hal_dma.c ****   }
 495:Drivers/STM32F1xx_HAL_Driver/Src/stm32f1xx_hal_dma.c ****   return status;
 496:Drivers/STM32F1xx_HAL_Driver/Src/stm32f1xx_hal_dma.c **** }
 497:Drivers/STM32F1xx_HAL_Driver/Src/stm32f1xx_hal_dma.c **** 
 498:Drivers/STM32F1xx_HAL_Driver/Src/stm32f1xx_hal_dma.c **** /**
 499:Drivers/STM32F1xx_HAL_Driver/Src/stm32f1xx_hal_dma.c ****   * @brief  Polling for transfer complete.
 500:Drivers/STM32F1xx_HAL_Driver/Src/stm32f1xx_hal_dma.c ****   * @param  hdma:    pointer to a DMA_HandleTypeDef structure that contains
 501:Drivers/STM32F1xx_HAL_Driver/Src/stm32f1xx_hal_dma.c ****   *                  the configuration information for the specified DMA Channel.
 502:Drivers/STM32F1xx_HAL_Driver/Src/stm32f1xx_hal_dma.c ****   * @param  CompleteLevel: Specifies the DMA level complete.
 503:Drivers/STM32F1xx_HAL_Driver/Src/stm32f1xx_hal_dma.c ****   * @param  Timeout:       Timeout duration.
 504:Drivers/STM32F1xx_HAL_Driver/Src/stm32f1xx_hal_dma.c ****   * @retval HAL status
 505:Drivers/STM32F1xx_HAL_Driver/Src/stm32f1xx_hal_dma.c ****   */
 506:Drivers/STM32F1xx_HAL_Driver/Src/stm32f1xx_hal_dma.c **** HAL_StatusTypeDef HAL_DMA_PollForTransfer(DMA_HandleTypeDef *hdma, uint32_t CompleteLevel, uint32_t
 507:Drivers/STM32F1xx_HAL_Driver/Src/stm32f1xx_hal_dma.c **** {
 508:Drivers/STM32F1xx_HAL_Driver/Src/stm32f1xx_hal_dma.c ****   uint32_t temp;
 509:Drivers/STM32F1xx_HAL_Driver/Src/stm32f1xx_hal_dma.c ****   uint32_t tickstart = 0U;
 510:Drivers/STM32F1xx_HAL_Driver/Src/stm32f1xx_hal_dma.c **** 
 511:Drivers/STM32F1xx_HAL_Driver/Src/stm32f1xx_hal_dma.c ****   if(HAL_DMA_STATE_BUSY != hdma->State)
 512:Drivers/STM32F1xx_HAL_Driver/Src/stm32f1xx_hal_dma.c ****   {
 513:Drivers/STM32F1xx_HAL_Driver/Src/stm32f1xx_hal_dma.c ****     /* no transfer ongoing */
 514:Drivers/STM32F1xx_HAL_Driver/Src/stm32f1xx_hal_dma.c ****     hdma->ErrorCode = HAL_DMA_ERROR_NO_XFER;
 515:Drivers/STM32F1xx_HAL_Driver/Src/stm32f1xx_hal_dma.c ****     __HAL_UNLOCK(hdma);
 516:Drivers/STM32F1xx_HAL_Driver/Src/stm32f1xx_hal_dma.c ****     return HAL_ERROR;
 517:Drivers/STM32F1xx_HAL_Driver/Src/stm32f1xx_hal_dma.c ****   }
 518:Drivers/STM32F1xx_HAL_Driver/Src/stm32f1xx_hal_dma.c **** 
 519:Drivers/STM32F1xx_HAL_Driver/Src/stm32f1xx_hal_dma.c ****   /* Polling mode not supported in circular mode */
 520:Drivers/STM32F1xx_HAL_Driver/Src/stm32f1xx_hal_dma.c ****   if (RESET != (hdma->Instance->CCR & DMA_CCR_CIRC))
 521:Drivers/STM32F1xx_HAL_Driver/Src/stm32f1xx_hal_dma.c ****   {
 522:Drivers/STM32F1xx_HAL_Driver/Src/stm32f1xx_hal_dma.c ****     hdma->ErrorCode = HAL_DMA_ERROR_NOT_SUPPORTED;
 523:Drivers/STM32F1xx_HAL_Driver/Src/stm32f1xx_hal_dma.c ****     return HAL_ERROR;
 524:Drivers/STM32F1xx_HAL_Driver/Src/stm32f1xx_hal_dma.c ****   }
 525:Drivers/STM32F1xx_HAL_Driver/Src/stm32f1xx_hal_dma.c ****   
 526:Drivers/STM32F1xx_HAL_Driver/Src/stm32f1xx_hal_dma.c ****   /* Get the level transfer complete flag */
 527:Drivers/STM32F1xx_HAL_Driver/Src/stm32f1xx_hal_dma.c ****   if(CompleteLevel == HAL_DMA_FULL_TRANSFER)
 528:Drivers/STM32F1xx_HAL_Driver/Src/stm32f1xx_hal_dma.c ****   {
 529:Drivers/STM32F1xx_HAL_Driver/Src/stm32f1xx_hal_dma.c ****     /* Transfer Complete flag */
 530:Drivers/STM32F1xx_HAL_Driver/Src/stm32f1xx_hal_dma.c ****     temp = __HAL_DMA_GET_TC_FLAG_INDEX(hdma);
 531:Drivers/STM32F1xx_HAL_Driver/Src/stm32f1xx_hal_dma.c ****   }
 532:Drivers/STM32F1xx_HAL_Driver/Src/stm32f1xx_hal_dma.c ****   else
 533:Drivers/STM32F1xx_HAL_Driver/Src/stm32f1xx_hal_dma.c ****   {
 534:Drivers/STM32F1xx_HAL_Driver/Src/stm32f1xx_hal_dma.c ****     /* Half Transfer Complete flag */
 535:Drivers/STM32F1xx_HAL_Driver/Src/stm32f1xx_hal_dma.c ****     temp = __HAL_DMA_GET_HT_FLAG_INDEX(hdma);
 536:Drivers/STM32F1xx_HAL_Driver/Src/stm32f1xx_hal_dma.c ****   }
 537:Drivers/STM32F1xx_HAL_Driver/Src/stm32f1xx_hal_dma.c **** 
 538:Drivers/STM32F1xx_HAL_Driver/Src/stm32f1xx_hal_dma.c ****   /* Get tick */
 539:Drivers/STM32F1xx_HAL_Driver/Src/stm32f1xx_hal_dma.c ****   tickstart = HAL_GetTick();
 540:Drivers/STM32F1xx_HAL_Driver/Src/stm32f1xx_hal_dma.c **** 
 541:Drivers/STM32F1xx_HAL_Driver/Src/stm32f1xx_hal_dma.c ****   while(__HAL_DMA_GET_FLAG(hdma, temp) == RESET)
 542:Drivers/STM32F1xx_HAL_Driver/Src/stm32f1xx_hal_dma.c ****   {
 543:Drivers/STM32F1xx_HAL_Driver/Src/stm32f1xx_hal_dma.c ****     if((__HAL_DMA_GET_FLAG(hdma, __HAL_DMA_GET_TE_FLAG_INDEX(hdma)) != RESET))
 544:Drivers/STM32F1xx_HAL_Driver/Src/stm32f1xx_hal_dma.c ****     {
 545:Drivers/STM32F1xx_HAL_Driver/Src/stm32f1xx_hal_dma.c ****       /* When a DMA transfer error occurs */
ARM GAS  /var/folders/rf/wfq6hz5s56g3yh4wqgd7820c0000gn/T//ccCQD8Z0.s 			page 11


 546:Drivers/STM32F1xx_HAL_Driver/Src/stm32f1xx_hal_dma.c ****       /* A hardware clear of its EN bits is performed */
 547:Drivers/STM32F1xx_HAL_Driver/Src/stm32f1xx_hal_dma.c ****       /* Clear all flags */
 548:Drivers/STM32F1xx_HAL_Driver/Src/stm32f1xx_hal_dma.c ****       hdma->DmaBaseAddress->IFCR = (DMA_ISR_GIF1 << hdma->ChannelIndex);
 549:Drivers/STM32F1xx_HAL_Driver/Src/stm32f1xx_hal_dma.c **** 
 550:Drivers/STM32F1xx_HAL_Driver/Src/stm32f1xx_hal_dma.c ****       /* Update error code */
 551:Drivers/STM32F1xx_HAL_Driver/Src/stm32f1xx_hal_dma.c ****       SET_BIT(hdma->ErrorCode, HAL_DMA_ERROR_TE);
 552:Drivers/STM32F1xx_HAL_Driver/Src/stm32f1xx_hal_dma.c **** 
 553:Drivers/STM32F1xx_HAL_Driver/Src/stm32f1xx_hal_dma.c ****       /* Change the DMA state */
 554:Drivers/STM32F1xx_HAL_Driver/Src/stm32f1xx_hal_dma.c ****       hdma->State= HAL_DMA_STATE_READY;
 555:Drivers/STM32F1xx_HAL_Driver/Src/stm32f1xx_hal_dma.c **** 
 556:Drivers/STM32F1xx_HAL_Driver/Src/stm32f1xx_hal_dma.c ****       /* Process Unlocked */
 557:Drivers/STM32F1xx_HAL_Driver/Src/stm32f1xx_hal_dma.c ****       __HAL_UNLOCK(hdma);
 558:Drivers/STM32F1xx_HAL_Driver/Src/stm32f1xx_hal_dma.c **** 
 559:Drivers/STM32F1xx_HAL_Driver/Src/stm32f1xx_hal_dma.c ****       return HAL_ERROR;
 560:Drivers/STM32F1xx_HAL_Driver/Src/stm32f1xx_hal_dma.c ****     }
 561:Drivers/STM32F1xx_HAL_Driver/Src/stm32f1xx_hal_dma.c ****     /* Check for the Timeout */
 562:Drivers/STM32F1xx_HAL_Driver/Src/stm32f1xx_hal_dma.c ****     if(Timeout != HAL_MAX_DELAY)
 563:Drivers/STM32F1xx_HAL_Driver/Src/stm32f1xx_hal_dma.c ****     {
 564:Drivers/STM32F1xx_HAL_Driver/Src/stm32f1xx_hal_dma.c ****       if((Timeout == 0U) || ((HAL_GetTick() - tickstart) > Timeout))
 565:Drivers/STM32F1xx_HAL_Driver/Src/stm32f1xx_hal_dma.c ****       {
 566:Drivers/STM32F1xx_HAL_Driver/Src/stm32f1xx_hal_dma.c ****         /* Update error code */
 567:Drivers/STM32F1xx_HAL_Driver/Src/stm32f1xx_hal_dma.c ****         SET_BIT(hdma->ErrorCode, HAL_DMA_ERROR_TIMEOUT);
 568:Drivers/STM32F1xx_HAL_Driver/Src/stm32f1xx_hal_dma.c **** 
 569:Drivers/STM32F1xx_HAL_Driver/Src/stm32f1xx_hal_dma.c ****         /* Change the DMA state */
 570:Drivers/STM32F1xx_HAL_Driver/Src/stm32f1xx_hal_dma.c ****         hdma->State = HAL_DMA_STATE_READY;
 571:Drivers/STM32F1xx_HAL_Driver/Src/stm32f1xx_hal_dma.c **** 
 572:Drivers/STM32F1xx_HAL_Driver/Src/stm32f1xx_hal_dma.c ****         /* Process Unlocked */
 573:Drivers/STM32F1xx_HAL_Driver/Src/stm32f1xx_hal_dma.c ****         __HAL_UNLOCK(hdma);
 574:Drivers/STM32F1xx_HAL_Driver/Src/stm32f1xx_hal_dma.c **** 
 575:Drivers/STM32F1xx_HAL_Driver/Src/stm32f1xx_hal_dma.c ****         return HAL_ERROR;
 576:Drivers/STM32F1xx_HAL_Driver/Src/stm32f1xx_hal_dma.c ****       }
 577:Drivers/STM32F1xx_HAL_Driver/Src/stm32f1xx_hal_dma.c ****     }
 578:Drivers/STM32F1xx_HAL_Driver/Src/stm32f1xx_hal_dma.c ****   }
 579:Drivers/STM32F1xx_HAL_Driver/Src/stm32f1xx_hal_dma.c **** 
 580:Drivers/STM32F1xx_HAL_Driver/Src/stm32f1xx_hal_dma.c ****   if(CompleteLevel == HAL_DMA_FULL_TRANSFER)
 581:Drivers/STM32F1xx_HAL_Driver/Src/stm32f1xx_hal_dma.c ****   {
 582:Drivers/STM32F1xx_HAL_Driver/Src/stm32f1xx_hal_dma.c ****     /* Clear the transfer complete flag */
 583:Drivers/STM32F1xx_HAL_Driver/Src/stm32f1xx_hal_dma.c ****     __HAL_DMA_CLEAR_FLAG(hdma, __HAL_DMA_GET_TC_FLAG_INDEX(hdma));
 584:Drivers/STM32F1xx_HAL_Driver/Src/stm32f1xx_hal_dma.c **** 
 585:Drivers/STM32F1xx_HAL_Driver/Src/stm32f1xx_hal_dma.c ****     /* The selected Channelx EN bit is cleared (DMA is disabled and
 586:Drivers/STM32F1xx_HAL_Driver/Src/stm32f1xx_hal_dma.c ****     all transfers are complete) */
 587:Drivers/STM32F1xx_HAL_Driver/Src/stm32f1xx_hal_dma.c ****     hdma->State = HAL_DMA_STATE_READY;
 588:Drivers/STM32F1xx_HAL_Driver/Src/stm32f1xx_hal_dma.c ****   }
 589:Drivers/STM32F1xx_HAL_Driver/Src/stm32f1xx_hal_dma.c ****   else
 590:Drivers/STM32F1xx_HAL_Driver/Src/stm32f1xx_hal_dma.c ****   {
 591:Drivers/STM32F1xx_HAL_Driver/Src/stm32f1xx_hal_dma.c ****     /* Clear the half transfer complete flag */
 592:Drivers/STM32F1xx_HAL_Driver/Src/stm32f1xx_hal_dma.c ****     __HAL_DMA_CLEAR_FLAG(hdma, __HAL_DMA_GET_HT_FLAG_INDEX(hdma));
 593:Drivers/STM32F1xx_HAL_Driver/Src/stm32f1xx_hal_dma.c ****   }
 594:Drivers/STM32F1xx_HAL_Driver/Src/stm32f1xx_hal_dma.c ****   
 595:Drivers/STM32F1xx_HAL_Driver/Src/stm32f1xx_hal_dma.c ****   /* Process unlocked */
 596:Drivers/STM32F1xx_HAL_Driver/Src/stm32f1xx_hal_dma.c ****   __HAL_UNLOCK(hdma);
 597:Drivers/STM32F1xx_HAL_Driver/Src/stm32f1xx_hal_dma.c **** 
 598:Drivers/STM32F1xx_HAL_Driver/Src/stm32f1xx_hal_dma.c ****   return HAL_OK;
 599:Drivers/STM32F1xx_HAL_Driver/Src/stm32f1xx_hal_dma.c **** }
 600:Drivers/STM32F1xx_HAL_Driver/Src/stm32f1xx_hal_dma.c **** 
 601:Drivers/STM32F1xx_HAL_Driver/Src/stm32f1xx_hal_dma.c **** /**
 602:Drivers/STM32F1xx_HAL_Driver/Src/stm32f1xx_hal_dma.c ****   * @brief  Handles DMA interrupt request.
ARM GAS  /var/folders/rf/wfq6hz5s56g3yh4wqgd7820c0000gn/T//ccCQD8Z0.s 			page 12


 603:Drivers/STM32F1xx_HAL_Driver/Src/stm32f1xx_hal_dma.c ****   * @param  hdma: pointer to a DMA_HandleTypeDef structure that contains
 604:Drivers/STM32F1xx_HAL_Driver/Src/stm32f1xx_hal_dma.c ****   *               the configuration information for the specified DMA Channel.  
 605:Drivers/STM32F1xx_HAL_Driver/Src/stm32f1xx_hal_dma.c ****   * @retval None
 606:Drivers/STM32F1xx_HAL_Driver/Src/stm32f1xx_hal_dma.c ****   */
 607:Drivers/STM32F1xx_HAL_Driver/Src/stm32f1xx_hal_dma.c **** void HAL_DMA_IRQHandler(DMA_HandleTypeDef *hdma)
 608:Drivers/STM32F1xx_HAL_Driver/Src/stm32f1xx_hal_dma.c **** {
 609:Drivers/STM32F1xx_HAL_Driver/Src/stm32f1xx_hal_dma.c ****   uint32_t flag_it = hdma->DmaBaseAddress->ISR;
 610:Drivers/STM32F1xx_HAL_Driver/Src/stm32f1xx_hal_dma.c ****   uint32_t source_it = hdma->Instance->CCR;
 611:Drivers/STM32F1xx_HAL_Driver/Src/stm32f1xx_hal_dma.c ****   
 612:Drivers/STM32F1xx_HAL_Driver/Src/stm32f1xx_hal_dma.c ****   /* Half Transfer Complete Interrupt management ******************************/
 613:Drivers/STM32F1xx_HAL_Driver/Src/stm32f1xx_hal_dma.c ****   if (((flag_it & (DMA_FLAG_HT1 << hdma->ChannelIndex)) != RESET) && ((source_it & DMA_IT_HT) != RE
 614:Drivers/STM32F1xx_HAL_Driver/Src/stm32f1xx_hal_dma.c ****   {
 615:Drivers/STM32F1xx_HAL_Driver/Src/stm32f1xx_hal_dma.c ****     /* Disable the half transfer interrupt if the DMA mode is not CIRCULAR */
 616:Drivers/STM32F1xx_HAL_Driver/Src/stm32f1xx_hal_dma.c ****     if((hdma->Instance->CCR & DMA_CCR_CIRC) == 0U)
 617:Drivers/STM32F1xx_HAL_Driver/Src/stm32f1xx_hal_dma.c ****     {
 618:Drivers/STM32F1xx_HAL_Driver/Src/stm32f1xx_hal_dma.c ****       /* Disable the half transfer interrupt */
 619:Drivers/STM32F1xx_HAL_Driver/Src/stm32f1xx_hal_dma.c ****       __HAL_DMA_DISABLE_IT(hdma, DMA_IT_HT);
 620:Drivers/STM32F1xx_HAL_Driver/Src/stm32f1xx_hal_dma.c ****     }
 621:Drivers/STM32F1xx_HAL_Driver/Src/stm32f1xx_hal_dma.c ****     /* Clear the half transfer complete flag */
 622:Drivers/STM32F1xx_HAL_Driver/Src/stm32f1xx_hal_dma.c ****     __HAL_DMA_CLEAR_FLAG(hdma, __HAL_DMA_GET_HT_FLAG_INDEX(hdma));
 623:Drivers/STM32F1xx_HAL_Driver/Src/stm32f1xx_hal_dma.c **** 
 624:Drivers/STM32F1xx_HAL_Driver/Src/stm32f1xx_hal_dma.c ****     /* DMA peripheral state is not updated in Half Transfer */
 625:Drivers/STM32F1xx_HAL_Driver/Src/stm32f1xx_hal_dma.c ****     /* but in Transfer Complete case */
 626:Drivers/STM32F1xx_HAL_Driver/Src/stm32f1xx_hal_dma.c **** 
 627:Drivers/STM32F1xx_HAL_Driver/Src/stm32f1xx_hal_dma.c ****     if(hdma->XferHalfCpltCallback != NULL)
 628:Drivers/STM32F1xx_HAL_Driver/Src/stm32f1xx_hal_dma.c ****     {
 629:Drivers/STM32F1xx_HAL_Driver/Src/stm32f1xx_hal_dma.c ****       /* Half transfer callback */
 630:Drivers/STM32F1xx_HAL_Driver/Src/stm32f1xx_hal_dma.c ****       hdma->XferHalfCpltCallback(hdma);
 631:Drivers/STM32F1xx_HAL_Driver/Src/stm32f1xx_hal_dma.c ****     }
 632:Drivers/STM32F1xx_HAL_Driver/Src/stm32f1xx_hal_dma.c ****   }
 633:Drivers/STM32F1xx_HAL_Driver/Src/stm32f1xx_hal_dma.c **** 
 634:Drivers/STM32F1xx_HAL_Driver/Src/stm32f1xx_hal_dma.c ****   /* Transfer Complete Interrupt management ***********************************/
 635:Drivers/STM32F1xx_HAL_Driver/Src/stm32f1xx_hal_dma.c ****   else if (((flag_it & (DMA_FLAG_TC1 << hdma->ChannelIndex)) != RESET) && ((source_it & DMA_IT_TC) 
 636:Drivers/STM32F1xx_HAL_Driver/Src/stm32f1xx_hal_dma.c ****   {
 637:Drivers/STM32F1xx_HAL_Driver/Src/stm32f1xx_hal_dma.c ****     if((hdma->Instance->CCR & DMA_CCR_CIRC) == 0U)
 638:Drivers/STM32F1xx_HAL_Driver/Src/stm32f1xx_hal_dma.c ****     {
 639:Drivers/STM32F1xx_HAL_Driver/Src/stm32f1xx_hal_dma.c ****       /* Disable the transfer complete and error interrupt */
 640:Drivers/STM32F1xx_HAL_Driver/Src/stm32f1xx_hal_dma.c ****       __HAL_DMA_DISABLE_IT(hdma, DMA_IT_TE | DMA_IT_TC);  
 641:Drivers/STM32F1xx_HAL_Driver/Src/stm32f1xx_hal_dma.c **** 
 642:Drivers/STM32F1xx_HAL_Driver/Src/stm32f1xx_hal_dma.c ****       /* Change the DMA state */
 643:Drivers/STM32F1xx_HAL_Driver/Src/stm32f1xx_hal_dma.c ****       hdma->State = HAL_DMA_STATE_READY;
 644:Drivers/STM32F1xx_HAL_Driver/Src/stm32f1xx_hal_dma.c ****     }
 645:Drivers/STM32F1xx_HAL_Driver/Src/stm32f1xx_hal_dma.c ****     /* Clear the transfer complete flag */
 646:Drivers/STM32F1xx_HAL_Driver/Src/stm32f1xx_hal_dma.c ****       __HAL_DMA_CLEAR_FLAG(hdma, __HAL_DMA_GET_TC_FLAG_INDEX(hdma));
 647:Drivers/STM32F1xx_HAL_Driver/Src/stm32f1xx_hal_dma.c **** 
 648:Drivers/STM32F1xx_HAL_Driver/Src/stm32f1xx_hal_dma.c ****     /* Process Unlocked */
 649:Drivers/STM32F1xx_HAL_Driver/Src/stm32f1xx_hal_dma.c ****     __HAL_UNLOCK(hdma);
 650:Drivers/STM32F1xx_HAL_Driver/Src/stm32f1xx_hal_dma.c **** 
 651:Drivers/STM32F1xx_HAL_Driver/Src/stm32f1xx_hal_dma.c ****     if(hdma->XferCpltCallback != NULL)
 652:Drivers/STM32F1xx_HAL_Driver/Src/stm32f1xx_hal_dma.c ****     {
 653:Drivers/STM32F1xx_HAL_Driver/Src/stm32f1xx_hal_dma.c ****       /* Transfer complete callback */
 654:Drivers/STM32F1xx_HAL_Driver/Src/stm32f1xx_hal_dma.c ****       hdma->XferCpltCallback(hdma);
 655:Drivers/STM32F1xx_HAL_Driver/Src/stm32f1xx_hal_dma.c ****     }
 656:Drivers/STM32F1xx_HAL_Driver/Src/stm32f1xx_hal_dma.c ****   }
 657:Drivers/STM32F1xx_HAL_Driver/Src/stm32f1xx_hal_dma.c **** 
 658:Drivers/STM32F1xx_HAL_Driver/Src/stm32f1xx_hal_dma.c ****   /* Transfer Error Interrupt management **************************************/
 659:Drivers/STM32F1xx_HAL_Driver/Src/stm32f1xx_hal_dma.c ****   else if (( RESET != (flag_it & (DMA_FLAG_TE1 << hdma->ChannelIndex))) && (RESET != (source_it & D
ARM GAS  /var/folders/rf/wfq6hz5s56g3yh4wqgd7820c0000gn/T//ccCQD8Z0.s 			page 13


 660:Drivers/STM32F1xx_HAL_Driver/Src/stm32f1xx_hal_dma.c ****   {
 661:Drivers/STM32F1xx_HAL_Driver/Src/stm32f1xx_hal_dma.c ****     /* When a DMA transfer error occurs */
 662:Drivers/STM32F1xx_HAL_Driver/Src/stm32f1xx_hal_dma.c ****     /* A hardware clear of its EN bits is performed */
 663:Drivers/STM32F1xx_HAL_Driver/Src/stm32f1xx_hal_dma.c ****     /* Disable ALL DMA IT */
 664:Drivers/STM32F1xx_HAL_Driver/Src/stm32f1xx_hal_dma.c ****     __HAL_DMA_DISABLE_IT(hdma, (DMA_IT_TC | DMA_IT_HT | DMA_IT_TE));
 665:Drivers/STM32F1xx_HAL_Driver/Src/stm32f1xx_hal_dma.c **** 
 666:Drivers/STM32F1xx_HAL_Driver/Src/stm32f1xx_hal_dma.c ****     /* Clear all flags */
 667:Drivers/STM32F1xx_HAL_Driver/Src/stm32f1xx_hal_dma.c ****     hdma->DmaBaseAddress->IFCR = (DMA_ISR_GIF1 << hdma->ChannelIndex);
 668:Drivers/STM32F1xx_HAL_Driver/Src/stm32f1xx_hal_dma.c **** 
 669:Drivers/STM32F1xx_HAL_Driver/Src/stm32f1xx_hal_dma.c ****     /* Update error code */
 670:Drivers/STM32F1xx_HAL_Driver/Src/stm32f1xx_hal_dma.c ****     hdma->ErrorCode = HAL_DMA_ERROR_TE;
 671:Drivers/STM32F1xx_HAL_Driver/Src/stm32f1xx_hal_dma.c **** 
 672:Drivers/STM32F1xx_HAL_Driver/Src/stm32f1xx_hal_dma.c ****     /* Change the DMA state */
 673:Drivers/STM32F1xx_HAL_Driver/Src/stm32f1xx_hal_dma.c ****     hdma->State = HAL_DMA_STATE_READY;
 674:Drivers/STM32F1xx_HAL_Driver/Src/stm32f1xx_hal_dma.c **** 
 675:Drivers/STM32F1xx_HAL_Driver/Src/stm32f1xx_hal_dma.c ****     /* Process Unlocked */
 676:Drivers/STM32F1xx_HAL_Driver/Src/stm32f1xx_hal_dma.c ****     __HAL_UNLOCK(hdma);
 677:Drivers/STM32F1xx_HAL_Driver/Src/stm32f1xx_hal_dma.c **** 
 678:Drivers/STM32F1xx_HAL_Driver/Src/stm32f1xx_hal_dma.c ****     if (hdma->XferErrorCallback != NULL)
 679:Drivers/STM32F1xx_HAL_Driver/Src/stm32f1xx_hal_dma.c ****     {
 680:Drivers/STM32F1xx_HAL_Driver/Src/stm32f1xx_hal_dma.c ****       /* Transfer error callback */
 681:Drivers/STM32F1xx_HAL_Driver/Src/stm32f1xx_hal_dma.c ****       hdma->XferErrorCallback(hdma);
 682:Drivers/STM32F1xx_HAL_Driver/Src/stm32f1xx_hal_dma.c ****     }
 683:Drivers/STM32F1xx_HAL_Driver/Src/stm32f1xx_hal_dma.c ****   }
 684:Drivers/STM32F1xx_HAL_Driver/Src/stm32f1xx_hal_dma.c ****   return;
 685:Drivers/STM32F1xx_HAL_Driver/Src/stm32f1xx_hal_dma.c **** }
 686:Drivers/STM32F1xx_HAL_Driver/Src/stm32f1xx_hal_dma.c **** 
 687:Drivers/STM32F1xx_HAL_Driver/Src/stm32f1xx_hal_dma.c **** /**
 688:Drivers/STM32F1xx_HAL_Driver/Src/stm32f1xx_hal_dma.c ****   * @brief Register callbacks
 689:Drivers/STM32F1xx_HAL_Driver/Src/stm32f1xx_hal_dma.c ****   * @param hdma: pointer to a DMA_HandleTypeDef structure that contains
 690:Drivers/STM32F1xx_HAL_Driver/Src/stm32f1xx_hal_dma.c ****   *              the configuration information for the specified DMA Channel.
 691:Drivers/STM32F1xx_HAL_Driver/Src/stm32f1xx_hal_dma.c ****   * @param CallbackID: User Callback identifer
 692:Drivers/STM32F1xx_HAL_Driver/Src/stm32f1xx_hal_dma.c ****   *                    a HAL_DMA_CallbackIDTypeDef ENUM as parameter.
 693:Drivers/STM32F1xx_HAL_Driver/Src/stm32f1xx_hal_dma.c ****   * @param pCallback: pointer to private callbacsk function which has pointer to 
 694:Drivers/STM32F1xx_HAL_Driver/Src/stm32f1xx_hal_dma.c ****   *                   a DMA_HandleTypeDef structure as parameter.
 695:Drivers/STM32F1xx_HAL_Driver/Src/stm32f1xx_hal_dma.c ****   * @retval HAL status
 696:Drivers/STM32F1xx_HAL_Driver/Src/stm32f1xx_hal_dma.c ****   */                          
 697:Drivers/STM32F1xx_HAL_Driver/Src/stm32f1xx_hal_dma.c **** HAL_StatusTypeDef HAL_DMA_RegisterCallback(DMA_HandleTypeDef *hdma, HAL_DMA_CallbackIDTypeDef Callb
 698:Drivers/STM32F1xx_HAL_Driver/Src/stm32f1xx_hal_dma.c **** {
 699:Drivers/STM32F1xx_HAL_Driver/Src/stm32f1xx_hal_dma.c ****   HAL_StatusTypeDef status = HAL_OK;
 700:Drivers/STM32F1xx_HAL_Driver/Src/stm32f1xx_hal_dma.c ****   
 701:Drivers/STM32F1xx_HAL_Driver/Src/stm32f1xx_hal_dma.c ****   /* Process locked */
 702:Drivers/STM32F1xx_HAL_Driver/Src/stm32f1xx_hal_dma.c ****   __HAL_LOCK(hdma);
 703:Drivers/STM32F1xx_HAL_Driver/Src/stm32f1xx_hal_dma.c ****   
 704:Drivers/STM32F1xx_HAL_Driver/Src/stm32f1xx_hal_dma.c ****   if(HAL_DMA_STATE_READY == hdma->State)
 705:Drivers/STM32F1xx_HAL_Driver/Src/stm32f1xx_hal_dma.c ****   {
 706:Drivers/STM32F1xx_HAL_Driver/Src/stm32f1xx_hal_dma.c ****     switch (CallbackID)
 707:Drivers/STM32F1xx_HAL_Driver/Src/stm32f1xx_hal_dma.c ****     {
 708:Drivers/STM32F1xx_HAL_Driver/Src/stm32f1xx_hal_dma.c ****     case  HAL_DMA_XFER_CPLT_CB_ID:
 709:Drivers/STM32F1xx_HAL_Driver/Src/stm32f1xx_hal_dma.c ****       hdma->XferCpltCallback = pCallback;
 710:Drivers/STM32F1xx_HAL_Driver/Src/stm32f1xx_hal_dma.c ****       break;
 711:Drivers/STM32F1xx_HAL_Driver/Src/stm32f1xx_hal_dma.c ****       
 712:Drivers/STM32F1xx_HAL_Driver/Src/stm32f1xx_hal_dma.c ****     case  HAL_DMA_XFER_HALFCPLT_CB_ID:
 713:Drivers/STM32F1xx_HAL_Driver/Src/stm32f1xx_hal_dma.c ****       hdma->XferHalfCpltCallback = pCallback;
 714:Drivers/STM32F1xx_HAL_Driver/Src/stm32f1xx_hal_dma.c ****       break;         
 715:Drivers/STM32F1xx_HAL_Driver/Src/stm32f1xx_hal_dma.c **** 
 716:Drivers/STM32F1xx_HAL_Driver/Src/stm32f1xx_hal_dma.c ****     case  HAL_DMA_XFER_ERROR_CB_ID:
ARM GAS  /var/folders/rf/wfq6hz5s56g3yh4wqgd7820c0000gn/T//ccCQD8Z0.s 			page 14


 717:Drivers/STM32F1xx_HAL_Driver/Src/stm32f1xx_hal_dma.c ****       hdma->XferErrorCallback = pCallback;
 718:Drivers/STM32F1xx_HAL_Driver/Src/stm32f1xx_hal_dma.c ****       break;         
 719:Drivers/STM32F1xx_HAL_Driver/Src/stm32f1xx_hal_dma.c ****       
 720:Drivers/STM32F1xx_HAL_Driver/Src/stm32f1xx_hal_dma.c ****     case  HAL_DMA_XFER_ABORT_CB_ID:
 721:Drivers/STM32F1xx_HAL_Driver/Src/stm32f1xx_hal_dma.c ****       hdma->XferAbortCallback = pCallback;
 722:Drivers/STM32F1xx_HAL_Driver/Src/stm32f1xx_hal_dma.c ****       break; 
 723:Drivers/STM32F1xx_HAL_Driver/Src/stm32f1xx_hal_dma.c ****       
 724:Drivers/STM32F1xx_HAL_Driver/Src/stm32f1xx_hal_dma.c ****     default:
 725:Drivers/STM32F1xx_HAL_Driver/Src/stm32f1xx_hal_dma.c ****       status = HAL_ERROR;
 726:Drivers/STM32F1xx_HAL_Driver/Src/stm32f1xx_hal_dma.c ****       break;                                                            
 727:Drivers/STM32F1xx_HAL_Driver/Src/stm32f1xx_hal_dma.c ****     }
 728:Drivers/STM32F1xx_HAL_Driver/Src/stm32f1xx_hal_dma.c ****   }
 729:Drivers/STM32F1xx_HAL_Driver/Src/stm32f1xx_hal_dma.c ****   else
 730:Drivers/STM32F1xx_HAL_Driver/Src/stm32f1xx_hal_dma.c ****   {
 731:Drivers/STM32F1xx_HAL_Driver/Src/stm32f1xx_hal_dma.c ****     status = HAL_ERROR;
 732:Drivers/STM32F1xx_HAL_Driver/Src/stm32f1xx_hal_dma.c ****   } 
 733:Drivers/STM32F1xx_HAL_Driver/Src/stm32f1xx_hal_dma.c ****   
 734:Drivers/STM32F1xx_HAL_Driver/Src/stm32f1xx_hal_dma.c ****   /* Release Lock */
 735:Drivers/STM32F1xx_HAL_Driver/Src/stm32f1xx_hal_dma.c ****   __HAL_UNLOCK(hdma);
 736:Drivers/STM32F1xx_HAL_Driver/Src/stm32f1xx_hal_dma.c ****   
 737:Drivers/STM32F1xx_HAL_Driver/Src/stm32f1xx_hal_dma.c ****   return status;
 738:Drivers/STM32F1xx_HAL_Driver/Src/stm32f1xx_hal_dma.c **** }
 739:Drivers/STM32F1xx_HAL_Driver/Src/stm32f1xx_hal_dma.c **** 
 740:Drivers/STM32F1xx_HAL_Driver/Src/stm32f1xx_hal_dma.c **** /**
 741:Drivers/STM32F1xx_HAL_Driver/Src/stm32f1xx_hal_dma.c ****   * @brief UnRegister callbacks
 742:Drivers/STM32F1xx_HAL_Driver/Src/stm32f1xx_hal_dma.c ****   * @param hdma: pointer to a DMA_HandleTypeDef structure that contains
 743:Drivers/STM32F1xx_HAL_Driver/Src/stm32f1xx_hal_dma.c ****   *              the configuration information for the specified DMA Channel.
 744:Drivers/STM32F1xx_HAL_Driver/Src/stm32f1xx_hal_dma.c ****   * @param CallbackID: User Callback identifer
 745:Drivers/STM32F1xx_HAL_Driver/Src/stm32f1xx_hal_dma.c ****   *                    a HAL_DMA_CallbackIDTypeDef ENUM as parameter.
 746:Drivers/STM32F1xx_HAL_Driver/Src/stm32f1xx_hal_dma.c ****   * @retval HAL status
 747:Drivers/STM32F1xx_HAL_Driver/Src/stm32f1xx_hal_dma.c ****   */              
 748:Drivers/STM32F1xx_HAL_Driver/Src/stm32f1xx_hal_dma.c **** HAL_StatusTypeDef HAL_DMA_UnRegisterCallback(DMA_HandleTypeDef *hdma, HAL_DMA_CallbackIDTypeDef Cal
 749:Drivers/STM32F1xx_HAL_Driver/Src/stm32f1xx_hal_dma.c **** {
 750:Drivers/STM32F1xx_HAL_Driver/Src/stm32f1xx_hal_dma.c ****   HAL_StatusTypeDef status = HAL_OK;
 751:Drivers/STM32F1xx_HAL_Driver/Src/stm32f1xx_hal_dma.c **** 
 752:Drivers/STM32F1xx_HAL_Driver/Src/stm32f1xx_hal_dma.c ****   /* Process locked */
 753:Drivers/STM32F1xx_HAL_Driver/Src/stm32f1xx_hal_dma.c ****   __HAL_LOCK(hdma);
 754:Drivers/STM32F1xx_HAL_Driver/Src/stm32f1xx_hal_dma.c ****   
 755:Drivers/STM32F1xx_HAL_Driver/Src/stm32f1xx_hal_dma.c ****   if(HAL_DMA_STATE_READY == hdma->State)
 756:Drivers/STM32F1xx_HAL_Driver/Src/stm32f1xx_hal_dma.c ****   {
 757:Drivers/STM32F1xx_HAL_Driver/Src/stm32f1xx_hal_dma.c ****     switch (CallbackID)
 758:Drivers/STM32F1xx_HAL_Driver/Src/stm32f1xx_hal_dma.c ****     {
 759:Drivers/STM32F1xx_HAL_Driver/Src/stm32f1xx_hal_dma.c ****     case  HAL_DMA_XFER_CPLT_CB_ID:
 760:Drivers/STM32F1xx_HAL_Driver/Src/stm32f1xx_hal_dma.c ****       hdma->XferCpltCallback = NULL;
 761:Drivers/STM32F1xx_HAL_Driver/Src/stm32f1xx_hal_dma.c ****       break;
 762:Drivers/STM32F1xx_HAL_Driver/Src/stm32f1xx_hal_dma.c **** 
 763:Drivers/STM32F1xx_HAL_Driver/Src/stm32f1xx_hal_dma.c ****     case  HAL_DMA_XFER_HALFCPLT_CB_ID:
 764:Drivers/STM32F1xx_HAL_Driver/Src/stm32f1xx_hal_dma.c ****       hdma->XferHalfCpltCallback = NULL;
 765:Drivers/STM32F1xx_HAL_Driver/Src/stm32f1xx_hal_dma.c ****       break;         
 766:Drivers/STM32F1xx_HAL_Driver/Src/stm32f1xx_hal_dma.c **** 
 767:Drivers/STM32F1xx_HAL_Driver/Src/stm32f1xx_hal_dma.c ****     case  HAL_DMA_XFER_ERROR_CB_ID:
 768:Drivers/STM32F1xx_HAL_Driver/Src/stm32f1xx_hal_dma.c ****       hdma->XferErrorCallback = NULL;
 769:Drivers/STM32F1xx_HAL_Driver/Src/stm32f1xx_hal_dma.c ****       break;         
 770:Drivers/STM32F1xx_HAL_Driver/Src/stm32f1xx_hal_dma.c **** 
 771:Drivers/STM32F1xx_HAL_Driver/Src/stm32f1xx_hal_dma.c ****     case  HAL_DMA_XFER_ABORT_CB_ID:
 772:Drivers/STM32F1xx_HAL_Driver/Src/stm32f1xx_hal_dma.c ****       hdma->XferAbortCallback = NULL;
 773:Drivers/STM32F1xx_HAL_Driver/Src/stm32f1xx_hal_dma.c ****       break; 
ARM GAS  /var/folders/rf/wfq6hz5s56g3yh4wqgd7820c0000gn/T//ccCQD8Z0.s 			page 15


 774:Drivers/STM32F1xx_HAL_Driver/Src/stm32f1xx_hal_dma.c **** 
 775:Drivers/STM32F1xx_HAL_Driver/Src/stm32f1xx_hal_dma.c ****     case   HAL_DMA_XFER_ALL_CB_ID:
 776:Drivers/STM32F1xx_HAL_Driver/Src/stm32f1xx_hal_dma.c ****       hdma->XferCpltCallback = NULL;
 777:Drivers/STM32F1xx_HAL_Driver/Src/stm32f1xx_hal_dma.c ****       hdma->XferHalfCpltCallback = NULL;
 778:Drivers/STM32F1xx_HAL_Driver/Src/stm32f1xx_hal_dma.c ****       hdma->XferErrorCallback = NULL;
 779:Drivers/STM32F1xx_HAL_Driver/Src/stm32f1xx_hal_dma.c ****       hdma->XferAbortCallback = NULL;
 780:Drivers/STM32F1xx_HAL_Driver/Src/stm32f1xx_hal_dma.c ****       break; 
 781:Drivers/STM32F1xx_HAL_Driver/Src/stm32f1xx_hal_dma.c **** 
 782:Drivers/STM32F1xx_HAL_Driver/Src/stm32f1xx_hal_dma.c ****     default:
 783:Drivers/STM32F1xx_HAL_Driver/Src/stm32f1xx_hal_dma.c ****       status = HAL_ERROR;
 784:Drivers/STM32F1xx_HAL_Driver/Src/stm32f1xx_hal_dma.c ****       break;
 785:Drivers/STM32F1xx_HAL_Driver/Src/stm32f1xx_hal_dma.c ****     }
 786:Drivers/STM32F1xx_HAL_Driver/Src/stm32f1xx_hal_dma.c ****   }
 787:Drivers/STM32F1xx_HAL_Driver/Src/stm32f1xx_hal_dma.c ****   else
 788:Drivers/STM32F1xx_HAL_Driver/Src/stm32f1xx_hal_dma.c ****   {
 789:Drivers/STM32F1xx_HAL_Driver/Src/stm32f1xx_hal_dma.c ****     status = HAL_ERROR;
 790:Drivers/STM32F1xx_HAL_Driver/Src/stm32f1xx_hal_dma.c ****   } 
 791:Drivers/STM32F1xx_HAL_Driver/Src/stm32f1xx_hal_dma.c ****   
 792:Drivers/STM32F1xx_HAL_Driver/Src/stm32f1xx_hal_dma.c ****   /* Release Lock */
 793:Drivers/STM32F1xx_HAL_Driver/Src/stm32f1xx_hal_dma.c ****   __HAL_UNLOCK(hdma);
 794:Drivers/STM32F1xx_HAL_Driver/Src/stm32f1xx_hal_dma.c ****   
 795:Drivers/STM32F1xx_HAL_Driver/Src/stm32f1xx_hal_dma.c ****   return status;
 796:Drivers/STM32F1xx_HAL_Driver/Src/stm32f1xx_hal_dma.c **** }
 797:Drivers/STM32F1xx_HAL_Driver/Src/stm32f1xx_hal_dma.c ****   
 798:Drivers/STM32F1xx_HAL_Driver/Src/stm32f1xx_hal_dma.c **** /**
 799:Drivers/STM32F1xx_HAL_Driver/Src/stm32f1xx_hal_dma.c ****   * @}
 800:Drivers/STM32F1xx_HAL_Driver/Src/stm32f1xx_hal_dma.c ****   */
 801:Drivers/STM32F1xx_HAL_Driver/Src/stm32f1xx_hal_dma.c **** 
 802:Drivers/STM32F1xx_HAL_Driver/Src/stm32f1xx_hal_dma.c **** /** @defgroup DMA_Exported_Functions_Group3 Peripheral State and Errors functions
 803:Drivers/STM32F1xx_HAL_Driver/Src/stm32f1xx_hal_dma.c ****   *  @brief    Peripheral State and Errors functions
 804:Drivers/STM32F1xx_HAL_Driver/Src/stm32f1xx_hal_dma.c ****   *
 805:Drivers/STM32F1xx_HAL_Driver/Src/stm32f1xx_hal_dma.c **** @verbatim
 806:Drivers/STM32F1xx_HAL_Driver/Src/stm32f1xx_hal_dma.c ****  ===============================================================================
 807:Drivers/STM32F1xx_HAL_Driver/Src/stm32f1xx_hal_dma.c ****             ##### Peripheral State and Errors functions #####
 808:Drivers/STM32F1xx_HAL_Driver/Src/stm32f1xx_hal_dma.c ****  ===============================================================================  
 809:Drivers/STM32F1xx_HAL_Driver/Src/stm32f1xx_hal_dma.c ****     [..]
 810:Drivers/STM32F1xx_HAL_Driver/Src/stm32f1xx_hal_dma.c ****     This subsection provides functions allowing to
 811:Drivers/STM32F1xx_HAL_Driver/Src/stm32f1xx_hal_dma.c ****       (+) Check the DMA state
 812:Drivers/STM32F1xx_HAL_Driver/Src/stm32f1xx_hal_dma.c ****       (+) Get error code
 813:Drivers/STM32F1xx_HAL_Driver/Src/stm32f1xx_hal_dma.c **** 
 814:Drivers/STM32F1xx_HAL_Driver/Src/stm32f1xx_hal_dma.c **** @endverbatim
 815:Drivers/STM32F1xx_HAL_Driver/Src/stm32f1xx_hal_dma.c ****   * @{
 816:Drivers/STM32F1xx_HAL_Driver/Src/stm32f1xx_hal_dma.c ****   */
 817:Drivers/STM32F1xx_HAL_Driver/Src/stm32f1xx_hal_dma.c **** 
 818:Drivers/STM32F1xx_HAL_Driver/Src/stm32f1xx_hal_dma.c **** /**
 819:Drivers/STM32F1xx_HAL_Driver/Src/stm32f1xx_hal_dma.c ****   * @brief  Return the DMA hande state.
 820:Drivers/STM32F1xx_HAL_Driver/Src/stm32f1xx_hal_dma.c ****   * @param  hdma: pointer to a DMA_HandleTypeDef structure that contains
 821:Drivers/STM32F1xx_HAL_Driver/Src/stm32f1xx_hal_dma.c ****   *               the configuration information for the specified DMA Channel.
 822:Drivers/STM32F1xx_HAL_Driver/Src/stm32f1xx_hal_dma.c ****   * @retval HAL state
 823:Drivers/STM32F1xx_HAL_Driver/Src/stm32f1xx_hal_dma.c ****   */
 824:Drivers/STM32F1xx_HAL_Driver/Src/stm32f1xx_hal_dma.c **** HAL_DMA_StateTypeDef HAL_DMA_GetState(DMA_HandleTypeDef *hdma)
 825:Drivers/STM32F1xx_HAL_Driver/Src/stm32f1xx_hal_dma.c **** {
 826:Drivers/STM32F1xx_HAL_Driver/Src/stm32f1xx_hal_dma.c ****   /* Return DMA handle state */
 827:Drivers/STM32F1xx_HAL_Driver/Src/stm32f1xx_hal_dma.c ****   return hdma->State;
 828:Drivers/STM32F1xx_HAL_Driver/Src/stm32f1xx_hal_dma.c **** }
 829:Drivers/STM32F1xx_HAL_Driver/Src/stm32f1xx_hal_dma.c **** 
 830:Drivers/STM32F1xx_HAL_Driver/Src/stm32f1xx_hal_dma.c **** /**
ARM GAS  /var/folders/rf/wfq6hz5s56g3yh4wqgd7820c0000gn/T//ccCQD8Z0.s 			page 16


 831:Drivers/STM32F1xx_HAL_Driver/Src/stm32f1xx_hal_dma.c ****   * @brief  Return the DMA error code.
 832:Drivers/STM32F1xx_HAL_Driver/Src/stm32f1xx_hal_dma.c ****   * @param  hdma : pointer to a DMA_HandleTypeDef structure that contains
 833:Drivers/STM32F1xx_HAL_Driver/Src/stm32f1xx_hal_dma.c ****   *              the configuration information for the specified DMA Channel.
 834:Drivers/STM32F1xx_HAL_Driver/Src/stm32f1xx_hal_dma.c ****   * @retval DMA Error Code
 835:Drivers/STM32F1xx_HAL_Driver/Src/stm32f1xx_hal_dma.c ****   */
 836:Drivers/STM32F1xx_HAL_Driver/Src/stm32f1xx_hal_dma.c **** uint32_t HAL_DMA_GetError(DMA_HandleTypeDef *hdma)
 837:Drivers/STM32F1xx_HAL_Driver/Src/stm32f1xx_hal_dma.c **** {
 838:Drivers/STM32F1xx_HAL_Driver/Src/stm32f1xx_hal_dma.c ****   return hdma->ErrorCode;
 839:Drivers/STM32F1xx_HAL_Driver/Src/stm32f1xx_hal_dma.c **** }
 840:Drivers/STM32F1xx_HAL_Driver/Src/stm32f1xx_hal_dma.c **** 
 841:Drivers/STM32F1xx_HAL_Driver/Src/stm32f1xx_hal_dma.c **** /**
 842:Drivers/STM32F1xx_HAL_Driver/Src/stm32f1xx_hal_dma.c ****   * @}
 843:Drivers/STM32F1xx_HAL_Driver/Src/stm32f1xx_hal_dma.c ****   */
 844:Drivers/STM32F1xx_HAL_Driver/Src/stm32f1xx_hal_dma.c **** 
 845:Drivers/STM32F1xx_HAL_Driver/Src/stm32f1xx_hal_dma.c **** /**
 846:Drivers/STM32F1xx_HAL_Driver/Src/stm32f1xx_hal_dma.c ****   * @}
 847:Drivers/STM32F1xx_HAL_Driver/Src/stm32f1xx_hal_dma.c ****   */
 848:Drivers/STM32F1xx_HAL_Driver/Src/stm32f1xx_hal_dma.c **** 
 849:Drivers/STM32F1xx_HAL_Driver/Src/stm32f1xx_hal_dma.c **** /** @addtogroup DMA_Private_Functions
 850:Drivers/STM32F1xx_HAL_Driver/Src/stm32f1xx_hal_dma.c ****   * @{
 851:Drivers/STM32F1xx_HAL_Driver/Src/stm32f1xx_hal_dma.c ****   */
 852:Drivers/STM32F1xx_HAL_Driver/Src/stm32f1xx_hal_dma.c **** 
 853:Drivers/STM32F1xx_HAL_Driver/Src/stm32f1xx_hal_dma.c **** /**
 854:Drivers/STM32F1xx_HAL_Driver/Src/stm32f1xx_hal_dma.c ****   * @brief  Sets the DMA Transfer parameter.
 855:Drivers/STM32F1xx_HAL_Driver/Src/stm32f1xx_hal_dma.c ****   * @param  hdma:       pointer to a DMA_HandleTypeDef structure that contains
 856:Drivers/STM32F1xx_HAL_Driver/Src/stm32f1xx_hal_dma.c ****   *                     the configuration information for the specified DMA Channel.
 857:Drivers/STM32F1xx_HAL_Driver/Src/stm32f1xx_hal_dma.c ****   * @param  SrcAddress: The source memory Buffer address
 858:Drivers/STM32F1xx_HAL_Driver/Src/stm32f1xx_hal_dma.c ****   * @param  DstAddress: The destination memory Buffer address
 859:Drivers/STM32F1xx_HAL_Driver/Src/stm32f1xx_hal_dma.c ****   * @param  DataLength: The length of data to be transferred from source to destination
 860:Drivers/STM32F1xx_HAL_Driver/Src/stm32f1xx_hal_dma.c ****   * @retval HAL status
 861:Drivers/STM32F1xx_HAL_Driver/Src/stm32f1xx_hal_dma.c ****   */
 862:Drivers/STM32F1xx_HAL_Driver/Src/stm32f1xx_hal_dma.c **** static void DMA_SetConfig(DMA_HandleTypeDef *hdma, uint32_t SrcAddress, uint32_t DstAddress, uint32
 863:Drivers/STM32F1xx_HAL_Driver/Src/stm32f1xx_hal_dma.c **** {
  27              		.loc 1 863 1 view -0
  28              		.cfi_startproc
  29              		@ args = 0, pretend = 0, frame = 0
  30              		@ frame_needed = 0, uses_anonymous_args = 0
  31              		@ link register save eliminated.
  32              		.loc 1 863 1 is_stmt 0 view .LVU1
  33 0000 70B4     		push	{r4, r5, r6}
  34              	.LCFI0:
  35              		.cfi_def_cfa_offset 12
  36              		.cfi_offset 4, -12
  37              		.cfi_offset 5, -8
  38              		.cfi_offset 6, -4
 864:Drivers/STM32F1xx_HAL_Driver/Src/stm32f1xx_hal_dma.c ****   /* Clear all flags */
 865:Drivers/STM32F1xx_HAL_Driver/Src/stm32f1xx_hal_dma.c ****   hdma->DmaBaseAddress->IFCR = (DMA_ISR_GIF1 << hdma->ChannelIndex);
  39              		.loc 1 865 3 is_stmt 1 view .LVU2
  40              		.loc 1 865 53 is_stmt 0 view .LVU3
  41 0002 066C     		ldr	r6, [r0, #64]
  42              		.loc 1 865 7 view .LVU4
  43 0004 C56B     		ldr	r5, [r0, #60]
  44              		.loc 1 865 46 view .LVU5
  45 0006 0124     		movs	r4, #1
  46 0008 B440     		lsls	r4, r4, r6
  47              		.loc 1 865 30 view .LVU6
  48 000a 6C60     		str	r4, [r5, #4]
ARM GAS  /var/folders/rf/wfq6hz5s56g3yh4wqgd7820c0000gn/T//ccCQD8Z0.s 			page 17


 866:Drivers/STM32F1xx_HAL_Driver/Src/stm32f1xx_hal_dma.c **** 
 867:Drivers/STM32F1xx_HAL_Driver/Src/stm32f1xx_hal_dma.c ****   /* Configure DMA Channel data length */
 868:Drivers/STM32F1xx_HAL_Driver/Src/stm32f1xx_hal_dma.c ****   hdma->Instance->CNDTR = DataLength;
  49              		.loc 1 868 3 is_stmt 1 view .LVU7
  50              		.loc 1 868 7 is_stmt 0 view .LVU8
  51 000c 0468     		ldr	r4, [r0]
  52              		.loc 1 868 25 view .LVU9
  53 000e 6360     		str	r3, [r4, #4]
 869:Drivers/STM32F1xx_HAL_Driver/Src/stm32f1xx_hal_dma.c **** 
 870:Drivers/STM32F1xx_HAL_Driver/Src/stm32f1xx_hal_dma.c ****   /* Memory to Peripheral */
 871:Drivers/STM32F1xx_HAL_Driver/Src/stm32f1xx_hal_dma.c ****   if((hdma->Init.Direction) == DMA_MEMORY_TO_PERIPH)
  54              		.loc 1 871 3 is_stmt 1 view .LVU10
  55              		.loc 1 871 17 is_stmt 0 view .LVU11
  56 0010 4368     		ldr	r3, [r0, #4]
  57              	.LVL1:
  58              		.loc 1 871 5 view .LVU12
  59 0012 102B     		cmp	r3, #16
  60 0014 05D0     		beq	.L5
 872:Drivers/STM32F1xx_HAL_Driver/Src/stm32f1xx_hal_dma.c ****   {
 873:Drivers/STM32F1xx_HAL_Driver/Src/stm32f1xx_hal_dma.c ****     /* Configure DMA Channel destination address */
 874:Drivers/STM32F1xx_HAL_Driver/Src/stm32f1xx_hal_dma.c ****     hdma->Instance->CPAR = DstAddress;
 875:Drivers/STM32F1xx_HAL_Driver/Src/stm32f1xx_hal_dma.c **** 
 876:Drivers/STM32F1xx_HAL_Driver/Src/stm32f1xx_hal_dma.c ****     /* Configure DMA Channel source address */
 877:Drivers/STM32F1xx_HAL_Driver/Src/stm32f1xx_hal_dma.c ****     hdma->Instance->CMAR = SrcAddress;
 878:Drivers/STM32F1xx_HAL_Driver/Src/stm32f1xx_hal_dma.c ****   }
 879:Drivers/STM32F1xx_HAL_Driver/Src/stm32f1xx_hal_dma.c ****   /* Peripheral to Memory */
 880:Drivers/STM32F1xx_HAL_Driver/Src/stm32f1xx_hal_dma.c ****   else
 881:Drivers/STM32F1xx_HAL_Driver/Src/stm32f1xx_hal_dma.c ****   {
 882:Drivers/STM32F1xx_HAL_Driver/Src/stm32f1xx_hal_dma.c ****     /* Configure DMA Channel source address */
 883:Drivers/STM32F1xx_HAL_Driver/Src/stm32f1xx_hal_dma.c ****     hdma->Instance->CPAR = SrcAddress;
  61              		.loc 1 883 5 is_stmt 1 view .LVU13
  62              		.loc 1 883 9 is_stmt 0 view .LVU14
  63 0016 0368     		ldr	r3, [r0]
  64              		.loc 1 883 26 view .LVU15
  65 0018 9960     		str	r1, [r3, #8]
  66              	.LVL2:
 884:Drivers/STM32F1xx_HAL_Driver/Src/stm32f1xx_hal_dma.c **** 
 885:Drivers/STM32F1xx_HAL_Driver/Src/stm32f1xx_hal_dma.c ****     /* Configure DMA Channel destination address */
 886:Drivers/STM32F1xx_HAL_Driver/Src/stm32f1xx_hal_dma.c ****     hdma->Instance->CMAR = DstAddress;
  67              		.loc 1 886 5 is_stmt 1 view .LVU16
  68              		.loc 1 886 9 is_stmt 0 view .LVU17
  69 001a 0368     		ldr	r3, [r0]
  70              		.loc 1 886 26 view .LVU18
  71 001c DA60     		str	r2, [r3, #12]
  72              	.L1:
 887:Drivers/STM32F1xx_HAL_Driver/Src/stm32f1xx_hal_dma.c ****   }
 888:Drivers/STM32F1xx_HAL_Driver/Src/stm32f1xx_hal_dma.c **** }
  73              		.loc 1 888 1 view .LVU19
  74 001e 70BC     		pop	{r4, r5, r6}
  75              	.LCFI1:
  76              		.cfi_remember_state
  77              		.cfi_restore 6
  78              		.cfi_restore 5
  79              		.cfi_restore 4
  80              		.cfi_def_cfa_offset 0
  81 0020 7047     		bx	lr
  82              	.LVL3:
ARM GAS  /var/folders/rf/wfq6hz5s56g3yh4wqgd7820c0000gn/T//ccCQD8Z0.s 			page 18


  83              	.L5:
  84              	.LCFI2:
  85              		.cfi_restore_state
 874:Drivers/STM32F1xx_HAL_Driver/Src/stm32f1xx_hal_dma.c **** 
  86              		.loc 1 874 5 is_stmt 1 view .LVU20
 874:Drivers/STM32F1xx_HAL_Driver/Src/stm32f1xx_hal_dma.c **** 
  87              		.loc 1 874 9 is_stmt 0 view .LVU21
  88 0022 0368     		ldr	r3, [r0]
 874:Drivers/STM32F1xx_HAL_Driver/Src/stm32f1xx_hal_dma.c **** 
  89              		.loc 1 874 26 view .LVU22
  90 0024 9A60     		str	r2, [r3, #8]
  91              	.LVL4:
 877:Drivers/STM32F1xx_HAL_Driver/Src/stm32f1xx_hal_dma.c ****   }
  92              		.loc 1 877 5 is_stmt 1 view .LVU23
 877:Drivers/STM32F1xx_HAL_Driver/Src/stm32f1xx_hal_dma.c ****   }
  93              		.loc 1 877 9 is_stmt 0 view .LVU24
  94 0026 0368     		ldr	r3, [r0]
 877:Drivers/STM32F1xx_HAL_Driver/Src/stm32f1xx_hal_dma.c ****   }
  95              		.loc 1 877 26 view .LVU25
  96 0028 D960     		str	r1, [r3, #12]
  97 002a F8E7     		b	.L1
  98              		.cfi_endproc
  99              	.LFE78:
 101              		.section	.text.HAL_DMA_Init,"ax",%progbits
 102              		.align	1
 103              		.global	HAL_DMA_Init
 104              		.syntax unified
 105              		.thumb
 106              		.thumb_func
 107              		.fpu softvfp
 109              	HAL_DMA_Init:
 110              	.LVL5:
 111              	.LFB66:
 160:Drivers/STM32F1xx_HAL_Driver/Src/stm32f1xx_hal_dma.c ****   uint32_t tmp = 0U;
 112              		.loc 1 160 1 is_stmt 1 view -0
 113              		.cfi_startproc
 114              		@ args = 0, pretend = 0, frame = 0
 115              		@ frame_needed = 0, uses_anonymous_args = 0
 116              		@ link register save eliminated.
 161:Drivers/STM32F1xx_HAL_Driver/Src/stm32f1xx_hal_dma.c **** 
 117              		.loc 1 161 3 view .LVU27
 164:Drivers/STM32F1xx_HAL_Driver/Src/stm32f1xx_hal_dma.c ****   {
 118              		.loc 1 164 3 view .LVU28
 164:Drivers/STM32F1xx_HAL_Driver/Src/stm32f1xx_hal_dma.c ****   {
 119              		.loc 1 164 5 is_stmt 0 view .LVU29
 120 0000 0028     		cmp	r0, #0
 121 0002 30D0     		beq	.L8
 160:Drivers/STM32F1xx_HAL_Driver/Src/stm32f1xx_hal_dma.c ****   uint32_t tmp = 0U;
 122              		.loc 1 160 1 view .LVU30
 123 0004 10B4     		push	{r4}
 124              	.LCFI3:
 125              		.cfi_def_cfa_offset 4
 126              		.cfi_offset 4, -4
 127 0006 0346     		mov	r3, r0
 170:Drivers/STM32F1xx_HAL_Driver/Src/stm32f1xx_hal_dma.c ****   assert_param(IS_DMA_DIRECTION(hdma->Init.Direction));
 128              		.loc 1 170 3 is_stmt 1 view .LVU31
 171:Drivers/STM32F1xx_HAL_Driver/Src/stm32f1xx_hal_dma.c ****   assert_param(IS_DMA_PERIPHERAL_INC_STATE(hdma->Init.PeriphInc));
ARM GAS  /var/folders/rf/wfq6hz5s56g3yh4wqgd7820c0000gn/T//ccCQD8Z0.s 			page 19


 129              		.loc 1 171 3 view .LVU32
 172:Drivers/STM32F1xx_HAL_Driver/Src/stm32f1xx_hal_dma.c ****   assert_param(IS_DMA_MEMORY_INC_STATE(hdma->Init.MemInc));
 130              		.loc 1 172 3 view .LVU33
 173:Drivers/STM32F1xx_HAL_Driver/Src/stm32f1xx_hal_dma.c ****   assert_param(IS_DMA_PERIPHERAL_DATA_SIZE(hdma->Init.PeriphDataAlignment));
 131              		.loc 1 173 3 view .LVU34
 174:Drivers/STM32F1xx_HAL_Driver/Src/stm32f1xx_hal_dma.c ****   assert_param(IS_DMA_MEMORY_DATA_SIZE(hdma->Init.MemDataAlignment));
 132              		.loc 1 174 3 view .LVU35
 175:Drivers/STM32F1xx_HAL_Driver/Src/stm32f1xx_hal_dma.c ****   assert_param(IS_DMA_MODE(hdma->Init.Mode));
 133              		.loc 1 175 3 view .LVU36
 176:Drivers/STM32F1xx_HAL_Driver/Src/stm32f1xx_hal_dma.c ****   assert_param(IS_DMA_PRIORITY(hdma->Init.Priority));
 134              		.loc 1 176 3 view .LVU37
 177:Drivers/STM32F1xx_HAL_Driver/Src/stm32f1xx_hal_dma.c **** 
 135              		.loc 1 177 3 view .LVU38
 195:Drivers/STM32F1xx_HAL_Driver/Src/stm32f1xx_hal_dma.c ****   hdma->DmaBaseAddress = DMA1;
 136              		.loc 1 195 3 view .LVU39
 195:Drivers/STM32F1xx_HAL_Driver/Src/stm32f1xx_hal_dma.c ****   hdma->DmaBaseAddress = DMA1;
 137              		.loc 1 195 40 is_stmt 0 view .LVU40
 138 0008 0168     		ldr	r1, [r0]
 195:Drivers/STM32F1xx_HAL_Driver/Src/stm32f1xx_hal_dma.c ****   hdma->DmaBaseAddress = DMA1;
 139              		.loc 1 195 51 view .LVU41
 140 000a 184A     		ldr	r2, .L13
 141 000c 0A44     		add	r2, r2, r1
 195:Drivers/STM32F1xx_HAL_Driver/Src/stm32f1xx_hal_dma.c ****   hdma->DmaBaseAddress = DMA1;
 142              		.loc 1 195 78 view .LVU42
 143 000e 1848     		ldr	r0, .L13+4
 144              	.LVL6:
 195:Drivers/STM32F1xx_HAL_Driver/Src/stm32f1xx_hal_dma.c ****   hdma->DmaBaseAddress = DMA1;
 145              		.loc 1 195 78 view .LVU43
 146 0010 A0FB0202 		umull	r0, r2, r0, r2
 147 0014 1209     		lsrs	r2, r2, #4
 195:Drivers/STM32F1xx_HAL_Driver/Src/stm32f1xx_hal_dma.c ****   hdma->DmaBaseAddress = DMA1;
 148              		.loc 1 195 133 view .LVU44
 149 0016 9200     		lsls	r2, r2, #2
 195:Drivers/STM32F1xx_HAL_Driver/Src/stm32f1xx_hal_dma.c ****   hdma->DmaBaseAddress = DMA1;
 150              		.loc 1 195 22 view .LVU45
 151 0018 1A64     		str	r2, [r3, #64]
 196:Drivers/STM32F1xx_HAL_Driver/Src/stm32f1xx_hal_dma.c **** #endif /* STM32F101xE || STM32F101xG || STM32F103xE || STM32F103xG || STM32F100xE || STM32F105xC ||
 152              		.loc 1 196 3 is_stmt 1 view .LVU46
 196:Drivers/STM32F1xx_HAL_Driver/Src/stm32f1xx_hal_dma.c **** #endif /* STM32F101xE || STM32F101xG || STM32F103xE || STM32F103xG || STM32F100xE || STM32F105xC ||
 153              		.loc 1 196 24 is_stmt 0 view .LVU47
 154 001a 164A     		ldr	r2, .L13+8
 155 001c DA63     		str	r2, [r3, #60]
 200:Drivers/STM32F1xx_HAL_Driver/Src/stm32f1xx_hal_dma.c **** 
 156              		.loc 1 200 3 is_stmt 1 view .LVU48
 200:Drivers/STM32F1xx_HAL_Driver/Src/stm32f1xx_hal_dma.c **** 
 157              		.loc 1 200 15 is_stmt 0 view .LVU49
 158 001e 0222     		movs	r2, #2
 159 0020 83F82120 		strb	r2, [r3, #33]
 203:Drivers/STM32F1xx_HAL_Driver/Src/stm32f1xx_hal_dma.c **** 
 160              		.loc 1 203 3 is_stmt 1 view .LVU50
 203:Drivers/STM32F1xx_HAL_Driver/Src/stm32f1xx_hal_dma.c **** 
 161              		.loc 1 203 7 is_stmt 0 view .LVU51
 162 0024 0868     		ldr	r0, [r1]
 163              	.LVL7:
 206:Drivers/STM32F1xx_HAL_Driver/Src/stm32f1xx_hal_dma.c ****                       DMA_CCR_MINC  | DMA_CCR_PINC   | DMA_CCR_CIRC   | \
 164              		.loc 1 206 3 is_stmt 1 view .LVU52
 206:Drivers/STM32F1xx_HAL_Driver/Src/stm32f1xx_hal_dma.c ****                       DMA_CCR_MINC  | DMA_CCR_PINC   | DMA_CCR_CIRC   | \
ARM GAS  /var/folders/rf/wfq6hz5s56g3yh4wqgd7820c0000gn/T//ccCQD8Z0.s 			page 20


 165              		.loc 1 206 7 is_stmt 0 view .LVU53
 166 0026 20F47F50 		bic	r0, r0, #16320
 167              	.LVL8:
 206:Drivers/STM32F1xx_HAL_Driver/Src/stm32f1xx_hal_dma.c ****                       DMA_CCR_MINC  | DMA_CCR_PINC   | DMA_CCR_CIRC   | \
 168              		.loc 1 206 7 view .LVU54
 169 002a 20F03000 		bic	r0, r0, #48
 170              	.LVL9:
 211:Drivers/STM32F1xx_HAL_Driver/Src/stm32f1xx_hal_dma.c ****           hdma->Init.PeriphInc           | hdma->Init.MemInc           |
 171              		.loc 1 211 3 is_stmt 1 view .LVU55
 211:Drivers/STM32F1xx_HAL_Driver/Src/stm32f1xx_hal_dma.c ****           hdma->Init.PeriphInc           | hdma->Init.MemInc           |
 172              		.loc 1 211 21 is_stmt 0 view .LVU56
 173 002e 5A68     		ldr	r2, [r3, #4]
 212:Drivers/STM32F1xx_HAL_Driver/Src/stm32f1xx_hal_dma.c ****           hdma->Init.PeriphDataAlignment | hdma->Init.MemDataAlignment |
 174              		.loc 1 212 21 view .LVU57
 175 0030 9C68     		ldr	r4, [r3, #8]
 211:Drivers/STM32F1xx_HAL_Driver/Src/stm32f1xx_hal_dma.c ****           hdma->Init.PeriphInc           | hdma->Init.MemInc           |
 176              		.loc 1 211 39 view .LVU58
 177 0032 2243     		orrs	r2, r2, r4
 212:Drivers/STM32F1xx_HAL_Driver/Src/stm32f1xx_hal_dma.c ****           hdma->Init.PeriphDataAlignment | hdma->Init.MemDataAlignment |
 178              		.loc 1 212 54 view .LVU59
 179 0034 DC68     		ldr	r4, [r3, #12]
 212:Drivers/STM32F1xx_HAL_Driver/Src/stm32f1xx_hal_dma.c ****           hdma->Init.PeriphDataAlignment | hdma->Init.MemDataAlignment |
 180              		.loc 1 212 42 view .LVU60
 181 0036 2243     		orrs	r2, r2, r4
 213:Drivers/STM32F1xx_HAL_Driver/Src/stm32f1xx_hal_dma.c ****           hdma->Init.Mode                | hdma->Init.Priority;
 182              		.loc 1 213 21 view .LVU61
 183 0038 1C69     		ldr	r4, [r3, #16]
 212:Drivers/STM32F1xx_HAL_Driver/Src/stm32f1xx_hal_dma.c ****           hdma->Init.PeriphDataAlignment | hdma->Init.MemDataAlignment |
 184              		.loc 1 212 72 view .LVU62
 185 003a 2243     		orrs	r2, r2, r4
 213:Drivers/STM32F1xx_HAL_Driver/Src/stm32f1xx_hal_dma.c ****           hdma->Init.Mode                | hdma->Init.Priority;
 186              		.loc 1 213 54 view .LVU63
 187 003c 5C69     		ldr	r4, [r3, #20]
 213:Drivers/STM32F1xx_HAL_Driver/Src/stm32f1xx_hal_dma.c ****           hdma->Init.Mode                | hdma->Init.Priority;
 188              		.loc 1 213 42 view .LVU64
 189 003e 2243     		orrs	r2, r2, r4
 214:Drivers/STM32F1xx_HAL_Driver/Src/stm32f1xx_hal_dma.c **** 
 190              		.loc 1 214 21 view .LVU65
 191 0040 9C69     		ldr	r4, [r3, #24]
 213:Drivers/STM32F1xx_HAL_Driver/Src/stm32f1xx_hal_dma.c ****           hdma->Init.Mode                | hdma->Init.Priority;
 192              		.loc 1 213 72 view .LVU66
 193 0042 2243     		orrs	r2, r2, r4
 214:Drivers/STM32F1xx_HAL_Driver/Src/stm32f1xx_hal_dma.c **** 
 194              		.loc 1 214 54 view .LVU67
 195 0044 DC69     		ldr	r4, [r3, #28]
 214:Drivers/STM32F1xx_HAL_Driver/Src/stm32f1xx_hal_dma.c **** 
 196              		.loc 1 214 42 view .LVU68
 197 0046 2243     		orrs	r2, r2, r4
 211:Drivers/STM32F1xx_HAL_Driver/Src/stm32f1xx_hal_dma.c ****           hdma->Init.PeriphInc           | hdma->Init.MemInc           |
 198              		.loc 1 211 7 view .LVU69
 199 0048 0243     		orrs	r2, r2, r0
 200              	.LVL10:
 217:Drivers/STM32F1xx_HAL_Driver/Src/stm32f1xx_hal_dma.c **** 
 201              		.loc 1 217 3 is_stmt 1 view .LVU70
 217:Drivers/STM32F1xx_HAL_Driver/Src/stm32f1xx_hal_dma.c **** 
 202              		.loc 1 217 23 is_stmt 0 view .LVU71
 203 004a 0A60     		str	r2, [r1]
ARM GAS  /var/folders/rf/wfq6hz5s56g3yh4wqgd7820c0000gn/T//ccCQD8Z0.s 			page 21


 221:Drivers/STM32F1xx_HAL_Driver/Src/stm32f1xx_hal_dma.c ****   hdma->XferHalfCpltCallback = NULL;
 204              		.loc 1 221 3 is_stmt 1 view .LVU72
 221:Drivers/STM32F1xx_HAL_Driver/Src/stm32f1xx_hal_dma.c ****   hdma->XferHalfCpltCallback = NULL;
 205              		.loc 1 221 26 is_stmt 0 view .LVU73
 206 004c 0020     		movs	r0, #0
 207 004e 9862     		str	r0, [r3, #40]
 222:Drivers/STM32F1xx_HAL_Driver/Src/stm32f1xx_hal_dma.c ****   hdma->XferErrorCallback = NULL;
 208              		.loc 1 222 3 is_stmt 1 view .LVU74
 222:Drivers/STM32F1xx_HAL_Driver/Src/stm32f1xx_hal_dma.c ****   hdma->XferErrorCallback = NULL;
 209              		.loc 1 222 30 is_stmt 0 view .LVU75
 210 0050 D862     		str	r0, [r3, #44]
 223:Drivers/STM32F1xx_HAL_Driver/Src/stm32f1xx_hal_dma.c ****   hdma->XferAbortCallback = NULL;
 211              		.loc 1 223 3 is_stmt 1 view .LVU76
 223:Drivers/STM32F1xx_HAL_Driver/Src/stm32f1xx_hal_dma.c ****   hdma->XferAbortCallback = NULL;
 212              		.loc 1 223 27 is_stmt 0 view .LVU77
 213 0052 1863     		str	r0, [r3, #48]
 224:Drivers/STM32F1xx_HAL_Driver/Src/stm32f1xx_hal_dma.c **** 
 214              		.loc 1 224 3 is_stmt 1 view .LVU78
 224:Drivers/STM32F1xx_HAL_Driver/Src/stm32f1xx_hal_dma.c **** 
 215              		.loc 1 224 27 is_stmt 0 view .LVU79
 216 0054 5863     		str	r0, [r3, #52]
 227:Drivers/STM32F1xx_HAL_Driver/Src/stm32f1xx_hal_dma.c **** 
 217              		.loc 1 227 3 is_stmt 1 view .LVU80
 227:Drivers/STM32F1xx_HAL_Driver/Src/stm32f1xx_hal_dma.c **** 
 218              		.loc 1 227 19 is_stmt 0 view .LVU81
 219 0056 9863     		str	r0, [r3, #56]
 230:Drivers/STM32F1xx_HAL_Driver/Src/stm32f1xx_hal_dma.c ****   /* Allocate lock resource and initialize it */
 220              		.loc 1 230 3 is_stmt 1 view .LVU82
 230:Drivers/STM32F1xx_HAL_Driver/Src/stm32f1xx_hal_dma.c ****   /* Allocate lock resource and initialize it */
 221              		.loc 1 230 15 is_stmt 0 view .LVU83
 222 0058 0122     		movs	r2, #1
 223              	.LVL11:
 230:Drivers/STM32F1xx_HAL_Driver/Src/stm32f1xx_hal_dma.c ****   /* Allocate lock resource and initialize it */
 224              		.loc 1 230 15 view .LVU84
 225 005a 83F82120 		strb	r2, [r3, #33]
 232:Drivers/STM32F1xx_HAL_Driver/Src/stm32f1xx_hal_dma.c ****   
 226              		.loc 1 232 3 is_stmt 1 view .LVU85
 232:Drivers/STM32F1xx_HAL_Driver/Src/stm32f1xx_hal_dma.c ****   
 227              		.loc 1 232 14 is_stmt 0 view .LVU86
 228 005e 83F82000 		strb	r0, [r3, #32]
 234:Drivers/STM32F1xx_HAL_Driver/Src/stm32f1xx_hal_dma.c **** }
 229              		.loc 1 234 3 is_stmt 1 view .LVU87
 235:Drivers/STM32F1xx_HAL_Driver/Src/stm32f1xx_hal_dma.c **** 
 230              		.loc 1 235 1 is_stmt 0 view .LVU88
 231 0062 10BC     		pop	{r4}
 232              	.LCFI4:
 233              		.cfi_restore 4
 234              		.cfi_def_cfa_offset 0
 235 0064 7047     		bx	lr
 236              	.LVL12:
 237              	.L8:
 166:Drivers/STM32F1xx_HAL_Driver/Src/stm32f1xx_hal_dma.c ****   }
 238              		.loc 1 166 12 view .LVU89
 239 0066 0120     		movs	r0, #1
 240              	.LVL13:
 235:Drivers/STM32F1xx_HAL_Driver/Src/stm32f1xx_hal_dma.c **** 
 241              		.loc 1 235 1 view .LVU90
ARM GAS  /var/folders/rf/wfq6hz5s56g3yh4wqgd7820c0000gn/T//ccCQD8Z0.s 			page 22


 242 0068 7047     		bx	lr
 243              	.L14:
 244 006a 00BF     		.align	2
 245              	.L13:
 246 006c F8FFFDBF 		.word	-1073872904
 247 0070 CDCCCCCC 		.word	-858993459
 248 0074 00000240 		.word	1073872896
 249              		.cfi_endproc
 250              	.LFE66:
 252              		.section	.text.HAL_DMA_DeInit,"ax",%progbits
 253              		.align	1
 254              		.global	HAL_DMA_DeInit
 255              		.syntax unified
 256              		.thumb
 257              		.thumb_func
 258              		.fpu softvfp
 260              	HAL_DMA_DeInit:
 261              	.LVL14:
 262              	.LFB67:
 244:Drivers/STM32F1xx_HAL_Driver/Src/stm32f1xx_hal_dma.c ****   /* Check the DMA handle allocation */
 263              		.loc 1 244 1 is_stmt 1 view -0
 264              		.cfi_startproc
 265              		@ args = 0, pretend = 0, frame = 0
 266              		@ frame_needed = 0, uses_anonymous_args = 0
 267              		@ link register save eliminated.
 246:Drivers/STM32F1xx_HAL_Driver/Src/stm32f1xx_hal_dma.c ****   {
 268              		.loc 1 246 3 view .LVU92
 246:Drivers/STM32F1xx_HAL_Driver/Src/stm32f1xx_hal_dma.c ****   {
 269              		.loc 1 246 5 is_stmt 0 view .LVU93
 270 0000 28B3     		cbz	r0, .L17
 244:Drivers/STM32F1xx_HAL_Driver/Src/stm32f1xx_hal_dma.c ****   /* Check the DMA handle allocation */
 271              		.loc 1 244 1 view .LVU94
 272 0002 10B4     		push	{r4}
 273              	.LCFI5:
 274              		.cfi_def_cfa_offset 4
 275              		.cfi_offset 4, -4
 276 0004 0346     		mov	r3, r0
 252:Drivers/STM32F1xx_HAL_Driver/Src/stm32f1xx_hal_dma.c **** 
 277              		.loc 1 252 3 is_stmt 1 view .LVU95
 255:Drivers/STM32F1xx_HAL_Driver/Src/stm32f1xx_hal_dma.c **** 
 278              		.loc 1 255 3 view .LVU96
 279 0006 0168     		ldr	r1, [r0]
 280 0008 0A68     		ldr	r2, [r1]
 281 000a 22F00102 		bic	r2, r2, #1
 282 000e 0A60     		str	r2, [r1]
 258:Drivers/STM32F1xx_HAL_Driver/Src/stm32f1xx_hal_dma.c **** 
 283              		.loc 1 258 3 view .LVU97
 258:Drivers/STM32F1xx_HAL_Driver/Src/stm32f1xx_hal_dma.c **** 
 284              		.loc 1 258 7 is_stmt 0 view .LVU98
 285 0010 0268     		ldr	r2, [r0]
 258:Drivers/STM32F1xx_HAL_Driver/Src/stm32f1xx_hal_dma.c **** 
 286              		.loc 1 258 24 view .LVU99
 287 0012 0020     		movs	r0, #0
 288              	.LVL15:
 258:Drivers/STM32F1xx_HAL_Driver/Src/stm32f1xx_hal_dma.c **** 
 289              		.loc 1 258 24 view .LVU100
 290 0014 1060     		str	r0, [r2]
ARM GAS  /var/folders/rf/wfq6hz5s56g3yh4wqgd7820c0000gn/T//ccCQD8Z0.s 			page 23


 261:Drivers/STM32F1xx_HAL_Driver/Src/stm32f1xx_hal_dma.c **** 
 291              		.loc 1 261 3 is_stmt 1 view .LVU101
 261:Drivers/STM32F1xx_HAL_Driver/Src/stm32f1xx_hal_dma.c **** 
 292              		.loc 1 261 7 is_stmt 0 view .LVU102
 293 0016 1A68     		ldr	r2, [r3]
 261:Drivers/STM32F1xx_HAL_Driver/Src/stm32f1xx_hal_dma.c **** 
 294              		.loc 1 261 25 view .LVU103
 295 0018 5060     		str	r0, [r2, #4]
 264:Drivers/STM32F1xx_HAL_Driver/Src/stm32f1xx_hal_dma.c **** 
 296              		.loc 1 264 3 is_stmt 1 view .LVU104
 264:Drivers/STM32F1xx_HAL_Driver/Src/stm32f1xx_hal_dma.c **** 
 297              		.loc 1 264 7 is_stmt 0 view .LVU105
 298 001a 1A68     		ldr	r2, [r3]
 264:Drivers/STM32F1xx_HAL_Driver/Src/stm32f1xx_hal_dma.c **** 
 299              		.loc 1 264 25 view .LVU106
 300 001c 9060     		str	r0, [r2, #8]
 267:Drivers/STM32F1xx_HAL_Driver/Src/stm32f1xx_hal_dma.c **** 
 301              		.loc 1 267 3 is_stmt 1 view .LVU107
 267:Drivers/STM32F1xx_HAL_Driver/Src/stm32f1xx_hal_dma.c **** 
 302              		.loc 1 267 7 is_stmt 0 view .LVU108
 303 001e 1A68     		ldr	r2, [r3]
 267:Drivers/STM32F1xx_HAL_Driver/Src/stm32f1xx_hal_dma.c **** 
 304              		.loc 1 267 24 view .LVU109
 305 0020 D060     		str	r0, [r2, #12]
 285:Drivers/STM32F1xx_HAL_Driver/Src/stm32f1xx_hal_dma.c ****   hdma->DmaBaseAddress = DMA1;
 306              		.loc 1 285 3 is_stmt 1 view .LVU110
 285:Drivers/STM32F1xx_HAL_Driver/Src/stm32f1xx_hal_dma.c ****   hdma->DmaBaseAddress = DMA1;
 307              		.loc 1 285 40 is_stmt 0 view .LVU111
 308 0022 1968     		ldr	r1, [r3]
 285:Drivers/STM32F1xx_HAL_Driver/Src/stm32f1xx_hal_dma.c ****   hdma->DmaBaseAddress = DMA1;
 309              		.loc 1 285 51 view .LVU112
 310 0024 0B4A     		ldr	r2, .L22
 311 0026 0A44     		add	r2, r2, r1
 285:Drivers/STM32F1xx_HAL_Driver/Src/stm32f1xx_hal_dma.c ****   hdma->DmaBaseAddress = DMA1;
 312              		.loc 1 285 78 view .LVU113
 313 0028 0B49     		ldr	r1, .L22+4
 314 002a A1FB0212 		umull	r1, r2, r1, r2
 315 002e 1209     		lsrs	r2, r2, #4
 285:Drivers/STM32F1xx_HAL_Driver/Src/stm32f1xx_hal_dma.c ****   hdma->DmaBaseAddress = DMA1;
 316              		.loc 1 285 133 view .LVU114
 317 0030 9200     		lsls	r2, r2, #2
 285:Drivers/STM32F1xx_HAL_Driver/Src/stm32f1xx_hal_dma.c ****   hdma->DmaBaseAddress = DMA1;
 318              		.loc 1 285 22 view .LVU115
 319 0032 1A64     		str	r2, [r3, #64]
 286:Drivers/STM32F1xx_HAL_Driver/Src/stm32f1xx_hal_dma.c **** #endif /* STM32F101xE || STM32F101xG || STM32F103xE || STM32F103xG || STM32F100xE || STM32F105xC ||
 320              		.loc 1 286 3 is_stmt 1 view .LVU116
 286:Drivers/STM32F1xx_HAL_Driver/Src/stm32f1xx_hal_dma.c **** #endif /* STM32F101xE || STM32F101xG || STM32F103xE || STM32F103xG || STM32F100xE || STM32F105xC ||
 321              		.loc 1 286 24 is_stmt 0 view .LVU117
 322 0034 094C     		ldr	r4, .L22+8
 323 0036 DC63     		str	r4, [r3, #60]
 290:Drivers/STM32F1xx_HAL_Driver/Src/stm32f1xx_hal_dma.c **** 
 324              		.loc 1 290 3 is_stmt 1 view .LVU118
 290:Drivers/STM32F1xx_HAL_Driver/Src/stm32f1xx_hal_dma.c **** 
 325              		.loc 1 290 46 is_stmt 0 view .LVU119
 326 0038 0121     		movs	r1, #1
 327 003a 01FA02F2 		lsl	r2, r1, r2
 290:Drivers/STM32F1xx_HAL_Driver/Src/stm32f1xx_hal_dma.c **** 
ARM GAS  /var/folders/rf/wfq6hz5s56g3yh4wqgd7820c0000gn/T//ccCQD8Z0.s 			page 24


 328              		.loc 1 290 30 view .LVU120
 329 003e 6260     		str	r2, [r4, #4]
 293:Drivers/STM32F1xx_HAL_Driver/Src/stm32f1xx_hal_dma.c **** 
 330              		.loc 1 293 3 is_stmt 1 view .LVU121
 293:Drivers/STM32F1xx_HAL_Driver/Src/stm32f1xx_hal_dma.c **** 
 331              		.loc 1 293 19 is_stmt 0 view .LVU122
 332 0040 9863     		str	r0, [r3, #56]
 296:Drivers/STM32F1xx_HAL_Driver/Src/stm32f1xx_hal_dma.c **** 
 333              		.loc 1 296 3 is_stmt 1 view .LVU123
 296:Drivers/STM32F1xx_HAL_Driver/Src/stm32f1xx_hal_dma.c **** 
 334              		.loc 1 296 15 is_stmt 0 view .LVU124
 335 0042 83F82100 		strb	r0, [r3, #33]
 299:Drivers/STM32F1xx_HAL_Driver/Src/stm32f1xx_hal_dma.c **** 
 336              		.loc 1 299 3 is_stmt 1 view .LVU125
 299:Drivers/STM32F1xx_HAL_Driver/Src/stm32f1xx_hal_dma.c **** 
 337              		.loc 1 299 3 view .LVU126
 338 0046 83F82000 		strb	r0, [r3, #32]
 299:Drivers/STM32F1xx_HAL_Driver/Src/stm32f1xx_hal_dma.c **** 
 339              		.loc 1 299 3 view .LVU127
 301:Drivers/STM32F1xx_HAL_Driver/Src/stm32f1xx_hal_dma.c **** }
 340              		.loc 1 301 3 view .LVU128
 302:Drivers/STM32F1xx_HAL_Driver/Src/stm32f1xx_hal_dma.c **** 
 341              		.loc 1 302 1 is_stmt 0 view .LVU129
 342 004a 10BC     		pop	{r4}
 343              	.LCFI6:
 344              		.cfi_restore 4
 345              		.cfi_def_cfa_offset 0
 346 004c 7047     		bx	lr
 347              	.LVL16:
 348              	.L17:
 248:Drivers/STM32F1xx_HAL_Driver/Src/stm32f1xx_hal_dma.c ****   }
 349              		.loc 1 248 12 view .LVU130
 350 004e 0120     		movs	r0, #1
 351              	.LVL17:
 302:Drivers/STM32F1xx_HAL_Driver/Src/stm32f1xx_hal_dma.c **** 
 352              		.loc 1 302 1 view .LVU131
 353 0050 7047     		bx	lr
 354              	.L23:
 355 0052 00BF     		.align	2
 356              	.L22:
 357 0054 F8FFFDBF 		.word	-1073872904
 358 0058 CDCCCCCC 		.word	-858993459
 359 005c 00000240 		.word	1073872896
 360              		.cfi_endproc
 361              	.LFE67:
 363              		.section	.text.HAL_DMA_Start,"ax",%progbits
 364              		.align	1
 365              		.global	HAL_DMA_Start
 366              		.syntax unified
 367              		.thumb
 368              		.thumb_func
 369              		.fpu softvfp
 371              	HAL_DMA_Start:
 372              	.LVL18:
 373              	.LFB68:
 337:Drivers/STM32F1xx_HAL_Driver/Src/stm32f1xx_hal_dma.c ****   HAL_StatusTypeDef status = HAL_OK;
 374              		.loc 1 337 1 is_stmt 1 view -0
ARM GAS  /var/folders/rf/wfq6hz5s56g3yh4wqgd7820c0000gn/T//ccCQD8Z0.s 			page 25


 375              		.cfi_startproc
 376              		@ args = 0, pretend = 0, frame = 0
 377              		@ frame_needed = 0, uses_anonymous_args = 0
 337:Drivers/STM32F1xx_HAL_Driver/Src/stm32f1xx_hal_dma.c ****   HAL_StatusTypeDef status = HAL_OK;
 378              		.loc 1 337 1 is_stmt 0 view .LVU133
 379 0000 70B5     		push	{r4, r5, r6, lr}
 380              	.LCFI7:
 381              		.cfi_def_cfa_offset 16
 382              		.cfi_offset 4, -16
 383              		.cfi_offset 5, -12
 384              		.cfi_offset 6, -8
 385              		.cfi_offset 14, -4
 386 0002 0446     		mov	r4, r0
 338:Drivers/STM32F1xx_HAL_Driver/Src/stm32f1xx_hal_dma.c **** 
 387              		.loc 1 338 3 is_stmt 1 view .LVU134
 388              	.LVL19:
 341:Drivers/STM32F1xx_HAL_Driver/Src/stm32f1xx_hal_dma.c **** 
 389              		.loc 1 341 3 view .LVU135
 344:Drivers/STM32F1xx_HAL_Driver/Src/stm32f1xx_hal_dma.c **** 
 390              		.loc 1 344 3 view .LVU136
 344:Drivers/STM32F1xx_HAL_Driver/Src/stm32f1xx_hal_dma.c **** 
 391              		.loc 1 344 3 view .LVU137
 392 0004 90F82000 		ldrb	r0, [r0, #32]	@ zero_extendqisi2
 393              	.LVL20:
 344:Drivers/STM32F1xx_HAL_Driver/Src/stm32f1xx_hal_dma.c **** 
 394              		.loc 1 344 3 is_stmt 0 view .LVU138
 395 0008 0128     		cmp	r0, #1
 396 000a 1FD0     		beq	.L27
 344:Drivers/STM32F1xx_HAL_Driver/Src/stm32f1xx_hal_dma.c **** 
 397              		.loc 1 344 3 is_stmt 1 discriminator 2 view .LVU139
 398 000c 0120     		movs	r0, #1
 399 000e 84F82000 		strb	r0, [r4, #32]
 344:Drivers/STM32F1xx_HAL_Driver/Src/stm32f1xx_hal_dma.c **** 
 400              		.loc 1 344 3 discriminator 2 view .LVU140
 346:Drivers/STM32F1xx_HAL_Driver/Src/stm32f1xx_hal_dma.c ****   {
 401              		.loc 1 346 3 discriminator 2 view .LVU141
 346:Drivers/STM32F1xx_HAL_Driver/Src/stm32f1xx_hal_dma.c ****   {
 402              		.loc 1 346 33 is_stmt 0 discriminator 2 view .LVU142
 403 0012 94F82100 		ldrb	r0, [r4, #33]	@ zero_extendqisi2
 346:Drivers/STM32F1xx_HAL_Driver/Src/stm32f1xx_hal_dma.c ****   {
 404              		.loc 1 346 5 discriminator 2 view .LVU143
 405 0016 0128     		cmp	r0, #1
 406 0018 04D0     		beq	.L29
 364:Drivers/STM32F1xx_HAL_Driver/Src/stm32f1xx_hal_dma.c ****    status = HAL_BUSY;
 407              		.loc 1 364 4 is_stmt 1 view .LVU144
 364:Drivers/STM32F1xx_HAL_Driver/Src/stm32f1xx_hal_dma.c ****    status = HAL_BUSY;
 408              		.loc 1 364 4 view .LVU145
 409 001a 0023     		movs	r3, #0
 410              	.LVL21:
 364:Drivers/STM32F1xx_HAL_Driver/Src/stm32f1xx_hal_dma.c ****    status = HAL_BUSY;
 411              		.loc 1 364 4 is_stmt 0 view .LVU146
 412 001c 84F82030 		strb	r3, [r4, #32]
 364:Drivers/STM32F1xx_HAL_Driver/Src/stm32f1xx_hal_dma.c ****    status = HAL_BUSY;
 413              		.loc 1 364 4 is_stmt 1 view .LVU147
 365:Drivers/STM32F1xx_HAL_Driver/Src/stm32f1xx_hal_dma.c ****   }  
 414              		.loc 1 365 4 view .LVU148
 415              	.LVL22:
ARM GAS  /var/folders/rf/wfq6hz5s56g3yh4wqgd7820c0000gn/T//ccCQD8Z0.s 			page 26


 365:Drivers/STM32F1xx_HAL_Driver/Src/stm32f1xx_hal_dma.c ****   }  
 416              		.loc 1 365 11 is_stmt 0 view .LVU149
 417 0020 0220     		movs	r0, #2
 418              	.LVL23:
 419              	.L25:
 368:Drivers/STM32F1xx_HAL_Driver/Src/stm32f1xx_hal_dma.c **** 
 420              		.loc 1 368 1 view .LVU150
 421 0022 70BD     		pop	{r4, r5, r6, pc}
 422              	.LVL24:
 423              	.L29:
 349:Drivers/STM32F1xx_HAL_Driver/Src/stm32f1xx_hal_dma.c ****     hdma->ErrorCode = HAL_DMA_ERROR_NONE;
 424              		.loc 1 349 5 is_stmt 1 view .LVU151
 349:Drivers/STM32F1xx_HAL_Driver/Src/stm32f1xx_hal_dma.c ****     hdma->ErrorCode = HAL_DMA_ERROR_NONE;
 425              		.loc 1 349 17 is_stmt 0 view .LVU152
 426 0024 0220     		movs	r0, #2
 427 0026 84F82100 		strb	r0, [r4, #33]
 350:Drivers/STM32F1xx_HAL_Driver/Src/stm32f1xx_hal_dma.c ****             
 428              		.loc 1 350 5 is_stmt 1 view .LVU153
 350:Drivers/STM32F1xx_HAL_Driver/Src/stm32f1xx_hal_dma.c ****             
 429              		.loc 1 350 21 is_stmt 0 view .LVU154
 430 002a 0025     		movs	r5, #0
 431 002c A563     		str	r5, [r4, #56]
 353:Drivers/STM32F1xx_HAL_Driver/Src/stm32f1xx_hal_dma.c ****     
 432              		.loc 1 353 5 is_stmt 1 view .LVU155
 433 002e 2668     		ldr	r6, [r4]
 434 0030 3068     		ldr	r0, [r6]
 435 0032 20F00100 		bic	r0, r0, #1
 436 0036 3060     		str	r0, [r6]
 356:Drivers/STM32F1xx_HAL_Driver/Src/stm32f1xx_hal_dma.c ****     
 437              		.loc 1 356 5 view .LVU156
 438 0038 2046     		mov	r0, r4
 439 003a FFF7FEFF 		bl	DMA_SetConfig
 440              	.LVL25:
 359:Drivers/STM32F1xx_HAL_Driver/Src/stm32f1xx_hal_dma.c ****   }
 441              		.loc 1 359 5 view .LVU157
 442 003e 2268     		ldr	r2, [r4]
 443 0040 1368     		ldr	r3, [r2]
 444 0042 43F00103 		orr	r3, r3, #1
 445 0046 1360     		str	r3, [r2]
 338:Drivers/STM32F1xx_HAL_Driver/Src/stm32f1xx_hal_dma.c **** 
 446              		.loc 1 338 21 is_stmt 0 view .LVU158
 447 0048 2846     		mov	r0, r5
 448 004a EAE7     		b	.L25
 449              	.LVL26:
 450              	.L27:
 344:Drivers/STM32F1xx_HAL_Driver/Src/stm32f1xx_hal_dma.c **** 
 451              		.loc 1 344 3 view .LVU159
 452 004c 0220     		movs	r0, #2
 453 004e E8E7     		b	.L25
 454              		.cfi_endproc
 455              	.LFE68:
 457              		.section	.text.HAL_DMA_Start_IT,"ax",%progbits
 458              		.align	1
 459              		.global	HAL_DMA_Start_IT
 460              		.syntax unified
 461              		.thumb
 462              		.thumb_func
ARM GAS  /var/folders/rf/wfq6hz5s56g3yh4wqgd7820c0000gn/T//ccCQD8Z0.s 			page 27


 463              		.fpu softvfp
 465              	HAL_DMA_Start_IT:
 466              	.LVL27:
 467              	.LFB69:
 380:Drivers/STM32F1xx_HAL_Driver/Src/stm32f1xx_hal_dma.c ****   HAL_StatusTypeDef status = HAL_OK;
 468              		.loc 1 380 1 is_stmt 1 view -0
 469              		.cfi_startproc
 470              		@ args = 0, pretend = 0, frame = 0
 471              		@ frame_needed = 0, uses_anonymous_args = 0
 380:Drivers/STM32F1xx_HAL_Driver/Src/stm32f1xx_hal_dma.c ****   HAL_StatusTypeDef status = HAL_OK;
 472              		.loc 1 380 1 is_stmt 0 view .LVU161
 473 0000 38B5     		push	{r3, r4, r5, lr}
 474              	.LCFI8:
 475              		.cfi_def_cfa_offset 16
 476              		.cfi_offset 3, -16
 477              		.cfi_offset 4, -12
 478              		.cfi_offset 5, -8
 479              		.cfi_offset 14, -4
 480 0002 0446     		mov	r4, r0
 381:Drivers/STM32F1xx_HAL_Driver/Src/stm32f1xx_hal_dma.c **** 
 481              		.loc 1 381 3 is_stmt 1 view .LVU162
 482              	.LVL28:
 384:Drivers/STM32F1xx_HAL_Driver/Src/stm32f1xx_hal_dma.c **** 
 483              		.loc 1 384 3 view .LVU163
 387:Drivers/STM32F1xx_HAL_Driver/Src/stm32f1xx_hal_dma.c ****   
 484              		.loc 1 387 3 view .LVU164
 387:Drivers/STM32F1xx_HAL_Driver/Src/stm32f1xx_hal_dma.c ****   
 485              		.loc 1 387 3 view .LVU165
 486 0004 90F82000 		ldrb	r0, [r0, #32]	@ zero_extendqisi2
 487              	.LVL29:
 387:Drivers/STM32F1xx_HAL_Driver/Src/stm32f1xx_hal_dma.c ****   
 488              		.loc 1 387 3 is_stmt 0 view .LVU166
 489 0008 0128     		cmp	r0, #1
 490 000a 31D0     		beq	.L35
 387:Drivers/STM32F1xx_HAL_Driver/Src/stm32f1xx_hal_dma.c ****   
 491              		.loc 1 387 3 is_stmt 1 discriminator 2 view .LVU167
 492 000c 0120     		movs	r0, #1
 493 000e 84F82000 		strb	r0, [r4, #32]
 387:Drivers/STM32F1xx_HAL_Driver/Src/stm32f1xx_hal_dma.c ****   
 494              		.loc 1 387 3 discriminator 2 view .LVU168
 389:Drivers/STM32F1xx_HAL_Driver/Src/stm32f1xx_hal_dma.c ****   {
 495              		.loc 1 389 3 discriminator 2 view .LVU169
 389:Drivers/STM32F1xx_HAL_Driver/Src/stm32f1xx_hal_dma.c ****   {
 496              		.loc 1 389 33 is_stmt 0 discriminator 2 view .LVU170
 497 0012 94F82100 		ldrb	r0, [r4, #33]	@ zero_extendqisi2
 389:Drivers/STM32F1xx_HAL_Driver/Src/stm32f1xx_hal_dma.c ****   {
 498              		.loc 1 389 5 discriminator 2 view .LVU171
 499 0016 0128     		cmp	r0, #1
 500 0018 04D0     		beq	.L37
 419:Drivers/STM32F1xx_HAL_Driver/Src/stm32f1xx_hal_dma.c **** 
 501              		.loc 1 419 5 is_stmt 1 view .LVU172
 419:Drivers/STM32F1xx_HAL_Driver/Src/stm32f1xx_hal_dma.c **** 
 502              		.loc 1 419 5 view .LVU173
 503 001a 0023     		movs	r3, #0
 504              	.LVL30:
 419:Drivers/STM32F1xx_HAL_Driver/Src/stm32f1xx_hal_dma.c **** 
 505              		.loc 1 419 5 is_stmt 0 view .LVU174
ARM GAS  /var/folders/rf/wfq6hz5s56g3yh4wqgd7820c0000gn/T//ccCQD8Z0.s 			page 28


 506 001c 84F82030 		strb	r3, [r4, #32]
 419:Drivers/STM32F1xx_HAL_Driver/Src/stm32f1xx_hal_dma.c **** 
 507              		.loc 1 419 5 is_stmt 1 view .LVU175
 422:Drivers/STM32F1xx_HAL_Driver/Src/stm32f1xx_hal_dma.c ****   }    
 508              		.loc 1 422 5 view .LVU176
 509              	.LVL31:
 422:Drivers/STM32F1xx_HAL_Driver/Src/stm32f1xx_hal_dma.c ****   }    
 510              		.loc 1 422 12 is_stmt 0 view .LVU177
 511 0020 0220     		movs	r0, #2
 512              	.LVL32:
 513              	.L31:
 425:Drivers/STM32F1xx_HAL_Driver/Src/stm32f1xx_hal_dma.c **** 
 514              		.loc 1 425 1 view .LVU178
 515 0022 38BD     		pop	{r3, r4, r5, pc}
 516              	.LVL33:
 517              	.L37:
 392:Drivers/STM32F1xx_HAL_Driver/Src/stm32f1xx_hal_dma.c ****     hdma->ErrorCode = HAL_DMA_ERROR_NONE;
 518              		.loc 1 392 5 is_stmt 1 view .LVU179
 392:Drivers/STM32F1xx_HAL_Driver/Src/stm32f1xx_hal_dma.c ****     hdma->ErrorCode = HAL_DMA_ERROR_NONE;
 519              		.loc 1 392 17 is_stmt 0 view .LVU180
 520 0024 0220     		movs	r0, #2
 521 0026 84F82100 		strb	r0, [r4, #33]
 393:Drivers/STM32F1xx_HAL_Driver/Src/stm32f1xx_hal_dma.c ****     
 522              		.loc 1 393 5 is_stmt 1 view .LVU181
 393:Drivers/STM32F1xx_HAL_Driver/Src/stm32f1xx_hal_dma.c ****     
 523              		.loc 1 393 21 is_stmt 0 view .LVU182
 524 002a 0020     		movs	r0, #0
 525 002c A063     		str	r0, [r4, #56]
 396:Drivers/STM32F1xx_HAL_Driver/Src/stm32f1xx_hal_dma.c ****     
 526              		.loc 1 396 5 is_stmt 1 view .LVU183
 527 002e 2568     		ldr	r5, [r4]
 528 0030 2868     		ldr	r0, [r5]
 529 0032 20F00100 		bic	r0, r0, #1
 530 0036 2860     		str	r0, [r5]
 399:Drivers/STM32F1xx_HAL_Driver/Src/stm32f1xx_hal_dma.c ****     
 531              		.loc 1 399 5 view .LVU184
 532 0038 2046     		mov	r0, r4
 533 003a FFF7FEFF 		bl	DMA_SetConfig
 534              	.LVL34:
 403:Drivers/STM32F1xx_HAL_Driver/Src/stm32f1xx_hal_dma.c ****     {
 535              		.loc 1 403 5 view .LVU185
 403:Drivers/STM32F1xx_HAL_Driver/Src/stm32f1xx_hal_dma.c ****     {
 536              		.loc 1 403 20 is_stmt 0 view .LVU186
 537 003e E36A     		ldr	r3, [r4, #44]
 403:Drivers/STM32F1xx_HAL_Driver/Src/stm32f1xx_hal_dma.c ****     {
 538              		.loc 1 403 7 view .LVU187
 539 0040 5BB1     		cbz	r3, .L33
 406:Drivers/STM32F1xx_HAL_Driver/Src/stm32f1xx_hal_dma.c ****     }
 540              		.loc 1 406 7 is_stmt 1 view .LVU188
 541 0042 2268     		ldr	r2, [r4]
 542 0044 1368     		ldr	r3, [r2]
 543 0046 43F00E03 		orr	r3, r3, #14
 544 004a 1360     		str	r3, [r2]
 545              	.L34:
 414:Drivers/STM32F1xx_HAL_Driver/Src/stm32f1xx_hal_dma.c ****   }
 546              		.loc 1 414 5 view .LVU189
 547 004c 2268     		ldr	r2, [r4]
ARM GAS  /var/folders/rf/wfq6hz5s56g3yh4wqgd7820c0000gn/T//ccCQD8Z0.s 			page 29


 548 004e 1368     		ldr	r3, [r2]
 549 0050 43F00103 		orr	r3, r3, #1
 550 0054 1360     		str	r3, [r2]
 381:Drivers/STM32F1xx_HAL_Driver/Src/stm32f1xx_hal_dma.c **** 
 551              		.loc 1 381 21 is_stmt 0 view .LVU190
 552 0056 0020     		movs	r0, #0
 553 0058 E3E7     		b	.L31
 554              	.L33:
 410:Drivers/STM32F1xx_HAL_Driver/Src/stm32f1xx_hal_dma.c ****       __HAL_DMA_ENABLE_IT(hdma, (DMA_IT_TC | DMA_IT_TE));
 555              		.loc 1 410 7 is_stmt 1 view .LVU191
 556 005a 2268     		ldr	r2, [r4]
 557 005c 1368     		ldr	r3, [r2]
 558 005e 23F00403 		bic	r3, r3, #4
 559 0062 1360     		str	r3, [r2]
 411:Drivers/STM32F1xx_HAL_Driver/Src/stm32f1xx_hal_dma.c ****     }
 560              		.loc 1 411 7 view .LVU192
 561 0064 2268     		ldr	r2, [r4]
 562 0066 1368     		ldr	r3, [r2]
 563 0068 43F00A03 		orr	r3, r3, #10
 564 006c 1360     		str	r3, [r2]
 565 006e EDE7     		b	.L34
 566              	.LVL35:
 567              	.L35:
 387:Drivers/STM32F1xx_HAL_Driver/Src/stm32f1xx_hal_dma.c ****   
 568              		.loc 1 387 3 is_stmt 0 view .LVU193
 569 0070 0220     		movs	r0, #2
 570 0072 D6E7     		b	.L31
 571              		.cfi_endproc
 572              	.LFE69:
 574              		.section	.text.HAL_DMA_Abort,"ax",%progbits
 575              		.align	1
 576              		.global	HAL_DMA_Abort
 577              		.syntax unified
 578              		.thumb
 579              		.thumb_func
 580              		.fpu softvfp
 582              	HAL_DMA_Abort:
 583              	.LVL36:
 584              	.LFB70:
 434:Drivers/STM32F1xx_HAL_Driver/Src/stm32f1xx_hal_dma.c ****   HAL_StatusTypeDef status = HAL_OK;
 585              		.loc 1 434 1 is_stmt 1 view -0
 586              		.cfi_startproc
 587              		@ args = 0, pretend = 0, frame = 0
 588              		@ frame_needed = 0, uses_anonymous_args = 0
 589              		@ link register save eliminated.
 434:Drivers/STM32F1xx_HAL_Driver/Src/stm32f1xx_hal_dma.c ****   HAL_StatusTypeDef status = HAL_OK;
 590              		.loc 1 434 1 is_stmt 0 view .LVU195
 591 0000 0346     		mov	r3, r0
 435:Drivers/STM32F1xx_HAL_Driver/Src/stm32f1xx_hal_dma.c **** 
 592              		.loc 1 435 3 is_stmt 1 view .LVU196
 593              	.LVL37:
 438:Drivers/STM32F1xx_HAL_Driver/Src/stm32f1xx_hal_dma.c ****     
 594              		.loc 1 438 3 view .LVU197
 595 0002 0168     		ldr	r1, [r0]
 596 0004 0A68     		ldr	r2, [r1]
 597 0006 22F00E02 		bic	r2, r2, #14
 598 000a 0A60     		str	r2, [r1]
ARM GAS  /var/folders/rf/wfq6hz5s56g3yh4wqgd7820c0000gn/T//ccCQD8Z0.s 			page 30


 441:Drivers/STM32F1xx_HAL_Driver/Src/stm32f1xx_hal_dma.c ****     
 599              		.loc 1 441 3 view .LVU198
 600 000c 0168     		ldr	r1, [r0]
 601 000e 0A68     		ldr	r2, [r1]
 602 0010 22F00102 		bic	r2, r2, #1
 603 0014 0A60     		str	r2, [r1]
 444:Drivers/STM32F1xx_HAL_Driver/Src/stm32f1xx_hal_dma.c **** 
 604              		.loc 1 444 3 view .LVU199
 444:Drivers/STM32F1xx_HAL_Driver/Src/stm32f1xx_hal_dma.c **** 
 605              		.loc 1 444 53 is_stmt 0 view .LVU200
 606 0016 026C     		ldr	r2, [r0, #64]
 444:Drivers/STM32F1xx_HAL_Driver/Src/stm32f1xx_hal_dma.c **** 
 607              		.loc 1 444 7 view .LVU201
 608 0018 C06B     		ldr	r0, [r0, #60]
 609              	.LVL38:
 444:Drivers/STM32F1xx_HAL_Driver/Src/stm32f1xx_hal_dma.c **** 
 610              		.loc 1 444 46 view .LVU202
 611 001a 0121     		movs	r1, #1
 612 001c 01FA02F2 		lsl	r2, r1, r2
 444:Drivers/STM32F1xx_HAL_Driver/Src/stm32f1xx_hal_dma.c **** 
 613              		.loc 1 444 30 view .LVU203
 614 0020 4260     		str	r2, [r0, #4]
 447:Drivers/STM32F1xx_HAL_Driver/Src/stm32f1xx_hal_dma.c **** 
 615              		.loc 1 447 3 is_stmt 1 view .LVU204
 447:Drivers/STM32F1xx_HAL_Driver/Src/stm32f1xx_hal_dma.c **** 
 616              		.loc 1 447 15 is_stmt 0 view .LVU205
 617 0022 83F82110 		strb	r1, [r3, #33]
 450:Drivers/STM32F1xx_HAL_Driver/Src/stm32f1xx_hal_dma.c ****   
 618              		.loc 1 450 3 is_stmt 1 view .LVU206
 450:Drivers/STM32F1xx_HAL_Driver/Src/stm32f1xx_hal_dma.c ****   
 619              		.loc 1 450 3 view .LVU207
 620 0026 0020     		movs	r0, #0
 621 0028 83F82000 		strb	r0, [r3, #32]
 450:Drivers/STM32F1xx_HAL_Driver/Src/stm32f1xx_hal_dma.c ****   
 622              		.loc 1 450 3 view .LVU208
 452:Drivers/STM32F1xx_HAL_Driver/Src/stm32f1xx_hal_dma.c **** }
 623              		.loc 1 452 3 view .LVU209
 453:Drivers/STM32F1xx_HAL_Driver/Src/stm32f1xx_hal_dma.c **** 
 624              		.loc 1 453 1 is_stmt 0 view .LVU210
 625 002c 7047     		bx	lr
 626              		.cfi_endproc
 627              	.LFE70:
 629              		.section	.text.HAL_DMA_Abort_IT,"ax",%progbits
 630              		.align	1
 631              		.global	HAL_DMA_Abort_IT
 632              		.syntax unified
 633              		.thumb
 634              		.thumb_func
 635              		.fpu softvfp
 637              	HAL_DMA_Abort_IT:
 638              	.LVL39:
 639              	.LFB71:
 462:Drivers/STM32F1xx_HAL_Driver/Src/stm32f1xx_hal_dma.c ****   HAL_StatusTypeDef status = HAL_OK;
 640              		.loc 1 462 1 is_stmt 1 view -0
 641              		.cfi_startproc
 642              		@ args = 0, pretend = 0, frame = 0
 643              		@ frame_needed = 0, uses_anonymous_args = 0
ARM GAS  /var/folders/rf/wfq6hz5s56g3yh4wqgd7820c0000gn/T//ccCQD8Z0.s 			page 31


 462:Drivers/STM32F1xx_HAL_Driver/Src/stm32f1xx_hal_dma.c ****   HAL_StatusTypeDef status = HAL_OK;
 644              		.loc 1 462 1 is_stmt 0 view .LVU212
 645 0000 08B5     		push	{r3, lr}
 646              	.LCFI9:
 647              		.cfi_def_cfa_offset 8
 648              		.cfi_offset 3, -8
 649              		.cfi_offset 14, -4
 463:Drivers/STM32F1xx_HAL_Driver/Src/stm32f1xx_hal_dma.c ****   
 650              		.loc 1 463 3 is_stmt 1 view .LVU213
 651              	.LVL40:
 465:Drivers/STM32F1xx_HAL_Driver/Src/stm32f1xx_hal_dma.c ****   {
 652              		.loc 1 465 3 view .LVU214
 465:Drivers/STM32F1xx_HAL_Driver/Src/stm32f1xx_hal_dma.c ****   {
 653              		.loc 1 465 32 is_stmt 0 view .LVU215
 654 0002 90F82130 		ldrb	r3, [r0, #33]	@ zero_extendqisi2
 465:Drivers/STM32F1xx_HAL_Driver/Src/stm32f1xx_hal_dma.c ****   {
 655              		.loc 1 465 5 view .LVU216
 656 0006 022B     		cmp	r3, #2
 657 0008 03D0     		beq	.L40
 468:Drivers/STM32F1xx_HAL_Driver/Src/stm32f1xx_hal_dma.c ****         
 658              		.loc 1 468 5 is_stmt 1 view .LVU217
 468:Drivers/STM32F1xx_HAL_Driver/Src/stm32f1xx_hal_dma.c ****         
 659              		.loc 1 468 21 is_stmt 0 view .LVU218
 660 000a 0423     		movs	r3, #4
 661 000c 8363     		str	r3, [r0, #56]
 470:Drivers/STM32F1xx_HAL_Driver/Src/stm32f1xx_hal_dma.c ****   }
 662              		.loc 1 470 5 is_stmt 1 view .LVU219
 663              	.LVL41:
 470:Drivers/STM32F1xx_HAL_Driver/Src/stm32f1xx_hal_dma.c ****   }
 664              		.loc 1 470 12 is_stmt 0 view .LVU220
 665 000e 0120     		movs	r0, #1
 666              	.LVL42:
 667              	.L41:
 495:Drivers/STM32F1xx_HAL_Driver/Src/stm32f1xx_hal_dma.c **** }
 668              		.loc 1 495 3 is_stmt 1 view .LVU221
 496:Drivers/STM32F1xx_HAL_Driver/Src/stm32f1xx_hal_dma.c **** 
 669              		.loc 1 496 1 is_stmt 0 view .LVU222
 670 0010 08BD     		pop	{r3, pc}
 671              	.LVL43:
 672              	.L40:
 475:Drivers/STM32F1xx_HAL_Driver/Src/stm32f1xx_hal_dma.c **** 
 673              		.loc 1 475 5 is_stmt 1 view .LVU223
 674 0012 0268     		ldr	r2, [r0]
 675 0014 1368     		ldr	r3, [r2]
 676 0016 23F00E03 		bic	r3, r3, #14
 677 001a 1360     		str	r3, [r2]
 478:Drivers/STM32F1xx_HAL_Driver/Src/stm32f1xx_hal_dma.c **** 
 678              		.loc 1 478 5 view .LVU224
 679 001c 0268     		ldr	r2, [r0]
 680 001e 1368     		ldr	r3, [r2]
 681 0020 23F00103 		bic	r3, r3, #1
 682 0024 1360     		str	r3, [r2]
 481:Drivers/STM32F1xx_HAL_Driver/Src/stm32f1xx_hal_dma.c **** 
 683              		.loc 1 481 5 view .LVU225
 684 0026 0368     		ldr	r3, [r0]
 685 0028 194A     		ldr	r2, .L52
 686 002a 9342     		cmp	r3, r2
ARM GAS  /var/folders/rf/wfq6hz5s56g3yh4wqgd7820c0000gn/T//ccCQD8Z0.s 			page 32


 687 002c 14D0     		beq	.L43
 481:Drivers/STM32F1xx_HAL_Driver/Src/stm32f1xx_hal_dma.c **** 
 688              		.loc 1 481 5 is_stmt 0 discriminator 1 view .LVU226
 689 002e 1432     		adds	r2, r2, #20
 690 0030 9342     		cmp	r3, r2
 691 0032 1FD0     		beq	.L44
 481:Drivers/STM32F1xx_HAL_Driver/Src/stm32f1xx_hal_dma.c **** 
 692              		.loc 1 481 5 discriminator 3 view .LVU227
 693 0034 1432     		adds	r2, r2, #20
 694 0036 9342     		cmp	r3, r2
 695 0038 1ED0     		beq	.L45
 481:Drivers/STM32F1xx_HAL_Driver/Src/stm32f1xx_hal_dma.c **** 
 696              		.loc 1 481 5 discriminator 5 view .LVU228
 697 003a 1432     		adds	r2, r2, #20
 698 003c 9342     		cmp	r3, r2
 699 003e 1ED0     		beq	.L46
 481:Drivers/STM32F1xx_HAL_Driver/Src/stm32f1xx_hal_dma.c **** 
 700              		.loc 1 481 5 discriminator 7 view .LVU229
 701 0040 1432     		adds	r2, r2, #20
 702 0042 9342     		cmp	r3, r2
 703 0044 1ED0     		beq	.L47
 481:Drivers/STM32F1xx_HAL_Driver/Src/stm32f1xx_hal_dma.c **** 
 704              		.loc 1 481 5 discriminator 9 view .LVU230
 705 0046 1432     		adds	r2, r2, #20
 706 0048 9342     		cmp	r3, r2
 707 004a 02D0     		beq	.L51
 481:Drivers/STM32F1xx_HAL_Driver/Src/stm32f1xx_hal_dma.c **** 
 708              		.loc 1 481 5 view .LVU231
 709 004c 4FF08072 		mov	r2, #16777216
 710 0050 03E0     		b	.L42
 711              	.L51:
 712 0052 4FF48012 		mov	r2, #1048576
 713 0056 00E0     		b	.L42
 714              	.L43:
 715 0058 0122     		movs	r2, #1
 716              	.L42:
 481:Drivers/STM32F1xx_HAL_Driver/Src/stm32f1xx_hal_dma.c **** 
 717              		.loc 1 481 5 discriminator 24 view .LVU232
 718 005a 0E4B     		ldr	r3, .L52+4
 719 005c 5A60     		str	r2, [r3, #4]
 484:Drivers/STM32F1xx_HAL_Driver/Src/stm32f1xx_hal_dma.c **** 
 720              		.loc 1 484 5 is_stmt 1 discriminator 24 view .LVU233
 484:Drivers/STM32F1xx_HAL_Driver/Src/stm32f1xx_hal_dma.c **** 
 721              		.loc 1 484 17 is_stmt 0 discriminator 24 view .LVU234
 722 005e 0123     		movs	r3, #1
 723 0060 80F82130 		strb	r3, [r0, #33]
 487:Drivers/STM32F1xx_HAL_Driver/Src/stm32f1xx_hal_dma.c **** 
 724              		.loc 1 487 5 is_stmt 1 discriminator 24 view .LVU235
 487:Drivers/STM32F1xx_HAL_Driver/Src/stm32f1xx_hal_dma.c **** 
 725              		.loc 1 487 5 discriminator 24 view .LVU236
 726 0064 0023     		movs	r3, #0
 727 0066 80F82030 		strb	r3, [r0, #32]
 487:Drivers/STM32F1xx_HAL_Driver/Src/stm32f1xx_hal_dma.c **** 
 728              		.loc 1 487 5 discriminator 24 view .LVU237
 490:Drivers/STM32F1xx_HAL_Driver/Src/stm32f1xx_hal_dma.c ****     {
 729              		.loc 1 490 5 discriminator 24 view .LVU238
 490:Drivers/STM32F1xx_HAL_Driver/Src/stm32f1xx_hal_dma.c ****     {
ARM GAS  /var/folders/rf/wfq6hz5s56g3yh4wqgd7820c0000gn/T//ccCQD8Z0.s 			page 33


 730              		.loc 1 490 12 is_stmt 0 discriminator 24 view .LVU239
 731 006a 436B     		ldr	r3, [r0, #52]
 490:Drivers/STM32F1xx_HAL_Driver/Src/stm32f1xx_hal_dma.c ****     {
 732              		.loc 1 490 7 discriminator 24 view .LVU240
 733 006c 6BB1     		cbz	r3, .L49
 492:Drivers/STM32F1xx_HAL_Driver/Src/stm32f1xx_hal_dma.c ****     } 
 734              		.loc 1 492 7 is_stmt 1 view .LVU241
 735 006e 9847     		blx	r3
 736              	.LVL44:
 463:Drivers/STM32F1xx_HAL_Driver/Src/stm32f1xx_hal_dma.c ****   
 737              		.loc 1 463 21 is_stmt 0 view .LVU242
 738 0070 0020     		movs	r0, #0
 739 0072 CDE7     		b	.L41
 740              	.LVL45:
 741              	.L44:
 481:Drivers/STM32F1xx_HAL_Driver/Src/stm32f1xx_hal_dma.c **** 
 742              		.loc 1 481 5 view .LVU243
 743 0074 1022     		movs	r2, #16
 744 0076 F0E7     		b	.L42
 745              	.L45:
 746 0078 4FF48072 		mov	r2, #256
 747 007c EDE7     		b	.L42
 748              	.L46:
 749 007e 4FF48052 		mov	r2, #4096
 750 0082 EAE7     		b	.L42
 751              	.L47:
 752 0084 4FF48032 		mov	r2, #65536
 753 0088 E7E7     		b	.L42
 754              	.L49:
 463:Drivers/STM32F1xx_HAL_Driver/Src/stm32f1xx_hal_dma.c ****   
 755              		.loc 1 463 21 view .LVU244
 756 008a 0020     		movs	r0, #0
 757              	.LVL46:
 463:Drivers/STM32F1xx_HAL_Driver/Src/stm32f1xx_hal_dma.c ****   
 758              		.loc 1 463 21 view .LVU245
 759 008c C0E7     		b	.L41
 760              	.L53:
 761 008e 00BF     		.align	2
 762              	.L52:
 763 0090 08000240 		.word	1073872904
 764 0094 00000240 		.word	1073872896
 765              		.cfi_endproc
 766              	.LFE71:
 768              		.section	.text.HAL_DMA_PollForTransfer,"ax",%progbits
 769              		.align	1
 770              		.global	HAL_DMA_PollForTransfer
 771              		.syntax unified
 772              		.thumb
 773              		.thumb_func
 774              		.fpu softvfp
 776              	HAL_DMA_PollForTransfer:
 777              	.LVL47:
 778              	.LFB72:
 507:Drivers/STM32F1xx_HAL_Driver/Src/stm32f1xx_hal_dma.c ****   uint32_t temp;
 779              		.loc 1 507 1 is_stmt 1 view -0
 780              		.cfi_startproc
 781              		@ args = 0, pretend = 0, frame = 0
ARM GAS  /var/folders/rf/wfq6hz5s56g3yh4wqgd7820c0000gn/T//ccCQD8Z0.s 			page 34


 782              		@ frame_needed = 0, uses_anonymous_args = 0
 507:Drivers/STM32F1xx_HAL_Driver/Src/stm32f1xx_hal_dma.c ****   uint32_t temp;
 783              		.loc 1 507 1 is_stmt 0 view .LVU247
 784 0000 2DE9F041 		push	{r4, r5, r6, r7, r8, lr}
 785              	.LCFI10:
 786              		.cfi_def_cfa_offset 24
 787              		.cfi_offset 4, -24
 788              		.cfi_offset 5, -20
 789              		.cfi_offset 6, -16
 790              		.cfi_offset 7, -12
 791              		.cfi_offset 8, -8
 792              		.cfi_offset 14, -4
 793 0004 0446     		mov	r4, r0
 508:Drivers/STM32F1xx_HAL_Driver/Src/stm32f1xx_hal_dma.c ****   uint32_t tickstart = 0U;
 794              		.loc 1 508 3 is_stmt 1 view .LVU248
 509:Drivers/STM32F1xx_HAL_Driver/Src/stm32f1xx_hal_dma.c **** 
 795              		.loc 1 509 3 view .LVU249
 796              	.LVL48:
 511:Drivers/STM32F1xx_HAL_Driver/Src/stm32f1xx_hal_dma.c ****   {
 797              		.loc 1 511 3 view .LVU250
 511:Drivers/STM32F1xx_HAL_Driver/Src/stm32f1xx_hal_dma.c ****   {
 798              		.loc 1 511 32 is_stmt 0 view .LVU251
 799 0006 90F82130 		ldrb	r3, [r0, #33]	@ zero_extendqisi2
 511:Drivers/STM32F1xx_HAL_Driver/Src/stm32f1xx_hal_dma.c ****   {
 800              		.loc 1 511 5 view .LVU252
 801 000a 022B     		cmp	r3, #2
 802 000c 07D0     		beq	.L55
 514:Drivers/STM32F1xx_HAL_Driver/Src/stm32f1xx_hal_dma.c ****     __HAL_UNLOCK(hdma);
 803              		.loc 1 514 5 is_stmt 1 view .LVU253
 514:Drivers/STM32F1xx_HAL_Driver/Src/stm32f1xx_hal_dma.c ****     __HAL_UNLOCK(hdma);
 804              		.loc 1 514 21 is_stmt 0 view .LVU254
 805 000e 0423     		movs	r3, #4
 806 0010 8363     		str	r3, [r0, #56]
 515:Drivers/STM32F1xx_HAL_Driver/Src/stm32f1xx_hal_dma.c ****     return HAL_ERROR;
 807              		.loc 1 515 5 is_stmt 1 view .LVU255
 515:Drivers/STM32F1xx_HAL_Driver/Src/stm32f1xx_hal_dma.c ****     return HAL_ERROR;
 808              		.loc 1 515 5 view .LVU256
 809 0012 0023     		movs	r3, #0
 810 0014 80F82030 		strb	r3, [r0, #32]
 515:Drivers/STM32F1xx_HAL_Driver/Src/stm32f1xx_hal_dma.c ****     return HAL_ERROR;
 811              		.loc 1 515 5 view .LVU257
 516:Drivers/STM32F1xx_HAL_Driver/Src/stm32f1xx_hal_dma.c ****   }
 812              		.loc 1 516 5 view .LVU258
 516:Drivers/STM32F1xx_HAL_Driver/Src/stm32f1xx_hal_dma.c ****   }
 813              		.loc 1 516 12 is_stmt 0 view .LVU259
 814 0018 0120     		movs	r0, #1
 815              	.LVL49:
 816              	.L56:
 599:Drivers/STM32F1xx_HAL_Driver/Src/stm32f1xx_hal_dma.c **** 
 817              		.loc 1 599 1 view .LVU260
 818 001a BDE8F081 		pop	{r4, r5, r6, r7, r8, pc}
 819              	.LVL50:
 820              	.L55:
 599:Drivers/STM32F1xx_HAL_Driver/Src/stm32f1xx_hal_dma.c **** 
 821              		.loc 1 599 1 view .LVU261
 822 001e 0F46     		mov	r7, r1
 823 0020 1546     		mov	r5, r2
ARM GAS  /var/folders/rf/wfq6hz5s56g3yh4wqgd7820c0000gn/T//ccCQD8Z0.s 			page 35


 520:Drivers/STM32F1xx_HAL_Driver/Src/stm32f1xx_hal_dma.c ****   {
 824              		.loc 1 520 3 is_stmt 1 view .LVU262
 520:Drivers/STM32F1xx_HAL_Driver/Src/stm32f1xx_hal_dma.c ****   {
 825              		.loc 1 520 21 is_stmt 0 view .LVU263
 826 0022 0368     		ldr	r3, [r0]
 520:Drivers/STM32F1xx_HAL_Driver/Src/stm32f1xx_hal_dma.c ****   {
 827              		.loc 1 520 31 view .LVU264
 828 0024 1A68     		ldr	r2, [r3]
 829              	.LVL51:
 520:Drivers/STM32F1xx_HAL_Driver/Src/stm32f1xx_hal_dma.c ****   {
 830              		.loc 1 520 6 view .LVU265
 831 0026 12F0200F 		tst	r2, #32
 832 002a 15D1     		bne	.L101
 527:Drivers/STM32F1xx_HAL_Driver/Src/stm32f1xx_hal_dma.c ****   {
 833              		.loc 1 527 3 is_stmt 1 view .LVU266
 527:Drivers/STM32F1xx_HAL_Driver/Src/stm32f1xx_hal_dma.c ****   {
 834              		.loc 1 527 5 is_stmt 0 view .LVU267
 835 002c E1B9     		cbnz	r1, .L58
 530:Drivers/STM32F1xx_HAL_Driver/Src/stm32f1xx_hal_dma.c ****   }
 836              		.loc 1 530 5 is_stmt 1 view .LVU268
 530:Drivers/STM32F1xx_HAL_Driver/Src/stm32f1xx_hal_dma.c ****   }
 837              		.loc 1 530 12 is_stmt 0 view .LVU269
 838 002e 7D4A     		ldr	r2, .L110
 839 0030 9342     		cmp	r3, r2
 840 0032 31D0     		beq	.L70
 530:Drivers/STM32F1xx_HAL_Driver/Src/stm32f1xx_hal_dma.c ****   }
 841              		.loc 1 530 12 discriminator 1 view .LVU270
 842 0034 1432     		adds	r2, r2, #20
 843 0036 9342     		cmp	r3, r2
 844 0038 33D0     		beq	.L71
 530:Drivers/STM32F1xx_HAL_Driver/Src/stm32f1xx_hal_dma.c ****   }
 845              		.loc 1 530 12 discriminator 3 view .LVU271
 846 003a 1432     		adds	r2, r2, #20
 847 003c 9342     		cmp	r3, r2
 848 003e 32D0     		beq	.L72
 530:Drivers/STM32F1xx_HAL_Driver/Src/stm32f1xx_hal_dma.c ****   }
 849              		.loc 1 530 12 discriminator 5 view .LVU272
 850 0040 1432     		adds	r2, r2, #20
 851 0042 9342     		cmp	r3, r2
 852 0044 32D0     		beq	.L73
 530:Drivers/STM32F1xx_HAL_Driver/Src/stm32f1xx_hal_dma.c ****   }
 853              		.loc 1 530 12 discriminator 7 view .LVU273
 854 0046 1432     		adds	r2, r2, #20
 855 0048 9342     		cmp	r3, r2
 856 004a 32D0     		beq	.L74
 530:Drivers/STM32F1xx_HAL_Driver/Src/stm32f1xx_hal_dma.c ****   }
 857              		.loc 1 530 12 discriminator 9 view .LVU274
 858 004c 1432     		adds	r2, r2, #20
 859 004e 9342     		cmp	r3, r2
 860 0050 07D0     		beq	.L102
 530:Drivers/STM32F1xx_HAL_Driver/Src/stm32f1xx_hal_dma.c ****   }
 861              		.loc 1 530 12 view .LVU275
 862 0052 4FF00076 		mov	r6, #33554432
 863 0056 20E0     		b	.L59
 864              	.L101:
 522:Drivers/STM32F1xx_HAL_Driver/Src/stm32f1xx_hal_dma.c ****     return HAL_ERROR;
 865              		.loc 1 522 5 is_stmt 1 view .LVU276
ARM GAS  /var/folders/rf/wfq6hz5s56g3yh4wqgd7820c0000gn/T//ccCQD8Z0.s 			page 36


 522:Drivers/STM32F1xx_HAL_Driver/Src/stm32f1xx_hal_dma.c ****     return HAL_ERROR;
 866              		.loc 1 522 21 is_stmt 0 view .LVU277
 867 0058 4FF48073 		mov	r3, #256
 868 005c 8363     		str	r3, [r0, #56]
 523:Drivers/STM32F1xx_HAL_Driver/Src/stm32f1xx_hal_dma.c ****   }
 869              		.loc 1 523 5 is_stmt 1 view .LVU278
 523:Drivers/STM32F1xx_HAL_Driver/Src/stm32f1xx_hal_dma.c ****   }
 870              		.loc 1 523 12 is_stmt 0 view .LVU279
 871 005e 0120     		movs	r0, #1
 872              	.LVL52:
 523:Drivers/STM32F1xx_HAL_Driver/Src/stm32f1xx_hal_dma.c ****   }
 873              		.loc 1 523 12 view .LVU280
 874 0060 DBE7     		b	.L56
 875              	.LVL53:
 876              	.L102:
 530:Drivers/STM32F1xx_HAL_Driver/Src/stm32f1xx_hal_dma.c ****   }
 877              		.loc 1 530 12 view .LVU281
 878 0062 4FF40016 		mov	r6, #2097152
 879 0066 18E0     		b	.L59
 880              	.L58:
 535:Drivers/STM32F1xx_HAL_Driver/Src/stm32f1xx_hal_dma.c ****   }
 881              		.loc 1 535 5 is_stmt 1 view .LVU282
 535:Drivers/STM32F1xx_HAL_Driver/Src/stm32f1xx_hal_dma.c ****   }
 882              		.loc 1 535 12 is_stmt 0 view .LVU283
 883 0068 6E4A     		ldr	r2, .L110
 884 006a 9342     		cmp	r3, r2
 885 006c 24D0     		beq	.L76
 535:Drivers/STM32F1xx_HAL_Driver/Src/stm32f1xx_hal_dma.c ****   }
 886              		.loc 1 535 12 discriminator 1 view .LVU284
 887 006e 1432     		adds	r2, r2, #20
 888 0070 9342     		cmp	r3, r2
 889 0072 23D0     		beq	.L77
 535:Drivers/STM32F1xx_HAL_Driver/Src/stm32f1xx_hal_dma.c ****   }
 890              		.loc 1 535 12 discriminator 3 view .LVU285
 891 0074 1432     		adds	r2, r2, #20
 892 0076 9342     		cmp	r3, r2
 893 0078 22D0     		beq	.L78
 535:Drivers/STM32F1xx_HAL_Driver/Src/stm32f1xx_hal_dma.c ****   }
 894              		.loc 1 535 12 discriminator 5 view .LVU286
 895 007a 1432     		adds	r2, r2, #20
 896 007c 9342     		cmp	r3, r2
 897 007e 22D0     		beq	.L79
 535:Drivers/STM32F1xx_HAL_Driver/Src/stm32f1xx_hal_dma.c ****   }
 898              		.loc 1 535 12 discriminator 7 view .LVU287
 899 0080 1432     		adds	r2, r2, #20
 900 0082 9342     		cmp	r3, r2
 901 0084 22D0     		beq	.L80
 535:Drivers/STM32F1xx_HAL_Driver/Src/stm32f1xx_hal_dma.c ****   }
 902              		.loc 1 535 12 discriminator 9 view .LVU288
 903 0086 1432     		adds	r2, r2, #20
 904 0088 9342     		cmp	r3, r2
 905 008a 02D0     		beq	.L103
 535:Drivers/STM32F1xx_HAL_Driver/Src/stm32f1xx_hal_dma.c ****   }
 906              		.loc 1 535 12 view .LVU289
 907 008c 4FF08066 		mov	r6, #67108864
 908 0090 03E0     		b	.L59
 909              	.L103:
ARM GAS  /var/folders/rf/wfq6hz5s56g3yh4wqgd7820c0000gn/T//ccCQD8Z0.s 			page 37


 910 0092 4FF48006 		mov	r6, #4194304
 911 0096 00E0     		b	.L59
 912              	.L70:
 530:Drivers/STM32F1xx_HAL_Driver/Src/stm32f1xx_hal_dma.c ****   }
 913              		.loc 1 530 12 view .LVU290
 914 0098 0226     		movs	r6, #2
 915              	.L59:
 916              	.LVL54:
 539:Drivers/STM32F1xx_HAL_Driver/Src/stm32f1xx_hal_dma.c **** 
 917              		.loc 1 539 3 is_stmt 1 view .LVU291
 539:Drivers/STM32F1xx_HAL_Driver/Src/stm32f1xx_hal_dma.c **** 
 918              		.loc 1 539 15 is_stmt 0 view .LVU292
 919 009a FFF7FEFF 		bl	HAL_GetTick
 920              	.LVL55:
 539:Drivers/STM32F1xx_HAL_Driver/Src/stm32f1xx_hal_dma.c **** 
 921              		.loc 1 539 15 view .LVU293
 922 009e 8046     		mov	r8, r0
 923              	.LVL56:
 541:Drivers/STM32F1xx_HAL_Driver/Src/stm32f1xx_hal_dma.c ****   {
 924              		.loc 1 541 3 is_stmt 1 view .LVU294
 541:Drivers/STM32F1xx_HAL_Driver/Src/stm32f1xx_hal_dma.c ****   {
 925              		.loc 1 541 8 is_stmt 0 view .LVU295
 926 00a0 20E0     		b	.L63
 927              	.LVL57:
 928              	.L71:
 530:Drivers/STM32F1xx_HAL_Driver/Src/stm32f1xx_hal_dma.c ****   }
 929              		.loc 1 530 12 view .LVU296
 930 00a2 2026     		movs	r6, #32
 931 00a4 F9E7     		b	.L59
 932              	.L72:
 933 00a6 4FF40076 		mov	r6, #512
 934 00aa F6E7     		b	.L59
 935              	.L73:
 936 00ac 4FF40056 		mov	r6, #8192
 937 00b0 F3E7     		b	.L59
 938              	.L74:
 939 00b2 4FF40036 		mov	r6, #131072
 940 00b6 F0E7     		b	.L59
 941              	.L76:
 535:Drivers/STM32F1xx_HAL_Driver/Src/stm32f1xx_hal_dma.c ****   }
 942              		.loc 1 535 12 view .LVU297
 943 00b8 0426     		movs	r6, #4
 944 00ba EEE7     		b	.L59
 945              	.L77:
 946 00bc 4026     		movs	r6, #64
 947 00be ECE7     		b	.L59
 948              	.L78:
 949 00c0 4FF48066 		mov	r6, #1024
 950 00c4 E9E7     		b	.L59
 951              	.L79:
 952 00c6 4FF48046 		mov	r6, #16384
 953 00ca E6E7     		b	.L59
 954              	.L80:
 955 00cc 4FF48026 		mov	r6, #262144
 956 00d0 E3E7     		b	.L59
 957              	.LVL58:
 958              	.L107:
ARM GAS  /var/folders/rf/wfq6hz5s56g3yh4wqgd7820c0000gn/T//ccCQD8Z0.s 			page 38


 543:Drivers/STM32F1xx_HAL_Driver/Src/stm32f1xx_hal_dma.c ****     {
 959              		.loc 1 543 9 view .LVU298
 960 00d2 4FF40003 		mov	r3, #8388608
 961 00d6 00E0     		b	.L61
 962              	.L82:
 963 00d8 0823     		movs	r3, #8
 964              	.L61:
 543:Drivers/STM32F1xx_HAL_Driver/Src/stm32f1xx_hal_dma.c ****     {
 965              		.loc 1 543 7 discriminator 24 view .LVU299
 966 00da 1A42     		tst	r2, r3
 967 00dc 29D1     		bne	.L104
 562:Drivers/STM32F1xx_HAL_Driver/Src/stm32f1xx_hal_dma.c ****     {
 968              		.loc 1 562 5 is_stmt 1 view .LVU300
 562:Drivers/STM32F1xx_HAL_Driver/Src/stm32f1xx_hal_dma.c ****     {
 969              		.loc 1 562 7 is_stmt 0 view .LVU301
 970 00de B5F1FF3F 		cmp	r5, #-1
 971 00e2 35D1     		bne	.L105
 972              	.L63:
 541:Drivers/STM32F1xx_HAL_Driver/Src/stm32f1xx_hal_dma.c ****   {
 973              		.loc 1 541 8 is_stmt 1 view .LVU302
 541:Drivers/STM32F1xx_HAL_Driver/Src/stm32f1xx_hal_dma.c ****   {
 974              		.loc 1 541 9 is_stmt 0 view .LVU303
 975 00e4 504B     		ldr	r3, .L110+4
 976 00e6 1B68     		ldr	r3, [r3]
 541:Drivers/STM32F1xx_HAL_Driver/Src/stm32f1xx_hal_dma.c ****   {
 977              		.loc 1 541 8 view .LVU304
 978 00e8 3342     		tst	r3, r6
 979 00ea 43D1     		bne	.L106
 543:Drivers/STM32F1xx_HAL_Driver/Src/stm32f1xx_hal_dma.c ****     {
 980              		.loc 1 543 5 is_stmt 1 view .LVU305
 543:Drivers/STM32F1xx_HAL_Driver/Src/stm32f1xx_hal_dma.c ****     {
 981              		.loc 1 543 9 is_stmt 0 view .LVU306
 982 00ec 4E4B     		ldr	r3, .L110+4
 983 00ee 1A68     		ldr	r2, [r3]
 984 00f0 2368     		ldr	r3, [r4]
 985 00f2 4C49     		ldr	r1, .L110
 986 00f4 8B42     		cmp	r3, r1
 987 00f6 EFD0     		beq	.L82
 543:Drivers/STM32F1xx_HAL_Driver/Src/stm32f1xx_hal_dma.c ****     {
 988              		.loc 1 543 9 discriminator 1 view .LVU307
 989 00f8 1431     		adds	r1, r1, #20
 990 00fa 8B42     		cmp	r3, r1
 991 00fc 0ED0     		beq	.L83
 543:Drivers/STM32F1xx_HAL_Driver/Src/stm32f1xx_hal_dma.c ****     {
 992              		.loc 1 543 9 discriminator 3 view .LVU308
 993 00fe 1431     		adds	r1, r1, #20
 994 0100 8B42     		cmp	r3, r1
 995 0102 0DD0     		beq	.L84
 543:Drivers/STM32F1xx_HAL_Driver/Src/stm32f1xx_hal_dma.c ****     {
 996              		.loc 1 543 9 discriminator 5 view .LVU309
 997 0104 1431     		adds	r1, r1, #20
 998 0106 8B42     		cmp	r3, r1
 999 0108 0DD0     		beq	.L85
 543:Drivers/STM32F1xx_HAL_Driver/Src/stm32f1xx_hal_dma.c ****     {
 1000              		.loc 1 543 9 discriminator 7 view .LVU310
 1001 010a 1431     		adds	r1, r1, #20
 1002 010c 8B42     		cmp	r3, r1
ARM GAS  /var/folders/rf/wfq6hz5s56g3yh4wqgd7820c0000gn/T//ccCQD8Z0.s 			page 39


 1003 010e 0DD0     		beq	.L86
 543:Drivers/STM32F1xx_HAL_Driver/Src/stm32f1xx_hal_dma.c ****     {
 1004              		.loc 1 543 9 discriminator 9 view .LVU311
 1005 0110 1431     		adds	r1, r1, #20
 1006 0112 8B42     		cmp	r3, r1
 1007 0114 DDD0     		beq	.L107
 543:Drivers/STM32F1xx_HAL_Driver/Src/stm32f1xx_hal_dma.c ****     {
 1008              		.loc 1 543 9 view .LVU312
 1009 0116 4FF00063 		mov	r3, #134217728
 1010 011a DEE7     		b	.L61
 1011              	.L83:
 1012 011c 8023     		movs	r3, #128
 1013 011e DCE7     		b	.L61
 1014              	.L84:
 1015 0120 4FF40063 		mov	r3, #2048
 1016 0124 D9E7     		b	.L61
 1017              	.L85:
 1018 0126 4FF40043 		mov	r3, #32768
 1019 012a D6E7     		b	.L61
 1020              	.L86:
 1021 012c 4FF40023 		mov	r3, #524288
 1022 0130 D3E7     		b	.L61
 1023              	.L104:
 548:Drivers/STM32F1xx_HAL_Driver/Src/stm32f1xx_hal_dma.c **** 
 1024              		.loc 1 548 7 is_stmt 1 view .LVU313
 548:Drivers/STM32F1xx_HAL_Driver/Src/stm32f1xx_hal_dma.c **** 
 1025              		.loc 1 548 57 is_stmt 0 view .LVU314
 1026 0132 236C     		ldr	r3, [r4, #64]
 548:Drivers/STM32F1xx_HAL_Driver/Src/stm32f1xx_hal_dma.c **** 
 1027              		.loc 1 548 11 view .LVU315
 1028 0134 E26B     		ldr	r2, [r4, #60]
 548:Drivers/STM32F1xx_HAL_Driver/Src/stm32f1xx_hal_dma.c **** 
 1029              		.loc 1 548 50 view .LVU316
 1030 0136 0120     		movs	r0, #1
 1031 0138 00FA03F3 		lsl	r3, r0, r3
 548:Drivers/STM32F1xx_HAL_Driver/Src/stm32f1xx_hal_dma.c **** 
 1032              		.loc 1 548 34 view .LVU317
 1033 013c 5360     		str	r3, [r2, #4]
 551:Drivers/STM32F1xx_HAL_Driver/Src/stm32f1xx_hal_dma.c **** 
 1034              		.loc 1 551 7 is_stmt 1 view .LVU318
 1035 013e A36B     		ldr	r3, [r4, #56]
 1036 0140 0343     		orrs	r3, r3, r0
 1037 0142 A363     		str	r3, [r4, #56]
 554:Drivers/STM32F1xx_HAL_Driver/Src/stm32f1xx_hal_dma.c **** 
 1038              		.loc 1 554 7 view .LVU319
 554:Drivers/STM32F1xx_HAL_Driver/Src/stm32f1xx_hal_dma.c **** 
 1039              		.loc 1 554 18 is_stmt 0 view .LVU320
 1040 0144 84F82100 		strb	r0, [r4, #33]
 557:Drivers/STM32F1xx_HAL_Driver/Src/stm32f1xx_hal_dma.c **** 
 1041              		.loc 1 557 7 is_stmt 1 view .LVU321
 557:Drivers/STM32F1xx_HAL_Driver/Src/stm32f1xx_hal_dma.c **** 
 1042              		.loc 1 557 7 view .LVU322
 1043 0148 0023     		movs	r3, #0
 1044 014a 84F82030 		strb	r3, [r4, #32]
 557:Drivers/STM32F1xx_HAL_Driver/Src/stm32f1xx_hal_dma.c **** 
 1045              		.loc 1 557 7 view .LVU323
 559:Drivers/STM32F1xx_HAL_Driver/Src/stm32f1xx_hal_dma.c ****     }
ARM GAS  /var/folders/rf/wfq6hz5s56g3yh4wqgd7820c0000gn/T//ccCQD8Z0.s 			page 40


 1046              		.loc 1 559 7 view .LVU324
 559:Drivers/STM32F1xx_HAL_Driver/Src/stm32f1xx_hal_dma.c ****     }
 1047              		.loc 1 559 14 is_stmt 0 view .LVU325
 1048 014e 64E7     		b	.L56
 1049              	.L105:
 564:Drivers/STM32F1xx_HAL_Driver/Src/stm32f1xx_hal_dma.c ****       {
 1050              		.loc 1 564 7 is_stmt 1 view .LVU326
 564:Drivers/STM32F1xx_HAL_Driver/Src/stm32f1xx_hal_dma.c ****       {
 1051              		.loc 1 564 9 is_stmt 0 view .LVU327
 1052 0150 2DB1     		cbz	r5, .L64
 564:Drivers/STM32F1xx_HAL_Driver/Src/stm32f1xx_hal_dma.c ****       {
 1053              		.loc 1 564 31 discriminator 1 view .LVU328
 1054 0152 FFF7FEFF 		bl	HAL_GetTick
 1055              	.LVL59:
 564:Drivers/STM32F1xx_HAL_Driver/Src/stm32f1xx_hal_dma.c ****       {
 1056              		.loc 1 564 45 discriminator 1 view .LVU329
 1057 0156 A0EB0800 		sub	r0, r0, r8
 564:Drivers/STM32F1xx_HAL_Driver/Src/stm32f1xx_hal_dma.c ****       {
 1058              		.loc 1 564 26 discriminator 1 view .LVU330
 1059 015a A842     		cmp	r0, r5
 1060 015c C2D9     		bls	.L63
 1061              	.L64:
 567:Drivers/STM32F1xx_HAL_Driver/Src/stm32f1xx_hal_dma.c **** 
 1062              		.loc 1 567 9 is_stmt 1 view .LVU331
 1063 015e A36B     		ldr	r3, [r4, #56]
 1064 0160 43F02003 		orr	r3, r3, #32
 1065 0164 A363     		str	r3, [r4, #56]
 570:Drivers/STM32F1xx_HAL_Driver/Src/stm32f1xx_hal_dma.c **** 
 1066              		.loc 1 570 9 view .LVU332
 570:Drivers/STM32F1xx_HAL_Driver/Src/stm32f1xx_hal_dma.c **** 
 1067              		.loc 1 570 21 is_stmt 0 view .LVU333
 1068 0166 0120     		movs	r0, #1
 1069 0168 84F82100 		strb	r0, [r4, #33]
 573:Drivers/STM32F1xx_HAL_Driver/Src/stm32f1xx_hal_dma.c **** 
 1070              		.loc 1 573 9 is_stmt 1 view .LVU334
 573:Drivers/STM32F1xx_HAL_Driver/Src/stm32f1xx_hal_dma.c **** 
 1071              		.loc 1 573 9 view .LVU335
 1072 016c 0023     		movs	r3, #0
 1073 016e 84F82030 		strb	r3, [r4, #32]
 573:Drivers/STM32F1xx_HAL_Driver/Src/stm32f1xx_hal_dma.c **** 
 1074              		.loc 1 573 9 view .LVU336
 575:Drivers/STM32F1xx_HAL_Driver/Src/stm32f1xx_hal_dma.c ****       }
 1075              		.loc 1 575 9 view .LVU337
 575:Drivers/STM32F1xx_HAL_Driver/Src/stm32f1xx_hal_dma.c ****       }
 1076              		.loc 1 575 16 is_stmt 0 view .LVU338
 1077 0172 52E7     		b	.L56
 1078              	.L106:
 580:Drivers/STM32F1xx_HAL_Driver/Src/stm32f1xx_hal_dma.c ****   {
 1079              		.loc 1 580 3 is_stmt 1 view .LVU339
 580:Drivers/STM32F1xx_HAL_Driver/Src/stm32f1xx_hal_dma.c ****   {
 1080              		.loc 1 580 5 is_stmt 0 view .LVU340
 1081 0174 6FBB     		cbnz	r7, .L66
 583:Drivers/STM32F1xx_HAL_Driver/Src/stm32f1xx_hal_dma.c **** 
 1082              		.loc 1 583 5 is_stmt 1 view .LVU341
 1083 0176 2368     		ldr	r3, [r4]
 1084 0178 2A4A     		ldr	r2, .L110
 1085 017a 9342     		cmp	r3, r2
ARM GAS  /var/folders/rf/wfq6hz5s56g3yh4wqgd7820c0000gn/T//ccCQD8Z0.s 			page 41


 1086 017c 14D0     		beq	.L88
 583:Drivers/STM32F1xx_HAL_Driver/Src/stm32f1xx_hal_dma.c **** 
 1087              		.loc 1 583 5 is_stmt 0 discriminator 1 view .LVU342
 1088 017e 1432     		adds	r2, r2, #20
 1089 0180 9342     		cmp	r3, r2
 1090 0182 1BD0     		beq	.L89
 583:Drivers/STM32F1xx_HAL_Driver/Src/stm32f1xx_hal_dma.c **** 
 1091              		.loc 1 583 5 discriminator 3 view .LVU343
 1092 0184 1432     		adds	r2, r2, #20
 1093 0186 9342     		cmp	r3, r2
 1094 0188 1AD0     		beq	.L90
 583:Drivers/STM32F1xx_HAL_Driver/Src/stm32f1xx_hal_dma.c **** 
 1095              		.loc 1 583 5 discriminator 5 view .LVU344
 1096 018a 1432     		adds	r2, r2, #20
 1097 018c 9342     		cmp	r3, r2
 1098 018e 1AD0     		beq	.L91
 583:Drivers/STM32F1xx_HAL_Driver/Src/stm32f1xx_hal_dma.c **** 
 1099              		.loc 1 583 5 discriminator 7 view .LVU345
 1100 0190 1432     		adds	r2, r2, #20
 1101 0192 9342     		cmp	r3, r2
 1102 0194 1AD0     		beq	.L92
 583:Drivers/STM32F1xx_HAL_Driver/Src/stm32f1xx_hal_dma.c **** 
 1103              		.loc 1 583 5 discriminator 9 view .LVU346
 1104 0196 1432     		adds	r2, r2, #20
 1105 0198 9342     		cmp	r3, r2
 1106 019a 02D0     		beq	.L108
 583:Drivers/STM32F1xx_HAL_Driver/Src/stm32f1xx_hal_dma.c **** 
 1107              		.loc 1 583 5 view .LVU347
 1108 019c 4FF00072 		mov	r2, #33554432
 1109 01a0 03E0     		b	.L67
 1110              	.L108:
 1111 01a2 4FF40012 		mov	r2, #2097152
 1112 01a6 00E0     		b	.L67
 1113              	.L88:
 1114 01a8 0222     		movs	r2, #2
 1115              	.L67:
 583:Drivers/STM32F1xx_HAL_Driver/Src/stm32f1xx_hal_dma.c **** 
 1116              		.loc 1 583 5 discriminator 24 view .LVU348
 1117 01aa 1F4B     		ldr	r3, .L110+4
 1118 01ac 5A60     		str	r2, [r3, #4]
 587:Drivers/STM32F1xx_HAL_Driver/Src/stm32f1xx_hal_dma.c ****   }
 1119              		.loc 1 587 5 is_stmt 1 discriminator 24 view .LVU349
 587:Drivers/STM32F1xx_HAL_Driver/Src/stm32f1xx_hal_dma.c ****   }
 1120              		.loc 1 587 17 is_stmt 0 discriminator 24 view .LVU350
 1121 01ae 0123     		movs	r3, #1
 1122 01b0 84F82130 		strb	r3, [r4, #33]
 1123              	.L68:
 596:Drivers/STM32F1xx_HAL_Driver/Src/stm32f1xx_hal_dma.c **** 
 1124              		.loc 1 596 3 is_stmt 1 view .LVU351
 596:Drivers/STM32F1xx_HAL_Driver/Src/stm32f1xx_hal_dma.c **** 
 1125              		.loc 1 596 3 view .LVU352
 1126 01b4 0020     		movs	r0, #0
 1127 01b6 84F82000 		strb	r0, [r4, #32]
 596:Drivers/STM32F1xx_HAL_Driver/Src/stm32f1xx_hal_dma.c **** 
 1128              		.loc 1 596 3 view .LVU353
 598:Drivers/STM32F1xx_HAL_Driver/Src/stm32f1xx_hal_dma.c **** }
 1129              		.loc 1 598 3 view .LVU354
ARM GAS  /var/folders/rf/wfq6hz5s56g3yh4wqgd7820c0000gn/T//ccCQD8Z0.s 			page 42


 598:Drivers/STM32F1xx_HAL_Driver/Src/stm32f1xx_hal_dma.c **** }
 1130              		.loc 1 598 10 is_stmt 0 view .LVU355
 1131 01ba 2EE7     		b	.L56
 1132              	.L89:
 583:Drivers/STM32F1xx_HAL_Driver/Src/stm32f1xx_hal_dma.c **** 
 1133              		.loc 1 583 5 view .LVU356
 1134 01bc 2022     		movs	r2, #32
 1135 01be F4E7     		b	.L67
 1136              	.L90:
 1137 01c0 4FF40072 		mov	r2, #512
 1138 01c4 F1E7     		b	.L67
 1139              	.L91:
 1140 01c6 4FF40052 		mov	r2, #8192
 1141 01ca EEE7     		b	.L67
 1142              	.L92:
 1143 01cc 4FF40032 		mov	r2, #131072
 1144 01d0 EBE7     		b	.L67
 1145              	.L66:
 592:Drivers/STM32F1xx_HAL_Driver/Src/stm32f1xx_hal_dma.c ****   }
 1146              		.loc 1 592 5 is_stmt 1 view .LVU357
 1147 01d2 2368     		ldr	r3, [r4]
 1148 01d4 134A     		ldr	r2, .L110
 1149 01d6 9342     		cmp	r3, r2
 1150 01d8 14D0     		beq	.L94
 592:Drivers/STM32F1xx_HAL_Driver/Src/stm32f1xx_hal_dma.c ****   }
 1151              		.loc 1 592 5 is_stmt 0 discriminator 1 view .LVU358
 1152 01da 1432     		adds	r2, r2, #20
 1153 01dc 9342     		cmp	r3, r2
 1154 01de 15D0     		beq	.L95
 592:Drivers/STM32F1xx_HAL_Driver/Src/stm32f1xx_hal_dma.c ****   }
 1155              		.loc 1 592 5 discriminator 3 view .LVU359
 1156 01e0 1432     		adds	r2, r2, #20
 1157 01e2 9342     		cmp	r3, r2
 1158 01e4 14D0     		beq	.L96
 592:Drivers/STM32F1xx_HAL_Driver/Src/stm32f1xx_hal_dma.c ****   }
 1159              		.loc 1 592 5 discriminator 5 view .LVU360
 1160 01e6 1432     		adds	r2, r2, #20
 1161 01e8 9342     		cmp	r3, r2
 1162 01ea 14D0     		beq	.L97
 592:Drivers/STM32F1xx_HAL_Driver/Src/stm32f1xx_hal_dma.c ****   }
 1163              		.loc 1 592 5 discriminator 7 view .LVU361
 1164 01ec 1432     		adds	r2, r2, #20
 1165 01ee 9342     		cmp	r3, r2
 1166 01f0 14D0     		beq	.L98
 592:Drivers/STM32F1xx_HAL_Driver/Src/stm32f1xx_hal_dma.c ****   }
 1167              		.loc 1 592 5 discriminator 9 view .LVU362
 1168 01f2 1432     		adds	r2, r2, #20
 1169 01f4 9342     		cmp	r3, r2
 1170 01f6 02D0     		beq	.L109
 592:Drivers/STM32F1xx_HAL_Driver/Src/stm32f1xx_hal_dma.c ****   }
 1171              		.loc 1 592 5 view .LVU363
 1172 01f8 4FF08062 		mov	r2, #67108864
 1173 01fc 03E0     		b	.L69
 1174              	.L109:
 1175 01fe 4FF48002 		mov	r2, #4194304
 1176 0202 00E0     		b	.L69
 1177              	.L94:
ARM GAS  /var/folders/rf/wfq6hz5s56g3yh4wqgd7820c0000gn/T//ccCQD8Z0.s 			page 43


 1178 0204 0422     		movs	r2, #4
 1179              	.L69:
 592:Drivers/STM32F1xx_HAL_Driver/Src/stm32f1xx_hal_dma.c ****   }
 1180              		.loc 1 592 5 discriminator 24 view .LVU364
 1181 0206 084B     		ldr	r3, .L110+4
 1182 0208 5A60     		str	r2, [r3, #4]
 1183 020a D3E7     		b	.L68
 1184              	.L95:
 592:Drivers/STM32F1xx_HAL_Driver/Src/stm32f1xx_hal_dma.c ****   }
 1185              		.loc 1 592 5 view .LVU365
 1186 020c 4022     		movs	r2, #64
 1187 020e FAE7     		b	.L69
 1188              	.L96:
 1189 0210 4FF48062 		mov	r2, #1024
 1190 0214 F7E7     		b	.L69
 1191              	.L97:
 1192 0216 4FF48042 		mov	r2, #16384
 1193 021a F4E7     		b	.L69
 1194              	.L98:
 1195 021c 4FF48022 		mov	r2, #262144
 1196 0220 F1E7     		b	.L69
 1197              	.L111:
 1198 0222 00BF     		.align	2
 1199              	.L110:
 1200 0224 08000240 		.word	1073872904
 1201 0228 00000240 		.word	1073872896
 1202              		.cfi_endproc
 1203              	.LFE72:
 1205              		.section	.text.HAL_DMA_IRQHandler,"ax",%progbits
 1206              		.align	1
 1207              		.global	HAL_DMA_IRQHandler
 1208              		.syntax unified
 1209              		.thumb
 1210              		.thumb_func
 1211              		.fpu softvfp
 1213              	HAL_DMA_IRQHandler:
 1214              	.LVL60:
 1215              	.LFB73:
 608:Drivers/STM32F1xx_HAL_Driver/Src/stm32f1xx_hal_dma.c ****   uint32_t flag_it = hdma->DmaBaseAddress->ISR;
 1216              		.loc 1 608 1 is_stmt 1 view -0
 1217              		.cfi_startproc
 1218              		@ args = 0, pretend = 0, frame = 0
 1219              		@ frame_needed = 0, uses_anonymous_args = 0
 608:Drivers/STM32F1xx_HAL_Driver/Src/stm32f1xx_hal_dma.c ****   uint32_t flag_it = hdma->DmaBaseAddress->ISR;
 1220              		.loc 1 608 1 is_stmt 0 view .LVU367
 1221 0000 38B5     		push	{r3, r4, r5, lr}
 1222              	.LCFI11:
 1223              		.cfi_def_cfa_offset 16
 1224              		.cfi_offset 3, -16
 1225              		.cfi_offset 4, -12
 1226              		.cfi_offset 5, -8
 1227              		.cfi_offset 14, -4
 609:Drivers/STM32F1xx_HAL_Driver/Src/stm32f1xx_hal_dma.c ****   uint32_t source_it = hdma->Instance->CCR;
 1228              		.loc 1 609 3 is_stmt 1 view .LVU368
 609:Drivers/STM32F1xx_HAL_Driver/Src/stm32f1xx_hal_dma.c ****   uint32_t source_it = hdma->Instance->CCR;
 1229              		.loc 1 609 26 is_stmt 0 view .LVU369
 1230 0002 C36B     		ldr	r3, [r0, #60]
ARM GAS  /var/folders/rf/wfq6hz5s56g3yh4wqgd7820c0000gn/T//ccCQD8Z0.s 			page 44


 609:Drivers/STM32F1xx_HAL_Driver/Src/stm32f1xx_hal_dma.c ****   uint32_t source_it = hdma->Instance->CCR;
 1231              		.loc 1 609 12 view .LVU370
 1232 0004 1A68     		ldr	r2, [r3]
 1233              	.LVL61:
 610:Drivers/STM32F1xx_HAL_Driver/Src/stm32f1xx_hal_dma.c ****   
 1234              		.loc 1 610 3 is_stmt 1 view .LVU371
 610:Drivers/STM32F1xx_HAL_Driver/Src/stm32f1xx_hal_dma.c ****   
 1235              		.loc 1 610 28 is_stmt 0 view .LVU372
 1236 0006 0468     		ldr	r4, [r0]
 610:Drivers/STM32F1xx_HAL_Driver/Src/stm32f1xx_hal_dma.c ****   
 1237              		.loc 1 610 12 view .LVU373
 1238 0008 2568     		ldr	r5, [r4]
 1239              	.LVL62:
 613:Drivers/STM32F1xx_HAL_Driver/Src/stm32f1xx_hal_dma.c ****   {
 1240              		.loc 1 613 3 is_stmt 1 view .LVU374
 613:Drivers/STM32F1xx_HAL_Driver/Src/stm32f1xx_hal_dma.c ****   {
 1241              		.loc 1 613 40 is_stmt 0 view .LVU375
 1242 000a 016C     		ldr	r1, [r0, #64]
 613:Drivers/STM32F1xx_HAL_Driver/Src/stm32f1xx_hal_dma.c ****   {
 1243              		.loc 1 613 33 view .LVU376
 1244 000c 0423     		movs	r3, #4
 1245 000e 8B40     		lsls	r3, r3, r1
 613:Drivers/STM32F1xx_HAL_Driver/Src/stm32f1xx_hal_dma.c ****   {
 1246              		.loc 1 613 6 view .LVU377
 1247 0010 1342     		tst	r3, r2
 1248 0012 35D0     		beq	.L113
 613:Drivers/STM32F1xx_HAL_Driver/Src/stm32f1xx_hal_dma.c ****   {
 1249              		.loc 1 613 67 discriminator 1 view .LVU378
 1250 0014 15F0040F 		tst	r5, #4
 1251 0018 32D0     		beq	.L113
 616:Drivers/STM32F1xx_HAL_Driver/Src/stm32f1xx_hal_dma.c ****     {
 1252              		.loc 1 616 5 is_stmt 1 view .LVU379
 616:Drivers/STM32F1xx_HAL_Driver/Src/stm32f1xx_hal_dma.c ****     {
 1253              		.loc 1 616 23 is_stmt 0 view .LVU380
 1254 001a 2368     		ldr	r3, [r4]
 616:Drivers/STM32F1xx_HAL_Driver/Src/stm32f1xx_hal_dma.c ****     {
 1255              		.loc 1 616 7 view .LVU381
 1256 001c 13F0200F 		tst	r3, #32
 1257 0020 03D1     		bne	.L114
 619:Drivers/STM32F1xx_HAL_Driver/Src/stm32f1xx_hal_dma.c ****     }
 1258              		.loc 1 619 7 is_stmt 1 view .LVU382
 1259 0022 2368     		ldr	r3, [r4]
 1260 0024 23F00403 		bic	r3, r3, #4
 1261 0028 2360     		str	r3, [r4]
 1262              	.L114:
 622:Drivers/STM32F1xx_HAL_Driver/Src/stm32f1xx_hal_dma.c **** 
 1263              		.loc 1 622 5 view .LVU383
 1264 002a 0368     		ldr	r3, [r0]
 1265 002c 434A     		ldr	r2, .L135
 1266              	.LVL63:
 622:Drivers/STM32F1xx_HAL_Driver/Src/stm32f1xx_hal_dma.c **** 
 1267              		.loc 1 622 5 is_stmt 0 view .LVU384
 1268 002e 9342     		cmp	r3, r2
 1269 0030 14D0     		beq	.L120
 622:Drivers/STM32F1xx_HAL_Driver/Src/stm32f1xx_hal_dma.c **** 
 1270              		.loc 1 622 5 discriminator 1 view .LVU385
 1271 0032 1432     		adds	r2, r2, #20
ARM GAS  /var/folders/rf/wfq6hz5s56g3yh4wqgd7820c0000gn/T//ccCQD8Z0.s 			page 45


 1272 0034 9342     		cmp	r3, r2
 1273 0036 18D0     		beq	.L121
 622:Drivers/STM32F1xx_HAL_Driver/Src/stm32f1xx_hal_dma.c **** 
 1274              		.loc 1 622 5 discriminator 3 view .LVU386
 1275 0038 1432     		adds	r2, r2, #20
 1276 003a 9342     		cmp	r3, r2
 1277 003c 17D0     		beq	.L122
 622:Drivers/STM32F1xx_HAL_Driver/Src/stm32f1xx_hal_dma.c **** 
 1278              		.loc 1 622 5 discriminator 5 view .LVU387
 1279 003e 1432     		adds	r2, r2, #20
 1280 0040 9342     		cmp	r3, r2
 1281 0042 17D0     		beq	.L123
 622:Drivers/STM32F1xx_HAL_Driver/Src/stm32f1xx_hal_dma.c **** 
 1282              		.loc 1 622 5 discriminator 7 view .LVU388
 1283 0044 1432     		adds	r2, r2, #20
 1284 0046 9342     		cmp	r3, r2
 1285 0048 17D0     		beq	.L124
 622:Drivers/STM32F1xx_HAL_Driver/Src/stm32f1xx_hal_dma.c **** 
 1286              		.loc 1 622 5 discriminator 9 view .LVU389
 1287 004a 1432     		adds	r2, r2, #20
 1288 004c 9342     		cmp	r3, r2
 1289 004e 02D0     		beq	.L133
 622:Drivers/STM32F1xx_HAL_Driver/Src/stm32f1xx_hal_dma.c **** 
 1290              		.loc 1 622 5 view .LVU390
 1291 0050 4FF08062 		mov	r2, #67108864
 1292 0054 03E0     		b	.L115
 1293              	.L133:
 1294 0056 4FF48002 		mov	r2, #4194304
 1295 005a 00E0     		b	.L115
 1296              	.L120:
 1297 005c 0422     		movs	r2, #4
 1298              	.L115:
 622:Drivers/STM32F1xx_HAL_Driver/Src/stm32f1xx_hal_dma.c **** 
 1299              		.loc 1 622 5 discriminator 24 view .LVU391
 1300 005e 384B     		ldr	r3, .L135+4
 1301 0060 5A60     		str	r2, [r3, #4]
 627:Drivers/STM32F1xx_HAL_Driver/Src/stm32f1xx_hal_dma.c ****     {
 1302              		.loc 1 627 5 is_stmt 1 discriminator 24 view .LVU392
 627:Drivers/STM32F1xx_HAL_Driver/Src/stm32f1xx_hal_dma.c ****     {
 1303              		.loc 1 627 12 is_stmt 0 discriminator 24 view .LVU393
 1304 0062 C36A     		ldr	r3, [r0, #44]
 627:Drivers/STM32F1xx_HAL_Driver/Src/stm32f1xx_hal_dma.c ****     {
 1305              		.loc 1 627 7 discriminator 24 view .LVU394
 1306 0064 03B1     		cbz	r3, .L112
 630:Drivers/STM32F1xx_HAL_Driver/Src/stm32f1xx_hal_dma.c ****     }
 1307              		.loc 1 630 7 is_stmt 1 view .LVU395
 1308 0066 9847     		blx	r3
 1309              	.LVL64:
 1310              	.L112:
 685:Drivers/STM32F1xx_HAL_Driver/Src/stm32f1xx_hal_dma.c **** 
 1311              		.loc 1 685 1 is_stmt 0 view .LVU396
 1312 0068 38BD     		pop	{r3, r4, r5, pc}
 1313              	.LVL65:
 1314              	.L121:
 622:Drivers/STM32F1xx_HAL_Driver/Src/stm32f1xx_hal_dma.c **** 
 1315              		.loc 1 622 5 view .LVU397
 1316 006a 4022     		movs	r2, #64
ARM GAS  /var/folders/rf/wfq6hz5s56g3yh4wqgd7820c0000gn/T//ccCQD8Z0.s 			page 46


 1317 006c F7E7     		b	.L115
 1318              	.L122:
 1319 006e 4FF48062 		mov	r2, #1024
 1320 0072 F4E7     		b	.L115
 1321              	.L123:
 1322 0074 4FF48042 		mov	r2, #16384
 1323 0078 F1E7     		b	.L115
 1324              	.L124:
 1325 007a 4FF48022 		mov	r2, #262144
 1326 007e EEE7     		b	.L115
 1327              	.LVL66:
 1328              	.L113:
 635:Drivers/STM32F1xx_HAL_Driver/Src/stm32f1xx_hal_dma.c ****   {
 1329              		.loc 1 635 8 is_stmt 1 view .LVU398
 635:Drivers/STM32F1xx_HAL_Driver/Src/stm32f1xx_hal_dma.c ****   {
 1330              		.loc 1 635 38 is_stmt 0 view .LVU399
 1331 0080 0223     		movs	r3, #2
 1332 0082 8B40     		lsls	r3, r3, r1
 635:Drivers/STM32F1xx_HAL_Driver/Src/stm32f1xx_hal_dma.c ****   {
 1333              		.loc 1 635 11 view .LVU400
 1334 0084 1342     		tst	r3, r2
 1335 0086 3CD0     		beq	.L117
 635:Drivers/STM32F1xx_HAL_Driver/Src/stm32f1xx_hal_dma.c ****   {
 1336              		.loc 1 635 72 discriminator 1 view .LVU401
 1337 0088 15F0020F 		tst	r5, #2
 1338 008c 39D0     		beq	.L117
 637:Drivers/STM32F1xx_HAL_Driver/Src/stm32f1xx_hal_dma.c ****     {
 1339              		.loc 1 637 5 is_stmt 1 view .LVU402
 637:Drivers/STM32F1xx_HAL_Driver/Src/stm32f1xx_hal_dma.c ****     {
 1340              		.loc 1 637 23 is_stmt 0 view .LVU403
 1341 008e 2368     		ldr	r3, [r4]
 637:Drivers/STM32F1xx_HAL_Driver/Src/stm32f1xx_hal_dma.c ****     {
 1342              		.loc 1 637 7 view .LVU404
 1343 0090 13F0200F 		tst	r3, #32
 1344 0094 06D1     		bne	.L118
 640:Drivers/STM32F1xx_HAL_Driver/Src/stm32f1xx_hal_dma.c **** 
 1345              		.loc 1 640 7 is_stmt 1 view .LVU405
 1346 0096 2368     		ldr	r3, [r4]
 1347 0098 23F00A03 		bic	r3, r3, #10
 1348 009c 2360     		str	r3, [r4]
 643:Drivers/STM32F1xx_HAL_Driver/Src/stm32f1xx_hal_dma.c ****     }
 1349              		.loc 1 643 7 view .LVU406
 643:Drivers/STM32F1xx_HAL_Driver/Src/stm32f1xx_hal_dma.c ****     }
 1350              		.loc 1 643 19 is_stmt 0 view .LVU407
 1351 009e 0123     		movs	r3, #1
 1352 00a0 80F82130 		strb	r3, [r0, #33]
 1353              	.L118:
 646:Drivers/STM32F1xx_HAL_Driver/Src/stm32f1xx_hal_dma.c **** 
 1354              		.loc 1 646 7 is_stmt 1 view .LVU408
 1355 00a4 0368     		ldr	r3, [r0]
 1356 00a6 254A     		ldr	r2, .L135
 1357              	.LVL67:
 646:Drivers/STM32F1xx_HAL_Driver/Src/stm32f1xx_hal_dma.c **** 
 1358              		.loc 1 646 7 is_stmt 0 view .LVU409
 1359 00a8 9342     		cmp	r3, r2
 1360 00aa 14D0     		beq	.L126
 646:Drivers/STM32F1xx_HAL_Driver/Src/stm32f1xx_hal_dma.c **** 
ARM GAS  /var/folders/rf/wfq6hz5s56g3yh4wqgd7820c0000gn/T//ccCQD8Z0.s 			page 47


 1361              		.loc 1 646 7 discriminator 1 view .LVU410
 1362 00ac 1432     		adds	r2, r2, #20
 1363 00ae 9342     		cmp	r3, r2
 1364 00b0 1CD0     		beq	.L127
 646:Drivers/STM32F1xx_HAL_Driver/Src/stm32f1xx_hal_dma.c **** 
 1365              		.loc 1 646 7 discriminator 3 view .LVU411
 1366 00b2 1432     		adds	r2, r2, #20
 1367 00b4 9342     		cmp	r3, r2
 1368 00b6 1BD0     		beq	.L128
 646:Drivers/STM32F1xx_HAL_Driver/Src/stm32f1xx_hal_dma.c **** 
 1369              		.loc 1 646 7 discriminator 5 view .LVU412
 1370 00b8 1432     		adds	r2, r2, #20
 1371 00ba 9342     		cmp	r3, r2
 1372 00bc 1BD0     		beq	.L129
 646:Drivers/STM32F1xx_HAL_Driver/Src/stm32f1xx_hal_dma.c **** 
 1373              		.loc 1 646 7 discriminator 7 view .LVU413
 1374 00be 1432     		adds	r2, r2, #20
 1375 00c0 9342     		cmp	r3, r2
 1376 00c2 1BD0     		beq	.L130
 646:Drivers/STM32F1xx_HAL_Driver/Src/stm32f1xx_hal_dma.c **** 
 1377              		.loc 1 646 7 discriminator 9 view .LVU414
 1378 00c4 1432     		adds	r2, r2, #20
 1379 00c6 9342     		cmp	r3, r2
 1380 00c8 02D0     		beq	.L134
 646:Drivers/STM32F1xx_HAL_Driver/Src/stm32f1xx_hal_dma.c **** 
 1381              		.loc 1 646 7 view .LVU415
 1382 00ca 4FF00072 		mov	r2, #33554432
 1383 00ce 03E0     		b	.L119
 1384              	.L134:
 1385 00d0 4FF40012 		mov	r2, #2097152
 1386 00d4 00E0     		b	.L119
 1387              	.L126:
 1388 00d6 0222     		movs	r2, #2
 1389              	.L119:
 646:Drivers/STM32F1xx_HAL_Driver/Src/stm32f1xx_hal_dma.c **** 
 1390              		.loc 1 646 7 discriminator 24 view .LVU416
 1391 00d8 194B     		ldr	r3, .L135+4
 1392 00da 5A60     		str	r2, [r3, #4]
 649:Drivers/STM32F1xx_HAL_Driver/Src/stm32f1xx_hal_dma.c **** 
 1393              		.loc 1 649 5 is_stmt 1 discriminator 24 view .LVU417
 649:Drivers/STM32F1xx_HAL_Driver/Src/stm32f1xx_hal_dma.c **** 
 1394              		.loc 1 649 5 discriminator 24 view .LVU418
 1395 00dc 0023     		movs	r3, #0
 1396 00de 80F82030 		strb	r3, [r0, #32]
 649:Drivers/STM32F1xx_HAL_Driver/Src/stm32f1xx_hal_dma.c **** 
 1397              		.loc 1 649 5 discriminator 24 view .LVU419
 651:Drivers/STM32F1xx_HAL_Driver/Src/stm32f1xx_hal_dma.c ****     {
 1398              		.loc 1 651 5 discriminator 24 view .LVU420
 651:Drivers/STM32F1xx_HAL_Driver/Src/stm32f1xx_hal_dma.c ****     {
 1399              		.loc 1 651 12 is_stmt 0 discriminator 24 view .LVU421
 1400 00e2 836A     		ldr	r3, [r0, #40]
 651:Drivers/STM32F1xx_HAL_Driver/Src/stm32f1xx_hal_dma.c ****     {
 1401              		.loc 1 651 7 discriminator 24 view .LVU422
 1402 00e4 002B     		cmp	r3, #0
 1403 00e6 BFD0     		beq	.L112
 654:Drivers/STM32F1xx_HAL_Driver/Src/stm32f1xx_hal_dma.c ****     }
 1404              		.loc 1 654 7 is_stmt 1 view .LVU423
ARM GAS  /var/folders/rf/wfq6hz5s56g3yh4wqgd7820c0000gn/T//ccCQD8Z0.s 			page 48


 1405 00e8 9847     		blx	r3
 1406              	.LVL68:
 654:Drivers/STM32F1xx_HAL_Driver/Src/stm32f1xx_hal_dma.c ****     }
 1407              		.loc 1 654 7 is_stmt 0 view .LVU424
 1408 00ea BDE7     		b	.L112
 1409              	.LVL69:
 1410              	.L127:
 646:Drivers/STM32F1xx_HAL_Driver/Src/stm32f1xx_hal_dma.c **** 
 1411              		.loc 1 646 7 view .LVU425
 1412 00ec 2022     		movs	r2, #32
 1413 00ee F3E7     		b	.L119
 1414              	.L128:
 1415 00f0 4FF40072 		mov	r2, #512
 1416 00f4 F0E7     		b	.L119
 1417              	.L129:
 1418 00f6 4FF40052 		mov	r2, #8192
 1419 00fa EDE7     		b	.L119
 1420              	.L130:
 1421 00fc 4FF40032 		mov	r2, #131072
 1422 0100 EAE7     		b	.L119
 1423              	.LVL70:
 1424              	.L117:
 659:Drivers/STM32F1xx_HAL_Driver/Src/stm32f1xx_hal_dma.c ****   {
 1425              		.loc 1 659 8 is_stmt 1 view .LVU426
 659:Drivers/STM32F1xx_HAL_Driver/Src/stm32f1xx_hal_dma.c ****   {
 1426              		.loc 1 659 48 is_stmt 0 view .LVU427
 1427 0102 0823     		movs	r3, #8
 1428 0104 03FA01F1 		lsl	r1, r3, r1
 659:Drivers/STM32F1xx_HAL_Driver/Src/stm32f1xx_hal_dma.c ****   {
 1429              		.loc 1 659 11 view .LVU428
 1430 0108 1142     		tst	r1, r2
 1431 010a ADD0     		beq	.L112
 659:Drivers/STM32F1xx_HAL_Driver/Src/stm32f1xx_hal_dma.c ****   {
 1432              		.loc 1 659 73 discriminator 1 view .LVU429
 1433 010c 15F0080F 		tst	r5, #8
 1434 0110 AAD0     		beq	.L112
 664:Drivers/STM32F1xx_HAL_Driver/Src/stm32f1xx_hal_dma.c **** 
 1435              		.loc 1 664 5 is_stmt 1 view .LVU430
 1436 0112 2368     		ldr	r3, [r4]
 1437 0114 23F00E03 		bic	r3, r3, #14
 1438 0118 2360     		str	r3, [r4]
 667:Drivers/STM32F1xx_HAL_Driver/Src/stm32f1xx_hal_dma.c **** 
 1439              		.loc 1 667 5 view .LVU431
 667:Drivers/STM32F1xx_HAL_Driver/Src/stm32f1xx_hal_dma.c **** 
 1440              		.loc 1 667 55 is_stmt 0 view .LVU432
 1441 011a 026C     		ldr	r2, [r0, #64]
 1442              	.LVL71:
 667:Drivers/STM32F1xx_HAL_Driver/Src/stm32f1xx_hal_dma.c **** 
 1443              		.loc 1 667 9 view .LVU433
 1444 011c C16B     		ldr	r1, [r0, #60]
 667:Drivers/STM32F1xx_HAL_Driver/Src/stm32f1xx_hal_dma.c **** 
 1445              		.loc 1 667 48 view .LVU434
 1446 011e 0123     		movs	r3, #1
 1447 0120 03FA02F2 		lsl	r2, r3, r2
 667:Drivers/STM32F1xx_HAL_Driver/Src/stm32f1xx_hal_dma.c **** 
 1448              		.loc 1 667 32 view .LVU435
 1449 0124 4A60     		str	r2, [r1, #4]
ARM GAS  /var/folders/rf/wfq6hz5s56g3yh4wqgd7820c0000gn/T//ccCQD8Z0.s 			page 49


 670:Drivers/STM32F1xx_HAL_Driver/Src/stm32f1xx_hal_dma.c **** 
 1450              		.loc 1 670 5 is_stmt 1 view .LVU436
 670:Drivers/STM32F1xx_HAL_Driver/Src/stm32f1xx_hal_dma.c **** 
 1451              		.loc 1 670 21 is_stmt 0 view .LVU437
 1452 0126 8363     		str	r3, [r0, #56]
 673:Drivers/STM32F1xx_HAL_Driver/Src/stm32f1xx_hal_dma.c **** 
 1453              		.loc 1 673 5 is_stmt 1 view .LVU438
 673:Drivers/STM32F1xx_HAL_Driver/Src/stm32f1xx_hal_dma.c **** 
 1454              		.loc 1 673 17 is_stmt 0 view .LVU439
 1455 0128 80F82130 		strb	r3, [r0, #33]
 676:Drivers/STM32F1xx_HAL_Driver/Src/stm32f1xx_hal_dma.c **** 
 1456              		.loc 1 676 5 is_stmt 1 view .LVU440
 676:Drivers/STM32F1xx_HAL_Driver/Src/stm32f1xx_hal_dma.c **** 
 1457              		.loc 1 676 5 view .LVU441
 1458 012c 0023     		movs	r3, #0
 1459 012e 80F82030 		strb	r3, [r0, #32]
 676:Drivers/STM32F1xx_HAL_Driver/Src/stm32f1xx_hal_dma.c **** 
 1460              		.loc 1 676 5 view .LVU442
 678:Drivers/STM32F1xx_HAL_Driver/Src/stm32f1xx_hal_dma.c ****     {
 1461              		.loc 1 678 5 view .LVU443
 678:Drivers/STM32F1xx_HAL_Driver/Src/stm32f1xx_hal_dma.c ****     {
 1462              		.loc 1 678 13 is_stmt 0 view .LVU444
 1463 0132 036B     		ldr	r3, [r0, #48]
 678:Drivers/STM32F1xx_HAL_Driver/Src/stm32f1xx_hal_dma.c ****     {
 1464              		.loc 1 678 8 view .LVU445
 1465 0134 002B     		cmp	r3, #0
 1466 0136 97D0     		beq	.L112
 681:Drivers/STM32F1xx_HAL_Driver/Src/stm32f1xx_hal_dma.c ****     }
 1467              		.loc 1 681 7 is_stmt 1 view .LVU446
 1468 0138 9847     		blx	r3
 1469              	.LVL72:
 684:Drivers/STM32F1xx_HAL_Driver/Src/stm32f1xx_hal_dma.c **** }
 1470              		.loc 1 684 3 view .LVU447
 1471 013a 95E7     		b	.L112
 1472              	.L136:
 1473              		.align	2
 1474              	.L135:
 1475 013c 08000240 		.word	1073872904
 1476 0140 00000240 		.word	1073872896
 1477              		.cfi_endproc
 1478              	.LFE73:
 1480              		.section	.text.HAL_DMA_RegisterCallback,"ax",%progbits
 1481              		.align	1
 1482              		.global	HAL_DMA_RegisterCallback
 1483              		.syntax unified
 1484              		.thumb
 1485              		.thumb_func
 1486              		.fpu softvfp
 1488              	HAL_DMA_RegisterCallback:
 1489              	.LVL73:
 1490              	.LFB74:
 698:Drivers/STM32F1xx_HAL_Driver/Src/stm32f1xx_hal_dma.c ****   HAL_StatusTypeDef status = HAL_OK;
 1491              		.loc 1 698 1 view -0
 1492              		.cfi_startproc
 1493              		@ args = 0, pretend = 0, frame = 0
 1494              		@ frame_needed = 0, uses_anonymous_args = 0
 1495              		@ link register save eliminated.
ARM GAS  /var/folders/rf/wfq6hz5s56g3yh4wqgd7820c0000gn/T//ccCQD8Z0.s 			page 50


 698:Drivers/STM32F1xx_HAL_Driver/Src/stm32f1xx_hal_dma.c ****   HAL_StatusTypeDef status = HAL_OK;
 1496              		.loc 1 698 1 is_stmt 0 view .LVU449
 1497 0000 0346     		mov	r3, r0
 699:Drivers/STM32F1xx_HAL_Driver/Src/stm32f1xx_hal_dma.c ****   
 1498              		.loc 1 699 3 is_stmt 1 view .LVU450
 1499              	.LVL74:
 702:Drivers/STM32F1xx_HAL_Driver/Src/stm32f1xx_hal_dma.c ****   
 1500              		.loc 1 702 3 view .LVU451
 702:Drivers/STM32F1xx_HAL_Driver/Src/stm32f1xx_hal_dma.c ****   
 1501              		.loc 1 702 3 view .LVU452
 1502 0002 90F82000 		ldrb	r0, [r0, #32]	@ zero_extendqisi2
 1503              	.LVL75:
 702:Drivers/STM32F1xx_HAL_Driver/Src/stm32f1xx_hal_dma.c ****   
 1504              		.loc 1 702 3 is_stmt 0 view .LVU453
 1505 0006 0128     		cmp	r0, #1
 1506 0008 1AD0     		beq	.L145
 702:Drivers/STM32F1xx_HAL_Driver/Src/stm32f1xx_hal_dma.c ****   
 1507              		.loc 1 702 3 is_stmt 1 discriminator 2 view .LVU454
 702:Drivers/STM32F1xx_HAL_Driver/Src/stm32f1xx_hal_dma.c ****   
 1508              		.loc 1 702 3 discriminator 2 view .LVU455
 704:Drivers/STM32F1xx_HAL_Driver/Src/stm32f1xx_hal_dma.c ****   {
 1509              		.loc 1 704 3 discriminator 2 view .LVU456
 704:Drivers/STM32F1xx_HAL_Driver/Src/stm32f1xx_hal_dma.c ****   {
 1510              		.loc 1 704 33 is_stmt 0 discriminator 2 view .LVU457
 1511 000a 93F82100 		ldrb	r0, [r3, #33]	@ zero_extendqisi2
 704:Drivers/STM32F1xx_HAL_Driver/Src/stm32f1xx_hal_dma.c ****   {
 1512              		.loc 1 704 5 discriminator 2 view .LVU458
 1513 000e 0128     		cmp	r0, #1
 1514 0010 04D0     		beq	.L147
 731:Drivers/STM32F1xx_HAL_Driver/Src/stm32f1xx_hal_dma.c ****   } 
 1515              		.loc 1 731 12 view .LVU459
 1516 0012 0120     		movs	r0, #1
 1517              	.L139:
 1518              	.LVL76:
 735:Drivers/STM32F1xx_HAL_Driver/Src/stm32f1xx_hal_dma.c ****   
 1519              		.loc 1 735 3 is_stmt 1 view .LVU460
 735:Drivers/STM32F1xx_HAL_Driver/Src/stm32f1xx_hal_dma.c ****   
 1520              		.loc 1 735 3 view .LVU461
 1521 0014 0022     		movs	r2, #0
 1522              	.LVL77:
 735:Drivers/STM32F1xx_HAL_Driver/Src/stm32f1xx_hal_dma.c ****   
 1523              		.loc 1 735 3 is_stmt 0 view .LVU462
 1524 0016 83F82020 		strb	r2, [r3, #32]
 735:Drivers/STM32F1xx_HAL_Driver/Src/stm32f1xx_hal_dma.c ****   
 1525              		.loc 1 735 3 is_stmt 1 view .LVU463
 737:Drivers/STM32F1xx_HAL_Driver/Src/stm32f1xx_hal_dma.c **** }
 1526              		.loc 1 737 3 view .LVU464
 737:Drivers/STM32F1xx_HAL_Driver/Src/stm32f1xx_hal_dma.c **** }
 1527              		.loc 1 737 10 is_stmt 0 view .LVU465
 1528 001a 7047     		bx	lr
 1529              	.LVL78:
 1530              	.L147:
 706:Drivers/STM32F1xx_HAL_Driver/Src/stm32f1xx_hal_dma.c ****     {
 1531              		.loc 1 706 5 is_stmt 1 view .LVU466
 1532 001c 0329     		cmp	r1, #3
 1533 001e F9D8     		bhi	.L139
 1534 0020 DFE801F0 		tbb	[pc, r1]
ARM GAS  /var/folders/rf/wfq6hz5s56g3yh4wqgd7820c0000gn/T//ccCQD8Z0.s 			page 51


 1535              	.L141:
 1536 0024 02       		.byte	(.L144-.L141)/2
 1537 0025 05       		.byte	(.L143-.L141)/2
 1538 0026 08       		.byte	(.L142-.L141)/2
 1539 0027 0B       		.byte	(.L140-.L141)/2
 1540              		.p2align 1
 1541              	.L144:
 709:Drivers/STM32F1xx_HAL_Driver/Src/stm32f1xx_hal_dma.c ****       break;
 1542              		.loc 1 709 7 view .LVU467
 709:Drivers/STM32F1xx_HAL_Driver/Src/stm32f1xx_hal_dma.c ****       break;
 1543              		.loc 1 709 30 is_stmt 0 view .LVU468
 1544 0028 9A62     		str	r2, [r3, #40]
 710:Drivers/STM32F1xx_HAL_Driver/Src/stm32f1xx_hal_dma.c ****       
 1545              		.loc 1 710 7 is_stmt 1 view .LVU469
 699:Drivers/STM32F1xx_HAL_Driver/Src/stm32f1xx_hal_dma.c ****   
 1546              		.loc 1 699 21 is_stmt 0 view .LVU470
 1547 002a 0846     		mov	r0, r1
 710:Drivers/STM32F1xx_HAL_Driver/Src/stm32f1xx_hal_dma.c ****       
 1548              		.loc 1 710 7 view .LVU471
 1549 002c F2E7     		b	.L139
 1550              	.L143:
 713:Drivers/STM32F1xx_HAL_Driver/Src/stm32f1xx_hal_dma.c ****       break;         
 1551              		.loc 1 713 7 is_stmt 1 view .LVU472
 713:Drivers/STM32F1xx_HAL_Driver/Src/stm32f1xx_hal_dma.c ****       break;         
 1552              		.loc 1 713 34 is_stmt 0 view .LVU473
 1553 002e DA62     		str	r2, [r3, #44]
 714:Drivers/STM32F1xx_HAL_Driver/Src/stm32f1xx_hal_dma.c **** 
 1554              		.loc 1 714 7 is_stmt 1 view .LVU474
 699:Drivers/STM32F1xx_HAL_Driver/Src/stm32f1xx_hal_dma.c ****   
 1555              		.loc 1 699 21 is_stmt 0 view .LVU475
 1556 0030 0020     		movs	r0, #0
 714:Drivers/STM32F1xx_HAL_Driver/Src/stm32f1xx_hal_dma.c **** 
 1557              		.loc 1 714 7 view .LVU476
 1558 0032 EFE7     		b	.L139
 1559              	.L142:
 717:Drivers/STM32F1xx_HAL_Driver/Src/stm32f1xx_hal_dma.c ****       break;         
 1560              		.loc 1 717 7 is_stmt 1 view .LVU477
 717:Drivers/STM32F1xx_HAL_Driver/Src/stm32f1xx_hal_dma.c ****       break;         
 1561              		.loc 1 717 31 is_stmt 0 view .LVU478
 1562 0034 1A63     		str	r2, [r3, #48]
 718:Drivers/STM32F1xx_HAL_Driver/Src/stm32f1xx_hal_dma.c ****       
 1563              		.loc 1 718 7 is_stmt 1 view .LVU479
 699:Drivers/STM32F1xx_HAL_Driver/Src/stm32f1xx_hal_dma.c ****   
 1564              		.loc 1 699 21 is_stmt 0 view .LVU480
 1565 0036 0020     		movs	r0, #0
 718:Drivers/STM32F1xx_HAL_Driver/Src/stm32f1xx_hal_dma.c ****       
 1566              		.loc 1 718 7 view .LVU481
 1567 0038 ECE7     		b	.L139
 1568              	.L140:
 721:Drivers/STM32F1xx_HAL_Driver/Src/stm32f1xx_hal_dma.c ****       break; 
 1569              		.loc 1 721 7 is_stmt 1 view .LVU482
 721:Drivers/STM32F1xx_HAL_Driver/Src/stm32f1xx_hal_dma.c ****       break; 
 1570              		.loc 1 721 31 is_stmt 0 view .LVU483
 1571 003a 5A63     		str	r2, [r3, #52]
 722:Drivers/STM32F1xx_HAL_Driver/Src/stm32f1xx_hal_dma.c ****       
 1572              		.loc 1 722 7 is_stmt 1 view .LVU484
 699:Drivers/STM32F1xx_HAL_Driver/Src/stm32f1xx_hal_dma.c ****   
ARM GAS  /var/folders/rf/wfq6hz5s56g3yh4wqgd7820c0000gn/T//ccCQD8Z0.s 			page 52


 1573              		.loc 1 699 21 is_stmt 0 view .LVU485
 1574 003c 0020     		movs	r0, #0
 722:Drivers/STM32F1xx_HAL_Driver/Src/stm32f1xx_hal_dma.c ****       
 1575              		.loc 1 722 7 view .LVU486
 1576 003e E9E7     		b	.L139
 1577              	.L145:
 702:Drivers/STM32F1xx_HAL_Driver/Src/stm32f1xx_hal_dma.c ****   
 1578              		.loc 1 702 3 view .LVU487
 1579 0040 0220     		movs	r0, #2
 738:Drivers/STM32F1xx_HAL_Driver/Src/stm32f1xx_hal_dma.c **** 
 1580              		.loc 1 738 1 view .LVU488
 1581 0042 7047     		bx	lr
 1582              		.cfi_endproc
 1583              	.LFE74:
 1585              		.section	.text.HAL_DMA_UnRegisterCallback,"ax",%progbits
 1586              		.align	1
 1587              		.global	HAL_DMA_UnRegisterCallback
 1588              		.syntax unified
 1589              		.thumb
 1590              		.thumb_func
 1591              		.fpu softvfp
 1593              	HAL_DMA_UnRegisterCallback:
 1594              	.LVL79:
 1595              	.LFB75:
 749:Drivers/STM32F1xx_HAL_Driver/Src/stm32f1xx_hal_dma.c ****   HAL_StatusTypeDef status = HAL_OK;
 1596              		.loc 1 749 1 is_stmt 1 view -0
 1597              		.cfi_startproc
 1598              		@ args = 0, pretend = 0, frame = 0
 1599              		@ frame_needed = 0, uses_anonymous_args = 0
 1600              		@ link register save eliminated.
 749:Drivers/STM32F1xx_HAL_Driver/Src/stm32f1xx_hal_dma.c ****   HAL_StatusTypeDef status = HAL_OK;
 1601              		.loc 1 749 1 is_stmt 0 view .LVU490
 1602 0000 0346     		mov	r3, r0
 750:Drivers/STM32F1xx_HAL_Driver/Src/stm32f1xx_hal_dma.c **** 
 1603              		.loc 1 750 3 is_stmt 1 view .LVU491
 1604              	.LVL80:
 753:Drivers/STM32F1xx_HAL_Driver/Src/stm32f1xx_hal_dma.c ****   
 1605              		.loc 1 753 3 view .LVU492
 753:Drivers/STM32F1xx_HAL_Driver/Src/stm32f1xx_hal_dma.c ****   
 1606              		.loc 1 753 3 view .LVU493
 1607 0002 90F82020 		ldrb	r2, [r0, #32]	@ zero_extendqisi2
 1608 0006 012A     		cmp	r2, #1
 1609 0008 25D0     		beq	.L157
 753:Drivers/STM32F1xx_HAL_Driver/Src/stm32f1xx_hal_dma.c ****   
 1610              		.loc 1 753 3 discriminator 2 view .LVU494
 1611 000a 0122     		movs	r2, #1
 1612 000c 80F82020 		strb	r2, [r0, #32]
 753:Drivers/STM32F1xx_HAL_Driver/Src/stm32f1xx_hal_dma.c ****   
 1613              		.loc 1 753 3 discriminator 2 view .LVU495
 755:Drivers/STM32F1xx_HAL_Driver/Src/stm32f1xx_hal_dma.c ****   {
 1614              		.loc 1 755 3 discriminator 2 view .LVU496
 755:Drivers/STM32F1xx_HAL_Driver/Src/stm32f1xx_hal_dma.c ****   {
 1615              		.loc 1 755 33 is_stmt 0 discriminator 2 view .LVU497
 1616 0010 90F82100 		ldrb	r0, [r0, #33]	@ zero_extendqisi2
 1617              	.LVL81:
 755:Drivers/STM32F1xx_HAL_Driver/Src/stm32f1xx_hal_dma.c ****   {
 1618              		.loc 1 755 5 discriminator 2 view .LVU498
ARM GAS  /var/folders/rf/wfq6hz5s56g3yh4wqgd7820c0000gn/T//ccCQD8Z0.s 			page 53


 1619 0014 9042     		cmp	r0, r2
 1620 0016 04D0     		beq	.L159
 789:Drivers/STM32F1xx_HAL_Driver/Src/stm32f1xx_hal_dma.c ****   } 
 1621              		.loc 1 789 12 view .LVU499
 1622 0018 0120     		movs	r0, #1
 1623              	.L150:
 1624              	.LVL82:
 793:Drivers/STM32F1xx_HAL_Driver/Src/stm32f1xx_hal_dma.c ****   
 1625              		.loc 1 793 3 is_stmt 1 view .LVU500
 793:Drivers/STM32F1xx_HAL_Driver/Src/stm32f1xx_hal_dma.c ****   
 1626              		.loc 1 793 3 view .LVU501
 1627 001a 0022     		movs	r2, #0
 1628 001c 83F82020 		strb	r2, [r3, #32]
 793:Drivers/STM32F1xx_HAL_Driver/Src/stm32f1xx_hal_dma.c ****   
 1629              		.loc 1 793 3 view .LVU502
 795:Drivers/STM32F1xx_HAL_Driver/Src/stm32f1xx_hal_dma.c **** }
 1630              		.loc 1 795 3 view .LVU503
 795:Drivers/STM32F1xx_HAL_Driver/Src/stm32f1xx_hal_dma.c **** }
 1631              		.loc 1 795 10 is_stmt 0 view .LVU504
 1632 0020 7047     		bx	lr
 1633              	.LVL83:
 1634              	.L159:
 757:Drivers/STM32F1xx_HAL_Driver/Src/stm32f1xx_hal_dma.c ****     {
 1635              		.loc 1 757 5 is_stmt 1 view .LVU505
 1636 0022 0429     		cmp	r1, #4
 1637 0024 F9D8     		bhi	.L150
 1638 0026 DFE801F0 		tbb	[pc, r1]
 1639              	.L152:
 1640 002a 03       		.byte	(.L156-.L152)/2
 1641 002b 07       		.byte	(.L155-.L152)/2
 1642 002c 0A       		.byte	(.L154-.L152)/2
 1643 002d 0D       		.byte	(.L153-.L152)/2
 1644 002e 10       		.byte	(.L151-.L152)/2
 1645 002f 00       		.p2align 1
 1646              	.L156:
 760:Drivers/STM32F1xx_HAL_Driver/Src/stm32f1xx_hal_dma.c ****       break;
 1647              		.loc 1 760 7 view .LVU506
 760:Drivers/STM32F1xx_HAL_Driver/Src/stm32f1xx_hal_dma.c ****       break;
 1648              		.loc 1 760 30 is_stmt 0 view .LVU507
 1649 0030 0022     		movs	r2, #0
 1650 0032 9A62     		str	r2, [r3, #40]
 761:Drivers/STM32F1xx_HAL_Driver/Src/stm32f1xx_hal_dma.c **** 
 1651              		.loc 1 761 7 is_stmt 1 view .LVU508
 750:Drivers/STM32F1xx_HAL_Driver/Src/stm32f1xx_hal_dma.c **** 
 1652              		.loc 1 750 21 is_stmt 0 view .LVU509
 1653 0034 0846     		mov	r0, r1
 761:Drivers/STM32F1xx_HAL_Driver/Src/stm32f1xx_hal_dma.c **** 
 1654              		.loc 1 761 7 view .LVU510
 1655 0036 F0E7     		b	.L150
 1656              	.L155:
 764:Drivers/STM32F1xx_HAL_Driver/Src/stm32f1xx_hal_dma.c ****       break;         
 1657              		.loc 1 764 7 is_stmt 1 view .LVU511
 764:Drivers/STM32F1xx_HAL_Driver/Src/stm32f1xx_hal_dma.c ****       break;         
 1658              		.loc 1 764 34 is_stmt 0 view .LVU512
 1659 0038 0020     		movs	r0, #0
 1660 003a D862     		str	r0, [r3, #44]
 765:Drivers/STM32F1xx_HAL_Driver/Src/stm32f1xx_hal_dma.c **** 
ARM GAS  /var/folders/rf/wfq6hz5s56g3yh4wqgd7820c0000gn/T//ccCQD8Z0.s 			page 54


 1661              		.loc 1 765 7 is_stmt 1 view .LVU513
 1662 003c EDE7     		b	.L150
 1663              	.L154:
 768:Drivers/STM32F1xx_HAL_Driver/Src/stm32f1xx_hal_dma.c ****       break;         
 1664              		.loc 1 768 7 view .LVU514
 768:Drivers/STM32F1xx_HAL_Driver/Src/stm32f1xx_hal_dma.c ****       break;         
 1665              		.loc 1 768 31 is_stmt 0 view .LVU515
 1666 003e 0020     		movs	r0, #0
 1667 0040 1863     		str	r0, [r3, #48]
 769:Drivers/STM32F1xx_HAL_Driver/Src/stm32f1xx_hal_dma.c **** 
 1668              		.loc 1 769 7 is_stmt 1 view .LVU516
 1669 0042 EAE7     		b	.L150
 1670              	.L153:
 772:Drivers/STM32F1xx_HAL_Driver/Src/stm32f1xx_hal_dma.c ****       break; 
 1671              		.loc 1 772 7 view .LVU517
 772:Drivers/STM32F1xx_HAL_Driver/Src/stm32f1xx_hal_dma.c ****       break; 
 1672              		.loc 1 772 31 is_stmt 0 view .LVU518
 1673 0044 0020     		movs	r0, #0
 1674 0046 5863     		str	r0, [r3, #52]
 773:Drivers/STM32F1xx_HAL_Driver/Src/stm32f1xx_hal_dma.c **** 
 1675              		.loc 1 773 7 is_stmt 1 view .LVU519
 1676 0048 E7E7     		b	.L150
 1677              	.L151:
 776:Drivers/STM32F1xx_HAL_Driver/Src/stm32f1xx_hal_dma.c ****       hdma->XferHalfCpltCallback = NULL;
 1678              		.loc 1 776 7 view .LVU520
 776:Drivers/STM32F1xx_HAL_Driver/Src/stm32f1xx_hal_dma.c ****       hdma->XferHalfCpltCallback = NULL;
 1679              		.loc 1 776 30 is_stmt 0 view .LVU521
 1680 004a 0020     		movs	r0, #0
 1681 004c 9862     		str	r0, [r3, #40]
 777:Drivers/STM32F1xx_HAL_Driver/Src/stm32f1xx_hal_dma.c ****       hdma->XferErrorCallback = NULL;
 1682              		.loc 1 777 7 is_stmt 1 view .LVU522
 777:Drivers/STM32F1xx_HAL_Driver/Src/stm32f1xx_hal_dma.c ****       hdma->XferErrorCallback = NULL;
 1683              		.loc 1 777 34 is_stmt 0 view .LVU523
 1684 004e D862     		str	r0, [r3, #44]
 778:Drivers/STM32F1xx_HAL_Driver/Src/stm32f1xx_hal_dma.c ****       hdma->XferAbortCallback = NULL;
 1685              		.loc 1 778 7 is_stmt 1 view .LVU524
 778:Drivers/STM32F1xx_HAL_Driver/Src/stm32f1xx_hal_dma.c ****       hdma->XferAbortCallback = NULL;
 1686              		.loc 1 778 31 is_stmt 0 view .LVU525
 1687 0050 1863     		str	r0, [r3, #48]
 779:Drivers/STM32F1xx_HAL_Driver/Src/stm32f1xx_hal_dma.c ****       break; 
 1688              		.loc 1 779 7 is_stmt 1 view .LVU526
 779:Drivers/STM32F1xx_HAL_Driver/Src/stm32f1xx_hal_dma.c ****       break; 
 1689              		.loc 1 779 31 is_stmt 0 view .LVU527
 1690 0052 5863     		str	r0, [r3, #52]
 780:Drivers/STM32F1xx_HAL_Driver/Src/stm32f1xx_hal_dma.c **** 
 1691              		.loc 1 780 7 is_stmt 1 view .LVU528
 1692 0054 E1E7     		b	.L150
 1693              	.LVL84:
 1694              	.L157:
 753:Drivers/STM32F1xx_HAL_Driver/Src/stm32f1xx_hal_dma.c ****   
 1695              		.loc 1 753 3 is_stmt 0 view .LVU529
 1696 0056 0220     		movs	r0, #2
 1697              	.LVL85:
 796:Drivers/STM32F1xx_HAL_Driver/Src/stm32f1xx_hal_dma.c ****   
 1698              		.loc 1 796 1 view .LVU530
 1699 0058 7047     		bx	lr
 1700              		.cfi_endproc
ARM GAS  /var/folders/rf/wfq6hz5s56g3yh4wqgd7820c0000gn/T//ccCQD8Z0.s 			page 55


 1701              	.LFE75:
 1703              		.section	.text.HAL_DMA_GetState,"ax",%progbits
 1704              		.align	1
 1705              		.global	HAL_DMA_GetState
 1706              		.syntax unified
 1707              		.thumb
 1708              		.thumb_func
 1709              		.fpu softvfp
 1711              	HAL_DMA_GetState:
 1712              	.LVL86:
 1713              	.LFB76:
 825:Drivers/STM32F1xx_HAL_Driver/Src/stm32f1xx_hal_dma.c ****   /* Return DMA handle state */
 1714              		.loc 1 825 1 is_stmt 1 view -0
 1715              		.cfi_startproc
 1716              		@ args = 0, pretend = 0, frame = 0
 1717              		@ frame_needed = 0, uses_anonymous_args = 0
 1718              		@ link register save eliminated.
 827:Drivers/STM32F1xx_HAL_Driver/Src/stm32f1xx_hal_dma.c **** }
 1719              		.loc 1 827 3 view .LVU532
 828:Drivers/STM32F1xx_HAL_Driver/Src/stm32f1xx_hal_dma.c **** 
 1720              		.loc 1 828 1 is_stmt 0 view .LVU533
 1721 0000 90F82100 		ldrb	r0, [r0, #33]	@ zero_extendqisi2
 1722              	.LVL87:
 828:Drivers/STM32F1xx_HAL_Driver/Src/stm32f1xx_hal_dma.c **** 
 1723              		.loc 1 828 1 view .LVU534
 1724 0004 7047     		bx	lr
 1725              		.cfi_endproc
 1726              	.LFE76:
 1728              		.section	.text.HAL_DMA_GetError,"ax",%progbits
 1729              		.align	1
 1730              		.global	HAL_DMA_GetError
 1731              		.syntax unified
 1732              		.thumb
 1733              		.thumb_func
 1734              		.fpu softvfp
 1736              	HAL_DMA_GetError:
 1737              	.LVL88:
 1738              	.LFB77:
 837:Drivers/STM32F1xx_HAL_Driver/Src/stm32f1xx_hal_dma.c ****   return hdma->ErrorCode;
 1739              		.loc 1 837 1 is_stmt 1 view -0
 1740              		.cfi_startproc
 1741              		@ args = 0, pretend = 0, frame = 0
 1742              		@ frame_needed = 0, uses_anonymous_args = 0
 1743              		@ link register save eliminated.
 838:Drivers/STM32F1xx_HAL_Driver/Src/stm32f1xx_hal_dma.c **** }
 1744              		.loc 1 838 3 view .LVU536
 838:Drivers/STM32F1xx_HAL_Driver/Src/stm32f1xx_hal_dma.c **** }
 1745              		.loc 1 838 14 is_stmt 0 view .LVU537
 1746 0000 806B     		ldr	r0, [r0, #56]
 1747              	.LVL89:
 839:Drivers/STM32F1xx_HAL_Driver/Src/stm32f1xx_hal_dma.c **** 
 1748              		.loc 1 839 1 view .LVU538
 1749 0002 7047     		bx	lr
 1750              		.cfi_endproc
 1751              	.LFE77:
 1753              		.text
 1754              	.Letext0:
ARM GAS  /var/folders/rf/wfq6hz5s56g3yh4wqgd7820c0000gn/T//ccCQD8Z0.s 			page 56


 1755              		.file 2 "/usr/local/Cellar/arm-gcc-bin/9-2019-q4-major/arm-none-eabi/include/machine/_default_type
 1756              		.file 3 "/usr/local/Cellar/arm-gcc-bin/9-2019-q4-major/arm-none-eabi/include/sys/_stdint.h"
 1757              		.file 4 "Drivers/CMSIS/Include/core_cm3.h"
 1758              		.file 5 "Drivers/CMSIS/Device/ST/STM32F1xx/Include/system_stm32f1xx.h"
 1759              		.file 6 "Drivers/CMSIS/Device/ST/STM32F1xx/Include/stm32f103xb.h"
 1760              		.file 7 "/usr/local/Cellar/arm-gcc-bin/9-2019-q4-major/arm-none-eabi/include/sys/lock.h"
 1761              		.file 8 "/usr/local/Cellar/arm-gcc-bin/9-2019-q4-major/arm-none-eabi/include/sys/_types.h"
 1762              		.file 9 "/usr/local/Cellar/arm-gcc-bin/9-2019-q4-major/lib/gcc/arm-none-eabi/9.2.1/include/stddef.
 1763              		.file 10 "/usr/local/Cellar/arm-gcc-bin/9-2019-q4-major/arm-none-eabi/include/sys/reent.h"
 1764              		.file 11 "Drivers/CMSIS/Device/ST/STM32F1xx/Include/stm32f1xx.h"
 1765              		.file 12 "Drivers/STM32F1xx_HAL_Driver/Inc/stm32f1xx_hal_def.h"
 1766              		.file 13 "Drivers/STM32F1xx_HAL_Driver/Inc/stm32f1xx_hal_dma.h"
 1767              		.file 14 "Drivers/STM32F1xx_HAL_Driver/Inc/stm32f1xx_hal.h"
ARM GAS  /var/folders/rf/wfq6hz5s56g3yh4wqgd7820c0000gn/T//ccCQD8Z0.s 			page 57

