ARM GAS  /var/folders/rf/wfq6hz5s56g3yh4wqgd7820c0000gn/T//ccZ1SRBq.s 			page 1


   1              		.cpu cortex-m3
   2              		.eabi_attribute 20, 1
   3              		.eabi_attribute 21, 1
   4              		.eabi_attribute 23, 3
   5              		.eabi_attribute 24, 1
   6              		.eabi_attribute 25, 1
   7              		.eabi_attribute 26, 1
   8              		.eabi_attribute 30, 1
   9              		.eabi_attribute 34, 1
  10              		.eabi_attribute 18, 4
  11              		.file	"stm32f1xx_ll_usb.c"
  12              		.text
  13              	.Ltext0:
  14              		.cfi_sections	.debug_frame
  15              		.section	.text.USB_CoreInit,"ax",%progbits
  16              		.align	1
  17              		.global	USB_CoreInit
  18              		.arch armv7-m
  19              		.syntax unified
  20              		.thumb
  21              		.thumb_func
  22              		.fpu softvfp
  24              	USB_CoreInit:
  25              	.LVL0:
  26              	.LFB66:
  27              		.file 1 "Drivers/STM32F1xx_HAL_Driver/Src/stm32f1xx_ll_usb.c"
   1:Drivers/STM32F1xx_HAL_Driver/Src/stm32f1xx_ll_usb.c **** /**
   2:Drivers/STM32F1xx_HAL_Driver/Src/stm32f1xx_ll_usb.c ****   ******************************************************************************
   3:Drivers/STM32F1xx_HAL_Driver/Src/stm32f1xx_ll_usb.c ****   * @file    stm32f1xx_ll_usb.c
   4:Drivers/STM32F1xx_HAL_Driver/Src/stm32f1xx_ll_usb.c ****   * @author  MCD Application Team
   5:Drivers/STM32F1xx_HAL_Driver/Src/stm32f1xx_ll_usb.c ****   * @brief   USB Low Layer HAL module driver.
   6:Drivers/STM32F1xx_HAL_Driver/Src/stm32f1xx_ll_usb.c ****   *
   7:Drivers/STM32F1xx_HAL_Driver/Src/stm32f1xx_ll_usb.c ****   *          This file provides firmware functions to manage the following 
   8:Drivers/STM32F1xx_HAL_Driver/Src/stm32f1xx_ll_usb.c ****   *          functionalities of the USB Peripheral Controller:
   9:Drivers/STM32F1xx_HAL_Driver/Src/stm32f1xx_ll_usb.c ****   *           + Initialization/de-initialization functions
  10:Drivers/STM32F1xx_HAL_Driver/Src/stm32f1xx_ll_usb.c ****   *           + I/O operation functions
  11:Drivers/STM32F1xx_HAL_Driver/Src/stm32f1xx_ll_usb.c ****   *           + Peripheral Control functions 
  12:Drivers/STM32F1xx_HAL_Driver/Src/stm32f1xx_ll_usb.c ****   *           + Peripheral State functions
  13:Drivers/STM32F1xx_HAL_Driver/Src/stm32f1xx_ll_usb.c ****   *
  14:Drivers/STM32F1xx_HAL_Driver/Src/stm32f1xx_ll_usb.c ****   @verbatim
  15:Drivers/STM32F1xx_HAL_Driver/Src/stm32f1xx_ll_usb.c ****   ==============================================================================
  16:Drivers/STM32F1xx_HAL_Driver/Src/stm32f1xx_ll_usb.c ****                     ##### How to use this driver #####
  17:Drivers/STM32F1xx_HAL_Driver/Src/stm32f1xx_ll_usb.c ****   ==============================================================================
  18:Drivers/STM32F1xx_HAL_Driver/Src/stm32f1xx_ll_usb.c ****     [..]
  19:Drivers/STM32F1xx_HAL_Driver/Src/stm32f1xx_ll_usb.c ****       (#) Fill parameters of Init structure in USB_OTG_CfgTypeDef structure.
  20:Drivers/STM32F1xx_HAL_Driver/Src/stm32f1xx_ll_usb.c ****   
  21:Drivers/STM32F1xx_HAL_Driver/Src/stm32f1xx_ll_usb.c ****       (#) Call USB_CoreInit() API to initialize the USB Core peripheral.
  22:Drivers/STM32F1xx_HAL_Driver/Src/stm32f1xx_ll_usb.c **** 
  23:Drivers/STM32F1xx_HAL_Driver/Src/stm32f1xx_ll_usb.c ****       (#) The upper HAL HCD/PCD driver will call the right routines for its internal processes.
  24:Drivers/STM32F1xx_HAL_Driver/Src/stm32f1xx_ll_usb.c **** 
  25:Drivers/STM32F1xx_HAL_Driver/Src/stm32f1xx_ll_usb.c ****   @endverbatim
  26:Drivers/STM32F1xx_HAL_Driver/Src/stm32f1xx_ll_usb.c ****   ******************************************************************************
  27:Drivers/STM32F1xx_HAL_Driver/Src/stm32f1xx_ll_usb.c ****   * @attention
  28:Drivers/STM32F1xx_HAL_Driver/Src/stm32f1xx_ll_usb.c ****   *
  29:Drivers/STM32F1xx_HAL_Driver/Src/stm32f1xx_ll_usb.c ****   * <h2><center>&copy; COPYRIGHT(c) 2016 STMicroelectronics</center></h2>
  30:Drivers/STM32F1xx_HAL_Driver/Src/stm32f1xx_ll_usb.c ****   *
  31:Drivers/STM32F1xx_HAL_Driver/Src/stm32f1xx_ll_usb.c ****   * Redistribution and use in source and binary forms, with or without modification,
ARM GAS  /var/folders/rf/wfq6hz5s56g3yh4wqgd7820c0000gn/T//ccZ1SRBq.s 			page 2


  32:Drivers/STM32F1xx_HAL_Driver/Src/stm32f1xx_ll_usb.c ****   * are permitted provided that the following conditions are met:
  33:Drivers/STM32F1xx_HAL_Driver/Src/stm32f1xx_ll_usb.c ****   *   1. Redistributions of source code must retain the above copyright notice,
  34:Drivers/STM32F1xx_HAL_Driver/Src/stm32f1xx_ll_usb.c ****   *      this list of conditions and the following disclaimer.
  35:Drivers/STM32F1xx_HAL_Driver/Src/stm32f1xx_ll_usb.c ****   *   2. Redistributions in binary form must reproduce the above copyright notice,
  36:Drivers/STM32F1xx_HAL_Driver/Src/stm32f1xx_ll_usb.c ****   *      this list of conditions and the following disclaimer in the documentation
  37:Drivers/STM32F1xx_HAL_Driver/Src/stm32f1xx_ll_usb.c ****   *      and/or other materials provided with the distribution.
  38:Drivers/STM32F1xx_HAL_Driver/Src/stm32f1xx_ll_usb.c ****   *   3. Neither the name of STMicroelectronics nor the names of its contributors
  39:Drivers/STM32F1xx_HAL_Driver/Src/stm32f1xx_ll_usb.c ****   *      may be used to endorse or promote products derived from this software
  40:Drivers/STM32F1xx_HAL_Driver/Src/stm32f1xx_ll_usb.c ****   *      without specific prior written permission.
  41:Drivers/STM32F1xx_HAL_Driver/Src/stm32f1xx_ll_usb.c ****   *
  42:Drivers/STM32F1xx_HAL_Driver/Src/stm32f1xx_ll_usb.c ****   * THIS SOFTWARE IS PROVIDED BY THE COPYRIGHT HOLDERS AND CONTRIBUTORS "AS IS"
  43:Drivers/STM32F1xx_HAL_Driver/Src/stm32f1xx_ll_usb.c ****   * AND ANY EXPRESS OR IMPLIED WARRANTIES, INCLUDING, BUT NOT LIMITED TO, THE
  44:Drivers/STM32F1xx_HAL_Driver/Src/stm32f1xx_ll_usb.c ****   * IMPLIED WARRANTIES OF MERCHANTABILITY AND FITNESS FOR A PARTICULAR PURPOSE ARE
  45:Drivers/STM32F1xx_HAL_Driver/Src/stm32f1xx_ll_usb.c ****   * DISCLAIMED. IN NO EVENT SHALL THE COPYRIGHT HOLDER OR CONTRIBUTORS BE LIABLE
  46:Drivers/STM32F1xx_HAL_Driver/Src/stm32f1xx_ll_usb.c ****   * FOR ANY DIRECT, INDIRECT, INCIDENTAL, SPECIAL, EXEMPLARY, OR CONSEQUENTIAL
  47:Drivers/STM32F1xx_HAL_Driver/Src/stm32f1xx_ll_usb.c ****   * DAMAGES (INCLUDING, BUT NOT LIMITED TO, PROCUREMENT OF SUBSTITUTE GOODS OR
  48:Drivers/STM32F1xx_HAL_Driver/Src/stm32f1xx_ll_usb.c ****   * SERVICES; LOSS OF USE, DATA, OR PROFITS; OR BUSINESS INTERRUPTION) HOWEVER
  49:Drivers/STM32F1xx_HAL_Driver/Src/stm32f1xx_ll_usb.c ****   * CAUSED AND ON ANY THEORY OF LIABILITY, WHETHER IN CONTRACT, STRICT LIABILITY,
  50:Drivers/STM32F1xx_HAL_Driver/Src/stm32f1xx_ll_usb.c ****   * OR TORT (INCLUDING NEGLIGENCE OR OTHERWISE) ARISING IN ANY WAY OUT OF THE USE
  51:Drivers/STM32F1xx_HAL_Driver/Src/stm32f1xx_ll_usb.c ****   * OF THIS SOFTWARE, EVEN IF ADVISED OF THE POSSIBILITY OF SUCH DAMAGE.
  52:Drivers/STM32F1xx_HAL_Driver/Src/stm32f1xx_ll_usb.c ****   *
  53:Drivers/STM32F1xx_HAL_Driver/Src/stm32f1xx_ll_usb.c ****   ******************************************************************************
  54:Drivers/STM32F1xx_HAL_Driver/Src/stm32f1xx_ll_usb.c ****   */ 
  55:Drivers/STM32F1xx_HAL_Driver/Src/stm32f1xx_ll_usb.c **** 
  56:Drivers/STM32F1xx_HAL_Driver/Src/stm32f1xx_ll_usb.c **** /* Includes ------------------------------------------------------------------*/
  57:Drivers/STM32F1xx_HAL_Driver/Src/stm32f1xx_ll_usb.c **** #include "stm32f1xx_hal.h"
  58:Drivers/STM32F1xx_HAL_Driver/Src/stm32f1xx_ll_usb.c **** 
  59:Drivers/STM32F1xx_HAL_Driver/Src/stm32f1xx_ll_usb.c **** /** @addtogroup STM32F1xx_HAL_Driver
  60:Drivers/STM32F1xx_HAL_Driver/Src/stm32f1xx_ll_usb.c ****   * @{
  61:Drivers/STM32F1xx_HAL_Driver/Src/stm32f1xx_ll_usb.c ****   */
  62:Drivers/STM32F1xx_HAL_Driver/Src/stm32f1xx_ll_usb.c **** 
  63:Drivers/STM32F1xx_HAL_Driver/Src/stm32f1xx_ll_usb.c **** /** @defgroup USB_LL USB Low Layer
  64:Drivers/STM32F1xx_HAL_Driver/Src/stm32f1xx_ll_usb.c ****   * @brief Low layer module for USB_FS and USB_OTG_FS drivers
  65:Drivers/STM32F1xx_HAL_Driver/Src/stm32f1xx_ll_usb.c ****   * @{
  66:Drivers/STM32F1xx_HAL_Driver/Src/stm32f1xx_ll_usb.c ****   */
  67:Drivers/STM32F1xx_HAL_Driver/Src/stm32f1xx_ll_usb.c **** 
  68:Drivers/STM32F1xx_HAL_Driver/Src/stm32f1xx_ll_usb.c **** #if defined (HAL_PCD_MODULE_ENABLED) || defined (HAL_HCD_MODULE_ENABLED)
  69:Drivers/STM32F1xx_HAL_Driver/Src/stm32f1xx_ll_usb.c **** 
  70:Drivers/STM32F1xx_HAL_Driver/Src/stm32f1xx_ll_usb.c **** #if defined(STM32F102x6) || defined(STM32F102xB) || \
  71:Drivers/STM32F1xx_HAL_Driver/Src/stm32f1xx_ll_usb.c ****     defined(STM32F103x6) || defined(STM32F103xB) || \
  72:Drivers/STM32F1xx_HAL_Driver/Src/stm32f1xx_ll_usb.c ****     defined(STM32F103xE) || defined(STM32F103xG) || \
  73:Drivers/STM32F1xx_HAL_Driver/Src/stm32f1xx_ll_usb.c ****     defined(STM32F105xC) || defined(STM32F107xC)
  74:Drivers/STM32F1xx_HAL_Driver/Src/stm32f1xx_ll_usb.c ****  
  75:Drivers/STM32F1xx_HAL_Driver/Src/stm32f1xx_ll_usb.c **** /* Private types -------------------------------------------------------------*/
  76:Drivers/STM32F1xx_HAL_Driver/Src/stm32f1xx_ll_usb.c **** /* Private variables ---------------------------------------------------------*/
  77:Drivers/STM32F1xx_HAL_Driver/Src/stm32f1xx_ll_usb.c **** /* Private constants ---------------------------------------------------------*/
  78:Drivers/STM32F1xx_HAL_Driver/Src/stm32f1xx_ll_usb.c **** /* Private macros ------------------------------------------------------------*/
  79:Drivers/STM32F1xx_HAL_Driver/Src/stm32f1xx_ll_usb.c **** /* Private functions ---------------------------------------------------------*/
  80:Drivers/STM32F1xx_HAL_Driver/Src/stm32f1xx_ll_usb.c **** #if defined (USB_OTG_FS)
  81:Drivers/STM32F1xx_HAL_Driver/Src/stm32f1xx_ll_usb.c **** /** @defgroup USB_LL_Private_Functions USB Low Layer Private Functions
  82:Drivers/STM32F1xx_HAL_Driver/Src/stm32f1xx_ll_usb.c ****   * @{
  83:Drivers/STM32F1xx_HAL_Driver/Src/stm32f1xx_ll_usb.c ****   */
  84:Drivers/STM32F1xx_HAL_Driver/Src/stm32f1xx_ll_usb.c **** static HAL_StatusTypeDef USB_CoreReset(USB_OTG_GlobalTypeDef *USBx);
  85:Drivers/STM32F1xx_HAL_Driver/Src/stm32f1xx_ll_usb.c **** /**
  86:Drivers/STM32F1xx_HAL_Driver/Src/stm32f1xx_ll_usb.c ****   * @}
  87:Drivers/STM32F1xx_HAL_Driver/Src/stm32f1xx_ll_usb.c ****   */
  88:Drivers/STM32F1xx_HAL_Driver/Src/stm32f1xx_ll_usb.c **** #endif /* USB_OTG_FS */
ARM GAS  /var/folders/rf/wfq6hz5s56g3yh4wqgd7820c0000gn/T//ccZ1SRBq.s 			page 3


  89:Drivers/STM32F1xx_HAL_Driver/Src/stm32f1xx_ll_usb.c **** 
  90:Drivers/STM32F1xx_HAL_Driver/Src/stm32f1xx_ll_usb.c **** /* Exported functions --------------------------------------------------------*/
  91:Drivers/STM32F1xx_HAL_Driver/Src/stm32f1xx_ll_usb.c **** /** @defgroup USB_LL_Exported_Functions USB Low Layer Exported Functions
  92:Drivers/STM32F1xx_HAL_Driver/Src/stm32f1xx_ll_usb.c ****   * @{
  93:Drivers/STM32F1xx_HAL_Driver/Src/stm32f1xx_ll_usb.c ****   */
  94:Drivers/STM32F1xx_HAL_Driver/Src/stm32f1xx_ll_usb.c **** 
  95:Drivers/STM32F1xx_HAL_Driver/Src/stm32f1xx_ll_usb.c **** /** @defgroup USB_LL_Exported_Functions_Group1 Peripheral Control functions
  96:Drivers/STM32F1xx_HAL_Driver/Src/stm32f1xx_ll_usb.c ****  *  @brief   management functions
  97:Drivers/STM32F1xx_HAL_Driver/Src/stm32f1xx_ll_usb.c ****  *
  98:Drivers/STM32F1xx_HAL_Driver/Src/stm32f1xx_ll_usb.c **** @verbatim
  99:Drivers/STM32F1xx_HAL_Driver/Src/stm32f1xx_ll_usb.c ****  ===============================================================================
 100:Drivers/STM32F1xx_HAL_Driver/Src/stm32f1xx_ll_usb.c ****                       ##### Peripheral Control functions #####
 101:Drivers/STM32F1xx_HAL_Driver/Src/stm32f1xx_ll_usb.c ****  ===============================================================================  
 102:Drivers/STM32F1xx_HAL_Driver/Src/stm32f1xx_ll_usb.c ****     [..]
 103:Drivers/STM32F1xx_HAL_Driver/Src/stm32f1xx_ll_usb.c ****     This subsection provides a set of functions allowing to control the PCD data 
 104:Drivers/STM32F1xx_HAL_Driver/Src/stm32f1xx_ll_usb.c ****     transfers.
 105:Drivers/STM32F1xx_HAL_Driver/Src/stm32f1xx_ll_usb.c ****  
 106:Drivers/STM32F1xx_HAL_Driver/Src/stm32f1xx_ll_usb.c **** @endverbatim
 107:Drivers/STM32F1xx_HAL_Driver/Src/stm32f1xx_ll_usb.c ****   * @{
 108:Drivers/STM32F1xx_HAL_Driver/Src/stm32f1xx_ll_usb.c ****   */
 109:Drivers/STM32F1xx_HAL_Driver/Src/stm32f1xx_ll_usb.c ****   
 110:Drivers/STM32F1xx_HAL_Driver/Src/stm32f1xx_ll_usb.c **** /*==============================================================================
 111:Drivers/STM32F1xx_HAL_Driver/Src/stm32f1xx_ll_usb.c ****     USB OTG FS peripheral available on STM32F105xx and STM32F107xx devices 
 112:Drivers/STM32F1xx_HAL_Driver/Src/stm32f1xx_ll_usb.c **** ==============================================================================*/
 113:Drivers/STM32F1xx_HAL_Driver/Src/stm32f1xx_ll_usb.c **** #if defined (USB_OTG_FS)
 114:Drivers/STM32F1xx_HAL_Driver/Src/stm32f1xx_ll_usb.c **** 
 115:Drivers/STM32F1xx_HAL_Driver/Src/stm32f1xx_ll_usb.c **** /**
 116:Drivers/STM32F1xx_HAL_Driver/Src/stm32f1xx_ll_usb.c ****   * @brief  Initializes the USB Core
 117:Drivers/STM32F1xx_HAL_Driver/Src/stm32f1xx_ll_usb.c ****   * @param  USBx: USB Instance
 118:Drivers/STM32F1xx_HAL_Driver/Src/stm32f1xx_ll_usb.c ****   * @param  cfg : pointer to a USB_OTG_CfgTypeDef structure that contains
 119:Drivers/STM32F1xx_HAL_Driver/Src/stm32f1xx_ll_usb.c ****   *         the configuration information for the specified USBx peripheral.
 120:Drivers/STM32F1xx_HAL_Driver/Src/stm32f1xx_ll_usb.c ****   * @retval HAL status
 121:Drivers/STM32F1xx_HAL_Driver/Src/stm32f1xx_ll_usb.c ****   */
 122:Drivers/STM32F1xx_HAL_Driver/Src/stm32f1xx_ll_usb.c **** HAL_StatusTypeDef USB_CoreInit(USB_OTG_GlobalTypeDef *USBx, USB_OTG_CfgTypeDef cfg)
 123:Drivers/STM32F1xx_HAL_Driver/Src/stm32f1xx_ll_usb.c **** {
 124:Drivers/STM32F1xx_HAL_Driver/Src/stm32f1xx_ll_usb.c ****   /* Prevent unused argument(s) compilation warning */
 125:Drivers/STM32F1xx_HAL_Driver/Src/stm32f1xx_ll_usb.c ****   UNUSED(cfg);
 126:Drivers/STM32F1xx_HAL_Driver/Src/stm32f1xx_ll_usb.c **** 
 127:Drivers/STM32F1xx_HAL_Driver/Src/stm32f1xx_ll_usb.c ****   /* Select FS Embedded PHY */
 128:Drivers/STM32F1xx_HAL_Driver/Src/stm32f1xx_ll_usb.c ****   USBx->GUSBCFG |= USB_OTG_GUSBCFG_PHYSEL;
 129:Drivers/STM32F1xx_HAL_Driver/Src/stm32f1xx_ll_usb.c ****   
 130:Drivers/STM32F1xx_HAL_Driver/Src/stm32f1xx_ll_usb.c ****   /* Reset after a PHY select and set Host mode */
 131:Drivers/STM32F1xx_HAL_Driver/Src/stm32f1xx_ll_usb.c ****   USB_CoreReset(USBx);
 132:Drivers/STM32F1xx_HAL_Driver/Src/stm32f1xx_ll_usb.c ****   
 133:Drivers/STM32F1xx_HAL_Driver/Src/stm32f1xx_ll_usb.c ****   /* Deactivate the power down*/
 134:Drivers/STM32F1xx_HAL_Driver/Src/stm32f1xx_ll_usb.c ****   USBx->GCCFG = USB_OTG_GCCFG_PWRDWN;
 135:Drivers/STM32F1xx_HAL_Driver/Src/stm32f1xx_ll_usb.c ****   
 136:Drivers/STM32F1xx_HAL_Driver/Src/stm32f1xx_ll_usb.c ****   return HAL_OK;
 137:Drivers/STM32F1xx_HAL_Driver/Src/stm32f1xx_ll_usb.c **** }
 138:Drivers/STM32F1xx_HAL_Driver/Src/stm32f1xx_ll_usb.c **** 
 139:Drivers/STM32F1xx_HAL_Driver/Src/stm32f1xx_ll_usb.c **** /**
 140:Drivers/STM32F1xx_HAL_Driver/Src/stm32f1xx_ll_usb.c ****   * @brief  USB_EnableGlobalInt
 141:Drivers/STM32F1xx_HAL_Driver/Src/stm32f1xx_ll_usb.c ****   *         Enables the controller's Global Int in the AHB Config reg
 142:Drivers/STM32F1xx_HAL_Driver/Src/stm32f1xx_ll_usb.c ****   * @param  USBx : Selected device
 143:Drivers/STM32F1xx_HAL_Driver/Src/stm32f1xx_ll_usb.c ****   * @retval HAL status
 144:Drivers/STM32F1xx_HAL_Driver/Src/stm32f1xx_ll_usb.c ****   */
 145:Drivers/STM32F1xx_HAL_Driver/Src/stm32f1xx_ll_usb.c **** HAL_StatusTypeDef USB_EnableGlobalInt(USB_OTG_GlobalTypeDef *USBx)
ARM GAS  /var/folders/rf/wfq6hz5s56g3yh4wqgd7820c0000gn/T//ccZ1SRBq.s 			page 4


 146:Drivers/STM32F1xx_HAL_Driver/Src/stm32f1xx_ll_usb.c **** {
 147:Drivers/STM32F1xx_HAL_Driver/Src/stm32f1xx_ll_usb.c ****   USBx->GAHBCFG |= USB_OTG_GAHBCFG_GINT;
 148:Drivers/STM32F1xx_HAL_Driver/Src/stm32f1xx_ll_usb.c ****   return HAL_OK;
 149:Drivers/STM32F1xx_HAL_Driver/Src/stm32f1xx_ll_usb.c **** }
 150:Drivers/STM32F1xx_HAL_Driver/Src/stm32f1xx_ll_usb.c **** 
 151:Drivers/STM32F1xx_HAL_Driver/Src/stm32f1xx_ll_usb.c **** /**
 152:Drivers/STM32F1xx_HAL_Driver/Src/stm32f1xx_ll_usb.c ****   * @brief  USB_DisableGlobalInt
 153:Drivers/STM32F1xx_HAL_Driver/Src/stm32f1xx_ll_usb.c ****   *         Disable the controller's Global Int in the AHB Config reg
 154:Drivers/STM32F1xx_HAL_Driver/Src/stm32f1xx_ll_usb.c ****   * @param  USBx : Selected device
 155:Drivers/STM32F1xx_HAL_Driver/Src/stm32f1xx_ll_usb.c ****   * @retval HAL status
 156:Drivers/STM32F1xx_HAL_Driver/Src/stm32f1xx_ll_usb.c **** */
 157:Drivers/STM32F1xx_HAL_Driver/Src/stm32f1xx_ll_usb.c **** HAL_StatusTypeDef USB_DisableGlobalInt(USB_OTG_GlobalTypeDef *USBx)
 158:Drivers/STM32F1xx_HAL_Driver/Src/stm32f1xx_ll_usb.c **** {
 159:Drivers/STM32F1xx_HAL_Driver/Src/stm32f1xx_ll_usb.c ****   USBx->GAHBCFG &= ~USB_OTG_GAHBCFG_GINT;
 160:Drivers/STM32F1xx_HAL_Driver/Src/stm32f1xx_ll_usb.c ****   return HAL_OK;
 161:Drivers/STM32F1xx_HAL_Driver/Src/stm32f1xx_ll_usb.c **** }
 162:Drivers/STM32F1xx_HAL_Driver/Src/stm32f1xx_ll_usb.c **** 
 163:Drivers/STM32F1xx_HAL_Driver/Src/stm32f1xx_ll_usb.c **** /**
 164:Drivers/STM32F1xx_HAL_Driver/Src/stm32f1xx_ll_usb.c ****   * @brief  USB_SetCurrentMode : Set functional mode
 165:Drivers/STM32F1xx_HAL_Driver/Src/stm32f1xx_ll_usb.c ****   * @param  USBx : Selected device
 166:Drivers/STM32F1xx_HAL_Driver/Src/stm32f1xx_ll_usb.c ****   * @param  mode :  current core mode
 167:Drivers/STM32F1xx_HAL_Driver/Src/stm32f1xx_ll_usb.c ****   *          This parameter can be one of the these values:
 168:Drivers/STM32F1xx_HAL_Driver/Src/stm32f1xx_ll_usb.c ****   *            @arg USB_DEVICE_MODE: Peripheral mode mode
 169:Drivers/STM32F1xx_HAL_Driver/Src/stm32f1xx_ll_usb.c ****   *            @arg USB_HOST_MODE: Host mode
 170:Drivers/STM32F1xx_HAL_Driver/Src/stm32f1xx_ll_usb.c ****   *            @arg USB_DRD_MODE: Dual Role Device mode  
 171:Drivers/STM32F1xx_HAL_Driver/Src/stm32f1xx_ll_usb.c ****   * @retval HAL status
 172:Drivers/STM32F1xx_HAL_Driver/Src/stm32f1xx_ll_usb.c ****   */
 173:Drivers/STM32F1xx_HAL_Driver/Src/stm32f1xx_ll_usb.c **** HAL_StatusTypeDef USB_SetCurrentMode(USB_OTG_GlobalTypeDef *USBx , USB_ModeTypeDef mode)
 174:Drivers/STM32F1xx_HAL_Driver/Src/stm32f1xx_ll_usb.c **** {
 175:Drivers/STM32F1xx_HAL_Driver/Src/stm32f1xx_ll_usb.c ****   USBx->GUSBCFG &= ~(USB_OTG_GUSBCFG_FHMOD | USB_OTG_GUSBCFG_FDMOD); 
 176:Drivers/STM32F1xx_HAL_Driver/Src/stm32f1xx_ll_usb.c ****   
 177:Drivers/STM32F1xx_HAL_Driver/Src/stm32f1xx_ll_usb.c ****   if ( mode == USB_HOST_MODE)
 178:Drivers/STM32F1xx_HAL_Driver/Src/stm32f1xx_ll_usb.c ****   {
 179:Drivers/STM32F1xx_HAL_Driver/Src/stm32f1xx_ll_usb.c ****     USBx->GUSBCFG |= USB_OTG_GUSBCFG_FHMOD;
 180:Drivers/STM32F1xx_HAL_Driver/Src/stm32f1xx_ll_usb.c ****   }
 181:Drivers/STM32F1xx_HAL_Driver/Src/stm32f1xx_ll_usb.c ****   else if (mode == USB_DEVICE_MODE)
 182:Drivers/STM32F1xx_HAL_Driver/Src/stm32f1xx_ll_usb.c ****   {
 183:Drivers/STM32F1xx_HAL_Driver/Src/stm32f1xx_ll_usb.c ****     USBx->GUSBCFG |= USB_OTG_GUSBCFG_FDMOD; 
 184:Drivers/STM32F1xx_HAL_Driver/Src/stm32f1xx_ll_usb.c ****   }
 185:Drivers/STM32F1xx_HAL_Driver/Src/stm32f1xx_ll_usb.c ****   HAL_Delay(50);
 186:Drivers/STM32F1xx_HAL_Driver/Src/stm32f1xx_ll_usb.c ****   
 187:Drivers/STM32F1xx_HAL_Driver/Src/stm32f1xx_ll_usb.c ****   return HAL_OK;
 188:Drivers/STM32F1xx_HAL_Driver/Src/stm32f1xx_ll_usb.c **** }
 189:Drivers/STM32F1xx_HAL_Driver/Src/stm32f1xx_ll_usb.c **** 
 190:Drivers/STM32F1xx_HAL_Driver/Src/stm32f1xx_ll_usb.c **** /**
 191:Drivers/STM32F1xx_HAL_Driver/Src/stm32f1xx_ll_usb.c ****   * @brief  USB_DevInit : Initializes the USB_OTG controller registers 
 192:Drivers/STM32F1xx_HAL_Driver/Src/stm32f1xx_ll_usb.c ****   *         for device mode
 193:Drivers/STM32F1xx_HAL_Driver/Src/stm32f1xx_ll_usb.c ****   * @param  USBx : Selected device
 194:Drivers/STM32F1xx_HAL_Driver/Src/stm32f1xx_ll_usb.c ****   * @param  cfg  : pointer to a USB_OTG_CfgTypeDef structure that contains
 195:Drivers/STM32F1xx_HAL_Driver/Src/stm32f1xx_ll_usb.c ****   *         the configuration information for the specified USBx peripheral.
 196:Drivers/STM32F1xx_HAL_Driver/Src/stm32f1xx_ll_usb.c ****   * @retval HAL status
 197:Drivers/STM32F1xx_HAL_Driver/Src/stm32f1xx_ll_usb.c ****   */
 198:Drivers/STM32F1xx_HAL_Driver/Src/stm32f1xx_ll_usb.c **** HAL_StatusTypeDef USB_DevInit (USB_OTG_GlobalTypeDef *USBx, USB_OTG_CfgTypeDef cfg)
 199:Drivers/STM32F1xx_HAL_Driver/Src/stm32f1xx_ll_usb.c **** {
 200:Drivers/STM32F1xx_HAL_Driver/Src/stm32f1xx_ll_usb.c ****   uint32_t index = 0;
 201:Drivers/STM32F1xx_HAL_Driver/Src/stm32f1xx_ll_usb.c ****   
 202:Drivers/STM32F1xx_HAL_Driver/Src/stm32f1xx_ll_usb.c ****   for (index = 0; index < 15 ; index++)
ARM GAS  /var/folders/rf/wfq6hz5s56g3yh4wqgd7820c0000gn/T//ccZ1SRBq.s 			page 5


 203:Drivers/STM32F1xx_HAL_Driver/Src/stm32f1xx_ll_usb.c ****   {
 204:Drivers/STM32F1xx_HAL_Driver/Src/stm32f1xx_ll_usb.c ****     USBx->DIEPTXF[index] = 0;
 205:Drivers/STM32F1xx_HAL_Driver/Src/stm32f1xx_ll_usb.c ****   }
 206:Drivers/STM32F1xx_HAL_Driver/Src/stm32f1xx_ll_usb.c ****   
 207:Drivers/STM32F1xx_HAL_Driver/Src/stm32f1xx_ll_usb.c ****   /*Activate VBUS Sensing B */
 208:Drivers/STM32F1xx_HAL_Driver/Src/stm32f1xx_ll_usb.c ****   USBx->GCCFG |= USB_OTG_GCCFG_VBUSBSEN;
 209:Drivers/STM32F1xx_HAL_Driver/Src/stm32f1xx_ll_usb.c **** 
 210:Drivers/STM32F1xx_HAL_Driver/Src/stm32f1xx_ll_usb.c ****   /* Restart the Phy Clock */
 211:Drivers/STM32F1xx_HAL_Driver/Src/stm32f1xx_ll_usb.c ****   USBx_PCGCCTL = 0;
 212:Drivers/STM32F1xx_HAL_Driver/Src/stm32f1xx_ll_usb.c ****   
 213:Drivers/STM32F1xx_HAL_Driver/Src/stm32f1xx_ll_usb.c ****   /* Device mode configuration */
 214:Drivers/STM32F1xx_HAL_Driver/Src/stm32f1xx_ll_usb.c ****   USBx_DEVICE->DCFG |= DCFG_FRAME_INTERVAL_80;
 215:Drivers/STM32F1xx_HAL_Driver/Src/stm32f1xx_ll_usb.c ****   
 216:Drivers/STM32F1xx_HAL_Driver/Src/stm32f1xx_ll_usb.c ****   /* Set Full speed phy */
 217:Drivers/STM32F1xx_HAL_Driver/Src/stm32f1xx_ll_usb.c ****   USB_SetDevSpeed (USBx , USB_OTG_SPEED_FULL);
 218:Drivers/STM32F1xx_HAL_Driver/Src/stm32f1xx_ll_usb.c ****   
 219:Drivers/STM32F1xx_HAL_Driver/Src/stm32f1xx_ll_usb.c ****   /* Flush the FIFOs */
 220:Drivers/STM32F1xx_HAL_Driver/Src/stm32f1xx_ll_usb.c ****   USB_FlushTxFifo(USBx , 0x10); /* all Tx FIFOs */
 221:Drivers/STM32F1xx_HAL_Driver/Src/stm32f1xx_ll_usb.c ****   USB_FlushRxFifo(USBx);
 222:Drivers/STM32F1xx_HAL_Driver/Src/stm32f1xx_ll_usb.c ****   
 223:Drivers/STM32F1xx_HAL_Driver/Src/stm32f1xx_ll_usb.c ****   /* Clear all pending Device Interrupts */
 224:Drivers/STM32F1xx_HAL_Driver/Src/stm32f1xx_ll_usb.c ****   USBx_DEVICE->DIEPMSK = 0;
 225:Drivers/STM32F1xx_HAL_Driver/Src/stm32f1xx_ll_usb.c ****   USBx_DEVICE->DOEPMSK = 0;
 226:Drivers/STM32F1xx_HAL_Driver/Src/stm32f1xx_ll_usb.c ****   USBx_DEVICE->DAINT = 0xFFFFFFFF;
 227:Drivers/STM32F1xx_HAL_Driver/Src/stm32f1xx_ll_usb.c ****   USBx_DEVICE->DAINTMSK = 0;
 228:Drivers/STM32F1xx_HAL_Driver/Src/stm32f1xx_ll_usb.c ****   
 229:Drivers/STM32F1xx_HAL_Driver/Src/stm32f1xx_ll_usb.c ****   for (index = 0; index < cfg.dev_endpoints; index++)
 230:Drivers/STM32F1xx_HAL_Driver/Src/stm32f1xx_ll_usb.c ****   {
 231:Drivers/STM32F1xx_HAL_Driver/Src/stm32f1xx_ll_usb.c ****     if ((USBx_INEP(index)->DIEPCTL & USB_OTG_DIEPCTL_EPENA) == USB_OTG_DIEPCTL_EPENA)
 232:Drivers/STM32F1xx_HAL_Driver/Src/stm32f1xx_ll_usb.c ****     {
 233:Drivers/STM32F1xx_HAL_Driver/Src/stm32f1xx_ll_usb.c ****       USBx_INEP(index)->DIEPCTL = (USB_OTG_DIEPCTL_EPDIS | USB_OTG_DIEPCTL_SNAK);
 234:Drivers/STM32F1xx_HAL_Driver/Src/stm32f1xx_ll_usb.c ****     }
 235:Drivers/STM32F1xx_HAL_Driver/Src/stm32f1xx_ll_usb.c ****     else
 236:Drivers/STM32F1xx_HAL_Driver/Src/stm32f1xx_ll_usb.c ****     {
 237:Drivers/STM32F1xx_HAL_Driver/Src/stm32f1xx_ll_usb.c ****       USBx_INEP(index)->DIEPCTL = 0;
 238:Drivers/STM32F1xx_HAL_Driver/Src/stm32f1xx_ll_usb.c ****     }
 239:Drivers/STM32F1xx_HAL_Driver/Src/stm32f1xx_ll_usb.c ****     
 240:Drivers/STM32F1xx_HAL_Driver/Src/stm32f1xx_ll_usb.c ****     USBx_INEP(index)->DIEPTSIZ = 0;
 241:Drivers/STM32F1xx_HAL_Driver/Src/stm32f1xx_ll_usb.c ****     USBx_INEP(index)->DIEPINT  = 0xFF;
 242:Drivers/STM32F1xx_HAL_Driver/Src/stm32f1xx_ll_usb.c ****   }
 243:Drivers/STM32F1xx_HAL_Driver/Src/stm32f1xx_ll_usb.c ****   
 244:Drivers/STM32F1xx_HAL_Driver/Src/stm32f1xx_ll_usb.c ****   for (index = 0; index < cfg.dev_endpoints; index++)
 245:Drivers/STM32F1xx_HAL_Driver/Src/stm32f1xx_ll_usb.c ****   {
 246:Drivers/STM32F1xx_HAL_Driver/Src/stm32f1xx_ll_usb.c ****     if ((USBx_OUTEP(index)->DOEPCTL & USB_OTG_DOEPCTL_EPENA) == USB_OTG_DOEPCTL_EPENA)
 247:Drivers/STM32F1xx_HAL_Driver/Src/stm32f1xx_ll_usb.c ****     {
 248:Drivers/STM32F1xx_HAL_Driver/Src/stm32f1xx_ll_usb.c ****       USBx_OUTEP(index)->DOEPCTL = (USB_OTG_DOEPCTL_EPDIS | USB_OTG_DOEPCTL_SNAK);
 249:Drivers/STM32F1xx_HAL_Driver/Src/stm32f1xx_ll_usb.c ****     }
 250:Drivers/STM32F1xx_HAL_Driver/Src/stm32f1xx_ll_usb.c ****     else
 251:Drivers/STM32F1xx_HAL_Driver/Src/stm32f1xx_ll_usb.c ****     {
 252:Drivers/STM32F1xx_HAL_Driver/Src/stm32f1xx_ll_usb.c ****       USBx_OUTEP(index)->DOEPCTL = 0;
 253:Drivers/STM32F1xx_HAL_Driver/Src/stm32f1xx_ll_usb.c ****     }
 254:Drivers/STM32F1xx_HAL_Driver/Src/stm32f1xx_ll_usb.c ****     
 255:Drivers/STM32F1xx_HAL_Driver/Src/stm32f1xx_ll_usb.c ****     USBx_OUTEP(index)->DOEPTSIZ = 0;
 256:Drivers/STM32F1xx_HAL_Driver/Src/stm32f1xx_ll_usb.c ****     USBx_OUTEP(index)->DOEPINT  = 0xFF;
 257:Drivers/STM32F1xx_HAL_Driver/Src/stm32f1xx_ll_usb.c ****   }
 258:Drivers/STM32F1xx_HAL_Driver/Src/stm32f1xx_ll_usb.c ****   
 259:Drivers/STM32F1xx_HAL_Driver/Src/stm32f1xx_ll_usb.c ****   USBx_DEVICE->DIEPMSK &= ~(USB_OTG_DIEPMSK_TXFURM);
ARM GAS  /var/folders/rf/wfq6hz5s56g3yh4wqgd7820c0000gn/T//ccZ1SRBq.s 			page 6


 260:Drivers/STM32F1xx_HAL_Driver/Src/stm32f1xx_ll_usb.c ****   
 261:Drivers/STM32F1xx_HAL_Driver/Src/stm32f1xx_ll_usb.c ****   /* Disable all interrupts. */
 262:Drivers/STM32F1xx_HAL_Driver/Src/stm32f1xx_ll_usb.c ****   USBx->GINTMSK = 0;
 263:Drivers/STM32F1xx_HAL_Driver/Src/stm32f1xx_ll_usb.c ****   
 264:Drivers/STM32F1xx_HAL_Driver/Src/stm32f1xx_ll_usb.c ****   /* Clear any pending interrupts */
 265:Drivers/STM32F1xx_HAL_Driver/Src/stm32f1xx_ll_usb.c ****   USBx->GINTSTS = 0xBFFFFFFF;
 266:Drivers/STM32F1xx_HAL_Driver/Src/stm32f1xx_ll_usb.c ****   
 267:Drivers/STM32F1xx_HAL_Driver/Src/stm32f1xx_ll_usb.c ****   /* Enable the common interrupts */
 268:Drivers/STM32F1xx_HAL_Driver/Src/stm32f1xx_ll_usb.c ****   USBx->GINTMSK |= USB_OTG_GINTMSK_RXFLVLM;
 269:Drivers/STM32F1xx_HAL_Driver/Src/stm32f1xx_ll_usb.c ****   
 270:Drivers/STM32F1xx_HAL_Driver/Src/stm32f1xx_ll_usb.c ****   /* Enable interrupts matching to the Device mode ONLY */
 271:Drivers/STM32F1xx_HAL_Driver/Src/stm32f1xx_ll_usb.c ****   USBx->GINTMSK |= (USB_OTG_GINTMSK_USBSUSPM | USB_OTG_GINTMSK_USBRST |\
 272:Drivers/STM32F1xx_HAL_Driver/Src/stm32f1xx_ll_usb.c ****                     USB_OTG_GINTMSK_ENUMDNEM | USB_OTG_GINTMSK_IEPINT |\
 273:Drivers/STM32F1xx_HAL_Driver/Src/stm32f1xx_ll_usb.c ****                     USB_OTG_GINTMSK_OEPINT   | USB_OTG_GINTMSK_IISOIXFRM|\
 274:Drivers/STM32F1xx_HAL_Driver/Src/stm32f1xx_ll_usb.c ****                     USB_OTG_GINTMSK_PXFRM_IISOOXFRM | USB_OTG_GINTMSK_WUIM);
 275:Drivers/STM32F1xx_HAL_Driver/Src/stm32f1xx_ll_usb.c ****   
 276:Drivers/STM32F1xx_HAL_Driver/Src/stm32f1xx_ll_usb.c ****   if(cfg.Sof_enable)
 277:Drivers/STM32F1xx_HAL_Driver/Src/stm32f1xx_ll_usb.c ****   {
 278:Drivers/STM32F1xx_HAL_Driver/Src/stm32f1xx_ll_usb.c ****     USBx->GINTMSK |= USB_OTG_GINTMSK_SOFM;
 279:Drivers/STM32F1xx_HAL_Driver/Src/stm32f1xx_ll_usb.c ****   }
 280:Drivers/STM32F1xx_HAL_Driver/Src/stm32f1xx_ll_usb.c **** 
 281:Drivers/STM32F1xx_HAL_Driver/Src/stm32f1xx_ll_usb.c ****   if (cfg.vbus_sensing_enable == ENABLE)
 282:Drivers/STM32F1xx_HAL_Driver/Src/stm32f1xx_ll_usb.c ****   {
 283:Drivers/STM32F1xx_HAL_Driver/Src/stm32f1xx_ll_usb.c ****     USBx->GINTMSK |= (USB_OTG_GINTMSK_SRQIM | USB_OTG_GINTMSK_OTGINT); 
 284:Drivers/STM32F1xx_HAL_Driver/Src/stm32f1xx_ll_usb.c ****   }
 285:Drivers/STM32F1xx_HAL_Driver/Src/stm32f1xx_ll_usb.c ****   
 286:Drivers/STM32F1xx_HAL_Driver/Src/stm32f1xx_ll_usb.c ****   return HAL_OK;
 287:Drivers/STM32F1xx_HAL_Driver/Src/stm32f1xx_ll_usb.c **** }
 288:Drivers/STM32F1xx_HAL_Driver/Src/stm32f1xx_ll_usb.c **** 
 289:Drivers/STM32F1xx_HAL_Driver/Src/stm32f1xx_ll_usb.c **** /**
 290:Drivers/STM32F1xx_HAL_Driver/Src/stm32f1xx_ll_usb.c ****   * @brief  USB_OTG_FlushTxFifo : Flush a Tx FIFO
 291:Drivers/STM32F1xx_HAL_Driver/Src/stm32f1xx_ll_usb.c ****   * @param  USBx : Selected device
 292:Drivers/STM32F1xx_HAL_Driver/Src/stm32f1xx_ll_usb.c ****   * @param  num : FIFO number
 293:Drivers/STM32F1xx_HAL_Driver/Src/stm32f1xx_ll_usb.c ****   *         This parameter can be a value from 1 to 15
 294:Drivers/STM32F1xx_HAL_Driver/Src/stm32f1xx_ll_usb.c ****             15 means Flush all Tx FIFOs
 295:Drivers/STM32F1xx_HAL_Driver/Src/stm32f1xx_ll_usb.c ****   * @retval HAL status
 296:Drivers/STM32F1xx_HAL_Driver/Src/stm32f1xx_ll_usb.c ****   */
 297:Drivers/STM32F1xx_HAL_Driver/Src/stm32f1xx_ll_usb.c **** HAL_StatusTypeDef USB_FlushTxFifo (USB_OTG_GlobalTypeDef *USBx, uint32_t num )
 298:Drivers/STM32F1xx_HAL_Driver/Src/stm32f1xx_ll_usb.c **** {
 299:Drivers/STM32F1xx_HAL_Driver/Src/stm32f1xx_ll_usb.c ****   uint32_t count = 0;
 300:Drivers/STM32F1xx_HAL_Driver/Src/stm32f1xx_ll_usb.c ****   
 301:Drivers/STM32F1xx_HAL_Driver/Src/stm32f1xx_ll_usb.c ****   USBx->GRSTCTL = (USB_OTG_GRSTCTL_TXFFLSH |(uint32_t)(num << 6)); 
 302:Drivers/STM32F1xx_HAL_Driver/Src/stm32f1xx_ll_usb.c ****   
 303:Drivers/STM32F1xx_HAL_Driver/Src/stm32f1xx_ll_usb.c ****   do
 304:Drivers/STM32F1xx_HAL_Driver/Src/stm32f1xx_ll_usb.c ****   {
 305:Drivers/STM32F1xx_HAL_Driver/Src/stm32f1xx_ll_usb.c ****     if (++count > 200000)
 306:Drivers/STM32F1xx_HAL_Driver/Src/stm32f1xx_ll_usb.c ****     {
 307:Drivers/STM32F1xx_HAL_Driver/Src/stm32f1xx_ll_usb.c ****       return HAL_TIMEOUT;
 308:Drivers/STM32F1xx_HAL_Driver/Src/stm32f1xx_ll_usb.c ****     }
 309:Drivers/STM32F1xx_HAL_Driver/Src/stm32f1xx_ll_usb.c ****   }
 310:Drivers/STM32F1xx_HAL_Driver/Src/stm32f1xx_ll_usb.c ****   while ((USBx->GRSTCTL & USB_OTG_GRSTCTL_TXFFLSH) == USB_OTG_GRSTCTL_TXFFLSH);
 311:Drivers/STM32F1xx_HAL_Driver/Src/stm32f1xx_ll_usb.c ****   
 312:Drivers/STM32F1xx_HAL_Driver/Src/stm32f1xx_ll_usb.c ****   return HAL_OK;
 313:Drivers/STM32F1xx_HAL_Driver/Src/stm32f1xx_ll_usb.c **** }
 314:Drivers/STM32F1xx_HAL_Driver/Src/stm32f1xx_ll_usb.c **** 
 315:Drivers/STM32F1xx_HAL_Driver/Src/stm32f1xx_ll_usb.c **** /**
 316:Drivers/STM32F1xx_HAL_Driver/Src/stm32f1xx_ll_usb.c ****   * @brief  USB_FlushRxFifo : Flush Rx FIFO
ARM GAS  /var/folders/rf/wfq6hz5s56g3yh4wqgd7820c0000gn/T//ccZ1SRBq.s 			page 7


 317:Drivers/STM32F1xx_HAL_Driver/Src/stm32f1xx_ll_usb.c ****   * @param  USBx : Selected device
 318:Drivers/STM32F1xx_HAL_Driver/Src/stm32f1xx_ll_usb.c ****   * @retval HAL status
 319:Drivers/STM32F1xx_HAL_Driver/Src/stm32f1xx_ll_usb.c ****   */
 320:Drivers/STM32F1xx_HAL_Driver/Src/stm32f1xx_ll_usb.c **** HAL_StatusTypeDef USB_FlushRxFifo(USB_OTG_GlobalTypeDef *USBx)
 321:Drivers/STM32F1xx_HAL_Driver/Src/stm32f1xx_ll_usb.c **** {
 322:Drivers/STM32F1xx_HAL_Driver/Src/stm32f1xx_ll_usb.c ****   uint32_t count = 0;
 323:Drivers/STM32F1xx_HAL_Driver/Src/stm32f1xx_ll_usb.c ****   
 324:Drivers/STM32F1xx_HAL_Driver/Src/stm32f1xx_ll_usb.c ****   USBx->GRSTCTL = USB_OTG_GRSTCTL_RXFFLSH;
 325:Drivers/STM32F1xx_HAL_Driver/Src/stm32f1xx_ll_usb.c ****   
 326:Drivers/STM32F1xx_HAL_Driver/Src/stm32f1xx_ll_usb.c ****   do
 327:Drivers/STM32F1xx_HAL_Driver/Src/stm32f1xx_ll_usb.c ****   {
 328:Drivers/STM32F1xx_HAL_Driver/Src/stm32f1xx_ll_usb.c ****     if (++count > 200000)
 329:Drivers/STM32F1xx_HAL_Driver/Src/stm32f1xx_ll_usb.c ****     {
 330:Drivers/STM32F1xx_HAL_Driver/Src/stm32f1xx_ll_usb.c ****       return HAL_TIMEOUT;
 331:Drivers/STM32F1xx_HAL_Driver/Src/stm32f1xx_ll_usb.c ****     }
 332:Drivers/STM32F1xx_HAL_Driver/Src/stm32f1xx_ll_usb.c ****   }
 333:Drivers/STM32F1xx_HAL_Driver/Src/stm32f1xx_ll_usb.c ****   while ((USBx->GRSTCTL & USB_OTG_GRSTCTL_RXFFLSH) == USB_OTG_GRSTCTL_RXFFLSH);
 334:Drivers/STM32F1xx_HAL_Driver/Src/stm32f1xx_ll_usb.c ****   
 335:Drivers/STM32F1xx_HAL_Driver/Src/stm32f1xx_ll_usb.c ****   return HAL_OK;
 336:Drivers/STM32F1xx_HAL_Driver/Src/stm32f1xx_ll_usb.c **** }
 337:Drivers/STM32F1xx_HAL_Driver/Src/stm32f1xx_ll_usb.c **** 
 338:Drivers/STM32F1xx_HAL_Driver/Src/stm32f1xx_ll_usb.c **** /**
 339:Drivers/STM32F1xx_HAL_Driver/Src/stm32f1xx_ll_usb.c ****   * @brief  USB_SetDevSpeed :Initializes the DevSpd field of DCFG register 
 340:Drivers/STM32F1xx_HAL_Driver/Src/stm32f1xx_ll_usb.c ****   *         depending the PHY type and the enumeration speed of the device.
 341:Drivers/STM32F1xx_HAL_Driver/Src/stm32f1xx_ll_usb.c ****   * @param  USBx : Selected device
 342:Drivers/STM32F1xx_HAL_Driver/Src/stm32f1xx_ll_usb.c ****   * @param  speed : device speed
 343:Drivers/STM32F1xx_HAL_Driver/Src/stm32f1xx_ll_usb.c ****   *          This parameter can be one of the these values:
 344:Drivers/STM32F1xx_HAL_Driver/Src/stm32f1xx_ll_usb.c ****   *            @arg USB_OTG_SPEED_FULL: Full speed mode
 345:Drivers/STM32F1xx_HAL_Driver/Src/stm32f1xx_ll_usb.c ****   *            @arg USB_OTG_SPEED_LOW: Low speed mode
 346:Drivers/STM32F1xx_HAL_Driver/Src/stm32f1xx_ll_usb.c ****   * @retval  Hal status
 347:Drivers/STM32F1xx_HAL_Driver/Src/stm32f1xx_ll_usb.c ****   */
 348:Drivers/STM32F1xx_HAL_Driver/Src/stm32f1xx_ll_usb.c **** HAL_StatusTypeDef USB_SetDevSpeed(USB_OTG_GlobalTypeDef *USBx , uint8_t speed)
 349:Drivers/STM32F1xx_HAL_Driver/Src/stm32f1xx_ll_usb.c **** {
 350:Drivers/STM32F1xx_HAL_Driver/Src/stm32f1xx_ll_usb.c ****   /* Prevent unused argument(s) compilation warning */
 351:Drivers/STM32F1xx_HAL_Driver/Src/stm32f1xx_ll_usb.c ****   UNUSED(USBx);
 352:Drivers/STM32F1xx_HAL_Driver/Src/stm32f1xx_ll_usb.c **** 
 353:Drivers/STM32F1xx_HAL_Driver/Src/stm32f1xx_ll_usb.c ****   USBx_DEVICE->DCFG |= speed;
 354:Drivers/STM32F1xx_HAL_Driver/Src/stm32f1xx_ll_usb.c ****   return HAL_OK;
 355:Drivers/STM32F1xx_HAL_Driver/Src/stm32f1xx_ll_usb.c **** }
 356:Drivers/STM32F1xx_HAL_Driver/Src/stm32f1xx_ll_usb.c **** 
 357:Drivers/STM32F1xx_HAL_Driver/Src/stm32f1xx_ll_usb.c **** /**
 358:Drivers/STM32F1xx_HAL_Driver/Src/stm32f1xx_ll_usb.c ****   * @brief  USB_GetDevSpeed :Return the  Dev Speed 
 359:Drivers/STM32F1xx_HAL_Driver/Src/stm32f1xx_ll_usb.c ****   * @param  USBx : Selected device
 360:Drivers/STM32F1xx_HAL_Driver/Src/stm32f1xx_ll_usb.c ****   * @retval speed : device speed
 361:Drivers/STM32F1xx_HAL_Driver/Src/stm32f1xx_ll_usb.c ****   *          This parameter can be one of the these values:
 362:Drivers/STM32F1xx_HAL_Driver/Src/stm32f1xx_ll_usb.c ****   *            @arg USB_OTG_SPEED_FULL: Full speed mode
 363:Drivers/STM32F1xx_HAL_Driver/Src/stm32f1xx_ll_usb.c ****   *            @arg USB_OTG_SPEED_LOW: Low speed mode
 364:Drivers/STM32F1xx_HAL_Driver/Src/stm32f1xx_ll_usb.c ****   */
 365:Drivers/STM32F1xx_HAL_Driver/Src/stm32f1xx_ll_usb.c **** uint8_t USB_GetDevSpeed(USB_OTG_GlobalTypeDef *USBx)
 366:Drivers/STM32F1xx_HAL_Driver/Src/stm32f1xx_ll_usb.c **** {
 367:Drivers/STM32F1xx_HAL_Driver/Src/stm32f1xx_ll_usb.c ****   uint8_t speed = 0;
 368:Drivers/STM32F1xx_HAL_Driver/Src/stm32f1xx_ll_usb.c ****   /* Prevent unused argument(s) compilation warning */
 369:Drivers/STM32F1xx_HAL_Driver/Src/stm32f1xx_ll_usb.c ****   UNUSED(USBx);
 370:Drivers/STM32F1xx_HAL_Driver/Src/stm32f1xx_ll_usb.c **** 
 371:Drivers/STM32F1xx_HAL_Driver/Src/stm32f1xx_ll_usb.c ****   if (((USBx_DEVICE->DSTS & USB_OTG_DSTS_ENUMSPD) == DSTS_ENUMSPD_FS_PHY_30MHZ_OR_60MHZ)||
 372:Drivers/STM32F1xx_HAL_Driver/Src/stm32f1xx_ll_usb.c ****       ((USBx_DEVICE->DSTS & USB_OTG_DSTS_ENUMSPD) == DSTS_ENUMSPD_FS_PHY_48MHZ))
 373:Drivers/STM32F1xx_HAL_Driver/Src/stm32f1xx_ll_usb.c ****   {
ARM GAS  /var/folders/rf/wfq6hz5s56g3yh4wqgd7820c0000gn/T//ccZ1SRBq.s 			page 8


 374:Drivers/STM32F1xx_HAL_Driver/Src/stm32f1xx_ll_usb.c ****     speed = USB_OTG_SPEED_FULL;
 375:Drivers/STM32F1xx_HAL_Driver/Src/stm32f1xx_ll_usb.c ****   }
 376:Drivers/STM32F1xx_HAL_Driver/Src/stm32f1xx_ll_usb.c ****   else if((USBx_DEVICE->DSTS & USB_OTG_DSTS_ENUMSPD) == DSTS_ENUMSPD_LS_PHY_6MHZ)
 377:Drivers/STM32F1xx_HAL_Driver/Src/stm32f1xx_ll_usb.c ****   {
 378:Drivers/STM32F1xx_HAL_Driver/Src/stm32f1xx_ll_usb.c ****     speed = USB_OTG_SPEED_LOW;
 379:Drivers/STM32F1xx_HAL_Driver/Src/stm32f1xx_ll_usb.c ****   }
 380:Drivers/STM32F1xx_HAL_Driver/Src/stm32f1xx_ll_usb.c ****   
 381:Drivers/STM32F1xx_HAL_Driver/Src/stm32f1xx_ll_usb.c ****   return speed;
 382:Drivers/STM32F1xx_HAL_Driver/Src/stm32f1xx_ll_usb.c **** }
 383:Drivers/STM32F1xx_HAL_Driver/Src/stm32f1xx_ll_usb.c **** 
 384:Drivers/STM32F1xx_HAL_Driver/Src/stm32f1xx_ll_usb.c **** /**
 385:Drivers/STM32F1xx_HAL_Driver/Src/stm32f1xx_ll_usb.c ****   * @brief  Activate and configure an endpoint
 386:Drivers/STM32F1xx_HAL_Driver/Src/stm32f1xx_ll_usb.c ****   * @param  USBx : Selected device
 387:Drivers/STM32F1xx_HAL_Driver/Src/stm32f1xx_ll_usb.c ****   * @param  ep: pointer to endpoint structure
 388:Drivers/STM32F1xx_HAL_Driver/Src/stm32f1xx_ll_usb.c ****   * @retval HAL status
 389:Drivers/STM32F1xx_HAL_Driver/Src/stm32f1xx_ll_usb.c ****   */
 390:Drivers/STM32F1xx_HAL_Driver/Src/stm32f1xx_ll_usb.c **** HAL_StatusTypeDef USB_ActivateEndpoint(USB_OTG_GlobalTypeDef *USBx, USB_OTG_EPTypeDef *ep)
 391:Drivers/STM32F1xx_HAL_Driver/Src/stm32f1xx_ll_usb.c **** {
 392:Drivers/STM32F1xx_HAL_Driver/Src/stm32f1xx_ll_usb.c ****   /* Prevent unused argument(s) compilation warning */
 393:Drivers/STM32F1xx_HAL_Driver/Src/stm32f1xx_ll_usb.c ****   UNUSED(USBx);
 394:Drivers/STM32F1xx_HAL_Driver/Src/stm32f1xx_ll_usb.c **** 
 395:Drivers/STM32F1xx_HAL_Driver/Src/stm32f1xx_ll_usb.c ****   if (ep->is_in)
 396:Drivers/STM32F1xx_HAL_Driver/Src/stm32f1xx_ll_usb.c ****   {
 397:Drivers/STM32F1xx_HAL_Driver/Src/stm32f1xx_ll_usb.c ****     /* Assign a Tx FIFO */
 398:Drivers/STM32F1xx_HAL_Driver/Src/stm32f1xx_ll_usb.c ****     ep->tx_fifo_num = ep->num;
 399:Drivers/STM32F1xx_HAL_Driver/Src/stm32f1xx_ll_usb.c ****   }
 400:Drivers/STM32F1xx_HAL_Driver/Src/stm32f1xx_ll_usb.c ****   /* Set initial data PID. */
 401:Drivers/STM32F1xx_HAL_Driver/Src/stm32f1xx_ll_usb.c ****   if (ep->type == EP_TYPE_BULK )
 402:Drivers/STM32F1xx_HAL_Driver/Src/stm32f1xx_ll_usb.c ****   {
 403:Drivers/STM32F1xx_HAL_Driver/Src/stm32f1xx_ll_usb.c ****     ep->data_pid_start = 0;
 404:Drivers/STM32F1xx_HAL_Driver/Src/stm32f1xx_ll_usb.c ****   }
 405:Drivers/STM32F1xx_HAL_Driver/Src/stm32f1xx_ll_usb.c ****   
 406:Drivers/STM32F1xx_HAL_Driver/Src/stm32f1xx_ll_usb.c ****   if (ep->is_in == 1)
 407:Drivers/STM32F1xx_HAL_Driver/Src/stm32f1xx_ll_usb.c ****   {
 408:Drivers/STM32F1xx_HAL_Driver/Src/stm32f1xx_ll_usb.c ****    USBx_DEVICE->DAINTMSK |= USB_OTG_DAINTMSK_IEPM & ((1 << (ep->num)));
 409:Drivers/STM32F1xx_HAL_Driver/Src/stm32f1xx_ll_usb.c **** 
 410:Drivers/STM32F1xx_HAL_Driver/Src/stm32f1xx_ll_usb.c ****     if (((USBx_INEP(ep->num)->DIEPCTL) & USB_OTG_DIEPCTL_USBAEP) == 0)
 411:Drivers/STM32F1xx_HAL_Driver/Src/stm32f1xx_ll_usb.c ****     {
 412:Drivers/STM32F1xx_HAL_Driver/Src/stm32f1xx_ll_usb.c ****       USBx_INEP(ep->num)->DIEPCTL |= ((ep->maxpacket & USB_OTG_DIEPCTL_MPSIZ ) | (ep->type << 18 ) 
 413:Drivers/STM32F1xx_HAL_Driver/Src/stm32f1xx_ll_usb.c ****         ((ep->num) << 22 ) | (USB_OTG_DIEPCTL_SD0PID_SEVNFRM) | (USB_OTG_DIEPCTL_USBAEP)); 
 414:Drivers/STM32F1xx_HAL_Driver/Src/stm32f1xx_ll_usb.c ****     }
 415:Drivers/STM32F1xx_HAL_Driver/Src/stm32f1xx_ll_usb.c ****   }
 416:Drivers/STM32F1xx_HAL_Driver/Src/stm32f1xx_ll_usb.c ****   else
 417:Drivers/STM32F1xx_HAL_Driver/Src/stm32f1xx_ll_usb.c ****   {
 418:Drivers/STM32F1xx_HAL_Driver/Src/stm32f1xx_ll_usb.c ****      USBx_DEVICE->DAINTMSK |= USB_OTG_DAINTMSK_OEPM & ((1 << (ep->num)) << 16);
 419:Drivers/STM32F1xx_HAL_Driver/Src/stm32f1xx_ll_usb.c ****      
 420:Drivers/STM32F1xx_HAL_Driver/Src/stm32f1xx_ll_usb.c ****     if (((USBx_OUTEP(ep->num)->DOEPCTL) & USB_OTG_DOEPCTL_USBAEP) == 0)
 421:Drivers/STM32F1xx_HAL_Driver/Src/stm32f1xx_ll_usb.c ****     {
 422:Drivers/STM32F1xx_HAL_Driver/Src/stm32f1xx_ll_usb.c ****       USBx_OUTEP(ep->num)->DOEPCTL |= ((ep->maxpacket & USB_OTG_DOEPCTL_MPSIZ ) | (ep->type << 18 )
 423:Drivers/STM32F1xx_HAL_Driver/Src/stm32f1xx_ll_usb.c ****        (USB_OTG_DIEPCTL_SD0PID_SEVNFRM)| (USB_OTG_DOEPCTL_USBAEP));
 424:Drivers/STM32F1xx_HAL_Driver/Src/stm32f1xx_ll_usb.c ****     }
 425:Drivers/STM32F1xx_HAL_Driver/Src/stm32f1xx_ll_usb.c ****   }
 426:Drivers/STM32F1xx_HAL_Driver/Src/stm32f1xx_ll_usb.c ****   
 427:Drivers/STM32F1xx_HAL_Driver/Src/stm32f1xx_ll_usb.c ****   return HAL_OK;
 428:Drivers/STM32F1xx_HAL_Driver/Src/stm32f1xx_ll_usb.c **** }
 429:Drivers/STM32F1xx_HAL_Driver/Src/stm32f1xx_ll_usb.c **** 
 430:Drivers/STM32F1xx_HAL_Driver/Src/stm32f1xx_ll_usb.c **** /**
ARM GAS  /var/folders/rf/wfq6hz5s56g3yh4wqgd7820c0000gn/T//ccZ1SRBq.s 			page 9


 431:Drivers/STM32F1xx_HAL_Driver/Src/stm32f1xx_ll_usb.c ****   * @brief  De-activate and de-initialize an endpoint
 432:Drivers/STM32F1xx_HAL_Driver/Src/stm32f1xx_ll_usb.c ****   * @param  USBx : Selected device
 433:Drivers/STM32F1xx_HAL_Driver/Src/stm32f1xx_ll_usb.c ****   * @param  ep: pointer to endpoint structure
 434:Drivers/STM32F1xx_HAL_Driver/Src/stm32f1xx_ll_usb.c ****   * @retval HAL status
 435:Drivers/STM32F1xx_HAL_Driver/Src/stm32f1xx_ll_usb.c ****   */
 436:Drivers/STM32F1xx_HAL_Driver/Src/stm32f1xx_ll_usb.c **** HAL_StatusTypeDef USB_DeactivateEndpoint(USB_OTG_GlobalTypeDef *USBx, USB_OTG_EPTypeDef *ep)
 437:Drivers/STM32F1xx_HAL_Driver/Src/stm32f1xx_ll_usb.c **** {
 438:Drivers/STM32F1xx_HAL_Driver/Src/stm32f1xx_ll_usb.c ****   /* Prevent unused argument(s) compilation warning */
 439:Drivers/STM32F1xx_HAL_Driver/Src/stm32f1xx_ll_usb.c ****   UNUSED(USBx);
 440:Drivers/STM32F1xx_HAL_Driver/Src/stm32f1xx_ll_usb.c **** 
 441:Drivers/STM32F1xx_HAL_Driver/Src/stm32f1xx_ll_usb.c ****   /* Read DEPCTLn register */
 442:Drivers/STM32F1xx_HAL_Driver/Src/stm32f1xx_ll_usb.c ****   if (ep->is_in == 1)
 443:Drivers/STM32F1xx_HAL_Driver/Src/stm32f1xx_ll_usb.c ****   {
 444:Drivers/STM32F1xx_HAL_Driver/Src/stm32f1xx_ll_usb.c ****     USBx_DEVICE->DEACHMSK &= ~(USB_OTG_DAINTMSK_IEPM & ((1 << (ep->num))));
 445:Drivers/STM32F1xx_HAL_Driver/Src/stm32f1xx_ll_usb.c ****     USBx_DEVICE->DAINTMSK &= ~(USB_OTG_DAINTMSK_IEPM & ((1 << (ep->num))));
 446:Drivers/STM32F1xx_HAL_Driver/Src/stm32f1xx_ll_usb.c ****     USBx_INEP(ep->num)->DIEPCTL &= ~ USB_OTG_DIEPCTL_USBAEP;
 447:Drivers/STM32F1xx_HAL_Driver/Src/stm32f1xx_ll_usb.c ****   }
 448:Drivers/STM32F1xx_HAL_Driver/Src/stm32f1xx_ll_usb.c ****   else
 449:Drivers/STM32F1xx_HAL_Driver/Src/stm32f1xx_ll_usb.c ****   {
 450:Drivers/STM32F1xx_HAL_Driver/Src/stm32f1xx_ll_usb.c ****     USBx_DEVICE->DEACHMSK &= ~(USB_OTG_DAINTMSK_OEPM & ((1 << (ep->num)) << 16));
 451:Drivers/STM32F1xx_HAL_Driver/Src/stm32f1xx_ll_usb.c ****     USBx_DEVICE->DAINTMSK &= ~(USB_OTG_DAINTMSK_OEPM & ((1 << (ep->num)) << 16));
 452:Drivers/STM32F1xx_HAL_Driver/Src/stm32f1xx_ll_usb.c ****     USBx_OUTEP(ep->num)->DOEPCTL &= ~USB_OTG_DOEPCTL_USBAEP;
 453:Drivers/STM32F1xx_HAL_Driver/Src/stm32f1xx_ll_usb.c ****   }
 454:Drivers/STM32F1xx_HAL_Driver/Src/stm32f1xx_ll_usb.c ****   return HAL_OK;
 455:Drivers/STM32F1xx_HAL_Driver/Src/stm32f1xx_ll_usb.c **** }
 456:Drivers/STM32F1xx_HAL_Driver/Src/stm32f1xx_ll_usb.c **** 
 457:Drivers/STM32F1xx_HAL_Driver/Src/stm32f1xx_ll_usb.c **** /**
 458:Drivers/STM32F1xx_HAL_Driver/Src/stm32f1xx_ll_usb.c ****   * @brief  USB_EPStartXfer : setup and starts a transfer over an EP
 459:Drivers/STM32F1xx_HAL_Driver/Src/stm32f1xx_ll_usb.c ****   * @param  USBx : Selected device
 460:Drivers/STM32F1xx_HAL_Driver/Src/stm32f1xx_ll_usb.c ****   * @param  ep: pointer to endpoint structure
 461:Drivers/STM32F1xx_HAL_Driver/Src/stm32f1xx_ll_usb.c ****   * @retval HAL status
 462:Drivers/STM32F1xx_HAL_Driver/Src/stm32f1xx_ll_usb.c ****   */
 463:Drivers/STM32F1xx_HAL_Driver/Src/stm32f1xx_ll_usb.c **** HAL_StatusTypeDef USB_EPStartXfer(USB_OTG_GlobalTypeDef *USBx , USB_OTG_EPTypeDef *ep)
 464:Drivers/STM32F1xx_HAL_Driver/Src/stm32f1xx_ll_usb.c **** {
 465:Drivers/STM32F1xx_HAL_Driver/Src/stm32f1xx_ll_usb.c ****   uint16_t pktcnt = 0;
 466:Drivers/STM32F1xx_HAL_Driver/Src/stm32f1xx_ll_usb.c ****   /* Prevent unused argument(s) compilation warning */
 467:Drivers/STM32F1xx_HAL_Driver/Src/stm32f1xx_ll_usb.c ****   UNUSED(USBx);
 468:Drivers/STM32F1xx_HAL_Driver/Src/stm32f1xx_ll_usb.c **** 
 469:Drivers/STM32F1xx_HAL_Driver/Src/stm32f1xx_ll_usb.c ****   /* IN endpoint */
 470:Drivers/STM32F1xx_HAL_Driver/Src/stm32f1xx_ll_usb.c ****   if (ep->is_in == 1)
 471:Drivers/STM32F1xx_HAL_Driver/Src/stm32f1xx_ll_usb.c ****   {
 472:Drivers/STM32F1xx_HAL_Driver/Src/stm32f1xx_ll_usb.c ****     /* Zero Length Packet? */
 473:Drivers/STM32F1xx_HAL_Driver/Src/stm32f1xx_ll_usb.c ****     if (ep->xfer_len == 0)
 474:Drivers/STM32F1xx_HAL_Driver/Src/stm32f1xx_ll_usb.c ****     {
 475:Drivers/STM32F1xx_HAL_Driver/Src/stm32f1xx_ll_usb.c ****       USBx_INEP(ep->num)->DIEPTSIZ &= ~(USB_OTG_DIEPTSIZ_PKTCNT); 
 476:Drivers/STM32F1xx_HAL_Driver/Src/stm32f1xx_ll_usb.c ****       USBx_INEP(ep->num)->DIEPTSIZ |= (USB_OTG_DIEPTSIZ_PKTCNT & (1 << 19)) ;
 477:Drivers/STM32F1xx_HAL_Driver/Src/stm32f1xx_ll_usb.c ****       USBx_INEP(ep->num)->DIEPTSIZ &= ~(USB_OTG_DIEPTSIZ_XFRSIZ); 
 478:Drivers/STM32F1xx_HAL_Driver/Src/stm32f1xx_ll_usb.c ****     }
 479:Drivers/STM32F1xx_HAL_Driver/Src/stm32f1xx_ll_usb.c ****     else
 480:Drivers/STM32F1xx_HAL_Driver/Src/stm32f1xx_ll_usb.c ****     {
 481:Drivers/STM32F1xx_HAL_Driver/Src/stm32f1xx_ll_usb.c ****       /* Program the transfer size and packet count
 482:Drivers/STM32F1xx_HAL_Driver/Src/stm32f1xx_ll_usb.c ****       * as follows: xfersize = N * maxpacket +
 483:Drivers/STM32F1xx_HAL_Driver/Src/stm32f1xx_ll_usb.c ****       * short_packet pktcnt = N + (short_packet
 484:Drivers/STM32F1xx_HAL_Driver/Src/stm32f1xx_ll_usb.c ****       * exist ? 1 : 0)
 485:Drivers/STM32F1xx_HAL_Driver/Src/stm32f1xx_ll_usb.c ****       */
 486:Drivers/STM32F1xx_HAL_Driver/Src/stm32f1xx_ll_usb.c ****       USBx_INEP(ep->num)->DIEPTSIZ &= ~(USB_OTG_DIEPTSIZ_XFRSIZ);
 487:Drivers/STM32F1xx_HAL_Driver/Src/stm32f1xx_ll_usb.c ****       USBx_INEP(ep->num)->DIEPTSIZ &= ~(USB_OTG_DIEPTSIZ_PKTCNT); 
ARM GAS  /var/folders/rf/wfq6hz5s56g3yh4wqgd7820c0000gn/T//ccZ1SRBq.s 			page 10


 488:Drivers/STM32F1xx_HAL_Driver/Src/stm32f1xx_ll_usb.c ****       USBx_INEP(ep->num)->DIEPTSIZ |= (USB_OTG_DIEPTSIZ_PKTCNT & (((ep->xfer_len + ep->maxpacket -1
 489:Drivers/STM32F1xx_HAL_Driver/Src/stm32f1xx_ll_usb.c ****       USBx_INEP(ep->num)->DIEPTSIZ |= (USB_OTG_DIEPTSIZ_XFRSIZ & ep->xfer_len); 
 490:Drivers/STM32F1xx_HAL_Driver/Src/stm32f1xx_ll_usb.c ****       
 491:Drivers/STM32F1xx_HAL_Driver/Src/stm32f1xx_ll_usb.c ****       if (ep->type == EP_TYPE_ISOC)
 492:Drivers/STM32F1xx_HAL_Driver/Src/stm32f1xx_ll_usb.c ****       {
 493:Drivers/STM32F1xx_HAL_Driver/Src/stm32f1xx_ll_usb.c ****         USBx_INEP(ep->num)->DIEPTSIZ &= ~(USB_OTG_DIEPTSIZ_MULCNT); 
 494:Drivers/STM32F1xx_HAL_Driver/Src/stm32f1xx_ll_usb.c ****         USBx_INEP(ep->num)->DIEPTSIZ |= (USB_OTG_DIEPTSIZ_MULCNT & (1 << 29)); 
 495:Drivers/STM32F1xx_HAL_Driver/Src/stm32f1xx_ll_usb.c ****       }
 496:Drivers/STM32F1xx_HAL_Driver/Src/stm32f1xx_ll_usb.c ****     }
 497:Drivers/STM32F1xx_HAL_Driver/Src/stm32f1xx_ll_usb.c ****     
 498:Drivers/STM32F1xx_HAL_Driver/Src/stm32f1xx_ll_usb.c ****     if (ep->type != EP_TYPE_ISOC)
 499:Drivers/STM32F1xx_HAL_Driver/Src/stm32f1xx_ll_usb.c ****     {
 500:Drivers/STM32F1xx_HAL_Driver/Src/stm32f1xx_ll_usb.c ****       /* Enable the Tx FIFO Empty Interrupt for this EP */
 501:Drivers/STM32F1xx_HAL_Driver/Src/stm32f1xx_ll_usb.c ****       if (ep->xfer_len > 0)
 502:Drivers/STM32F1xx_HAL_Driver/Src/stm32f1xx_ll_usb.c ****       {
 503:Drivers/STM32F1xx_HAL_Driver/Src/stm32f1xx_ll_usb.c ****         USBx_DEVICE->DIEPEMPMSK |= 1 << ep->num;
 504:Drivers/STM32F1xx_HAL_Driver/Src/stm32f1xx_ll_usb.c ****       }
 505:Drivers/STM32F1xx_HAL_Driver/Src/stm32f1xx_ll_usb.c ****     }
 506:Drivers/STM32F1xx_HAL_Driver/Src/stm32f1xx_ll_usb.c ****     
 507:Drivers/STM32F1xx_HAL_Driver/Src/stm32f1xx_ll_usb.c ****     if (ep->type == EP_TYPE_ISOC)
 508:Drivers/STM32F1xx_HAL_Driver/Src/stm32f1xx_ll_usb.c ****     {
 509:Drivers/STM32F1xx_HAL_Driver/Src/stm32f1xx_ll_usb.c ****       if ((USBx_DEVICE->DSTS & ( 1 << 8 )) == 0)
 510:Drivers/STM32F1xx_HAL_Driver/Src/stm32f1xx_ll_usb.c ****       {
 511:Drivers/STM32F1xx_HAL_Driver/Src/stm32f1xx_ll_usb.c ****         USBx_INEP(ep->num)->DIEPCTL |= USB_OTG_DIEPCTL_SODDFRM;
 512:Drivers/STM32F1xx_HAL_Driver/Src/stm32f1xx_ll_usb.c ****       }
 513:Drivers/STM32F1xx_HAL_Driver/Src/stm32f1xx_ll_usb.c ****       else
 514:Drivers/STM32F1xx_HAL_Driver/Src/stm32f1xx_ll_usb.c ****       {
 515:Drivers/STM32F1xx_HAL_Driver/Src/stm32f1xx_ll_usb.c ****         USBx_INEP(ep->num)->DIEPCTL |= USB_OTG_DIEPCTL_SD0PID_SEVNFRM;
 516:Drivers/STM32F1xx_HAL_Driver/Src/stm32f1xx_ll_usb.c ****       }
 517:Drivers/STM32F1xx_HAL_Driver/Src/stm32f1xx_ll_usb.c ****     } 
 518:Drivers/STM32F1xx_HAL_Driver/Src/stm32f1xx_ll_usb.c ****     
 519:Drivers/STM32F1xx_HAL_Driver/Src/stm32f1xx_ll_usb.c ****     /* EP enable, IN data in FIFO */
 520:Drivers/STM32F1xx_HAL_Driver/Src/stm32f1xx_ll_usb.c ****     USBx_INEP(ep->num)->DIEPCTL |= (USB_OTG_DIEPCTL_CNAK | USB_OTG_DIEPCTL_EPENA);
 521:Drivers/STM32F1xx_HAL_Driver/Src/stm32f1xx_ll_usb.c ****     
 522:Drivers/STM32F1xx_HAL_Driver/Src/stm32f1xx_ll_usb.c ****     if (ep->type == EP_TYPE_ISOC)
 523:Drivers/STM32F1xx_HAL_Driver/Src/stm32f1xx_ll_usb.c ****     {
 524:Drivers/STM32F1xx_HAL_Driver/Src/stm32f1xx_ll_usb.c ****       USB_WritePacket(USBx, ep->xfer_buff, ep->num, ep->xfer_len);
 525:Drivers/STM32F1xx_HAL_Driver/Src/stm32f1xx_ll_usb.c ****     }
 526:Drivers/STM32F1xx_HAL_Driver/Src/stm32f1xx_ll_usb.c ****   }
 527:Drivers/STM32F1xx_HAL_Driver/Src/stm32f1xx_ll_usb.c ****   else /* OUT endpoint */
 528:Drivers/STM32F1xx_HAL_Driver/Src/stm32f1xx_ll_usb.c ****   {
 529:Drivers/STM32F1xx_HAL_Driver/Src/stm32f1xx_ll_usb.c ****     /* Program the transfer size and packet count as follows:
 530:Drivers/STM32F1xx_HAL_Driver/Src/stm32f1xx_ll_usb.c ****     * pktcnt = N
 531:Drivers/STM32F1xx_HAL_Driver/Src/stm32f1xx_ll_usb.c ****     * xfersize = N * maxpacket
 532:Drivers/STM32F1xx_HAL_Driver/Src/stm32f1xx_ll_usb.c ****     */
 533:Drivers/STM32F1xx_HAL_Driver/Src/stm32f1xx_ll_usb.c ****     USBx_OUTEP(ep->num)->DOEPTSIZ &= ~(USB_OTG_DOEPTSIZ_XFRSIZ); 
 534:Drivers/STM32F1xx_HAL_Driver/Src/stm32f1xx_ll_usb.c ****     USBx_OUTEP(ep->num)->DOEPTSIZ &= ~(USB_OTG_DOEPTSIZ_PKTCNT); 
 535:Drivers/STM32F1xx_HAL_Driver/Src/stm32f1xx_ll_usb.c ****     
 536:Drivers/STM32F1xx_HAL_Driver/Src/stm32f1xx_ll_usb.c ****     if (ep->xfer_len == 0)
 537:Drivers/STM32F1xx_HAL_Driver/Src/stm32f1xx_ll_usb.c ****     {
 538:Drivers/STM32F1xx_HAL_Driver/Src/stm32f1xx_ll_usb.c ****       USBx_OUTEP(ep->num)->DOEPTSIZ |= (USB_OTG_DOEPTSIZ_XFRSIZ & ep->maxpacket);
 539:Drivers/STM32F1xx_HAL_Driver/Src/stm32f1xx_ll_usb.c ****       USBx_OUTEP(ep->num)->DOEPTSIZ |= (USB_OTG_DOEPTSIZ_PKTCNT & (1 << 19));
 540:Drivers/STM32F1xx_HAL_Driver/Src/stm32f1xx_ll_usb.c ****     }
 541:Drivers/STM32F1xx_HAL_Driver/Src/stm32f1xx_ll_usb.c ****     else
 542:Drivers/STM32F1xx_HAL_Driver/Src/stm32f1xx_ll_usb.c ****     {
 543:Drivers/STM32F1xx_HAL_Driver/Src/stm32f1xx_ll_usb.c ****       pktcnt = (ep->xfer_len + ep->maxpacket -1)/ ep->maxpacket;
 544:Drivers/STM32F1xx_HAL_Driver/Src/stm32f1xx_ll_usb.c ****       USBx_OUTEP(ep->num)->DOEPTSIZ |= (USB_OTG_DOEPTSIZ_PKTCNT & (pktcnt << 19));
ARM GAS  /var/folders/rf/wfq6hz5s56g3yh4wqgd7820c0000gn/T//ccZ1SRBq.s 			page 11


 545:Drivers/STM32F1xx_HAL_Driver/Src/stm32f1xx_ll_usb.c ****       USBx_OUTEP(ep->num)->DOEPTSIZ |= (USB_OTG_DOEPTSIZ_XFRSIZ & (ep->maxpacket * pktcnt));
 546:Drivers/STM32F1xx_HAL_Driver/Src/stm32f1xx_ll_usb.c ****     }
 547:Drivers/STM32F1xx_HAL_Driver/Src/stm32f1xx_ll_usb.c ****     
 548:Drivers/STM32F1xx_HAL_Driver/Src/stm32f1xx_ll_usb.c ****     if (ep->type == EP_TYPE_ISOC)
 549:Drivers/STM32F1xx_HAL_Driver/Src/stm32f1xx_ll_usb.c ****     {
 550:Drivers/STM32F1xx_HAL_Driver/Src/stm32f1xx_ll_usb.c ****       if ((USBx_DEVICE->DSTS & ( 1 << 8 )) == 0)
 551:Drivers/STM32F1xx_HAL_Driver/Src/stm32f1xx_ll_usb.c ****       {
 552:Drivers/STM32F1xx_HAL_Driver/Src/stm32f1xx_ll_usb.c ****         USBx_OUTEP(ep->num)->DOEPCTL |= USB_OTG_DOEPCTL_SODDFRM;
 553:Drivers/STM32F1xx_HAL_Driver/Src/stm32f1xx_ll_usb.c ****       }
 554:Drivers/STM32F1xx_HAL_Driver/Src/stm32f1xx_ll_usb.c ****       else
 555:Drivers/STM32F1xx_HAL_Driver/Src/stm32f1xx_ll_usb.c ****       {
 556:Drivers/STM32F1xx_HAL_Driver/Src/stm32f1xx_ll_usb.c ****         USBx_OUTEP(ep->num)->DOEPCTL |= USB_OTG_DOEPCTL_SD0PID_SEVNFRM;
 557:Drivers/STM32F1xx_HAL_Driver/Src/stm32f1xx_ll_usb.c ****       }
 558:Drivers/STM32F1xx_HAL_Driver/Src/stm32f1xx_ll_usb.c ****     }
 559:Drivers/STM32F1xx_HAL_Driver/Src/stm32f1xx_ll_usb.c ****     /* EP enable */
 560:Drivers/STM32F1xx_HAL_Driver/Src/stm32f1xx_ll_usb.c ****     USBx_OUTEP(ep->num)->DOEPCTL |= (USB_OTG_DOEPCTL_CNAK | USB_OTG_DOEPCTL_EPENA);
 561:Drivers/STM32F1xx_HAL_Driver/Src/stm32f1xx_ll_usb.c ****   }
 562:Drivers/STM32F1xx_HAL_Driver/Src/stm32f1xx_ll_usb.c ****   
 563:Drivers/STM32F1xx_HAL_Driver/Src/stm32f1xx_ll_usb.c ****   return HAL_OK;
 564:Drivers/STM32F1xx_HAL_Driver/Src/stm32f1xx_ll_usb.c **** }
 565:Drivers/STM32F1xx_HAL_Driver/Src/stm32f1xx_ll_usb.c **** 
 566:Drivers/STM32F1xx_HAL_Driver/Src/stm32f1xx_ll_usb.c **** /**
 567:Drivers/STM32F1xx_HAL_Driver/Src/stm32f1xx_ll_usb.c ****   * @brief  USB_EP0StartXfer : setup and starts a transfer over the EP  0
 568:Drivers/STM32F1xx_HAL_Driver/Src/stm32f1xx_ll_usb.c ****   * @param  USBx : Selected device
 569:Drivers/STM32F1xx_HAL_Driver/Src/stm32f1xx_ll_usb.c ****   * @param  ep: pointer to endpoint structure
 570:Drivers/STM32F1xx_HAL_Driver/Src/stm32f1xx_ll_usb.c ****   * @retval HAL status
 571:Drivers/STM32F1xx_HAL_Driver/Src/stm32f1xx_ll_usb.c ****   */
 572:Drivers/STM32F1xx_HAL_Driver/Src/stm32f1xx_ll_usb.c **** HAL_StatusTypeDef USB_EP0StartXfer(USB_OTG_GlobalTypeDef *USBx , USB_OTG_EPTypeDef *ep)
 573:Drivers/STM32F1xx_HAL_Driver/Src/stm32f1xx_ll_usb.c **** {
 574:Drivers/STM32F1xx_HAL_Driver/Src/stm32f1xx_ll_usb.c ****   /* Prevent unused argument(s) compilation warning */
 575:Drivers/STM32F1xx_HAL_Driver/Src/stm32f1xx_ll_usb.c ****   UNUSED(USBx);
 576:Drivers/STM32F1xx_HAL_Driver/Src/stm32f1xx_ll_usb.c **** 
 577:Drivers/STM32F1xx_HAL_Driver/Src/stm32f1xx_ll_usb.c ****   /* IN endpoint */
 578:Drivers/STM32F1xx_HAL_Driver/Src/stm32f1xx_ll_usb.c ****   if (ep->is_in == 1)
 579:Drivers/STM32F1xx_HAL_Driver/Src/stm32f1xx_ll_usb.c ****   {
 580:Drivers/STM32F1xx_HAL_Driver/Src/stm32f1xx_ll_usb.c ****     /* Zero Length Packet? */
 581:Drivers/STM32F1xx_HAL_Driver/Src/stm32f1xx_ll_usb.c ****     if (ep->xfer_len == 0)
 582:Drivers/STM32F1xx_HAL_Driver/Src/stm32f1xx_ll_usb.c ****     {
 583:Drivers/STM32F1xx_HAL_Driver/Src/stm32f1xx_ll_usb.c ****       USBx_INEP(ep->num)->DIEPTSIZ &= ~(USB_OTG_DIEPTSIZ_PKTCNT);
 584:Drivers/STM32F1xx_HAL_Driver/Src/stm32f1xx_ll_usb.c ****       USBx_INEP(ep->num)->DIEPTSIZ |= (USB_OTG_DIEPTSIZ_PKTCNT & (1 << 19));
 585:Drivers/STM32F1xx_HAL_Driver/Src/stm32f1xx_ll_usb.c ****       USBx_INEP(ep->num)->DIEPTSIZ &= ~(USB_OTG_DIEPTSIZ_XFRSIZ);
 586:Drivers/STM32F1xx_HAL_Driver/Src/stm32f1xx_ll_usb.c ****     }
 587:Drivers/STM32F1xx_HAL_Driver/Src/stm32f1xx_ll_usb.c ****     else
 588:Drivers/STM32F1xx_HAL_Driver/Src/stm32f1xx_ll_usb.c ****     {
 589:Drivers/STM32F1xx_HAL_Driver/Src/stm32f1xx_ll_usb.c ****       /* Program the transfer size and packet count
 590:Drivers/STM32F1xx_HAL_Driver/Src/stm32f1xx_ll_usb.c ****       * as follows: xfersize = N * maxpacket +
 591:Drivers/STM32F1xx_HAL_Driver/Src/stm32f1xx_ll_usb.c ****       * short_packet pktcnt = N + (short_packet
 592:Drivers/STM32F1xx_HAL_Driver/Src/stm32f1xx_ll_usb.c ****       * exist ? 1 : 0)
 593:Drivers/STM32F1xx_HAL_Driver/Src/stm32f1xx_ll_usb.c ****       */
 594:Drivers/STM32F1xx_HAL_Driver/Src/stm32f1xx_ll_usb.c ****       USBx_INEP(ep->num)->DIEPTSIZ &= ~(USB_OTG_DIEPTSIZ_XFRSIZ);
 595:Drivers/STM32F1xx_HAL_Driver/Src/stm32f1xx_ll_usb.c ****       USBx_INEP(ep->num)->DIEPTSIZ &= ~(USB_OTG_DIEPTSIZ_PKTCNT);
 596:Drivers/STM32F1xx_HAL_Driver/Src/stm32f1xx_ll_usb.c ****       
 597:Drivers/STM32F1xx_HAL_Driver/Src/stm32f1xx_ll_usb.c ****       if(ep->xfer_len > ep->maxpacket)
 598:Drivers/STM32F1xx_HAL_Driver/Src/stm32f1xx_ll_usb.c ****       {
 599:Drivers/STM32F1xx_HAL_Driver/Src/stm32f1xx_ll_usb.c ****         ep->xfer_len = ep->maxpacket;
 600:Drivers/STM32F1xx_HAL_Driver/Src/stm32f1xx_ll_usb.c ****       }
 601:Drivers/STM32F1xx_HAL_Driver/Src/stm32f1xx_ll_usb.c ****       USBx_INEP(ep->num)->DIEPTSIZ |= (USB_OTG_DIEPTSIZ_PKTCNT & (1 << 19));
ARM GAS  /var/folders/rf/wfq6hz5s56g3yh4wqgd7820c0000gn/T//ccZ1SRBq.s 			page 12


 602:Drivers/STM32F1xx_HAL_Driver/Src/stm32f1xx_ll_usb.c ****       USBx_INEP(ep->num)->DIEPTSIZ |= (USB_OTG_DIEPTSIZ_XFRSIZ & ep->xfer_len);
 603:Drivers/STM32F1xx_HAL_Driver/Src/stm32f1xx_ll_usb.c ****     }
 604:Drivers/STM32F1xx_HAL_Driver/Src/stm32f1xx_ll_usb.c ****     
 605:Drivers/STM32F1xx_HAL_Driver/Src/stm32f1xx_ll_usb.c ****     /* Enable the Tx FIFO Empty Interrupt for this EP */
 606:Drivers/STM32F1xx_HAL_Driver/Src/stm32f1xx_ll_usb.c ****     if (ep->xfer_len > 0)
 607:Drivers/STM32F1xx_HAL_Driver/Src/stm32f1xx_ll_usb.c ****     {
 608:Drivers/STM32F1xx_HAL_Driver/Src/stm32f1xx_ll_usb.c ****       USBx_DEVICE->DIEPEMPMSK |= 1 << (ep->num);
 609:Drivers/STM32F1xx_HAL_Driver/Src/stm32f1xx_ll_usb.c ****     }
 610:Drivers/STM32F1xx_HAL_Driver/Src/stm32f1xx_ll_usb.c ****     
 611:Drivers/STM32F1xx_HAL_Driver/Src/stm32f1xx_ll_usb.c ****     /* EP enable, IN data in FIFO */
 612:Drivers/STM32F1xx_HAL_Driver/Src/stm32f1xx_ll_usb.c ****     USBx_INEP(ep->num)->DIEPCTL |= (USB_OTG_DIEPCTL_CNAK | USB_OTG_DIEPCTL_EPENA);   
 613:Drivers/STM32F1xx_HAL_Driver/Src/stm32f1xx_ll_usb.c ****   }
 614:Drivers/STM32F1xx_HAL_Driver/Src/stm32f1xx_ll_usb.c ****   else /* OUT endpoint */
 615:Drivers/STM32F1xx_HAL_Driver/Src/stm32f1xx_ll_usb.c ****   {
 616:Drivers/STM32F1xx_HAL_Driver/Src/stm32f1xx_ll_usb.c ****     /* Program the transfer size and packet count as follows:
 617:Drivers/STM32F1xx_HAL_Driver/Src/stm32f1xx_ll_usb.c ****     * pktcnt = N
 618:Drivers/STM32F1xx_HAL_Driver/Src/stm32f1xx_ll_usb.c ****     * xfersize = N * maxpacket
 619:Drivers/STM32F1xx_HAL_Driver/Src/stm32f1xx_ll_usb.c ****     */
 620:Drivers/STM32F1xx_HAL_Driver/Src/stm32f1xx_ll_usb.c ****     USBx_OUTEP(ep->num)->DOEPTSIZ &= ~(USB_OTG_DOEPTSIZ_XFRSIZ);
 621:Drivers/STM32F1xx_HAL_Driver/Src/stm32f1xx_ll_usb.c ****     USBx_OUTEP(ep->num)->DOEPTSIZ &= ~(USB_OTG_DOEPTSIZ_PKTCNT);
 622:Drivers/STM32F1xx_HAL_Driver/Src/stm32f1xx_ll_usb.c ****     
 623:Drivers/STM32F1xx_HAL_Driver/Src/stm32f1xx_ll_usb.c ****     if (ep->xfer_len > 0)
 624:Drivers/STM32F1xx_HAL_Driver/Src/stm32f1xx_ll_usb.c ****     {
 625:Drivers/STM32F1xx_HAL_Driver/Src/stm32f1xx_ll_usb.c ****       ep->xfer_len = ep->maxpacket;
 626:Drivers/STM32F1xx_HAL_Driver/Src/stm32f1xx_ll_usb.c ****     }
 627:Drivers/STM32F1xx_HAL_Driver/Src/stm32f1xx_ll_usb.c ****     
 628:Drivers/STM32F1xx_HAL_Driver/Src/stm32f1xx_ll_usb.c ****     USBx_OUTEP(ep->num)->DOEPTSIZ |= (USB_OTG_DOEPTSIZ_PKTCNT & (1 << 19));
 629:Drivers/STM32F1xx_HAL_Driver/Src/stm32f1xx_ll_usb.c ****     USBx_OUTEP(ep->num)->DOEPTSIZ |= (USB_OTG_DOEPTSIZ_XFRSIZ & (ep->maxpacket));
 630:Drivers/STM32F1xx_HAL_Driver/Src/stm32f1xx_ll_usb.c ****     
 631:Drivers/STM32F1xx_HAL_Driver/Src/stm32f1xx_ll_usb.c ****     /* EP enable */
 632:Drivers/STM32F1xx_HAL_Driver/Src/stm32f1xx_ll_usb.c ****     USBx_OUTEP(ep->num)->DOEPCTL |= (USB_OTG_DOEPCTL_CNAK | USB_OTG_DOEPCTL_EPENA);
 633:Drivers/STM32F1xx_HAL_Driver/Src/stm32f1xx_ll_usb.c ****   }
 634:Drivers/STM32F1xx_HAL_Driver/Src/stm32f1xx_ll_usb.c ****   
 635:Drivers/STM32F1xx_HAL_Driver/Src/stm32f1xx_ll_usb.c ****   return HAL_OK;
 636:Drivers/STM32F1xx_HAL_Driver/Src/stm32f1xx_ll_usb.c **** }
 637:Drivers/STM32F1xx_HAL_Driver/Src/stm32f1xx_ll_usb.c **** 
 638:Drivers/STM32F1xx_HAL_Driver/Src/stm32f1xx_ll_usb.c **** /**
 639:Drivers/STM32F1xx_HAL_Driver/Src/stm32f1xx_ll_usb.c ****   * @brief  USB_WritePacket : Writes a packet into the Tx FIFO associated 
 640:Drivers/STM32F1xx_HAL_Driver/Src/stm32f1xx_ll_usb.c ****   *         with the EP/channel
 641:Drivers/STM32F1xx_HAL_Driver/Src/stm32f1xx_ll_usb.c ****   * @param  USBx : Selected device
 642:Drivers/STM32F1xx_HAL_Driver/Src/stm32f1xx_ll_usb.c ****   * @param  src :  pointer to source buffer
 643:Drivers/STM32F1xx_HAL_Driver/Src/stm32f1xx_ll_usb.c ****   * @param  ch_ep_num : endpoint or host channel number
 644:Drivers/STM32F1xx_HAL_Driver/Src/stm32f1xx_ll_usb.c ****   * @param  len : Number of bytes to write
 645:Drivers/STM32F1xx_HAL_Driver/Src/stm32f1xx_ll_usb.c ****   * @retval HAL status
 646:Drivers/STM32F1xx_HAL_Driver/Src/stm32f1xx_ll_usb.c ****   */
 647:Drivers/STM32F1xx_HAL_Driver/Src/stm32f1xx_ll_usb.c **** HAL_StatusTypeDef USB_WritePacket(USB_OTG_GlobalTypeDef *USBx, uint8_t *src, uint8_t ch_ep_num, uin
 648:Drivers/STM32F1xx_HAL_Driver/Src/stm32f1xx_ll_usb.c **** {
 649:Drivers/STM32F1xx_HAL_Driver/Src/stm32f1xx_ll_usb.c ****   uint32_t count32b = 0 , index = 0;
 650:Drivers/STM32F1xx_HAL_Driver/Src/stm32f1xx_ll_usb.c ****   /* Prevent unused argument(s) compilation warning */
 651:Drivers/STM32F1xx_HAL_Driver/Src/stm32f1xx_ll_usb.c ****   UNUSED(USBx);
 652:Drivers/STM32F1xx_HAL_Driver/Src/stm32f1xx_ll_usb.c **** 
 653:Drivers/STM32F1xx_HAL_Driver/Src/stm32f1xx_ll_usb.c ****   count32b =  (len + 3) / 4;
 654:Drivers/STM32F1xx_HAL_Driver/Src/stm32f1xx_ll_usb.c ****   for (index = 0; index < count32b; index++, src += 4)
 655:Drivers/STM32F1xx_HAL_Driver/Src/stm32f1xx_ll_usb.c ****   {
 656:Drivers/STM32F1xx_HAL_Driver/Src/stm32f1xx_ll_usb.c ****     USBx_DFIFO(ch_ep_num) = *((__packed uint32_t *)src);
 657:Drivers/STM32F1xx_HAL_Driver/Src/stm32f1xx_ll_usb.c ****   }
 658:Drivers/STM32F1xx_HAL_Driver/Src/stm32f1xx_ll_usb.c ****   return HAL_OK;
ARM GAS  /var/folders/rf/wfq6hz5s56g3yh4wqgd7820c0000gn/T//ccZ1SRBq.s 			page 13


 659:Drivers/STM32F1xx_HAL_Driver/Src/stm32f1xx_ll_usb.c **** }
 660:Drivers/STM32F1xx_HAL_Driver/Src/stm32f1xx_ll_usb.c **** 
 661:Drivers/STM32F1xx_HAL_Driver/Src/stm32f1xx_ll_usb.c **** /**
 662:Drivers/STM32F1xx_HAL_Driver/Src/stm32f1xx_ll_usb.c ****   * @brief  USB_ReadPacket : read a packet from the Tx FIFO associated 
 663:Drivers/STM32F1xx_HAL_Driver/Src/stm32f1xx_ll_usb.c ****   *         with the EP/channel
 664:Drivers/STM32F1xx_HAL_Driver/Src/stm32f1xx_ll_usb.c ****   * @param  USBx : Selected device
 665:Drivers/STM32F1xx_HAL_Driver/Src/stm32f1xx_ll_usb.c ****   * @param  dest : destination pointer
 666:Drivers/STM32F1xx_HAL_Driver/Src/stm32f1xx_ll_usb.c ****   * @param  len : Number of bytes to read
 667:Drivers/STM32F1xx_HAL_Driver/Src/stm32f1xx_ll_usb.c ****   * @retval pointer to destination buffer
 668:Drivers/STM32F1xx_HAL_Driver/Src/stm32f1xx_ll_usb.c ****   */
 669:Drivers/STM32F1xx_HAL_Driver/Src/stm32f1xx_ll_usb.c **** void *USB_ReadPacket(USB_OTG_GlobalTypeDef *USBx, uint8_t *dest, uint16_t len)
 670:Drivers/STM32F1xx_HAL_Driver/Src/stm32f1xx_ll_usb.c **** {
 671:Drivers/STM32F1xx_HAL_Driver/Src/stm32f1xx_ll_usb.c ****   uint32_t index = 0;
 672:Drivers/STM32F1xx_HAL_Driver/Src/stm32f1xx_ll_usb.c ****   uint32_t count32b = (len + 3) / 4;
 673:Drivers/STM32F1xx_HAL_Driver/Src/stm32f1xx_ll_usb.c ****   /* Prevent unused argument(s) compilation warning */
 674:Drivers/STM32F1xx_HAL_Driver/Src/stm32f1xx_ll_usb.c ****   UNUSED(USBx);
 675:Drivers/STM32F1xx_HAL_Driver/Src/stm32f1xx_ll_usb.c **** 
 676:Drivers/STM32F1xx_HAL_Driver/Src/stm32f1xx_ll_usb.c ****   for ( index = 0; index < count32b; index++, dest += 4 )
 677:Drivers/STM32F1xx_HAL_Driver/Src/stm32f1xx_ll_usb.c ****   {
 678:Drivers/STM32F1xx_HAL_Driver/Src/stm32f1xx_ll_usb.c ****     *(__packed uint32_t *)dest = USBx_DFIFO(0);
 679:Drivers/STM32F1xx_HAL_Driver/Src/stm32f1xx_ll_usb.c ****     
 680:Drivers/STM32F1xx_HAL_Driver/Src/stm32f1xx_ll_usb.c ****   }
 681:Drivers/STM32F1xx_HAL_Driver/Src/stm32f1xx_ll_usb.c ****   return ((void *)dest);
 682:Drivers/STM32F1xx_HAL_Driver/Src/stm32f1xx_ll_usb.c **** }
 683:Drivers/STM32F1xx_HAL_Driver/Src/stm32f1xx_ll_usb.c **** 
 684:Drivers/STM32F1xx_HAL_Driver/Src/stm32f1xx_ll_usb.c **** /**
 685:Drivers/STM32F1xx_HAL_Driver/Src/stm32f1xx_ll_usb.c ****   * @brief  USB_EPSetStall : set a stall condition over an EP
 686:Drivers/STM32F1xx_HAL_Driver/Src/stm32f1xx_ll_usb.c ****   * @param  USBx : Selected device
 687:Drivers/STM32F1xx_HAL_Driver/Src/stm32f1xx_ll_usb.c ****   * @param  ep: pointer to endpoint structure   
 688:Drivers/STM32F1xx_HAL_Driver/Src/stm32f1xx_ll_usb.c ****   * @retval HAL status
 689:Drivers/STM32F1xx_HAL_Driver/Src/stm32f1xx_ll_usb.c ****   */
 690:Drivers/STM32F1xx_HAL_Driver/Src/stm32f1xx_ll_usb.c **** HAL_StatusTypeDef USB_EPSetStall(USB_OTG_GlobalTypeDef *USBx , USB_OTG_EPTypeDef *ep)
 691:Drivers/STM32F1xx_HAL_Driver/Src/stm32f1xx_ll_usb.c **** {
 692:Drivers/STM32F1xx_HAL_Driver/Src/stm32f1xx_ll_usb.c ****   /* Prevent unused argument(s) compilation warning */
 693:Drivers/STM32F1xx_HAL_Driver/Src/stm32f1xx_ll_usb.c ****   UNUSED(USBx);
 694:Drivers/STM32F1xx_HAL_Driver/Src/stm32f1xx_ll_usb.c **** 
 695:Drivers/STM32F1xx_HAL_Driver/Src/stm32f1xx_ll_usb.c ****   if (ep->is_in == 1)
 696:Drivers/STM32F1xx_HAL_Driver/Src/stm32f1xx_ll_usb.c ****   {
 697:Drivers/STM32F1xx_HAL_Driver/Src/stm32f1xx_ll_usb.c ****     if (((USBx_INEP(ep->num)->DIEPCTL) & USB_OTG_DIEPCTL_EPENA) == 0)
 698:Drivers/STM32F1xx_HAL_Driver/Src/stm32f1xx_ll_usb.c ****     {
 699:Drivers/STM32F1xx_HAL_Driver/Src/stm32f1xx_ll_usb.c ****       USBx_INEP(ep->num)->DIEPCTL &= ~(USB_OTG_DIEPCTL_EPDIS);
 700:Drivers/STM32F1xx_HAL_Driver/Src/stm32f1xx_ll_usb.c ****     } 
 701:Drivers/STM32F1xx_HAL_Driver/Src/stm32f1xx_ll_usb.c ****     USBx_INEP(ep->num)->DIEPCTL |= USB_OTG_DIEPCTL_STALL;
 702:Drivers/STM32F1xx_HAL_Driver/Src/stm32f1xx_ll_usb.c ****   }
 703:Drivers/STM32F1xx_HAL_Driver/Src/stm32f1xx_ll_usb.c ****   else
 704:Drivers/STM32F1xx_HAL_Driver/Src/stm32f1xx_ll_usb.c ****   {
 705:Drivers/STM32F1xx_HAL_Driver/Src/stm32f1xx_ll_usb.c ****     if (((USBx_OUTEP(ep->num)->DOEPCTL) & USB_OTG_DOEPCTL_EPENA) == 0)
 706:Drivers/STM32F1xx_HAL_Driver/Src/stm32f1xx_ll_usb.c ****     {
 707:Drivers/STM32F1xx_HAL_Driver/Src/stm32f1xx_ll_usb.c ****       USBx_OUTEP(ep->num)->DOEPCTL &= ~(USB_OTG_DOEPCTL_EPDIS);
 708:Drivers/STM32F1xx_HAL_Driver/Src/stm32f1xx_ll_usb.c ****     } 
 709:Drivers/STM32F1xx_HAL_Driver/Src/stm32f1xx_ll_usb.c ****     USBx_OUTEP(ep->num)->DOEPCTL |= USB_OTG_DOEPCTL_STALL;
 710:Drivers/STM32F1xx_HAL_Driver/Src/stm32f1xx_ll_usb.c ****   }
 711:Drivers/STM32F1xx_HAL_Driver/Src/stm32f1xx_ll_usb.c ****   return HAL_OK;
 712:Drivers/STM32F1xx_HAL_Driver/Src/stm32f1xx_ll_usb.c **** }
 713:Drivers/STM32F1xx_HAL_Driver/Src/stm32f1xx_ll_usb.c **** 
 714:Drivers/STM32F1xx_HAL_Driver/Src/stm32f1xx_ll_usb.c **** /**
 715:Drivers/STM32F1xx_HAL_Driver/Src/stm32f1xx_ll_usb.c ****   * @brief  USB_EPClearStall : Clear a stall condition over an EP
ARM GAS  /var/folders/rf/wfq6hz5s56g3yh4wqgd7820c0000gn/T//ccZ1SRBq.s 			page 14


 716:Drivers/STM32F1xx_HAL_Driver/Src/stm32f1xx_ll_usb.c ****   * @param  USBx : Selected device
 717:Drivers/STM32F1xx_HAL_Driver/Src/stm32f1xx_ll_usb.c ****   * @param  ep: pointer to endpoint structure
 718:Drivers/STM32F1xx_HAL_Driver/Src/stm32f1xx_ll_usb.c ****   * @retval HAL status
 719:Drivers/STM32F1xx_HAL_Driver/Src/stm32f1xx_ll_usb.c ****   */
 720:Drivers/STM32F1xx_HAL_Driver/Src/stm32f1xx_ll_usb.c **** HAL_StatusTypeDef USB_EPClearStall(USB_OTG_GlobalTypeDef *USBx, USB_OTG_EPTypeDef *ep)
 721:Drivers/STM32F1xx_HAL_Driver/Src/stm32f1xx_ll_usb.c **** {
 722:Drivers/STM32F1xx_HAL_Driver/Src/stm32f1xx_ll_usb.c ****   /* Prevent unused argument(s) compilation warning */
 723:Drivers/STM32F1xx_HAL_Driver/Src/stm32f1xx_ll_usb.c ****   UNUSED(USBx);
 724:Drivers/STM32F1xx_HAL_Driver/Src/stm32f1xx_ll_usb.c **** 
 725:Drivers/STM32F1xx_HAL_Driver/Src/stm32f1xx_ll_usb.c ****   if (ep->is_in == 1)
 726:Drivers/STM32F1xx_HAL_Driver/Src/stm32f1xx_ll_usb.c ****   {
 727:Drivers/STM32F1xx_HAL_Driver/Src/stm32f1xx_ll_usb.c ****     USBx_INEP(ep->num)->DIEPCTL &= ~USB_OTG_DIEPCTL_STALL;
 728:Drivers/STM32F1xx_HAL_Driver/Src/stm32f1xx_ll_usb.c ****     if (ep->type == EP_TYPE_INTR || ep->type == EP_TYPE_BULK)
 729:Drivers/STM32F1xx_HAL_Driver/Src/stm32f1xx_ll_usb.c ****     {
 730:Drivers/STM32F1xx_HAL_Driver/Src/stm32f1xx_ll_usb.c ****        USBx_INEP(ep->num)->DIEPCTL |= USB_OTG_DIEPCTL_SD0PID_SEVNFRM; /* DATA0 */
 731:Drivers/STM32F1xx_HAL_Driver/Src/stm32f1xx_ll_usb.c ****     }
 732:Drivers/STM32F1xx_HAL_Driver/Src/stm32f1xx_ll_usb.c ****   }
 733:Drivers/STM32F1xx_HAL_Driver/Src/stm32f1xx_ll_usb.c ****   else
 734:Drivers/STM32F1xx_HAL_Driver/Src/stm32f1xx_ll_usb.c ****   {
 735:Drivers/STM32F1xx_HAL_Driver/Src/stm32f1xx_ll_usb.c ****     USBx_OUTEP(ep->num)->DOEPCTL &= ~USB_OTG_DOEPCTL_STALL;
 736:Drivers/STM32F1xx_HAL_Driver/Src/stm32f1xx_ll_usb.c ****     if (ep->type == EP_TYPE_INTR || ep->type == EP_TYPE_BULK)
 737:Drivers/STM32F1xx_HAL_Driver/Src/stm32f1xx_ll_usb.c ****     {
 738:Drivers/STM32F1xx_HAL_Driver/Src/stm32f1xx_ll_usb.c ****       USBx_OUTEP(ep->num)->DOEPCTL |= USB_OTG_DOEPCTL_SD0PID_SEVNFRM; /* DATA0 */
 739:Drivers/STM32F1xx_HAL_Driver/Src/stm32f1xx_ll_usb.c ****     }
 740:Drivers/STM32F1xx_HAL_Driver/Src/stm32f1xx_ll_usb.c ****   }
 741:Drivers/STM32F1xx_HAL_Driver/Src/stm32f1xx_ll_usb.c ****   return HAL_OK;
 742:Drivers/STM32F1xx_HAL_Driver/Src/stm32f1xx_ll_usb.c **** }
 743:Drivers/STM32F1xx_HAL_Driver/Src/stm32f1xx_ll_usb.c **** 
 744:Drivers/STM32F1xx_HAL_Driver/Src/stm32f1xx_ll_usb.c **** /**
 745:Drivers/STM32F1xx_HAL_Driver/Src/stm32f1xx_ll_usb.c ****   * @brief  USB_StopDevice : Stop the usb device mode
 746:Drivers/STM32F1xx_HAL_Driver/Src/stm32f1xx_ll_usb.c ****   * @param  USBx : Selected device
 747:Drivers/STM32F1xx_HAL_Driver/Src/stm32f1xx_ll_usb.c ****   * @retval HAL status
 748:Drivers/STM32F1xx_HAL_Driver/Src/stm32f1xx_ll_usb.c ****   */
 749:Drivers/STM32F1xx_HAL_Driver/Src/stm32f1xx_ll_usb.c **** HAL_StatusTypeDef USB_StopDevice(USB_OTG_GlobalTypeDef *USBx)
 750:Drivers/STM32F1xx_HAL_Driver/Src/stm32f1xx_ll_usb.c **** {
 751:Drivers/STM32F1xx_HAL_Driver/Src/stm32f1xx_ll_usb.c ****   uint32_t index = 0;
 752:Drivers/STM32F1xx_HAL_Driver/Src/stm32f1xx_ll_usb.c ****   
 753:Drivers/STM32F1xx_HAL_Driver/Src/stm32f1xx_ll_usb.c ****   /* Clear Pending interrupt */
 754:Drivers/STM32F1xx_HAL_Driver/Src/stm32f1xx_ll_usb.c ****   for (index = 0; index < 15 ; index++)
 755:Drivers/STM32F1xx_HAL_Driver/Src/stm32f1xx_ll_usb.c ****   {
 756:Drivers/STM32F1xx_HAL_Driver/Src/stm32f1xx_ll_usb.c ****     USBx_INEP(index)->DIEPINT  = 0xFF;
 757:Drivers/STM32F1xx_HAL_Driver/Src/stm32f1xx_ll_usb.c ****     USBx_OUTEP(index)->DOEPINT  = 0xFF;
 758:Drivers/STM32F1xx_HAL_Driver/Src/stm32f1xx_ll_usb.c ****   }
 759:Drivers/STM32F1xx_HAL_Driver/Src/stm32f1xx_ll_usb.c ****   USBx_DEVICE->DAINT = 0xFFFFFFFF;
 760:Drivers/STM32F1xx_HAL_Driver/Src/stm32f1xx_ll_usb.c ****   
 761:Drivers/STM32F1xx_HAL_Driver/Src/stm32f1xx_ll_usb.c ****   /* Clear interrupt masks */
 762:Drivers/STM32F1xx_HAL_Driver/Src/stm32f1xx_ll_usb.c ****   USBx_DEVICE->DIEPMSK  = 0;
 763:Drivers/STM32F1xx_HAL_Driver/Src/stm32f1xx_ll_usb.c ****   USBx_DEVICE->DOEPMSK  = 0;
 764:Drivers/STM32F1xx_HAL_Driver/Src/stm32f1xx_ll_usb.c ****   USBx_DEVICE->DAINTMSK = 0;
 765:Drivers/STM32F1xx_HAL_Driver/Src/stm32f1xx_ll_usb.c ****   
 766:Drivers/STM32F1xx_HAL_Driver/Src/stm32f1xx_ll_usb.c ****   /* Flush the FIFO */
 767:Drivers/STM32F1xx_HAL_Driver/Src/stm32f1xx_ll_usb.c ****   USB_FlushRxFifo(USBx);
 768:Drivers/STM32F1xx_HAL_Driver/Src/stm32f1xx_ll_usb.c ****   USB_FlushTxFifo(USBx ,  0x10 );
 769:Drivers/STM32F1xx_HAL_Driver/Src/stm32f1xx_ll_usb.c ****   
 770:Drivers/STM32F1xx_HAL_Driver/Src/stm32f1xx_ll_usb.c ****   return HAL_OK;
 771:Drivers/STM32F1xx_HAL_Driver/Src/stm32f1xx_ll_usb.c **** }
 772:Drivers/STM32F1xx_HAL_Driver/Src/stm32f1xx_ll_usb.c **** 
ARM GAS  /var/folders/rf/wfq6hz5s56g3yh4wqgd7820c0000gn/T//ccZ1SRBq.s 			page 15


 773:Drivers/STM32F1xx_HAL_Driver/Src/stm32f1xx_ll_usb.c **** /**
 774:Drivers/STM32F1xx_HAL_Driver/Src/stm32f1xx_ll_usb.c ****   * @brief  USB_SetDevAddress : Stop the usb device mode
 775:Drivers/STM32F1xx_HAL_Driver/Src/stm32f1xx_ll_usb.c ****   * @param  USBx : Selected device
 776:Drivers/STM32F1xx_HAL_Driver/Src/stm32f1xx_ll_usb.c ****   * @param  address : new device address to be assigned
 777:Drivers/STM32F1xx_HAL_Driver/Src/stm32f1xx_ll_usb.c ****   *          This parameter can be a value from 0 to 255
 778:Drivers/STM32F1xx_HAL_Driver/Src/stm32f1xx_ll_usb.c ****   * @retval HAL status
 779:Drivers/STM32F1xx_HAL_Driver/Src/stm32f1xx_ll_usb.c ****   */
 780:Drivers/STM32F1xx_HAL_Driver/Src/stm32f1xx_ll_usb.c **** HAL_StatusTypeDef  USB_SetDevAddress (USB_OTG_GlobalTypeDef *USBx, uint8_t address)
 781:Drivers/STM32F1xx_HAL_Driver/Src/stm32f1xx_ll_usb.c **** {
 782:Drivers/STM32F1xx_HAL_Driver/Src/stm32f1xx_ll_usb.c ****   /* Prevent unused argument(s) compilation warning */
 783:Drivers/STM32F1xx_HAL_Driver/Src/stm32f1xx_ll_usb.c ****   UNUSED(USBx);
 784:Drivers/STM32F1xx_HAL_Driver/Src/stm32f1xx_ll_usb.c ****   UNUSED(address);
 785:Drivers/STM32F1xx_HAL_Driver/Src/stm32f1xx_ll_usb.c ****   USBx_DEVICE->DCFG &= ~ (USB_OTG_DCFG_DAD);
 786:Drivers/STM32F1xx_HAL_Driver/Src/stm32f1xx_ll_usb.c ****   USBx_DEVICE->DCFG |= (address << 4) & USB_OTG_DCFG_DAD;
 787:Drivers/STM32F1xx_HAL_Driver/Src/stm32f1xx_ll_usb.c ****   
 788:Drivers/STM32F1xx_HAL_Driver/Src/stm32f1xx_ll_usb.c ****   return HAL_OK;
 789:Drivers/STM32F1xx_HAL_Driver/Src/stm32f1xx_ll_usb.c **** }
 790:Drivers/STM32F1xx_HAL_Driver/Src/stm32f1xx_ll_usb.c **** 
 791:Drivers/STM32F1xx_HAL_Driver/Src/stm32f1xx_ll_usb.c **** /**
 792:Drivers/STM32F1xx_HAL_Driver/Src/stm32f1xx_ll_usb.c ****   * @brief  USB_DevConnect : Connect the USB device by enabling the pull-up/pull-down
 793:Drivers/STM32F1xx_HAL_Driver/Src/stm32f1xx_ll_usb.c ****   * @param  USBx : Selected device
 794:Drivers/STM32F1xx_HAL_Driver/Src/stm32f1xx_ll_usb.c ****   * @retval HAL status
 795:Drivers/STM32F1xx_HAL_Driver/Src/stm32f1xx_ll_usb.c ****   */
 796:Drivers/STM32F1xx_HAL_Driver/Src/stm32f1xx_ll_usb.c **** HAL_StatusTypeDef  USB_DevConnect (USB_OTG_GlobalTypeDef *USBx)
 797:Drivers/STM32F1xx_HAL_Driver/Src/stm32f1xx_ll_usb.c **** {
 798:Drivers/STM32F1xx_HAL_Driver/Src/stm32f1xx_ll_usb.c ****   /* Prevent unused argument(s) compilation warning */
 799:Drivers/STM32F1xx_HAL_Driver/Src/stm32f1xx_ll_usb.c ****   UNUSED(USBx);
 800:Drivers/STM32F1xx_HAL_Driver/Src/stm32f1xx_ll_usb.c **** 
 801:Drivers/STM32F1xx_HAL_Driver/Src/stm32f1xx_ll_usb.c ****   USBx_DEVICE->DCTL &= ~USB_OTG_DCTL_SDIS ;
 802:Drivers/STM32F1xx_HAL_Driver/Src/stm32f1xx_ll_usb.c ****   HAL_Delay(3);
 803:Drivers/STM32F1xx_HAL_Driver/Src/stm32f1xx_ll_usb.c ****   
 804:Drivers/STM32F1xx_HAL_Driver/Src/stm32f1xx_ll_usb.c ****   return HAL_OK;
 805:Drivers/STM32F1xx_HAL_Driver/Src/stm32f1xx_ll_usb.c **** }
 806:Drivers/STM32F1xx_HAL_Driver/Src/stm32f1xx_ll_usb.c **** 
 807:Drivers/STM32F1xx_HAL_Driver/Src/stm32f1xx_ll_usb.c **** /**
 808:Drivers/STM32F1xx_HAL_Driver/Src/stm32f1xx_ll_usb.c ****   * @brief  USB_DevDisconnect : Disconnect the USB device by disabling the pull-up/pull-down
 809:Drivers/STM32F1xx_HAL_Driver/Src/stm32f1xx_ll_usb.c ****   * @param  USBx : Selected device
 810:Drivers/STM32F1xx_HAL_Driver/Src/stm32f1xx_ll_usb.c ****   * @retval HAL status
 811:Drivers/STM32F1xx_HAL_Driver/Src/stm32f1xx_ll_usb.c ****   */
 812:Drivers/STM32F1xx_HAL_Driver/Src/stm32f1xx_ll_usb.c **** HAL_StatusTypeDef  USB_DevDisconnect (USB_OTG_GlobalTypeDef *USBx)
 813:Drivers/STM32F1xx_HAL_Driver/Src/stm32f1xx_ll_usb.c **** {
 814:Drivers/STM32F1xx_HAL_Driver/Src/stm32f1xx_ll_usb.c ****   /* Prevent unused argument(s) compilation warning */
 815:Drivers/STM32F1xx_HAL_Driver/Src/stm32f1xx_ll_usb.c ****   UNUSED(USBx);
 816:Drivers/STM32F1xx_HAL_Driver/Src/stm32f1xx_ll_usb.c **** 
 817:Drivers/STM32F1xx_HAL_Driver/Src/stm32f1xx_ll_usb.c ****   USBx_DEVICE->DCTL |= USB_OTG_DCTL_SDIS;
 818:Drivers/STM32F1xx_HAL_Driver/Src/stm32f1xx_ll_usb.c ****   HAL_Delay(3);
 819:Drivers/STM32F1xx_HAL_Driver/Src/stm32f1xx_ll_usb.c ****   
 820:Drivers/STM32F1xx_HAL_Driver/Src/stm32f1xx_ll_usb.c ****   return HAL_OK;
 821:Drivers/STM32F1xx_HAL_Driver/Src/stm32f1xx_ll_usb.c **** }
 822:Drivers/STM32F1xx_HAL_Driver/Src/stm32f1xx_ll_usb.c **** 
 823:Drivers/STM32F1xx_HAL_Driver/Src/stm32f1xx_ll_usb.c **** /**
 824:Drivers/STM32F1xx_HAL_Driver/Src/stm32f1xx_ll_usb.c ****   * @brief  USB_ReadInterrupts: return the global USB interrupt status
 825:Drivers/STM32F1xx_HAL_Driver/Src/stm32f1xx_ll_usb.c ****   * @param  USBx : Selected device
 826:Drivers/STM32F1xx_HAL_Driver/Src/stm32f1xx_ll_usb.c ****   * @retval HAL status
 827:Drivers/STM32F1xx_HAL_Driver/Src/stm32f1xx_ll_usb.c ****   */
 828:Drivers/STM32F1xx_HAL_Driver/Src/stm32f1xx_ll_usb.c **** uint32_t  USB_ReadInterrupts (USB_OTG_GlobalTypeDef *USBx)
 829:Drivers/STM32F1xx_HAL_Driver/Src/stm32f1xx_ll_usb.c **** {
ARM GAS  /var/folders/rf/wfq6hz5s56g3yh4wqgd7820c0000gn/T//ccZ1SRBq.s 			page 16


 830:Drivers/STM32F1xx_HAL_Driver/Src/stm32f1xx_ll_usb.c ****   uint32_t tmpreg = 0;
 831:Drivers/STM32F1xx_HAL_Driver/Src/stm32f1xx_ll_usb.c ****   
 832:Drivers/STM32F1xx_HAL_Driver/Src/stm32f1xx_ll_usb.c ****   tmpreg = USBx->GINTSTS;
 833:Drivers/STM32F1xx_HAL_Driver/Src/stm32f1xx_ll_usb.c ****   tmpreg &= USBx->GINTMSK;
 834:Drivers/STM32F1xx_HAL_Driver/Src/stm32f1xx_ll_usb.c ****   return tmpreg;
 835:Drivers/STM32F1xx_HAL_Driver/Src/stm32f1xx_ll_usb.c **** }
 836:Drivers/STM32F1xx_HAL_Driver/Src/stm32f1xx_ll_usb.c **** 
 837:Drivers/STM32F1xx_HAL_Driver/Src/stm32f1xx_ll_usb.c **** /**
 838:Drivers/STM32F1xx_HAL_Driver/Src/stm32f1xx_ll_usb.c ****   * @brief  USB_ReadDevAllOutEpInterrupt: return the USB device OUT endpoints interrupt status
 839:Drivers/STM32F1xx_HAL_Driver/Src/stm32f1xx_ll_usb.c ****   * @param  USBx : Selected device
 840:Drivers/STM32F1xx_HAL_Driver/Src/stm32f1xx_ll_usb.c ****   * @retval HAL status
 841:Drivers/STM32F1xx_HAL_Driver/Src/stm32f1xx_ll_usb.c ****   */
 842:Drivers/STM32F1xx_HAL_Driver/Src/stm32f1xx_ll_usb.c **** uint32_t USB_ReadDevAllOutEpInterrupt (USB_OTG_GlobalTypeDef *USBx)
 843:Drivers/STM32F1xx_HAL_Driver/Src/stm32f1xx_ll_usb.c **** {
 844:Drivers/STM32F1xx_HAL_Driver/Src/stm32f1xx_ll_usb.c ****   uint32_t tmpreg = 0;
 845:Drivers/STM32F1xx_HAL_Driver/Src/stm32f1xx_ll_usb.c ****   /* Prevent unused argument(s) compilation warning */
 846:Drivers/STM32F1xx_HAL_Driver/Src/stm32f1xx_ll_usb.c ****   UNUSED(USBx);
 847:Drivers/STM32F1xx_HAL_Driver/Src/stm32f1xx_ll_usb.c **** 
 848:Drivers/STM32F1xx_HAL_Driver/Src/stm32f1xx_ll_usb.c ****   tmpreg  = USBx_DEVICE->DAINT;
 849:Drivers/STM32F1xx_HAL_Driver/Src/stm32f1xx_ll_usb.c ****   tmpreg &= USBx_DEVICE->DAINTMSK;
 850:Drivers/STM32F1xx_HAL_Driver/Src/stm32f1xx_ll_usb.c ****   return ((tmpreg & 0xffff0000) >> 16);
 851:Drivers/STM32F1xx_HAL_Driver/Src/stm32f1xx_ll_usb.c **** }
 852:Drivers/STM32F1xx_HAL_Driver/Src/stm32f1xx_ll_usb.c **** 
 853:Drivers/STM32F1xx_HAL_Driver/Src/stm32f1xx_ll_usb.c **** /**
 854:Drivers/STM32F1xx_HAL_Driver/Src/stm32f1xx_ll_usb.c ****   * @brief  USB_ReadDevAllInEpInterrupt: return the USB device IN endpoints interrupt status
 855:Drivers/STM32F1xx_HAL_Driver/Src/stm32f1xx_ll_usb.c ****   * @param  USBx : Selected device
 856:Drivers/STM32F1xx_HAL_Driver/Src/stm32f1xx_ll_usb.c ****   * @retval HAL status
 857:Drivers/STM32F1xx_HAL_Driver/Src/stm32f1xx_ll_usb.c ****   */
 858:Drivers/STM32F1xx_HAL_Driver/Src/stm32f1xx_ll_usb.c **** uint32_t USB_ReadDevAllInEpInterrupt (USB_OTG_GlobalTypeDef *USBx)
 859:Drivers/STM32F1xx_HAL_Driver/Src/stm32f1xx_ll_usb.c **** {
 860:Drivers/STM32F1xx_HAL_Driver/Src/stm32f1xx_ll_usb.c ****   uint32_t tmpreg = 0;
 861:Drivers/STM32F1xx_HAL_Driver/Src/stm32f1xx_ll_usb.c ****   /* Prevent unused argument(s) compilation warning */
 862:Drivers/STM32F1xx_HAL_Driver/Src/stm32f1xx_ll_usb.c ****   UNUSED(USBx);
 863:Drivers/STM32F1xx_HAL_Driver/Src/stm32f1xx_ll_usb.c **** 
 864:Drivers/STM32F1xx_HAL_Driver/Src/stm32f1xx_ll_usb.c ****   tmpreg  = USBx_DEVICE->DAINT;
 865:Drivers/STM32F1xx_HAL_Driver/Src/stm32f1xx_ll_usb.c ****   tmpreg &= USBx_DEVICE->DAINTMSK;
 866:Drivers/STM32F1xx_HAL_Driver/Src/stm32f1xx_ll_usb.c ****   return ((tmpreg & 0xFFFF));
 867:Drivers/STM32F1xx_HAL_Driver/Src/stm32f1xx_ll_usb.c **** }
 868:Drivers/STM32F1xx_HAL_Driver/Src/stm32f1xx_ll_usb.c **** 
 869:Drivers/STM32F1xx_HAL_Driver/Src/stm32f1xx_ll_usb.c **** /**
 870:Drivers/STM32F1xx_HAL_Driver/Src/stm32f1xx_ll_usb.c ****   * @brief  Returns Device OUT EP Interrupt register
 871:Drivers/STM32F1xx_HAL_Driver/Src/stm32f1xx_ll_usb.c ****   * @param  USBx : Selected device
 872:Drivers/STM32F1xx_HAL_Driver/Src/stm32f1xx_ll_usb.c ****   * @param  epnum : endpoint number
 873:Drivers/STM32F1xx_HAL_Driver/Src/stm32f1xx_ll_usb.c ****   *          This parameter can be a value from 0 to 15
 874:Drivers/STM32F1xx_HAL_Driver/Src/stm32f1xx_ll_usb.c ****   * @retval Device OUT EP Interrupt register
 875:Drivers/STM32F1xx_HAL_Driver/Src/stm32f1xx_ll_usb.c ****   */
 876:Drivers/STM32F1xx_HAL_Driver/Src/stm32f1xx_ll_usb.c **** uint32_t USB_ReadDevOutEPInterrupt (USB_OTG_GlobalTypeDef *USBx , uint8_t epnum)
 877:Drivers/STM32F1xx_HAL_Driver/Src/stm32f1xx_ll_usb.c **** {
 878:Drivers/STM32F1xx_HAL_Driver/Src/stm32f1xx_ll_usb.c ****   /* Prevent unused argument(s) compilation warning */
 879:Drivers/STM32F1xx_HAL_Driver/Src/stm32f1xx_ll_usb.c ****   UNUSED(USBx);
 880:Drivers/STM32F1xx_HAL_Driver/Src/stm32f1xx_ll_usb.c **** 
 881:Drivers/STM32F1xx_HAL_Driver/Src/stm32f1xx_ll_usb.c ****   uint32_t tmpreg = 0;
 882:Drivers/STM32F1xx_HAL_Driver/Src/stm32f1xx_ll_usb.c ****   tmpreg  = USBx_OUTEP(epnum)->DOEPINT;
 883:Drivers/STM32F1xx_HAL_Driver/Src/stm32f1xx_ll_usb.c ****   tmpreg &= USBx_DEVICE->DOEPMSK;
 884:Drivers/STM32F1xx_HAL_Driver/Src/stm32f1xx_ll_usb.c ****   return tmpreg;
 885:Drivers/STM32F1xx_HAL_Driver/Src/stm32f1xx_ll_usb.c **** }
 886:Drivers/STM32F1xx_HAL_Driver/Src/stm32f1xx_ll_usb.c **** 
ARM GAS  /var/folders/rf/wfq6hz5s56g3yh4wqgd7820c0000gn/T//ccZ1SRBq.s 			page 17


 887:Drivers/STM32F1xx_HAL_Driver/Src/stm32f1xx_ll_usb.c **** /**
 888:Drivers/STM32F1xx_HAL_Driver/Src/stm32f1xx_ll_usb.c ****   * @brief  Returns Device IN EP Interrupt register
 889:Drivers/STM32F1xx_HAL_Driver/Src/stm32f1xx_ll_usb.c ****   * @param  USBx : Selected device
 890:Drivers/STM32F1xx_HAL_Driver/Src/stm32f1xx_ll_usb.c ****   * @param  epnum : endpoint number
 891:Drivers/STM32F1xx_HAL_Driver/Src/stm32f1xx_ll_usb.c ****   *          This parameter can be a value from 0 to 15
 892:Drivers/STM32F1xx_HAL_Driver/Src/stm32f1xx_ll_usb.c ****   * @retval Device IN EP Interrupt register
 893:Drivers/STM32F1xx_HAL_Driver/Src/stm32f1xx_ll_usb.c ****   */
 894:Drivers/STM32F1xx_HAL_Driver/Src/stm32f1xx_ll_usb.c **** uint32_t USB_ReadDevInEPInterrupt (USB_OTG_GlobalTypeDef *USBx , uint8_t epnum)
 895:Drivers/STM32F1xx_HAL_Driver/Src/stm32f1xx_ll_usb.c **** {
 896:Drivers/STM32F1xx_HAL_Driver/Src/stm32f1xx_ll_usb.c ****   uint32_t tmpreg = 0, msk = 0, emp = 0;
 897:Drivers/STM32F1xx_HAL_Driver/Src/stm32f1xx_ll_usb.c ****   /* Prevent unused argument(s) compilation warning */
 898:Drivers/STM32F1xx_HAL_Driver/Src/stm32f1xx_ll_usb.c ****   UNUSED(USBx);
 899:Drivers/STM32F1xx_HAL_Driver/Src/stm32f1xx_ll_usb.c **** 
 900:Drivers/STM32F1xx_HAL_Driver/Src/stm32f1xx_ll_usb.c ****   msk = USBx_DEVICE->DIEPMSK;
 901:Drivers/STM32F1xx_HAL_Driver/Src/stm32f1xx_ll_usb.c ****   emp = USBx_DEVICE->DIEPEMPMSK;
 902:Drivers/STM32F1xx_HAL_Driver/Src/stm32f1xx_ll_usb.c ****   msk |= ((emp >> epnum) & 0x1) << 7;
 903:Drivers/STM32F1xx_HAL_Driver/Src/stm32f1xx_ll_usb.c ****   tmpreg = USBx_INEP(epnum)->DIEPINT & msk;
 904:Drivers/STM32F1xx_HAL_Driver/Src/stm32f1xx_ll_usb.c ****   return tmpreg;
 905:Drivers/STM32F1xx_HAL_Driver/Src/stm32f1xx_ll_usb.c **** }
 906:Drivers/STM32F1xx_HAL_Driver/Src/stm32f1xx_ll_usb.c **** 
 907:Drivers/STM32F1xx_HAL_Driver/Src/stm32f1xx_ll_usb.c **** /**
 908:Drivers/STM32F1xx_HAL_Driver/Src/stm32f1xx_ll_usb.c ****   * @brief  USB_ClearInterrupts: clear a USB interrupt
 909:Drivers/STM32F1xx_HAL_Driver/Src/stm32f1xx_ll_usb.c ****   * @param  USBx : Selected device
 910:Drivers/STM32F1xx_HAL_Driver/Src/stm32f1xx_ll_usb.c ****   * @param  interrupt : interrupt flag
 911:Drivers/STM32F1xx_HAL_Driver/Src/stm32f1xx_ll_usb.c ****   * @retval None
 912:Drivers/STM32F1xx_HAL_Driver/Src/stm32f1xx_ll_usb.c ****   */
 913:Drivers/STM32F1xx_HAL_Driver/Src/stm32f1xx_ll_usb.c **** void  USB_ClearInterrupts (USB_OTG_GlobalTypeDef *USBx, uint32_t interrupt)
 914:Drivers/STM32F1xx_HAL_Driver/Src/stm32f1xx_ll_usb.c **** {
 915:Drivers/STM32F1xx_HAL_Driver/Src/stm32f1xx_ll_usb.c ****   USBx->GINTSTS |= interrupt;
 916:Drivers/STM32F1xx_HAL_Driver/Src/stm32f1xx_ll_usb.c **** }
 917:Drivers/STM32F1xx_HAL_Driver/Src/stm32f1xx_ll_usb.c **** 
 918:Drivers/STM32F1xx_HAL_Driver/Src/stm32f1xx_ll_usb.c **** /**
 919:Drivers/STM32F1xx_HAL_Driver/Src/stm32f1xx_ll_usb.c ****   * @brief  Returns USB core mode
 920:Drivers/STM32F1xx_HAL_Driver/Src/stm32f1xx_ll_usb.c ****   * @param  USBx : Selected device
 921:Drivers/STM32F1xx_HAL_Driver/Src/stm32f1xx_ll_usb.c ****   * @retval return core mode : Host or Device
 922:Drivers/STM32F1xx_HAL_Driver/Src/stm32f1xx_ll_usb.c ****   *          This parameter can be one of the these values:
 923:Drivers/STM32F1xx_HAL_Driver/Src/stm32f1xx_ll_usb.c ****   *           0 : Host 
 924:Drivers/STM32F1xx_HAL_Driver/Src/stm32f1xx_ll_usb.c ****   *           1 : Device
 925:Drivers/STM32F1xx_HAL_Driver/Src/stm32f1xx_ll_usb.c ****   */
 926:Drivers/STM32F1xx_HAL_Driver/Src/stm32f1xx_ll_usb.c **** uint32_t USB_GetMode(USB_OTG_GlobalTypeDef *USBx)
 927:Drivers/STM32F1xx_HAL_Driver/Src/stm32f1xx_ll_usb.c **** {
 928:Drivers/STM32F1xx_HAL_Driver/Src/stm32f1xx_ll_usb.c ****   /* Prevent unused argument(s) compilation warning */
 929:Drivers/STM32F1xx_HAL_Driver/Src/stm32f1xx_ll_usb.c ****   UNUSED(USBx);
 930:Drivers/STM32F1xx_HAL_Driver/Src/stm32f1xx_ll_usb.c **** 
 931:Drivers/STM32F1xx_HAL_Driver/Src/stm32f1xx_ll_usb.c ****   return ((USBx->GINTSTS ) & 0x1);
 932:Drivers/STM32F1xx_HAL_Driver/Src/stm32f1xx_ll_usb.c **** }
 933:Drivers/STM32F1xx_HAL_Driver/Src/stm32f1xx_ll_usb.c **** 
 934:Drivers/STM32F1xx_HAL_Driver/Src/stm32f1xx_ll_usb.c **** /**
 935:Drivers/STM32F1xx_HAL_Driver/Src/stm32f1xx_ll_usb.c ****   * @brief  Activate EP0 for Setup transactions
 936:Drivers/STM32F1xx_HAL_Driver/Src/stm32f1xx_ll_usb.c ****   * @param  USBx : Selected device
 937:Drivers/STM32F1xx_HAL_Driver/Src/stm32f1xx_ll_usb.c ****   * @retval HAL status
 938:Drivers/STM32F1xx_HAL_Driver/Src/stm32f1xx_ll_usb.c ****   */
 939:Drivers/STM32F1xx_HAL_Driver/Src/stm32f1xx_ll_usb.c **** HAL_StatusTypeDef  USB_ActivateSetup (USB_OTG_GlobalTypeDef *USBx)
 940:Drivers/STM32F1xx_HAL_Driver/Src/stm32f1xx_ll_usb.c **** {
 941:Drivers/STM32F1xx_HAL_Driver/Src/stm32f1xx_ll_usb.c ****   /* Prevent unused argument(s) compilation warning */
 942:Drivers/STM32F1xx_HAL_Driver/Src/stm32f1xx_ll_usb.c ****   UNUSED(USBx);
 943:Drivers/STM32F1xx_HAL_Driver/Src/stm32f1xx_ll_usb.c ****   /* Set the MPS of the IN EP based on the enumeration speed */
ARM GAS  /var/folders/rf/wfq6hz5s56g3yh4wqgd7820c0000gn/T//ccZ1SRBq.s 			page 18


 944:Drivers/STM32F1xx_HAL_Driver/Src/stm32f1xx_ll_usb.c ****   USBx_INEP(0)->DIEPCTL &= ~USB_OTG_DIEPCTL_MPSIZ;
 945:Drivers/STM32F1xx_HAL_Driver/Src/stm32f1xx_ll_usb.c ****   
 946:Drivers/STM32F1xx_HAL_Driver/Src/stm32f1xx_ll_usb.c ****   if((USBx_DEVICE->DSTS & USB_OTG_DSTS_ENUMSPD) == DSTS_ENUMSPD_LS_PHY_6MHZ)
 947:Drivers/STM32F1xx_HAL_Driver/Src/stm32f1xx_ll_usb.c ****   {
 948:Drivers/STM32F1xx_HAL_Driver/Src/stm32f1xx_ll_usb.c ****     USBx_INEP(0)->DIEPCTL |= 3;
 949:Drivers/STM32F1xx_HAL_Driver/Src/stm32f1xx_ll_usb.c ****   }
 950:Drivers/STM32F1xx_HAL_Driver/Src/stm32f1xx_ll_usb.c ****   USBx_DEVICE->DCTL |= USB_OTG_DCTL_CGINAK;
 951:Drivers/STM32F1xx_HAL_Driver/Src/stm32f1xx_ll_usb.c ****   
 952:Drivers/STM32F1xx_HAL_Driver/Src/stm32f1xx_ll_usb.c ****   return HAL_OK;
 953:Drivers/STM32F1xx_HAL_Driver/Src/stm32f1xx_ll_usb.c **** }
 954:Drivers/STM32F1xx_HAL_Driver/Src/stm32f1xx_ll_usb.c **** 
 955:Drivers/STM32F1xx_HAL_Driver/Src/stm32f1xx_ll_usb.c **** /**
 956:Drivers/STM32F1xx_HAL_Driver/Src/stm32f1xx_ll_usb.c ****   * @brief  Prepare the EP0 to start the first control setup
 957:Drivers/STM32F1xx_HAL_Driver/Src/stm32f1xx_ll_usb.c ****   * @param  USBx : Selected device
 958:Drivers/STM32F1xx_HAL_Driver/Src/stm32f1xx_ll_usb.c ****   * @param  psetup : pointer to setup packet
 959:Drivers/STM32F1xx_HAL_Driver/Src/stm32f1xx_ll_usb.c ****   * @retval HAL status
 960:Drivers/STM32F1xx_HAL_Driver/Src/stm32f1xx_ll_usb.c ****   */
 961:Drivers/STM32F1xx_HAL_Driver/Src/stm32f1xx_ll_usb.c **** HAL_StatusTypeDef USB_EP0_OutStart(USB_OTG_GlobalTypeDef *USBx, uint8_t *psetup)
 962:Drivers/STM32F1xx_HAL_Driver/Src/stm32f1xx_ll_usb.c **** {
 963:Drivers/STM32F1xx_HAL_Driver/Src/stm32f1xx_ll_usb.c ****   /* Prevent unused argument(s) compilation warning */
 964:Drivers/STM32F1xx_HAL_Driver/Src/stm32f1xx_ll_usb.c ****   UNUSED(USBx);
 965:Drivers/STM32F1xx_HAL_Driver/Src/stm32f1xx_ll_usb.c ****   UNUSED(psetup);
 966:Drivers/STM32F1xx_HAL_Driver/Src/stm32f1xx_ll_usb.c ****   USBx_OUTEP(0)->DOEPTSIZ = 0;
 967:Drivers/STM32F1xx_HAL_Driver/Src/stm32f1xx_ll_usb.c ****   USBx_OUTEP(0)->DOEPTSIZ |= (USB_OTG_DOEPTSIZ_PKTCNT & (1 << 19));
 968:Drivers/STM32F1xx_HAL_Driver/Src/stm32f1xx_ll_usb.c ****   USBx_OUTEP(0)->DOEPTSIZ |= (3 * 8);
 969:Drivers/STM32F1xx_HAL_Driver/Src/stm32f1xx_ll_usb.c ****   USBx_OUTEP(0)->DOEPTSIZ |=  USB_OTG_DOEPTSIZ_STUPCNT;
 970:Drivers/STM32F1xx_HAL_Driver/Src/stm32f1xx_ll_usb.c ****   
 971:Drivers/STM32F1xx_HAL_Driver/Src/stm32f1xx_ll_usb.c ****   return HAL_OK;
 972:Drivers/STM32F1xx_HAL_Driver/Src/stm32f1xx_ll_usb.c **** }
 973:Drivers/STM32F1xx_HAL_Driver/Src/stm32f1xx_ll_usb.c **** 
 974:Drivers/STM32F1xx_HAL_Driver/Src/stm32f1xx_ll_usb.c **** /**
 975:Drivers/STM32F1xx_HAL_Driver/Src/stm32f1xx_ll_usb.c ****   * @brief  USB_HostInit : Initializes the USB OTG controller registers 
 976:Drivers/STM32F1xx_HAL_Driver/Src/stm32f1xx_ll_usb.c ****   *         for Host mode 
 977:Drivers/STM32F1xx_HAL_Driver/Src/stm32f1xx_ll_usb.c ****   * @param  USBx : Selected device
 978:Drivers/STM32F1xx_HAL_Driver/Src/stm32f1xx_ll_usb.c ****   * @param  cfg  : pointer to a USB_OTG_CfgTypeDef structure that contains
 979:Drivers/STM32F1xx_HAL_Driver/Src/stm32f1xx_ll_usb.c ****   *         the configuration information for the specified USBx peripheral.
 980:Drivers/STM32F1xx_HAL_Driver/Src/stm32f1xx_ll_usb.c ****   * @retval HAL status
 981:Drivers/STM32F1xx_HAL_Driver/Src/stm32f1xx_ll_usb.c ****   */
 982:Drivers/STM32F1xx_HAL_Driver/Src/stm32f1xx_ll_usb.c **** HAL_StatusTypeDef USB_HostInit (USB_OTG_GlobalTypeDef *USBx, USB_OTG_CfgTypeDef cfg)
 983:Drivers/STM32F1xx_HAL_Driver/Src/stm32f1xx_ll_usb.c **** {
 984:Drivers/STM32F1xx_HAL_Driver/Src/stm32f1xx_ll_usb.c ****   uint32_t index = 0;
 985:Drivers/STM32F1xx_HAL_Driver/Src/stm32f1xx_ll_usb.c ****   
 986:Drivers/STM32F1xx_HAL_Driver/Src/stm32f1xx_ll_usb.c ****   /* Restart the Phy Clock */
 987:Drivers/STM32F1xx_HAL_Driver/Src/stm32f1xx_ll_usb.c ****   USBx_PCGCCTL = 0;
 988:Drivers/STM32F1xx_HAL_Driver/Src/stm32f1xx_ll_usb.c ****   
 989:Drivers/STM32F1xx_HAL_Driver/Src/stm32f1xx_ll_usb.c ****   /* no VBUS sensing*/
 990:Drivers/STM32F1xx_HAL_Driver/Src/stm32f1xx_ll_usb.c ****   USBx->GCCFG &=~ (USB_OTG_GCCFG_VBUSASEN);
 991:Drivers/STM32F1xx_HAL_Driver/Src/stm32f1xx_ll_usb.c ****   USBx->GCCFG &=~ (USB_OTG_GCCFG_VBUSBSEN);
 992:Drivers/STM32F1xx_HAL_Driver/Src/stm32f1xx_ll_usb.c ****   
 993:Drivers/STM32F1xx_HAL_Driver/Src/stm32f1xx_ll_usb.c ****   /* Disable the FS/LS support mode only */
 994:Drivers/STM32F1xx_HAL_Driver/Src/stm32f1xx_ll_usb.c ****   if((cfg.speed == USB_OTG_SPEED_FULL)&&
 995:Drivers/STM32F1xx_HAL_Driver/Src/stm32f1xx_ll_usb.c ****      (USBx != USB_OTG_FS))
 996:Drivers/STM32F1xx_HAL_Driver/Src/stm32f1xx_ll_usb.c ****   {
 997:Drivers/STM32F1xx_HAL_Driver/Src/stm32f1xx_ll_usb.c ****     USBx_HOST->HCFG |= USB_OTG_HCFG_FSLSS; 
 998:Drivers/STM32F1xx_HAL_Driver/Src/stm32f1xx_ll_usb.c ****   }
 999:Drivers/STM32F1xx_HAL_Driver/Src/stm32f1xx_ll_usb.c ****   else
1000:Drivers/STM32F1xx_HAL_Driver/Src/stm32f1xx_ll_usb.c ****   {
ARM GAS  /var/folders/rf/wfq6hz5s56g3yh4wqgd7820c0000gn/T//ccZ1SRBq.s 			page 19


1001:Drivers/STM32F1xx_HAL_Driver/Src/stm32f1xx_ll_usb.c ****     USBx_HOST->HCFG &= ~(USB_OTG_HCFG_FSLSS);  
1002:Drivers/STM32F1xx_HAL_Driver/Src/stm32f1xx_ll_usb.c ****   }
1003:Drivers/STM32F1xx_HAL_Driver/Src/stm32f1xx_ll_usb.c ****   
1004:Drivers/STM32F1xx_HAL_Driver/Src/stm32f1xx_ll_usb.c ****   /* Make sure the FIFOs are flushed. */
1005:Drivers/STM32F1xx_HAL_Driver/Src/stm32f1xx_ll_usb.c ****   USB_FlushTxFifo(USBx, 0x10 ); /* all Tx FIFOs */
1006:Drivers/STM32F1xx_HAL_Driver/Src/stm32f1xx_ll_usb.c ****   USB_FlushRxFifo(USBx);
1007:Drivers/STM32F1xx_HAL_Driver/Src/stm32f1xx_ll_usb.c ****   
1008:Drivers/STM32F1xx_HAL_Driver/Src/stm32f1xx_ll_usb.c ****   /* Clear all pending HC Interrupts */
1009:Drivers/STM32F1xx_HAL_Driver/Src/stm32f1xx_ll_usb.c ****   for (index = 0; index < cfg.Host_channels; index++)
1010:Drivers/STM32F1xx_HAL_Driver/Src/stm32f1xx_ll_usb.c ****   {
1011:Drivers/STM32F1xx_HAL_Driver/Src/stm32f1xx_ll_usb.c ****     USBx_HC(index)->HCINT = 0xFFFFFFFF;
1012:Drivers/STM32F1xx_HAL_Driver/Src/stm32f1xx_ll_usb.c ****     USBx_HC(index)->HCINTMSK = 0;
1013:Drivers/STM32F1xx_HAL_Driver/Src/stm32f1xx_ll_usb.c ****   }
1014:Drivers/STM32F1xx_HAL_Driver/Src/stm32f1xx_ll_usb.c ****   
1015:Drivers/STM32F1xx_HAL_Driver/Src/stm32f1xx_ll_usb.c ****   /* Enable VBUS driving */
1016:Drivers/STM32F1xx_HAL_Driver/Src/stm32f1xx_ll_usb.c ****   USB_DriveVbus(USBx, 1);
1017:Drivers/STM32F1xx_HAL_Driver/Src/stm32f1xx_ll_usb.c ****   
1018:Drivers/STM32F1xx_HAL_Driver/Src/stm32f1xx_ll_usb.c ****   HAL_Delay(200);
1019:Drivers/STM32F1xx_HAL_Driver/Src/stm32f1xx_ll_usb.c ****   
1020:Drivers/STM32F1xx_HAL_Driver/Src/stm32f1xx_ll_usb.c ****   /* Disable all interrupts. */
1021:Drivers/STM32F1xx_HAL_Driver/Src/stm32f1xx_ll_usb.c ****   USBx->GINTMSK = 0;
1022:Drivers/STM32F1xx_HAL_Driver/Src/stm32f1xx_ll_usb.c ****   
1023:Drivers/STM32F1xx_HAL_Driver/Src/stm32f1xx_ll_usb.c ****   /* Clear any pending interrupts */
1024:Drivers/STM32F1xx_HAL_Driver/Src/stm32f1xx_ll_usb.c ****   USBx->GINTSTS = 0xFFFFFFFF;
1025:Drivers/STM32F1xx_HAL_Driver/Src/stm32f1xx_ll_usb.c ****   
1026:Drivers/STM32F1xx_HAL_Driver/Src/stm32f1xx_ll_usb.c ****   if(USBx == USB_OTG_FS)
1027:Drivers/STM32F1xx_HAL_Driver/Src/stm32f1xx_ll_usb.c ****   {
1028:Drivers/STM32F1xx_HAL_Driver/Src/stm32f1xx_ll_usb.c ****     /* set Rx FIFO size */
1029:Drivers/STM32F1xx_HAL_Driver/Src/stm32f1xx_ll_usb.c ****     USBx->GRXFSIZ  = (uint32_t )0x80; 
1030:Drivers/STM32F1xx_HAL_Driver/Src/stm32f1xx_ll_usb.c ****     USBx->DIEPTXF0_HNPTXFSIZ = (uint32_t )(((0x60 << 16)& USB_OTG_NPTXFD) | 0x80);
1031:Drivers/STM32F1xx_HAL_Driver/Src/stm32f1xx_ll_usb.c ****     USBx->HPTXFSIZ = (uint32_t )(((0x40 << 16)& USB_OTG_HPTXFSIZ_PTXFD) | 0xE0);
1032:Drivers/STM32F1xx_HAL_Driver/Src/stm32f1xx_ll_usb.c ****   }
1033:Drivers/STM32F1xx_HAL_Driver/Src/stm32f1xx_ll_usb.c ****   
1034:Drivers/STM32F1xx_HAL_Driver/Src/stm32f1xx_ll_usb.c ****   /* Enable the common interrupts */
1035:Drivers/STM32F1xx_HAL_Driver/Src/stm32f1xx_ll_usb.c ****   USBx->GINTMSK |= USB_OTG_GINTMSK_RXFLVLM;
1036:Drivers/STM32F1xx_HAL_Driver/Src/stm32f1xx_ll_usb.c ****   
1037:Drivers/STM32F1xx_HAL_Driver/Src/stm32f1xx_ll_usb.c ****   /* Enable interrupts matching to the Host mode ONLY */
1038:Drivers/STM32F1xx_HAL_Driver/Src/stm32f1xx_ll_usb.c ****   USBx->GINTMSK |= (USB_OTG_GINTMSK_PRTIM            | USB_OTG_GINTMSK_HCIM |\
1039:Drivers/STM32F1xx_HAL_Driver/Src/stm32f1xx_ll_usb.c ****                     USB_OTG_GINTMSK_SOFM             |USB_OTG_GINTSTS_DISCINT|\
1040:Drivers/STM32F1xx_HAL_Driver/Src/stm32f1xx_ll_usb.c ****                     USB_OTG_GINTMSK_PXFRM_IISOOXFRM  | USB_OTG_GINTMSK_WUIM);
1041:Drivers/STM32F1xx_HAL_Driver/Src/stm32f1xx_ll_usb.c ****   
1042:Drivers/STM32F1xx_HAL_Driver/Src/stm32f1xx_ll_usb.c ****   return HAL_OK;
1043:Drivers/STM32F1xx_HAL_Driver/Src/stm32f1xx_ll_usb.c **** }
1044:Drivers/STM32F1xx_HAL_Driver/Src/stm32f1xx_ll_usb.c **** 
1045:Drivers/STM32F1xx_HAL_Driver/Src/stm32f1xx_ll_usb.c **** /**
1046:Drivers/STM32F1xx_HAL_Driver/Src/stm32f1xx_ll_usb.c ****   * @brief  USB_InitFSLSPClkSel : Initializes the FSLSPClkSel field of the 
1047:Drivers/STM32F1xx_HAL_Driver/Src/stm32f1xx_ll_usb.c ****   *         HCFG register on the PHY type and set the right frame interval
1048:Drivers/STM32F1xx_HAL_Driver/Src/stm32f1xx_ll_usb.c ****   * @param  USBx : Selected device
1049:Drivers/STM32F1xx_HAL_Driver/Src/stm32f1xx_ll_usb.c ****   * @param  freq : clock frequency
1050:Drivers/STM32F1xx_HAL_Driver/Src/stm32f1xx_ll_usb.c ****   *          This parameter can be one of the these values:
1051:Drivers/STM32F1xx_HAL_Driver/Src/stm32f1xx_ll_usb.c ****   *           HCFG_48_MHZ : Full Speed 48 MHz Clock 
1052:Drivers/STM32F1xx_HAL_Driver/Src/stm32f1xx_ll_usb.c ****   *           HCFG_6_MHZ : Low Speed 6 MHz Clock 
1053:Drivers/STM32F1xx_HAL_Driver/Src/stm32f1xx_ll_usb.c ****   * @retval HAL status
1054:Drivers/STM32F1xx_HAL_Driver/Src/stm32f1xx_ll_usb.c ****   */
1055:Drivers/STM32F1xx_HAL_Driver/Src/stm32f1xx_ll_usb.c **** HAL_StatusTypeDef USB_InitFSLSPClkSel(USB_OTG_GlobalTypeDef *USBx , uint8_t freq)
1056:Drivers/STM32F1xx_HAL_Driver/Src/stm32f1xx_ll_usb.c **** {
1057:Drivers/STM32F1xx_HAL_Driver/Src/stm32f1xx_ll_usb.c ****   /* Prevent unused argument(s) compilation warning */
ARM GAS  /var/folders/rf/wfq6hz5s56g3yh4wqgd7820c0000gn/T//ccZ1SRBq.s 			page 20


1058:Drivers/STM32F1xx_HAL_Driver/Src/stm32f1xx_ll_usb.c ****   UNUSED(USBx);
1059:Drivers/STM32F1xx_HAL_Driver/Src/stm32f1xx_ll_usb.c **** 
1060:Drivers/STM32F1xx_HAL_Driver/Src/stm32f1xx_ll_usb.c ****   USBx_HOST->HCFG &= ~(USB_OTG_HCFG_FSLSPCS);
1061:Drivers/STM32F1xx_HAL_Driver/Src/stm32f1xx_ll_usb.c ****   USBx_HOST->HCFG |= (freq & USB_OTG_HCFG_FSLSPCS);
1062:Drivers/STM32F1xx_HAL_Driver/Src/stm32f1xx_ll_usb.c ****   
1063:Drivers/STM32F1xx_HAL_Driver/Src/stm32f1xx_ll_usb.c ****   if (freq ==  HCFG_48_MHZ)
1064:Drivers/STM32F1xx_HAL_Driver/Src/stm32f1xx_ll_usb.c ****   {
1065:Drivers/STM32F1xx_HAL_Driver/Src/stm32f1xx_ll_usb.c ****     USBx_HOST->HFIR = (uint32_t)48000;
1066:Drivers/STM32F1xx_HAL_Driver/Src/stm32f1xx_ll_usb.c ****   }
1067:Drivers/STM32F1xx_HAL_Driver/Src/stm32f1xx_ll_usb.c ****   else if (freq ==  HCFG_6_MHZ)
1068:Drivers/STM32F1xx_HAL_Driver/Src/stm32f1xx_ll_usb.c ****   {
1069:Drivers/STM32F1xx_HAL_Driver/Src/stm32f1xx_ll_usb.c ****     USBx_HOST->HFIR = (uint32_t)6000;
1070:Drivers/STM32F1xx_HAL_Driver/Src/stm32f1xx_ll_usb.c ****   }
1071:Drivers/STM32F1xx_HAL_Driver/Src/stm32f1xx_ll_usb.c ****   return HAL_OK;
1072:Drivers/STM32F1xx_HAL_Driver/Src/stm32f1xx_ll_usb.c **** }
1073:Drivers/STM32F1xx_HAL_Driver/Src/stm32f1xx_ll_usb.c **** 
1074:Drivers/STM32F1xx_HAL_Driver/Src/stm32f1xx_ll_usb.c **** /**
1075:Drivers/STM32F1xx_HAL_Driver/Src/stm32f1xx_ll_usb.c **** * @brief  USB_OTG_ResetPort : Reset Host Port
1076:Drivers/STM32F1xx_HAL_Driver/Src/stm32f1xx_ll_usb.c ****   * @param  USBx : Selected device
1077:Drivers/STM32F1xx_HAL_Driver/Src/stm32f1xx_ll_usb.c ****   * @retval HAL status
1078:Drivers/STM32F1xx_HAL_Driver/Src/stm32f1xx_ll_usb.c ****   * @note : (1)The application must wait at least 10 ms
1079:Drivers/STM32F1xx_HAL_Driver/Src/stm32f1xx_ll_usb.c ****   *   before clearing the reset bit.
1080:Drivers/STM32F1xx_HAL_Driver/Src/stm32f1xx_ll_usb.c ****   */
1081:Drivers/STM32F1xx_HAL_Driver/Src/stm32f1xx_ll_usb.c **** HAL_StatusTypeDef USB_ResetPort(USB_OTG_GlobalTypeDef *USBx)
1082:Drivers/STM32F1xx_HAL_Driver/Src/stm32f1xx_ll_usb.c **** {
1083:Drivers/STM32F1xx_HAL_Driver/Src/stm32f1xx_ll_usb.c ****   __IO uint32_t hprt0 = 0;
1084:Drivers/STM32F1xx_HAL_Driver/Src/stm32f1xx_ll_usb.c ****   /* Prevent unused argument(s) compilation warning */
1085:Drivers/STM32F1xx_HAL_Driver/Src/stm32f1xx_ll_usb.c ****   UNUSED(USBx);
1086:Drivers/STM32F1xx_HAL_Driver/Src/stm32f1xx_ll_usb.c **** 
1087:Drivers/STM32F1xx_HAL_Driver/Src/stm32f1xx_ll_usb.c ****   hprt0 = USBx_HPRT0;
1088:Drivers/STM32F1xx_HAL_Driver/Src/stm32f1xx_ll_usb.c ****   
1089:Drivers/STM32F1xx_HAL_Driver/Src/stm32f1xx_ll_usb.c ****   hprt0 &= ~(USB_OTG_HPRT_PENA    | USB_OTG_HPRT_PCDET |\
1090:Drivers/STM32F1xx_HAL_Driver/Src/stm32f1xx_ll_usb.c ****     USB_OTG_HPRT_PENCHNG | USB_OTG_HPRT_POCCHNG );
1091:Drivers/STM32F1xx_HAL_Driver/Src/stm32f1xx_ll_usb.c ****   
1092:Drivers/STM32F1xx_HAL_Driver/Src/stm32f1xx_ll_usb.c ****   USBx_HPRT0 = (USB_OTG_HPRT_PRST | hprt0);  
1093:Drivers/STM32F1xx_HAL_Driver/Src/stm32f1xx_ll_usb.c ****   HAL_Delay (10);                                /* See Note #1 */
1094:Drivers/STM32F1xx_HAL_Driver/Src/stm32f1xx_ll_usb.c ****   USBx_HPRT0 = ((~USB_OTG_HPRT_PRST) & hprt0); 
1095:Drivers/STM32F1xx_HAL_Driver/Src/stm32f1xx_ll_usb.c ****   return HAL_OK;
1096:Drivers/STM32F1xx_HAL_Driver/Src/stm32f1xx_ll_usb.c **** }
1097:Drivers/STM32F1xx_HAL_Driver/Src/stm32f1xx_ll_usb.c **** 
1098:Drivers/STM32F1xx_HAL_Driver/Src/stm32f1xx_ll_usb.c **** /**
1099:Drivers/STM32F1xx_HAL_Driver/Src/stm32f1xx_ll_usb.c ****   * @brief  USB_DriveVbus : activate or de-activate vbus
1100:Drivers/STM32F1xx_HAL_Driver/Src/stm32f1xx_ll_usb.c ****   * @param  state : VBUS state
1101:Drivers/STM32F1xx_HAL_Driver/Src/stm32f1xx_ll_usb.c ****   *          This parameter can be one of the these values:
1102:Drivers/STM32F1xx_HAL_Driver/Src/stm32f1xx_ll_usb.c ****   *           0 : VBUS Active 
1103:Drivers/STM32F1xx_HAL_Driver/Src/stm32f1xx_ll_usb.c ****   *           1 : VBUS Inactive
1104:Drivers/STM32F1xx_HAL_Driver/Src/stm32f1xx_ll_usb.c ****   * @retval HAL status
1105:Drivers/STM32F1xx_HAL_Driver/Src/stm32f1xx_ll_usb.c **** */
1106:Drivers/STM32F1xx_HAL_Driver/Src/stm32f1xx_ll_usb.c **** HAL_StatusTypeDef USB_DriveVbus (USB_OTG_GlobalTypeDef *USBx, uint8_t state)
1107:Drivers/STM32F1xx_HAL_Driver/Src/stm32f1xx_ll_usb.c **** {
1108:Drivers/STM32F1xx_HAL_Driver/Src/stm32f1xx_ll_usb.c ****   __IO uint32_t hprt0 = 0;
1109:Drivers/STM32F1xx_HAL_Driver/Src/stm32f1xx_ll_usb.c ****   /* Prevent unused argument(s) compilation warning */
1110:Drivers/STM32F1xx_HAL_Driver/Src/stm32f1xx_ll_usb.c ****   UNUSED(USBx);
1111:Drivers/STM32F1xx_HAL_Driver/Src/stm32f1xx_ll_usb.c **** 
1112:Drivers/STM32F1xx_HAL_Driver/Src/stm32f1xx_ll_usb.c ****   hprt0 = USBx_HPRT0;
1113:Drivers/STM32F1xx_HAL_Driver/Src/stm32f1xx_ll_usb.c ****   hprt0 &= ~(USB_OTG_HPRT_PENA    | USB_OTG_HPRT_PCDET |\
1114:Drivers/STM32F1xx_HAL_Driver/Src/stm32f1xx_ll_usb.c ****           USB_OTG_HPRT_PENCHNG | USB_OTG_HPRT_POCCHNG );
ARM GAS  /var/folders/rf/wfq6hz5s56g3yh4wqgd7820c0000gn/T//ccZ1SRBq.s 			page 21


1115:Drivers/STM32F1xx_HAL_Driver/Src/stm32f1xx_ll_usb.c ****   
1116:Drivers/STM32F1xx_HAL_Driver/Src/stm32f1xx_ll_usb.c ****   if (((hprt0 & USB_OTG_HPRT_PPWR) == 0 ) && (state == 1 ))
1117:Drivers/STM32F1xx_HAL_Driver/Src/stm32f1xx_ll_usb.c ****   {
1118:Drivers/STM32F1xx_HAL_Driver/Src/stm32f1xx_ll_usb.c ****     USBx_HPRT0 = (USB_OTG_HPRT_PPWR | hprt0);
1119:Drivers/STM32F1xx_HAL_Driver/Src/stm32f1xx_ll_usb.c ****   }
1120:Drivers/STM32F1xx_HAL_Driver/Src/stm32f1xx_ll_usb.c ****   if (((hprt0 & USB_OTG_HPRT_PPWR) == USB_OTG_HPRT_PPWR) && (state == 0 ))
1121:Drivers/STM32F1xx_HAL_Driver/Src/stm32f1xx_ll_usb.c ****   {
1122:Drivers/STM32F1xx_HAL_Driver/Src/stm32f1xx_ll_usb.c ****     USBx_HPRT0 = ((~USB_OTG_HPRT_PPWR) & hprt0);
1123:Drivers/STM32F1xx_HAL_Driver/Src/stm32f1xx_ll_usb.c ****   }
1124:Drivers/STM32F1xx_HAL_Driver/Src/stm32f1xx_ll_usb.c ****   return HAL_OK;
1125:Drivers/STM32F1xx_HAL_Driver/Src/stm32f1xx_ll_usb.c **** }
1126:Drivers/STM32F1xx_HAL_Driver/Src/stm32f1xx_ll_usb.c **** 
1127:Drivers/STM32F1xx_HAL_Driver/Src/stm32f1xx_ll_usb.c **** /**
1128:Drivers/STM32F1xx_HAL_Driver/Src/stm32f1xx_ll_usb.c ****   * @brief  Return Host Core speed
1129:Drivers/STM32F1xx_HAL_Driver/Src/stm32f1xx_ll_usb.c ****   * @param  USBx : Selected device
1130:Drivers/STM32F1xx_HAL_Driver/Src/stm32f1xx_ll_usb.c ****   * @retval speed : Host speed
1131:Drivers/STM32F1xx_HAL_Driver/Src/stm32f1xx_ll_usb.c ****   *          This parameter can be one of the these values:
1132:Drivers/STM32F1xx_HAL_Driver/Src/stm32f1xx_ll_usb.c ****   *            @arg USB_OTG_SPEED_FULL: Full speed mode
1133:Drivers/STM32F1xx_HAL_Driver/Src/stm32f1xx_ll_usb.c ****   *            @arg USB_OTG_SPEED_LOW: Low speed mode
1134:Drivers/STM32F1xx_HAL_Driver/Src/stm32f1xx_ll_usb.c ****   */
1135:Drivers/STM32F1xx_HAL_Driver/Src/stm32f1xx_ll_usb.c **** uint32_t USB_GetHostSpeed (USB_OTG_GlobalTypeDef *USBx)
1136:Drivers/STM32F1xx_HAL_Driver/Src/stm32f1xx_ll_usb.c **** {
1137:Drivers/STM32F1xx_HAL_Driver/Src/stm32f1xx_ll_usb.c ****   __IO uint32_t hprt0 = 0;
1138:Drivers/STM32F1xx_HAL_Driver/Src/stm32f1xx_ll_usb.c ****   /* Prevent unused argument(s) compilation warning */
1139:Drivers/STM32F1xx_HAL_Driver/Src/stm32f1xx_ll_usb.c ****   UNUSED(USBx);
1140:Drivers/STM32F1xx_HAL_Driver/Src/stm32f1xx_ll_usb.c **** 
1141:Drivers/STM32F1xx_HAL_Driver/Src/stm32f1xx_ll_usb.c ****   hprt0 = USBx_HPRT0;
1142:Drivers/STM32F1xx_HAL_Driver/Src/stm32f1xx_ll_usb.c ****   return ((hprt0 & USB_OTG_HPRT_PSPD) >> 17);
1143:Drivers/STM32F1xx_HAL_Driver/Src/stm32f1xx_ll_usb.c **** }
1144:Drivers/STM32F1xx_HAL_Driver/Src/stm32f1xx_ll_usb.c **** 
1145:Drivers/STM32F1xx_HAL_Driver/Src/stm32f1xx_ll_usb.c **** /**
1146:Drivers/STM32F1xx_HAL_Driver/Src/stm32f1xx_ll_usb.c ****   * @brief  Return Host Current Frame number
1147:Drivers/STM32F1xx_HAL_Driver/Src/stm32f1xx_ll_usb.c ****   * @param  USBx : Selected device
1148:Drivers/STM32F1xx_HAL_Driver/Src/stm32f1xx_ll_usb.c ****   * @retval current frame number
1149:Drivers/STM32F1xx_HAL_Driver/Src/stm32f1xx_ll_usb.c **** */
1150:Drivers/STM32F1xx_HAL_Driver/Src/stm32f1xx_ll_usb.c **** uint32_t USB_GetCurrentFrame (USB_OTG_GlobalTypeDef *USBx)
1151:Drivers/STM32F1xx_HAL_Driver/Src/stm32f1xx_ll_usb.c **** {
1152:Drivers/STM32F1xx_HAL_Driver/Src/stm32f1xx_ll_usb.c ****   /* Prevent unused argument(s) compilation warning */
1153:Drivers/STM32F1xx_HAL_Driver/Src/stm32f1xx_ll_usb.c ****   UNUSED(USBx);
1154:Drivers/STM32F1xx_HAL_Driver/Src/stm32f1xx_ll_usb.c **** 
1155:Drivers/STM32F1xx_HAL_Driver/Src/stm32f1xx_ll_usb.c ****   return (USBx_HOST->HFNUM & USB_OTG_HFNUM_FRNUM);
1156:Drivers/STM32F1xx_HAL_Driver/Src/stm32f1xx_ll_usb.c **** }
1157:Drivers/STM32F1xx_HAL_Driver/Src/stm32f1xx_ll_usb.c **** 
1158:Drivers/STM32F1xx_HAL_Driver/Src/stm32f1xx_ll_usb.c **** /**
1159:Drivers/STM32F1xx_HAL_Driver/Src/stm32f1xx_ll_usb.c ****   * @brief  Initialize a host channel
1160:Drivers/STM32F1xx_HAL_Driver/Src/stm32f1xx_ll_usb.c ****   * @param  USBx : Selected device
1161:Drivers/STM32F1xx_HAL_Driver/Src/stm32f1xx_ll_usb.c ****   * @param  ch_num : Channel number
1162:Drivers/STM32F1xx_HAL_Driver/Src/stm32f1xx_ll_usb.c ****   *         This parameter can be a value from 1 to 15
1163:Drivers/STM32F1xx_HAL_Driver/Src/stm32f1xx_ll_usb.c ****   * @param  epnum : Endpoint number
1164:Drivers/STM32F1xx_HAL_Driver/Src/stm32f1xx_ll_usb.c ****   *          This parameter can be a value from 1 to 15
1165:Drivers/STM32F1xx_HAL_Driver/Src/stm32f1xx_ll_usb.c ****   * @param  dev_address : Current device address
1166:Drivers/STM32F1xx_HAL_Driver/Src/stm32f1xx_ll_usb.c ****   *          This parameter can be a value from 0 to 255
1167:Drivers/STM32F1xx_HAL_Driver/Src/stm32f1xx_ll_usb.c ****   * @param  speed : Current device speed
1168:Drivers/STM32F1xx_HAL_Driver/Src/stm32f1xx_ll_usb.c ****   *          This parameter can be one of the these values:
1169:Drivers/STM32F1xx_HAL_Driver/Src/stm32f1xx_ll_usb.c ****   *            @arg USB_OTG_SPEED_FULL: Full speed mode
1170:Drivers/STM32F1xx_HAL_Driver/Src/stm32f1xx_ll_usb.c ****   *            @arg USB_OTG_SPEED_LOW: Low speed mode
1171:Drivers/STM32F1xx_HAL_Driver/Src/stm32f1xx_ll_usb.c ****   * @param  ep_type : Endpoint Type
ARM GAS  /var/folders/rf/wfq6hz5s56g3yh4wqgd7820c0000gn/T//ccZ1SRBq.s 			page 22


1172:Drivers/STM32F1xx_HAL_Driver/Src/stm32f1xx_ll_usb.c ****   *          This parameter can be one of the these values:
1173:Drivers/STM32F1xx_HAL_Driver/Src/stm32f1xx_ll_usb.c ****   *            @arg EP_TYPE_CTRL: Control type
1174:Drivers/STM32F1xx_HAL_Driver/Src/stm32f1xx_ll_usb.c ****   *            @arg EP_TYPE_ISOC: Isochronous type
1175:Drivers/STM32F1xx_HAL_Driver/Src/stm32f1xx_ll_usb.c ****   *            @arg EP_TYPE_BULK: Bulk type
1176:Drivers/STM32F1xx_HAL_Driver/Src/stm32f1xx_ll_usb.c ****   *            @arg EP_TYPE_INTR: Interrupt type
1177:Drivers/STM32F1xx_HAL_Driver/Src/stm32f1xx_ll_usb.c ****   * @param  mps : Max Packet Size
1178:Drivers/STM32F1xx_HAL_Driver/Src/stm32f1xx_ll_usb.c ****   *          This parameter can be a value from 0 to32K
1179:Drivers/STM32F1xx_HAL_Driver/Src/stm32f1xx_ll_usb.c ****   * @retval HAL state
1180:Drivers/STM32F1xx_HAL_Driver/Src/stm32f1xx_ll_usb.c ****   */
1181:Drivers/STM32F1xx_HAL_Driver/Src/stm32f1xx_ll_usb.c **** HAL_StatusTypeDef USB_HC_Init(USB_OTG_GlobalTypeDef *USBx,  
1182:Drivers/STM32F1xx_HAL_Driver/Src/stm32f1xx_ll_usb.c ****                               uint8_t ch_num,
1183:Drivers/STM32F1xx_HAL_Driver/Src/stm32f1xx_ll_usb.c ****                               uint8_t epnum,
1184:Drivers/STM32F1xx_HAL_Driver/Src/stm32f1xx_ll_usb.c ****                               uint8_t dev_address,
1185:Drivers/STM32F1xx_HAL_Driver/Src/stm32f1xx_ll_usb.c ****                               uint8_t speed,
1186:Drivers/STM32F1xx_HAL_Driver/Src/stm32f1xx_ll_usb.c ****                               uint8_t ep_type,
1187:Drivers/STM32F1xx_HAL_Driver/Src/stm32f1xx_ll_usb.c ****                               uint16_t mps)
1188:Drivers/STM32F1xx_HAL_Driver/Src/stm32f1xx_ll_usb.c **** {
1189:Drivers/STM32F1xx_HAL_Driver/Src/stm32f1xx_ll_usb.c ****   /* Clear old interrupt conditions for this host channel. */
1190:Drivers/STM32F1xx_HAL_Driver/Src/stm32f1xx_ll_usb.c ****   USBx_HC(ch_num)->HCINT = 0xFFFFFFFF;
1191:Drivers/STM32F1xx_HAL_Driver/Src/stm32f1xx_ll_usb.c ****   
1192:Drivers/STM32F1xx_HAL_Driver/Src/stm32f1xx_ll_usb.c ****   /* Enable channel interrupts required for this transfer. */
1193:Drivers/STM32F1xx_HAL_Driver/Src/stm32f1xx_ll_usb.c ****   switch (ep_type) 
1194:Drivers/STM32F1xx_HAL_Driver/Src/stm32f1xx_ll_usb.c ****   {
1195:Drivers/STM32F1xx_HAL_Driver/Src/stm32f1xx_ll_usb.c ****   case EP_TYPE_CTRL:
1196:Drivers/STM32F1xx_HAL_Driver/Src/stm32f1xx_ll_usb.c ****   case EP_TYPE_BULK:
1197:Drivers/STM32F1xx_HAL_Driver/Src/stm32f1xx_ll_usb.c ****     USBx_HC(ch_num)->HCINTMSK = USB_OTG_HCINTMSK_XFRCM  |\
1198:Drivers/STM32F1xx_HAL_Driver/Src/stm32f1xx_ll_usb.c ****                                 USB_OTG_HCINTMSK_STALLM |\
1199:Drivers/STM32F1xx_HAL_Driver/Src/stm32f1xx_ll_usb.c ****                                 USB_OTG_HCINTMSK_TXERRM |\
1200:Drivers/STM32F1xx_HAL_Driver/Src/stm32f1xx_ll_usb.c ****                                 USB_OTG_HCINTMSK_DTERRM |\
1201:Drivers/STM32F1xx_HAL_Driver/Src/stm32f1xx_ll_usb.c ****                                 USB_OTG_HCINTMSK_AHBERR |\
1202:Drivers/STM32F1xx_HAL_Driver/Src/stm32f1xx_ll_usb.c ****                                 USB_OTG_HCINTMSK_NAKM ;
1203:Drivers/STM32F1xx_HAL_Driver/Src/stm32f1xx_ll_usb.c ****   
1204:Drivers/STM32F1xx_HAL_Driver/Src/stm32f1xx_ll_usb.c ****     if (epnum & 0x80) 
1205:Drivers/STM32F1xx_HAL_Driver/Src/stm32f1xx_ll_usb.c ****     {
1206:Drivers/STM32F1xx_HAL_Driver/Src/stm32f1xx_ll_usb.c ****       USBx_HC(ch_num)->HCINTMSK |= USB_OTG_HCINTMSK_BBERRM;
1207:Drivers/STM32F1xx_HAL_Driver/Src/stm32f1xx_ll_usb.c ****     }
1208:Drivers/STM32F1xx_HAL_Driver/Src/stm32f1xx_ll_usb.c ****     break;
1209:Drivers/STM32F1xx_HAL_Driver/Src/stm32f1xx_ll_usb.c ****   
1210:Drivers/STM32F1xx_HAL_Driver/Src/stm32f1xx_ll_usb.c ****   case EP_TYPE_INTR:
1211:Drivers/STM32F1xx_HAL_Driver/Src/stm32f1xx_ll_usb.c ****     USBx_HC(ch_num)->HCINTMSK = USB_OTG_HCINTMSK_XFRCM  |\
1212:Drivers/STM32F1xx_HAL_Driver/Src/stm32f1xx_ll_usb.c ****                                 USB_OTG_HCINTMSK_STALLM |\
1213:Drivers/STM32F1xx_HAL_Driver/Src/stm32f1xx_ll_usb.c ****                                 USB_OTG_HCINTMSK_TXERRM |\
1214:Drivers/STM32F1xx_HAL_Driver/Src/stm32f1xx_ll_usb.c ****                                 USB_OTG_HCINTMSK_DTERRM |\
1215:Drivers/STM32F1xx_HAL_Driver/Src/stm32f1xx_ll_usb.c ****                                 USB_OTG_HCINTMSK_NAKM   |\
1216:Drivers/STM32F1xx_HAL_Driver/Src/stm32f1xx_ll_usb.c ****                                 USB_OTG_HCINTMSK_AHBERR |\
1217:Drivers/STM32F1xx_HAL_Driver/Src/stm32f1xx_ll_usb.c ****                                 USB_OTG_HCINTMSK_FRMORM ;
1218:Drivers/STM32F1xx_HAL_Driver/Src/stm32f1xx_ll_usb.c ****     
1219:Drivers/STM32F1xx_HAL_Driver/Src/stm32f1xx_ll_usb.c ****     if (epnum & 0x80) 
1220:Drivers/STM32F1xx_HAL_Driver/Src/stm32f1xx_ll_usb.c ****     {
1221:Drivers/STM32F1xx_HAL_Driver/Src/stm32f1xx_ll_usb.c ****       USBx_HC(ch_num)->HCINTMSK |= USB_OTG_HCINTMSK_BBERRM;
1222:Drivers/STM32F1xx_HAL_Driver/Src/stm32f1xx_ll_usb.c ****     }
1223:Drivers/STM32F1xx_HAL_Driver/Src/stm32f1xx_ll_usb.c ****     
1224:Drivers/STM32F1xx_HAL_Driver/Src/stm32f1xx_ll_usb.c ****     break;
1225:Drivers/STM32F1xx_HAL_Driver/Src/stm32f1xx_ll_usb.c ****   
1226:Drivers/STM32F1xx_HAL_Driver/Src/stm32f1xx_ll_usb.c ****   case EP_TYPE_ISOC:
1227:Drivers/STM32F1xx_HAL_Driver/Src/stm32f1xx_ll_usb.c ****     USBx_HC(ch_num)->HCINTMSK = USB_OTG_HCINTMSK_XFRCM  |\
1228:Drivers/STM32F1xx_HAL_Driver/Src/stm32f1xx_ll_usb.c ****                                 USB_OTG_HCINTMSK_ACKM   |\
ARM GAS  /var/folders/rf/wfq6hz5s56g3yh4wqgd7820c0000gn/T//ccZ1SRBq.s 			page 23


1229:Drivers/STM32F1xx_HAL_Driver/Src/stm32f1xx_ll_usb.c ****                                 USB_OTG_HCINTMSK_AHBERR |\
1230:Drivers/STM32F1xx_HAL_Driver/Src/stm32f1xx_ll_usb.c ****                                 USB_OTG_HCINTMSK_FRMORM ;
1231:Drivers/STM32F1xx_HAL_Driver/Src/stm32f1xx_ll_usb.c ****     
1232:Drivers/STM32F1xx_HAL_Driver/Src/stm32f1xx_ll_usb.c ****     if (epnum & 0x80) 
1233:Drivers/STM32F1xx_HAL_Driver/Src/stm32f1xx_ll_usb.c ****     {
1234:Drivers/STM32F1xx_HAL_Driver/Src/stm32f1xx_ll_usb.c ****       USBx_HC(ch_num)->HCINTMSK |= (USB_OTG_HCINTMSK_TXERRM | USB_OTG_HCINTMSK_BBERRM);
1235:Drivers/STM32F1xx_HAL_Driver/Src/stm32f1xx_ll_usb.c ****     }
1236:Drivers/STM32F1xx_HAL_Driver/Src/stm32f1xx_ll_usb.c ****     break;
1237:Drivers/STM32F1xx_HAL_Driver/Src/stm32f1xx_ll_usb.c ****   }
1238:Drivers/STM32F1xx_HAL_Driver/Src/stm32f1xx_ll_usb.c ****   
1239:Drivers/STM32F1xx_HAL_Driver/Src/stm32f1xx_ll_usb.c ****   /* Enable the top level host channel interrupt. */
1240:Drivers/STM32F1xx_HAL_Driver/Src/stm32f1xx_ll_usb.c ****   USBx_HOST->HAINTMSK |= (1 << ch_num);
1241:Drivers/STM32F1xx_HAL_Driver/Src/stm32f1xx_ll_usb.c ****   
1242:Drivers/STM32F1xx_HAL_Driver/Src/stm32f1xx_ll_usb.c ****   /* Make sure host channel interrupts are enabled. */
1243:Drivers/STM32F1xx_HAL_Driver/Src/stm32f1xx_ll_usb.c ****   USBx->GINTMSK |= USB_OTG_GINTMSK_HCIM;
1244:Drivers/STM32F1xx_HAL_Driver/Src/stm32f1xx_ll_usb.c ****   
1245:Drivers/STM32F1xx_HAL_Driver/Src/stm32f1xx_ll_usb.c ****   /* Program the HCCHAR register */
1246:Drivers/STM32F1xx_HAL_Driver/Src/stm32f1xx_ll_usb.c ****   USBx_HC(ch_num)->HCCHAR = (((dev_address << 22) & USB_OTG_HCCHAR_DAD)  |\
1247:Drivers/STM32F1xx_HAL_Driver/Src/stm32f1xx_ll_usb.c ****                              (((epnum & 0x7F)<< 11) & USB_OTG_HCCHAR_EPNUM)|\
1248:Drivers/STM32F1xx_HAL_Driver/Src/stm32f1xx_ll_usb.c ****                              ((((epnum & 0x80) == 0x80)<< 15) & USB_OTG_HCCHAR_EPDIR)|\
1249:Drivers/STM32F1xx_HAL_Driver/Src/stm32f1xx_ll_usb.c ****                              (((speed == HPRT0_PRTSPD_LOW_SPEED)<< 17) & USB_OTG_HCCHAR_LSDEV)|\
1250:Drivers/STM32F1xx_HAL_Driver/Src/stm32f1xx_ll_usb.c ****                              ((ep_type << 18) & USB_OTG_HCCHAR_EPTYP)|\
1251:Drivers/STM32F1xx_HAL_Driver/Src/stm32f1xx_ll_usb.c ****                              (mps & USB_OTG_HCCHAR_MPSIZ));
1252:Drivers/STM32F1xx_HAL_Driver/Src/stm32f1xx_ll_usb.c ****   
1253:Drivers/STM32F1xx_HAL_Driver/Src/stm32f1xx_ll_usb.c ****   if (ep_type == EP_TYPE_INTR)
1254:Drivers/STM32F1xx_HAL_Driver/Src/stm32f1xx_ll_usb.c ****   {
1255:Drivers/STM32F1xx_HAL_Driver/Src/stm32f1xx_ll_usb.c ****     USBx_HC(ch_num)->HCCHAR |= USB_OTG_HCCHAR_ODDFRM ;
1256:Drivers/STM32F1xx_HAL_Driver/Src/stm32f1xx_ll_usb.c ****   }
1257:Drivers/STM32F1xx_HAL_Driver/Src/stm32f1xx_ll_usb.c ****   
1258:Drivers/STM32F1xx_HAL_Driver/Src/stm32f1xx_ll_usb.c ****   return HAL_OK;
1259:Drivers/STM32F1xx_HAL_Driver/Src/stm32f1xx_ll_usb.c **** }
1260:Drivers/STM32F1xx_HAL_Driver/Src/stm32f1xx_ll_usb.c **** 
1261:Drivers/STM32F1xx_HAL_Driver/Src/stm32f1xx_ll_usb.c **** /**
1262:Drivers/STM32F1xx_HAL_Driver/Src/stm32f1xx_ll_usb.c ****   * @brief  Start a transfer over a host channel
1263:Drivers/STM32F1xx_HAL_Driver/Src/stm32f1xx_ll_usb.c ****   * @param  USBx : Selected device
1264:Drivers/STM32F1xx_HAL_Driver/Src/stm32f1xx_ll_usb.c ****   * @param  hc : pointer to host channel structure
1265:Drivers/STM32F1xx_HAL_Driver/Src/stm32f1xx_ll_usb.c ****   * @retval HAL state
1266:Drivers/STM32F1xx_HAL_Driver/Src/stm32f1xx_ll_usb.c ****   */
1267:Drivers/STM32F1xx_HAL_Driver/Src/stm32f1xx_ll_usb.c **** #if defined   (__CC_ARM) /*!< ARM Compiler */
1268:Drivers/STM32F1xx_HAL_Driver/Src/stm32f1xx_ll_usb.c **** #pragma O0
1269:Drivers/STM32F1xx_HAL_Driver/Src/stm32f1xx_ll_usb.c **** #elif defined (__GNUC__) /*!< GNU Compiler */
1270:Drivers/STM32F1xx_HAL_Driver/Src/stm32f1xx_ll_usb.c **** #pragma GCC optimize ("O0")
1271:Drivers/STM32F1xx_HAL_Driver/Src/stm32f1xx_ll_usb.c **** #endif /* __CC_ARM */
1272:Drivers/STM32F1xx_HAL_Driver/Src/stm32f1xx_ll_usb.c **** HAL_StatusTypeDef USB_HC_StartXfer(USB_OTG_GlobalTypeDef *USBx, USB_OTG_HCTypeDef *hc)
1273:Drivers/STM32F1xx_HAL_Driver/Src/stm32f1xx_ll_usb.c **** {
1274:Drivers/STM32F1xx_HAL_Driver/Src/stm32f1xx_ll_usb.c ****   uint8_t  is_oddframe = 0;
1275:Drivers/STM32F1xx_HAL_Driver/Src/stm32f1xx_ll_usb.c ****   uint16_t len_words = 0;
1276:Drivers/STM32F1xx_HAL_Driver/Src/stm32f1xx_ll_usb.c ****   uint16_t num_packets = 0;
1277:Drivers/STM32F1xx_HAL_Driver/Src/stm32f1xx_ll_usb.c ****   uint16_t max_hc_pkt_count = 256;
1278:Drivers/STM32F1xx_HAL_Driver/Src/stm32f1xx_ll_usb.c ****   uint32_t tmpreg = 0;
1279:Drivers/STM32F1xx_HAL_Driver/Src/stm32f1xx_ll_usb.c ****   
1280:Drivers/STM32F1xx_HAL_Driver/Src/stm32f1xx_ll_usb.c ****   /* Compute the expected number of packets associated to the transfer */
1281:Drivers/STM32F1xx_HAL_Driver/Src/stm32f1xx_ll_usb.c ****   if (hc->xfer_len > 0)
1282:Drivers/STM32F1xx_HAL_Driver/Src/stm32f1xx_ll_usb.c ****   {
1283:Drivers/STM32F1xx_HAL_Driver/Src/stm32f1xx_ll_usb.c ****     num_packets = (hc->xfer_len + hc->max_packet - 1) / hc->max_packet;
1284:Drivers/STM32F1xx_HAL_Driver/Src/stm32f1xx_ll_usb.c ****     
1285:Drivers/STM32F1xx_HAL_Driver/Src/stm32f1xx_ll_usb.c ****     if (num_packets > max_hc_pkt_count)
ARM GAS  /var/folders/rf/wfq6hz5s56g3yh4wqgd7820c0000gn/T//ccZ1SRBq.s 			page 24


1286:Drivers/STM32F1xx_HAL_Driver/Src/stm32f1xx_ll_usb.c ****     {
1287:Drivers/STM32F1xx_HAL_Driver/Src/stm32f1xx_ll_usb.c ****       num_packets = max_hc_pkt_count;
1288:Drivers/STM32F1xx_HAL_Driver/Src/stm32f1xx_ll_usb.c ****       hc->xfer_len = num_packets * hc->max_packet;
1289:Drivers/STM32F1xx_HAL_Driver/Src/stm32f1xx_ll_usb.c ****     }
1290:Drivers/STM32F1xx_HAL_Driver/Src/stm32f1xx_ll_usb.c ****   }
1291:Drivers/STM32F1xx_HAL_Driver/Src/stm32f1xx_ll_usb.c ****   else
1292:Drivers/STM32F1xx_HAL_Driver/Src/stm32f1xx_ll_usb.c ****   {
1293:Drivers/STM32F1xx_HAL_Driver/Src/stm32f1xx_ll_usb.c ****     num_packets = 1;
1294:Drivers/STM32F1xx_HAL_Driver/Src/stm32f1xx_ll_usb.c ****   }
1295:Drivers/STM32F1xx_HAL_Driver/Src/stm32f1xx_ll_usb.c ****   if (hc->ep_is_in)
1296:Drivers/STM32F1xx_HAL_Driver/Src/stm32f1xx_ll_usb.c ****   {
1297:Drivers/STM32F1xx_HAL_Driver/Src/stm32f1xx_ll_usb.c ****     hc->xfer_len = num_packets * hc->max_packet;
1298:Drivers/STM32F1xx_HAL_Driver/Src/stm32f1xx_ll_usb.c ****   }
1299:Drivers/STM32F1xx_HAL_Driver/Src/stm32f1xx_ll_usb.c ****   
1300:Drivers/STM32F1xx_HAL_Driver/Src/stm32f1xx_ll_usb.c ****   /* Initialize the HCTSIZn register */
1301:Drivers/STM32F1xx_HAL_Driver/Src/stm32f1xx_ll_usb.c ****   USBx_HC(hc->ch_num)->HCTSIZ = (((hc->xfer_len) & USB_OTG_HCTSIZ_XFRSIZ)) |\
1302:Drivers/STM32F1xx_HAL_Driver/Src/stm32f1xx_ll_usb.c ****     ((num_packets << 19) & USB_OTG_HCTSIZ_PKTCNT) |\
1303:Drivers/STM32F1xx_HAL_Driver/Src/stm32f1xx_ll_usb.c ****       (((hc->data_pid) << 29) & USB_OTG_HCTSIZ_DPID);
1304:Drivers/STM32F1xx_HAL_Driver/Src/stm32f1xx_ll_usb.c ****   
1305:Drivers/STM32F1xx_HAL_Driver/Src/stm32f1xx_ll_usb.c ****   is_oddframe = (USBx_HOST->HFNUM & 0x01) ? 0 : 1;
1306:Drivers/STM32F1xx_HAL_Driver/Src/stm32f1xx_ll_usb.c ****   USBx_HC(hc->ch_num)->HCCHAR &= ~USB_OTG_HCCHAR_ODDFRM;
1307:Drivers/STM32F1xx_HAL_Driver/Src/stm32f1xx_ll_usb.c ****   USBx_HC(hc->ch_num)->HCCHAR |= (is_oddframe << 29);
1308:Drivers/STM32F1xx_HAL_Driver/Src/stm32f1xx_ll_usb.c ****   
1309:Drivers/STM32F1xx_HAL_Driver/Src/stm32f1xx_ll_usb.c ****   /* Set host channel enable */
1310:Drivers/STM32F1xx_HAL_Driver/Src/stm32f1xx_ll_usb.c ****   tmpreg = USBx_HC(hc->ch_num)->HCCHAR;
1311:Drivers/STM32F1xx_HAL_Driver/Src/stm32f1xx_ll_usb.c ****   tmpreg &= ~USB_OTG_HCCHAR_CHDIS;
1312:Drivers/STM32F1xx_HAL_Driver/Src/stm32f1xx_ll_usb.c ****   tmpreg |= USB_OTG_HCCHAR_CHENA;
1313:Drivers/STM32F1xx_HAL_Driver/Src/stm32f1xx_ll_usb.c ****   USBx_HC(hc->ch_num)->HCCHAR = tmpreg;
1314:Drivers/STM32F1xx_HAL_Driver/Src/stm32f1xx_ll_usb.c ****   
1315:Drivers/STM32F1xx_HAL_Driver/Src/stm32f1xx_ll_usb.c ****   if((hc->ep_is_in == 0) && (hc->xfer_len > 0))
1316:Drivers/STM32F1xx_HAL_Driver/Src/stm32f1xx_ll_usb.c ****   {
1317:Drivers/STM32F1xx_HAL_Driver/Src/stm32f1xx_ll_usb.c ****     switch(hc->ep_type) 
1318:Drivers/STM32F1xx_HAL_Driver/Src/stm32f1xx_ll_usb.c ****     {
1319:Drivers/STM32F1xx_HAL_Driver/Src/stm32f1xx_ll_usb.c ****       /* Non periodic transfer */
1320:Drivers/STM32F1xx_HAL_Driver/Src/stm32f1xx_ll_usb.c ****     case EP_TYPE_CTRL:
1321:Drivers/STM32F1xx_HAL_Driver/Src/stm32f1xx_ll_usb.c ****     case EP_TYPE_BULK:
1322:Drivers/STM32F1xx_HAL_Driver/Src/stm32f1xx_ll_usb.c ****       len_words = (hc->xfer_len + 3) / 4;
1323:Drivers/STM32F1xx_HAL_Driver/Src/stm32f1xx_ll_usb.c ****       
1324:Drivers/STM32F1xx_HAL_Driver/Src/stm32f1xx_ll_usb.c ****       /* check if there is enough space in FIFO space */
1325:Drivers/STM32F1xx_HAL_Driver/Src/stm32f1xx_ll_usb.c ****       if(len_words > (USBx->HNPTXSTS & 0xFFFF))
1326:Drivers/STM32F1xx_HAL_Driver/Src/stm32f1xx_ll_usb.c ****       {
1327:Drivers/STM32F1xx_HAL_Driver/Src/stm32f1xx_ll_usb.c ****         /* need to process data in nptxfempty interrupt */
1328:Drivers/STM32F1xx_HAL_Driver/Src/stm32f1xx_ll_usb.c ****         USBx->GINTMSK |= USB_OTG_GINTMSK_NPTXFEM;
1329:Drivers/STM32F1xx_HAL_Driver/Src/stm32f1xx_ll_usb.c ****       }
1330:Drivers/STM32F1xx_HAL_Driver/Src/stm32f1xx_ll_usb.c ****       break;
1331:Drivers/STM32F1xx_HAL_Driver/Src/stm32f1xx_ll_usb.c ****       
1332:Drivers/STM32F1xx_HAL_Driver/Src/stm32f1xx_ll_usb.c ****       /* Periodic transfer */
1333:Drivers/STM32F1xx_HAL_Driver/Src/stm32f1xx_ll_usb.c ****     case EP_TYPE_INTR:
1334:Drivers/STM32F1xx_HAL_Driver/Src/stm32f1xx_ll_usb.c ****     case EP_TYPE_ISOC:
1335:Drivers/STM32F1xx_HAL_Driver/Src/stm32f1xx_ll_usb.c ****       len_words = (hc->xfer_len + 3) / 4;
1336:Drivers/STM32F1xx_HAL_Driver/Src/stm32f1xx_ll_usb.c ****       /* check if there is enough space in FIFO space */
1337:Drivers/STM32F1xx_HAL_Driver/Src/stm32f1xx_ll_usb.c ****       if(len_words > (USBx_HOST->HPTXSTS & 0xFFFF)) /* split the transfer */
1338:Drivers/STM32F1xx_HAL_Driver/Src/stm32f1xx_ll_usb.c ****       {
1339:Drivers/STM32F1xx_HAL_Driver/Src/stm32f1xx_ll_usb.c ****         /* need to process data in ptxfempty interrupt */
1340:Drivers/STM32F1xx_HAL_Driver/Src/stm32f1xx_ll_usb.c ****         USBx->GINTMSK |= USB_OTG_GINTMSK_PTXFEM;          
1341:Drivers/STM32F1xx_HAL_Driver/Src/stm32f1xx_ll_usb.c ****       }
1342:Drivers/STM32F1xx_HAL_Driver/Src/stm32f1xx_ll_usb.c ****       break;
ARM GAS  /var/folders/rf/wfq6hz5s56g3yh4wqgd7820c0000gn/T//ccZ1SRBq.s 			page 25


1343:Drivers/STM32F1xx_HAL_Driver/Src/stm32f1xx_ll_usb.c ****       
1344:Drivers/STM32F1xx_HAL_Driver/Src/stm32f1xx_ll_usb.c ****     default:
1345:Drivers/STM32F1xx_HAL_Driver/Src/stm32f1xx_ll_usb.c ****       break;
1346:Drivers/STM32F1xx_HAL_Driver/Src/stm32f1xx_ll_usb.c ****     }
1347:Drivers/STM32F1xx_HAL_Driver/Src/stm32f1xx_ll_usb.c ****     
1348:Drivers/STM32F1xx_HAL_Driver/Src/stm32f1xx_ll_usb.c ****     /* Write packet into the Tx FIFO. */
1349:Drivers/STM32F1xx_HAL_Driver/Src/stm32f1xx_ll_usb.c ****     USB_WritePacket(USBx, hc->xfer_buff, hc->ch_num, hc->xfer_len);
1350:Drivers/STM32F1xx_HAL_Driver/Src/stm32f1xx_ll_usb.c ****   }
1351:Drivers/STM32F1xx_HAL_Driver/Src/stm32f1xx_ll_usb.c ****   
1352:Drivers/STM32F1xx_HAL_Driver/Src/stm32f1xx_ll_usb.c ****   return HAL_OK;
1353:Drivers/STM32F1xx_HAL_Driver/Src/stm32f1xx_ll_usb.c **** }
1354:Drivers/STM32F1xx_HAL_Driver/Src/stm32f1xx_ll_usb.c **** 
1355:Drivers/STM32F1xx_HAL_Driver/Src/stm32f1xx_ll_usb.c **** /**
1356:Drivers/STM32F1xx_HAL_Driver/Src/stm32f1xx_ll_usb.c ****   * @brief Read all host channel interrupts status
1357:Drivers/STM32F1xx_HAL_Driver/Src/stm32f1xx_ll_usb.c ****   * @param  USBx : Selected device
1358:Drivers/STM32F1xx_HAL_Driver/Src/stm32f1xx_ll_usb.c ****   * @retval HAL state
1359:Drivers/STM32F1xx_HAL_Driver/Src/stm32f1xx_ll_usb.c ****   */
1360:Drivers/STM32F1xx_HAL_Driver/Src/stm32f1xx_ll_usb.c **** uint32_t USB_HC_ReadInterrupt (USB_OTG_GlobalTypeDef *USBx)
1361:Drivers/STM32F1xx_HAL_Driver/Src/stm32f1xx_ll_usb.c **** {
1362:Drivers/STM32F1xx_HAL_Driver/Src/stm32f1xx_ll_usb.c ****   /* Prevent unused argument(s) compilation warning */
1363:Drivers/STM32F1xx_HAL_Driver/Src/stm32f1xx_ll_usb.c ****   UNUSED(USBx);
1364:Drivers/STM32F1xx_HAL_Driver/Src/stm32f1xx_ll_usb.c **** 
1365:Drivers/STM32F1xx_HAL_Driver/Src/stm32f1xx_ll_usb.c ****   return ((USBx_HOST->HAINT) & 0xFFFF);
1366:Drivers/STM32F1xx_HAL_Driver/Src/stm32f1xx_ll_usb.c **** }
1367:Drivers/STM32F1xx_HAL_Driver/Src/stm32f1xx_ll_usb.c **** 
1368:Drivers/STM32F1xx_HAL_Driver/Src/stm32f1xx_ll_usb.c **** /**
1369:Drivers/STM32F1xx_HAL_Driver/Src/stm32f1xx_ll_usb.c ****   * @brief  Halt a host channel
1370:Drivers/STM32F1xx_HAL_Driver/Src/stm32f1xx_ll_usb.c ****   * @param  USBx : Selected device
1371:Drivers/STM32F1xx_HAL_Driver/Src/stm32f1xx_ll_usb.c ****   * @param  hc_num : Host Channel number
1372:Drivers/STM32F1xx_HAL_Driver/Src/stm32f1xx_ll_usb.c ****   *         This parameter can be a value from 1 to 15
1373:Drivers/STM32F1xx_HAL_Driver/Src/stm32f1xx_ll_usb.c ****   * @retval HAL state
1374:Drivers/STM32F1xx_HAL_Driver/Src/stm32f1xx_ll_usb.c ****   */
1375:Drivers/STM32F1xx_HAL_Driver/Src/stm32f1xx_ll_usb.c **** HAL_StatusTypeDef USB_HC_Halt(USB_OTG_GlobalTypeDef *USBx , uint8_t hc_num)
1376:Drivers/STM32F1xx_HAL_Driver/Src/stm32f1xx_ll_usb.c **** {
1377:Drivers/STM32F1xx_HAL_Driver/Src/stm32f1xx_ll_usb.c ****   uint32_t count = 0;
1378:Drivers/STM32F1xx_HAL_Driver/Src/stm32f1xx_ll_usb.c ****   /* Prevent unused argument(s) compilation warning */
1379:Drivers/STM32F1xx_HAL_Driver/Src/stm32f1xx_ll_usb.c ****   UNUSED(USBx);
1380:Drivers/STM32F1xx_HAL_Driver/Src/stm32f1xx_ll_usb.c **** 
1381:Drivers/STM32F1xx_HAL_Driver/Src/stm32f1xx_ll_usb.c ****   /* Check for space in the request queue to issue the halt. */
1382:Drivers/STM32F1xx_HAL_Driver/Src/stm32f1xx_ll_usb.c ****   if (((((USBx_HC(hc_num)->HCCHAR) & USB_OTG_HCCHAR_EPTYP) >> 18) == HCCHAR_CTRL) ||
1383:Drivers/STM32F1xx_HAL_Driver/Src/stm32f1xx_ll_usb.c ****      (((((USBx_HC(hc_num)->HCCHAR) & USB_OTG_HCCHAR_EPTYP) >> 18) == HCCHAR_BULK)))
1384:Drivers/STM32F1xx_HAL_Driver/Src/stm32f1xx_ll_usb.c ****   {
1385:Drivers/STM32F1xx_HAL_Driver/Src/stm32f1xx_ll_usb.c ****     USBx_HC(hc_num)->HCCHAR |= USB_OTG_HCCHAR_CHDIS;
1386:Drivers/STM32F1xx_HAL_Driver/Src/stm32f1xx_ll_usb.c ****     
1387:Drivers/STM32F1xx_HAL_Driver/Src/stm32f1xx_ll_usb.c ****     if ((USBx->HNPTXSTS & 0xFFFF) == 0)
1388:Drivers/STM32F1xx_HAL_Driver/Src/stm32f1xx_ll_usb.c ****     {
1389:Drivers/STM32F1xx_HAL_Driver/Src/stm32f1xx_ll_usb.c ****       USBx_HC(hc_num)->HCCHAR &= ~USB_OTG_HCCHAR_CHENA;
1390:Drivers/STM32F1xx_HAL_Driver/Src/stm32f1xx_ll_usb.c ****       USBx_HC(hc_num)->HCCHAR |= USB_OTG_HCCHAR_CHENA;
1391:Drivers/STM32F1xx_HAL_Driver/Src/stm32f1xx_ll_usb.c ****       USBx_HC(hc_num)->HCCHAR &= ~USB_OTG_HCCHAR_EPDIR;
1392:Drivers/STM32F1xx_HAL_Driver/Src/stm32f1xx_ll_usb.c ****       do
1393:Drivers/STM32F1xx_HAL_Driver/Src/stm32f1xx_ll_usb.c ****       {
1394:Drivers/STM32F1xx_HAL_Driver/Src/stm32f1xx_ll_usb.c ****         if (++count > 1000)
1395:Drivers/STM32F1xx_HAL_Driver/Src/stm32f1xx_ll_usb.c ****         {
1396:Drivers/STM32F1xx_HAL_Driver/Src/stm32f1xx_ll_usb.c ****           break;
1397:Drivers/STM32F1xx_HAL_Driver/Src/stm32f1xx_ll_usb.c ****         }
1398:Drivers/STM32F1xx_HAL_Driver/Src/stm32f1xx_ll_usb.c ****       } 
1399:Drivers/STM32F1xx_HAL_Driver/Src/stm32f1xx_ll_usb.c ****       while ((USBx_HC(hc_num)->HCCHAR & USB_OTG_HCCHAR_CHENA) == USB_OTG_HCCHAR_CHENA);
ARM GAS  /var/folders/rf/wfq6hz5s56g3yh4wqgd7820c0000gn/T//ccZ1SRBq.s 			page 26


1400:Drivers/STM32F1xx_HAL_Driver/Src/stm32f1xx_ll_usb.c ****     }
1401:Drivers/STM32F1xx_HAL_Driver/Src/stm32f1xx_ll_usb.c ****     else
1402:Drivers/STM32F1xx_HAL_Driver/Src/stm32f1xx_ll_usb.c ****     {
1403:Drivers/STM32F1xx_HAL_Driver/Src/stm32f1xx_ll_usb.c ****       USBx_HC(hc_num)->HCCHAR |= USB_OTG_HCCHAR_CHENA;
1404:Drivers/STM32F1xx_HAL_Driver/Src/stm32f1xx_ll_usb.c ****     }
1405:Drivers/STM32F1xx_HAL_Driver/Src/stm32f1xx_ll_usb.c ****   }
1406:Drivers/STM32F1xx_HAL_Driver/Src/stm32f1xx_ll_usb.c ****   else
1407:Drivers/STM32F1xx_HAL_Driver/Src/stm32f1xx_ll_usb.c ****   {
1408:Drivers/STM32F1xx_HAL_Driver/Src/stm32f1xx_ll_usb.c ****     USBx_HC(hc_num)->HCCHAR |= USB_OTG_HCCHAR_CHDIS;
1409:Drivers/STM32F1xx_HAL_Driver/Src/stm32f1xx_ll_usb.c ****     
1410:Drivers/STM32F1xx_HAL_Driver/Src/stm32f1xx_ll_usb.c ****     if ((USBx_HOST->HPTXSTS & 0xFFFF) == 0)
1411:Drivers/STM32F1xx_HAL_Driver/Src/stm32f1xx_ll_usb.c ****     {
1412:Drivers/STM32F1xx_HAL_Driver/Src/stm32f1xx_ll_usb.c ****       USBx_HC(hc_num)->HCCHAR &= ~USB_OTG_HCCHAR_CHENA;
1413:Drivers/STM32F1xx_HAL_Driver/Src/stm32f1xx_ll_usb.c ****       USBx_HC(hc_num)->HCCHAR |= USB_OTG_HCCHAR_CHENA;
1414:Drivers/STM32F1xx_HAL_Driver/Src/stm32f1xx_ll_usb.c ****       USBx_HC(hc_num)->HCCHAR &= ~USB_OTG_HCCHAR_EPDIR;
1415:Drivers/STM32F1xx_HAL_Driver/Src/stm32f1xx_ll_usb.c ****       do
1416:Drivers/STM32F1xx_HAL_Driver/Src/stm32f1xx_ll_usb.c ****       {
1417:Drivers/STM32F1xx_HAL_Driver/Src/stm32f1xx_ll_usb.c ****         if (++count > 1000)
1418:Drivers/STM32F1xx_HAL_Driver/Src/stm32f1xx_ll_usb.c ****         {
1419:Drivers/STM32F1xx_HAL_Driver/Src/stm32f1xx_ll_usb.c ****           break;
1420:Drivers/STM32F1xx_HAL_Driver/Src/stm32f1xx_ll_usb.c ****         }
1421:Drivers/STM32F1xx_HAL_Driver/Src/stm32f1xx_ll_usb.c ****       } 
1422:Drivers/STM32F1xx_HAL_Driver/Src/stm32f1xx_ll_usb.c ****       while ((USBx_HC(hc_num)->HCCHAR & USB_OTG_HCCHAR_CHENA) == USB_OTG_HCCHAR_CHENA);
1423:Drivers/STM32F1xx_HAL_Driver/Src/stm32f1xx_ll_usb.c ****     }
1424:Drivers/STM32F1xx_HAL_Driver/Src/stm32f1xx_ll_usb.c ****     else
1425:Drivers/STM32F1xx_HAL_Driver/Src/stm32f1xx_ll_usb.c ****     {
1426:Drivers/STM32F1xx_HAL_Driver/Src/stm32f1xx_ll_usb.c ****        USBx_HC(hc_num)->HCCHAR |= USB_OTG_HCCHAR_CHENA; 
1427:Drivers/STM32F1xx_HAL_Driver/Src/stm32f1xx_ll_usb.c ****     }
1428:Drivers/STM32F1xx_HAL_Driver/Src/stm32f1xx_ll_usb.c ****   }
1429:Drivers/STM32F1xx_HAL_Driver/Src/stm32f1xx_ll_usb.c ****   
1430:Drivers/STM32F1xx_HAL_Driver/Src/stm32f1xx_ll_usb.c ****   return HAL_OK;
1431:Drivers/STM32F1xx_HAL_Driver/Src/stm32f1xx_ll_usb.c **** }
1432:Drivers/STM32F1xx_HAL_Driver/Src/stm32f1xx_ll_usb.c **** 
1433:Drivers/STM32F1xx_HAL_Driver/Src/stm32f1xx_ll_usb.c **** /**
1434:Drivers/STM32F1xx_HAL_Driver/Src/stm32f1xx_ll_usb.c ****   * @brief  Initiate Do Ping protocol
1435:Drivers/STM32F1xx_HAL_Driver/Src/stm32f1xx_ll_usb.c ****   * @param  USBx : Selected device
1436:Drivers/STM32F1xx_HAL_Driver/Src/stm32f1xx_ll_usb.c ****   * @param  hc_num : Host Channel number
1437:Drivers/STM32F1xx_HAL_Driver/Src/stm32f1xx_ll_usb.c ****   *         This parameter can be a value from 1 to 15
1438:Drivers/STM32F1xx_HAL_Driver/Src/stm32f1xx_ll_usb.c ****   * @retval HAL state
1439:Drivers/STM32F1xx_HAL_Driver/Src/stm32f1xx_ll_usb.c ****   */
1440:Drivers/STM32F1xx_HAL_Driver/Src/stm32f1xx_ll_usb.c **** HAL_StatusTypeDef USB_DoPing(USB_OTG_GlobalTypeDef *USBx , uint8_t ch_num)
1441:Drivers/STM32F1xx_HAL_Driver/Src/stm32f1xx_ll_usb.c **** {
1442:Drivers/STM32F1xx_HAL_Driver/Src/stm32f1xx_ll_usb.c ****   uint8_t  num_packets = 1;
1443:Drivers/STM32F1xx_HAL_Driver/Src/stm32f1xx_ll_usb.c ****   uint32_t tmpreg = 0;
1444:Drivers/STM32F1xx_HAL_Driver/Src/stm32f1xx_ll_usb.c ****   /* Prevent unused argument(s) compilation warning */
1445:Drivers/STM32F1xx_HAL_Driver/Src/stm32f1xx_ll_usb.c ****   UNUSED(USBx);
1446:Drivers/STM32F1xx_HAL_Driver/Src/stm32f1xx_ll_usb.c **** 
1447:Drivers/STM32F1xx_HAL_Driver/Src/stm32f1xx_ll_usb.c ****   USBx_HC(ch_num)->HCTSIZ = ((num_packets << 19) & USB_OTG_HCTSIZ_PKTCNT) |\
1448:Drivers/STM32F1xx_HAL_Driver/Src/stm32f1xx_ll_usb.c ****                                 USB_OTG_HCTSIZ_DOPING;
1449:Drivers/STM32F1xx_HAL_Driver/Src/stm32f1xx_ll_usb.c ****   
1450:Drivers/STM32F1xx_HAL_Driver/Src/stm32f1xx_ll_usb.c ****   /* Set host channel enable */
1451:Drivers/STM32F1xx_HAL_Driver/Src/stm32f1xx_ll_usb.c ****   tmpreg = USBx_HC(ch_num)->HCCHAR;
1452:Drivers/STM32F1xx_HAL_Driver/Src/stm32f1xx_ll_usb.c ****   tmpreg &= ~USB_OTG_HCCHAR_CHDIS;
1453:Drivers/STM32F1xx_HAL_Driver/Src/stm32f1xx_ll_usb.c ****   tmpreg |= USB_OTG_HCCHAR_CHENA;
1454:Drivers/STM32F1xx_HAL_Driver/Src/stm32f1xx_ll_usb.c ****   USBx_HC(ch_num)->HCCHAR = tmpreg;
1455:Drivers/STM32F1xx_HAL_Driver/Src/stm32f1xx_ll_usb.c ****   
1456:Drivers/STM32F1xx_HAL_Driver/Src/stm32f1xx_ll_usb.c ****   return HAL_OK;  
ARM GAS  /var/folders/rf/wfq6hz5s56g3yh4wqgd7820c0000gn/T//ccZ1SRBq.s 			page 27


1457:Drivers/STM32F1xx_HAL_Driver/Src/stm32f1xx_ll_usb.c **** }
1458:Drivers/STM32F1xx_HAL_Driver/Src/stm32f1xx_ll_usb.c **** 
1459:Drivers/STM32F1xx_HAL_Driver/Src/stm32f1xx_ll_usb.c **** /**
1460:Drivers/STM32F1xx_HAL_Driver/Src/stm32f1xx_ll_usb.c ****   * @brief  Stop Host Core
1461:Drivers/STM32F1xx_HAL_Driver/Src/stm32f1xx_ll_usb.c ****   * @param  USBx : Selected device
1462:Drivers/STM32F1xx_HAL_Driver/Src/stm32f1xx_ll_usb.c ****   * @retval HAL state
1463:Drivers/STM32F1xx_HAL_Driver/Src/stm32f1xx_ll_usb.c ****   */
1464:Drivers/STM32F1xx_HAL_Driver/Src/stm32f1xx_ll_usb.c **** HAL_StatusTypeDef USB_StopHost(USB_OTG_GlobalTypeDef *USBx)
1465:Drivers/STM32F1xx_HAL_Driver/Src/stm32f1xx_ll_usb.c **** {
1466:Drivers/STM32F1xx_HAL_Driver/Src/stm32f1xx_ll_usb.c ****   uint8_t index;
1467:Drivers/STM32F1xx_HAL_Driver/Src/stm32f1xx_ll_usb.c ****   uint32_t count = 0;
1468:Drivers/STM32F1xx_HAL_Driver/Src/stm32f1xx_ll_usb.c ****   uint32_t value = 0;
1469:Drivers/STM32F1xx_HAL_Driver/Src/stm32f1xx_ll_usb.c ****   
1470:Drivers/STM32F1xx_HAL_Driver/Src/stm32f1xx_ll_usb.c ****   USB_DisableGlobalInt(USBx);
1471:Drivers/STM32F1xx_HAL_Driver/Src/stm32f1xx_ll_usb.c ****   
1472:Drivers/STM32F1xx_HAL_Driver/Src/stm32f1xx_ll_usb.c ****     /* Flush FIFO */
1473:Drivers/STM32F1xx_HAL_Driver/Src/stm32f1xx_ll_usb.c ****   USB_FlushTxFifo(USBx, 0x10);
1474:Drivers/STM32F1xx_HAL_Driver/Src/stm32f1xx_ll_usb.c ****   USB_FlushRxFifo(USBx);
1475:Drivers/STM32F1xx_HAL_Driver/Src/stm32f1xx_ll_usb.c ****   
1476:Drivers/STM32F1xx_HAL_Driver/Src/stm32f1xx_ll_usb.c ****   /* Flush out any leftover queued requests. */
1477:Drivers/STM32F1xx_HAL_Driver/Src/stm32f1xx_ll_usb.c ****   for (index = 0; index <= 15; index++)
1478:Drivers/STM32F1xx_HAL_Driver/Src/stm32f1xx_ll_usb.c ****   {
1479:Drivers/STM32F1xx_HAL_Driver/Src/stm32f1xx_ll_usb.c ****     value = USBx_HC(index)->HCCHAR;
1480:Drivers/STM32F1xx_HAL_Driver/Src/stm32f1xx_ll_usb.c ****     value |=  USB_OTG_HCCHAR_CHDIS;
1481:Drivers/STM32F1xx_HAL_Driver/Src/stm32f1xx_ll_usb.c ****     value &= ~USB_OTG_HCCHAR_CHENA;
1482:Drivers/STM32F1xx_HAL_Driver/Src/stm32f1xx_ll_usb.c ****     value &= ~USB_OTG_HCCHAR_EPDIR;
1483:Drivers/STM32F1xx_HAL_Driver/Src/stm32f1xx_ll_usb.c ****     USBx_HC(index)->HCCHAR = value;
1484:Drivers/STM32F1xx_HAL_Driver/Src/stm32f1xx_ll_usb.c ****   }
1485:Drivers/STM32F1xx_HAL_Driver/Src/stm32f1xx_ll_usb.c ****   
1486:Drivers/STM32F1xx_HAL_Driver/Src/stm32f1xx_ll_usb.c ****   /* Halt all channels to put them into a known state. */
1487:Drivers/STM32F1xx_HAL_Driver/Src/stm32f1xx_ll_usb.c ****   for (index = 0; index <= 15; index++)
1488:Drivers/STM32F1xx_HAL_Driver/Src/stm32f1xx_ll_usb.c ****   {
1489:Drivers/STM32F1xx_HAL_Driver/Src/stm32f1xx_ll_usb.c ****     value = USBx_HC(index)->HCCHAR ;
1490:Drivers/STM32F1xx_HAL_Driver/Src/stm32f1xx_ll_usb.c ****     value |= USB_OTG_HCCHAR_CHDIS;
1491:Drivers/STM32F1xx_HAL_Driver/Src/stm32f1xx_ll_usb.c ****     value |= USB_OTG_HCCHAR_CHENA;
1492:Drivers/STM32F1xx_HAL_Driver/Src/stm32f1xx_ll_usb.c ****     value &= ~USB_OTG_HCCHAR_EPDIR;
1493:Drivers/STM32F1xx_HAL_Driver/Src/stm32f1xx_ll_usb.c ****     USBx_HC(index)->HCCHAR = value;
1494:Drivers/STM32F1xx_HAL_Driver/Src/stm32f1xx_ll_usb.c ****     
1495:Drivers/STM32F1xx_HAL_Driver/Src/stm32f1xx_ll_usb.c ****     do
1496:Drivers/STM32F1xx_HAL_Driver/Src/stm32f1xx_ll_usb.c ****     {
1497:Drivers/STM32F1xx_HAL_Driver/Src/stm32f1xx_ll_usb.c ****       if (++count > 1000)
1498:Drivers/STM32F1xx_HAL_Driver/Src/stm32f1xx_ll_usb.c ****       {
1499:Drivers/STM32F1xx_HAL_Driver/Src/stm32f1xx_ll_usb.c ****         break;
1500:Drivers/STM32F1xx_HAL_Driver/Src/stm32f1xx_ll_usb.c ****       }
1501:Drivers/STM32F1xx_HAL_Driver/Src/stm32f1xx_ll_usb.c ****     }
1502:Drivers/STM32F1xx_HAL_Driver/Src/stm32f1xx_ll_usb.c ****     while ((USBx_HC(index)->HCCHAR & USB_OTG_HCCHAR_CHENA) == USB_OTG_HCCHAR_CHENA);
1503:Drivers/STM32F1xx_HAL_Driver/Src/stm32f1xx_ll_usb.c ****   }
1504:Drivers/STM32F1xx_HAL_Driver/Src/stm32f1xx_ll_usb.c ****   
1505:Drivers/STM32F1xx_HAL_Driver/Src/stm32f1xx_ll_usb.c ****   /* Clear any pending Host interrupts */
1506:Drivers/STM32F1xx_HAL_Driver/Src/stm32f1xx_ll_usb.c ****   USBx_HOST->HAINT = 0xFFFFFFFF;
1507:Drivers/STM32F1xx_HAL_Driver/Src/stm32f1xx_ll_usb.c ****   USBx->GINTSTS = 0xFFFFFFFF;
1508:Drivers/STM32F1xx_HAL_Driver/Src/stm32f1xx_ll_usb.c ****   USB_EnableGlobalInt(USBx);
1509:Drivers/STM32F1xx_HAL_Driver/Src/stm32f1xx_ll_usb.c ****   
1510:Drivers/STM32F1xx_HAL_Driver/Src/stm32f1xx_ll_usb.c ****   return HAL_OK;
1511:Drivers/STM32F1xx_HAL_Driver/Src/stm32f1xx_ll_usb.c **** }
1512:Drivers/STM32F1xx_HAL_Driver/Src/stm32f1xx_ll_usb.c **** 
1513:Drivers/STM32F1xx_HAL_Driver/Src/stm32f1xx_ll_usb.c **** /**
ARM GAS  /var/folders/rf/wfq6hz5s56g3yh4wqgd7820c0000gn/T//ccZ1SRBq.s 			page 28


1514:Drivers/STM32F1xx_HAL_Driver/Src/stm32f1xx_ll_usb.c ****   * @brief  USB_ActivateRemoteWakeup : active remote wakeup signalling
1515:Drivers/STM32F1xx_HAL_Driver/Src/stm32f1xx_ll_usb.c ****   * @param  USBx : Selected device
1516:Drivers/STM32F1xx_HAL_Driver/Src/stm32f1xx_ll_usb.c ****   * @retval HAL status
1517:Drivers/STM32F1xx_HAL_Driver/Src/stm32f1xx_ll_usb.c ****   */
1518:Drivers/STM32F1xx_HAL_Driver/Src/stm32f1xx_ll_usb.c **** HAL_StatusTypeDef USB_ActivateRemoteWakeup(USB_OTG_GlobalTypeDef *USBx)
1519:Drivers/STM32F1xx_HAL_Driver/Src/stm32f1xx_ll_usb.c **** {
1520:Drivers/STM32F1xx_HAL_Driver/Src/stm32f1xx_ll_usb.c ****   /* Prevent unused argument(s) compilation warning */
1521:Drivers/STM32F1xx_HAL_Driver/Src/stm32f1xx_ll_usb.c ****   UNUSED(USBx);
1522:Drivers/STM32F1xx_HAL_Driver/Src/stm32f1xx_ll_usb.c ****   if((USBx_DEVICE->DSTS & USB_OTG_DSTS_SUSPSTS) == USB_OTG_DSTS_SUSPSTS)
1523:Drivers/STM32F1xx_HAL_Driver/Src/stm32f1xx_ll_usb.c ****   {
1524:Drivers/STM32F1xx_HAL_Driver/Src/stm32f1xx_ll_usb.c ****     /* active Remote wakeup signalling */
1525:Drivers/STM32F1xx_HAL_Driver/Src/stm32f1xx_ll_usb.c ****     USBx_DEVICE->DCTL |= USB_OTG_DCTL_RWUSIG;
1526:Drivers/STM32F1xx_HAL_Driver/Src/stm32f1xx_ll_usb.c ****   }
1527:Drivers/STM32F1xx_HAL_Driver/Src/stm32f1xx_ll_usb.c ****   return HAL_OK;
1528:Drivers/STM32F1xx_HAL_Driver/Src/stm32f1xx_ll_usb.c **** }
1529:Drivers/STM32F1xx_HAL_Driver/Src/stm32f1xx_ll_usb.c **** 
1530:Drivers/STM32F1xx_HAL_Driver/Src/stm32f1xx_ll_usb.c **** /**
1531:Drivers/STM32F1xx_HAL_Driver/Src/stm32f1xx_ll_usb.c ****   * @brief  USB_DeActivateRemoteWakeup : de-active remote wakeup signalling
1532:Drivers/STM32F1xx_HAL_Driver/Src/stm32f1xx_ll_usb.c ****   * @param  USBx : Selected device
1533:Drivers/STM32F1xx_HAL_Driver/Src/stm32f1xx_ll_usb.c ****   * @retval HAL status
1534:Drivers/STM32F1xx_HAL_Driver/Src/stm32f1xx_ll_usb.c ****   */
1535:Drivers/STM32F1xx_HAL_Driver/Src/stm32f1xx_ll_usb.c **** HAL_StatusTypeDef USB_DeActivateRemoteWakeup(USB_OTG_GlobalTypeDef *USBx)
1536:Drivers/STM32F1xx_HAL_Driver/Src/stm32f1xx_ll_usb.c **** {
1537:Drivers/STM32F1xx_HAL_Driver/Src/stm32f1xx_ll_usb.c ****   /* Prevent unused argument(s) compilation warning */
1538:Drivers/STM32F1xx_HAL_Driver/Src/stm32f1xx_ll_usb.c ****   UNUSED(USBx);
1539:Drivers/STM32F1xx_HAL_Driver/Src/stm32f1xx_ll_usb.c ****   /* active Remote wakeup signalling */
1540:Drivers/STM32F1xx_HAL_Driver/Src/stm32f1xx_ll_usb.c ****    USBx_DEVICE->DCTL &= ~(USB_OTG_DCTL_RWUSIG);
1541:Drivers/STM32F1xx_HAL_Driver/Src/stm32f1xx_ll_usb.c ****   return HAL_OK;
1542:Drivers/STM32F1xx_HAL_Driver/Src/stm32f1xx_ll_usb.c **** }
1543:Drivers/STM32F1xx_HAL_Driver/Src/stm32f1xx_ll_usb.c **** 
1544:Drivers/STM32F1xx_HAL_Driver/Src/stm32f1xx_ll_usb.c **** #endif /* USB_OTG_FS */
1545:Drivers/STM32F1xx_HAL_Driver/Src/stm32f1xx_ll_usb.c **** 
1546:Drivers/STM32F1xx_HAL_Driver/Src/stm32f1xx_ll_usb.c **** /*==============================================================================
1547:Drivers/STM32F1xx_HAL_Driver/Src/stm32f1xx_ll_usb.c ****     USB Device FS peripheral available on STM32F102xx and STM32F103xx devices 
1548:Drivers/STM32F1xx_HAL_Driver/Src/stm32f1xx_ll_usb.c **** ==============================================================================*/
1549:Drivers/STM32F1xx_HAL_Driver/Src/stm32f1xx_ll_usb.c **** #if defined (USB)
1550:Drivers/STM32F1xx_HAL_Driver/Src/stm32f1xx_ll_usb.c **** /**
1551:Drivers/STM32F1xx_HAL_Driver/Src/stm32f1xx_ll_usb.c ****   * @brief  Initializes the USB Core
1552:Drivers/STM32F1xx_HAL_Driver/Src/stm32f1xx_ll_usb.c ****   * @param  USBx: USB Instance
1553:Drivers/STM32F1xx_HAL_Driver/Src/stm32f1xx_ll_usb.c ****   * @param  cfg : pointer to a USB_CfgTypeDef structure that contains
1554:Drivers/STM32F1xx_HAL_Driver/Src/stm32f1xx_ll_usb.c ****   *         the configuration information for the specified USBx peripheral.
1555:Drivers/STM32F1xx_HAL_Driver/Src/stm32f1xx_ll_usb.c ****   * @retval HAL status
1556:Drivers/STM32F1xx_HAL_Driver/Src/stm32f1xx_ll_usb.c ****   */
1557:Drivers/STM32F1xx_HAL_Driver/Src/stm32f1xx_ll_usb.c **** HAL_StatusTypeDef USB_CoreInit(USB_TypeDef *USBx, USB_CfgTypeDef cfg)
1558:Drivers/STM32F1xx_HAL_Driver/Src/stm32f1xx_ll_usb.c **** {
  28              		.loc 1 1558 1 view -0
  29              		.cfi_startproc
  30              		@ args = 36, pretend = 16, frame = 0
  31              		@ frame_needed = 0, uses_anonymous_args = 0
  32              		@ link register save eliminated.
  33              		.loc 1 1558 1 is_stmt 0 view .LVU1
  34 0000 84B0     		sub	sp, sp, #16
  35              	.LCFI0:
  36              		.cfi_def_cfa_offset 16
  37 0002 01A8     		add	r0, sp, #4
  38              	.LVL1:
  39              		.loc 1 1558 1 view .LVU2
ARM GAS  /var/folders/rf/wfq6hz5s56g3yh4wqgd7820c0000gn/T//ccZ1SRBq.s 			page 29


  40 0004 80E80E00 		stm	r0, {r1, r2, r3}
1559:Drivers/STM32F1xx_HAL_Driver/Src/stm32f1xx_ll_usb.c ****   /* Prevent unused argument(s) compilation warning */
1560:Drivers/STM32F1xx_HAL_Driver/Src/stm32f1xx_ll_usb.c ****   UNUSED(USBx);
  41              		.loc 1 1560 3 is_stmt 1 view .LVU3
1561:Drivers/STM32F1xx_HAL_Driver/Src/stm32f1xx_ll_usb.c ****   UNUSED(cfg);
  42              		.loc 1 1561 3 view .LVU4
1562:Drivers/STM32F1xx_HAL_Driver/Src/stm32f1xx_ll_usb.c ****   /* NOTE : - This function is not required by USB Device FS peripheral, it is used 
1563:Drivers/STM32F1xx_HAL_Driver/Src/stm32f1xx_ll_usb.c ****               only by USB OTG FS peripheral.
1564:Drivers/STM32F1xx_HAL_Driver/Src/stm32f1xx_ll_usb.c ****             - This function is added to ensure compatibility across platforms.
1565:Drivers/STM32F1xx_HAL_Driver/Src/stm32f1xx_ll_usb.c ****    */
1566:Drivers/STM32F1xx_HAL_Driver/Src/stm32f1xx_ll_usb.c ****   return HAL_OK;
  43              		.loc 1 1566 3 view .LVU5
1567:Drivers/STM32F1xx_HAL_Driver/Src/stm32f1xx_ll_usb.c **** }
  44              		.loc 1 1567 1 is_stmt 0 view .LVU6
  45 0008 0020     		movs	r0, #0
  46 000a 04B0     		add	sp, sp, #16
  47              	.LCFI1:
  48              		.cfi_def_cfa_offset 0
  49 000c 7047     		bx	lr
  50              		.cfi_endproc
  51              	.LFE66:
  53              		.section	.text.USB_EnableGlobalInt,"ax",%progbits
  54              		.align	1
  55              		.global	USB_EnableGlobalInt
  56              		.syntax unified
  57              		.thumb
  58              		.thumb_func
  59              		.fpu softvfp
  61              	USB_EnableGlobalInt:
  62              	.LVL2:
  63              	.LFB67:
1568:Drivers/STM32F1xx_HAL_Driver/Src/stm32f1xx_ll_usb.c **** 
1569:Drivers/STM32F1xx_HAL_Driver/Src/stm32f1xx_ll_usb.c **** /**
1570:Drivers/STM32F1xx_HAL_Driver/Src/stm32f1xx_ll_usb.c ****   * @brief  USB_EnableGlobalInt
1571:Drivers/STM32F1xx_HAL_Driver/Src/stm32f1xx_ll_usb.c ****   *         Enables the controller's Global Int in the AHB Config reg
1572:Drivers/STM32F1xx_HAL_Driver/Src/stm32f1xx_ll_usb.c ****   * @param  USBx : Selected device
1573:Drivers/STM32F1xx_HAL_Driver/Src/stm32f1xx_ll_usb.c ****   * @retval HAL status
1574:Drivers/STM32F1xx_HAL_Driver/Src/stm32f1xx_ll_usb.c ****   */
1575:Drivers/STM32F1xx_HAL_Driver/Src/stm32f1xx_ll_usb.c **** HAL_StatusTypeDef USB_EnableGlobalInt(USB_TypeDef *USBx)
1576:Drivers/STM32F1xx_HAL_Driver/Src/stm32f1xx_ll_usb.c **** {
  64              		.loc 1 1576 1 is_stmt 1 view -0
  65              		.cfi_startproc
  66              		@ args = 0, pretend = 0, frame = 0
  67              		@ frame_needed = 0, uses_anonymous_args = 0
  68              		@ link register save eliminated.
1577:Drivers/STM32F1xx_HAL_Driver/Src/stm32f1xx_ll_usb.c ****   uint32_t winterruptmask = 0;
  69              		.loc 1 1577 3 view .LVU8
1578:Drivers/STM32F1xx_HAL_Driver/Src/stm32f1xx_ll_usb.c ****   
1579:Drivers/STM32F1xx_HAL_Driver/Src/stm32f1xx_ll_usb.c ****   /* Set winterruptmask variable */
1580:Drivers/STM32F1xx_HAL_Driver/Src/stm32f1xx_ll_usb.c ****   winterruptmask = USB_CNTR_CTRM  | USB_CNTR_WKUPM | USB_CNTR_SUSPM | USB_CNTR_ERRM \
  70              		.loc 1 1580 3 view .LVU9
1581:Drivers/STM32F1xx_HAL_Driver/Src/stm32f1xx_ll_usb.c ****      | USB_CNTR_SOFM | USB_CNTR_ESOFM | USB_CNTR_RESETM;
1582:Drivers/STM32F1xx_HAL_Driver/Src/stm32f1xx_ll_usb.c ****   
1583:Drivers/STM32F1xx_HAL_Driver/Src/stm32f1xx_ll_usb.c ****   /* Set interrupt mask */
1584:Drivers/STM32F1xx_HAL_Driver/Src/stm32f1xx_ll_usb.c ****   USBx->CNTR |= winterruptmask;
  71              		.loc 1 1584 3 view .LVU10
  72              		.loc 1 1584 14 is_stmt 0 view .LVU11
ARM GAS  /var/folders/rf/wfq6hz5s56g3yh4wqgd7820c0000gn/T//ccZ1SRBq.s 			page 30


  73 0000 B0F84030 		ldrh	r3, [r0, #64]
  74 0004 9BB2     		uxth	r3, r3
  75 0006 43F43F43 		orr	r3, r3, #48896
  76 000a A0F84030 		strh	r3, [r0, #64]	@ movhi
1585:Drivers/STM32F1xx_HAL_Driver/Src/stm32f1xx_ll_usb.c ****   
1586:Drivers/STM32F1xx_HAL_Driver/Src/stm32f1xx_ll_usb.c ****   return HAL_OK;
  77              		.loc 1 1586 3 is_stmt 1 view .LVU12
1587:Drivers/STM32F1xx_HAL_Driver/Src/stm32f1xx_ll_usb.c **** }
  78              		.loc 1 1587 1 is_stmt 0 view .LVU13
  79 000e 0020     		movs	r0, #0
  80              	.LVL3:
  81              		.loc 1 1587 1 view .LVU14
  82 0010 7047     		bx	lr
  83              		.cfi_endproc
  84              	.LFE67:
  86              		.section	.text.USB_DisableGlobalInt,"ax",%progbits
  87              		.align	1
  88              		.global	USB_DisableGlobalInt
  89              		.syntax unified
  90              		.thumb
  91              		.thumb_func
  92              		.fpu softvfp
  94              	USB_DisableGlobalInt:
  95              	.LVL4:
  96              	.LFB68:
1588:Drivers/STM32F1xx_HAL_Driver/Src/stm32f1xx_ll_usb.c **** 
1589:Drivers/STM32F1xx_HAL_Driver/Src/stm32f1xx_ll_usb.c **** /**
1590:Drivers/STM32F1xx_HAL_Driver/Src/stm32f1xx_ll_usb.c ****   * @brief  USB_DisableGlobalInt
1591:Drivers/STM32F1xx_HAL_Driver/Src/stm32f1xx_ll_usb.c ****   *         Disable the controller's Global Int in the AHB Config reg
1592:Drivers/STM32F1xx_HAL_Driver/Src/stm32f1xx_ll_usb.c ****   * @param  USBx : Selected device
1593:Drivers/STM32F1xx_HAL_Driver/Src/stm32f1xx_ll_usb.c ****   * @retval HAL status
1594:Drivers/STM32F1xx_HAL_Driver/Src/stm32f1xx_ll_usb.c **** */
1595:Drivers/STM32F1xx_HAL_Driver/Src/stm32f1xx_ll_usb.c **** HAL_StatusTypeDef USB_DisableGlobalInt(USB_TypeDef *USBx)
1596:Drivers/STM32F1xx_HAL_Driver/Src/stm32f1xx_ll_usb.c **** {
  97              		.loc 1 1596 1 is_stmt 1 view -0
  98              		.cfi_startproc
  99              		@ args = 0, pretend = 0, frame = 0
 100              		@ frame_needed = 0, uses_anonymous_args = 0
 101              		@ link register save eliminated.
1597:Drivers/STM32F1xx_HAL_Driver/Src/stm32f1xx_ll_usb.c ****   uint32_t winterruptmask = 0;
 102              		.loc 1 1597 3 view .LVU16
1598:Drivers/STM32F1xx_HAL_Driver/Src/stm32f1xx_ll_usb.c ****   
1599:Drivers/STM32F1xx_HAL_Driver/Src/stm32f1xx_ll_usb.c ****   /* Set winterruptmask variable */
1600:Drivers/STM32F1xx_HAL_Driver/Src/stm32f1xx_ll_usb.c ****   winterruptmask = USB_CNTR_CTRM  | USB_CNTR_WKUPM | USB_CNTR_SUSPM | USB_CNTR_ERRM \
 103              		.loc 1 1600 3 view .LVU17
1601:Drivers/STM32F1xx_HAL_Driver/Src/stm32f1xx_ll_usb.c ****     | USB_CNTR_ESOFM | USB_CNTR_RESETM;
1602:Drivers/STM32F1xx_HAL_Driver/Src/stm32f1xx_ll_usb.c ****   
1603:Drivers/STM32F1xx_HAL_Driver/Src/stm32f1xx_ll_usb.c ****   /* Clear interrupt mask */
1604:Drivers/STM32F1xx_HAL_Driver/Src/stm32f1xx_ll_usb.c ****   USBx->CNTR &= ~winterruptmask;
 104              		.loc 1 1604 3 view .LVU18
 105              		.loc 1 1604 14 is_stmt 0 view .LVU19
 106 0000 B0F84030 		ldrh	r3, [r0, #64]
 107 0004 23F47453 		bic	r3, r3, #15616
 108 0008 5B04     		lsls	r3, r3, #17
 109 000a 5B0C     		lsrs	r3, r3, #17
 110 000c A0F84030 		strh	r3, [r0, #64]	@ movhi
1605:Drivers/STM32F1xx_HAL_Driver/Src/stm32f1xx_ll_usb.c ****   
ARM GAS  /var/folders/rf/wfq6hz5s56g3yh4wqgd7820c0000gn/T//ccZ1SRBq.s 			page 31


1606:Drivers/STM32F1xx_HAL_Driver/Src/stm32f1xx_ll_usb.c ****   return HAL_OK;
 111              		.loc 1 1606 3 is_stmt 1 view .LVU20
1607:Drivers/STM32F1xx_HAL_Driver/Src/stm32f1xx_ll_usb.c **** }
 112              		.loc 1 1607 1 is_stmt 0 view .LVU21
 113 0010 0020     		movs	r0, #0
 114              	.LVL5:
 115              		.loc 1 1607 1 view .LVU22
 116 0012 7047     		bx	lr
 117              		.cfi_endproc
 118              	.LFE68:
 120              		.section	.text.USB_SetCurrentMode,"ax",%progbits
 121              		.align	1
 122              		.global	USB_SetCurrentMode
 123              		.syntax unified
 124              		.thumb
 125              		.thumb_func
 126              		.fpu softvfp
 128              	USB_SetCurrentMode:
 129              	.LVL6:
 130              	.LFB69:
1608:Drivers/STM32F1xx_HAL_Driver/Src/stm32f1xx_ll_usb.c **** 
1609:Drivers/STM32F1xx_HAL_Driver/Src/stm32f1xx_ll_usb.c **** /**
1610:Drivers/STM32F1xx_HAL_Driver/Src/stm32f1xx_ll_usb.c ****   * @brief  USB_SetCurrentMode : Set functional mode
1611:Drivers/STM32F1xx_HAL_Driver/Src/stm32f1xx_ll_usb.c ****   * @param  USBx : Selected device
1612:Drivers/STM32F1xx_HAL_Driver/Src/stm32f1xx_ll_usb.c ****   * @param  mode :  current core mode
1613:Drivers/STM32F1xx_HAL_Driver/Src/stm32f1xx_ll_usb.c ****   *          This parameter can be one of the these values:
1614:Drivers/STM32F1xx_HAL_Driver/Src/stm32f1xx_ll_usb.c ****   *            @arg USB_DEVICE_MODE: Peripheral mode mode
1615:Drivers/STM32F1xx_HAL_Driver/Src/stm32f1xx_ll_usb.c ****   * @retval HAL status
1616:Drivers/STM32F1xx_HAL_Driver/Src/stm32f1xx_ll_usb.c ****   */
1617:Drivers/STM32F1xx_HAL_Driver/Src/stm32f1xx_ll_usb.c **** HAL_StatusTypeDef USB_SetCurrentMode(USB_TypeDef *USBx , USB_ModeTypeDef mode)
1618:Drivers/STM32F1xx_HAL_Driver/Src/stm32f1xx_ll_usb.c **** {
 131              		.loc 1 1618 1 is_stmt 1 view -0
 132              		.cfi_startproc
 133              		@ args = 0, pretend = 0, frame = 0
 134              		@ frame_needed = 0, uses_anonymous_args = 0
 135              		@ link register save eliminated.
1619:Drivers/STM32F1xx_HAL_Driver/Src/stm32f1xx_ll_usb.c ****   /* Prevent unused argument(s) compilation warning */
1620:Drivers/STM32F1xx_HAL_Driver/Src/stm32f1xx_ll_usb.c ****   UNUSED(USBx);
 136              		.loc 1 1620 3 view .LVU24
1621:Drivers/STM32F1xx_HAL_Driver/Src/stm32f1xx_ll_usb.c ****   UNUSED(mode);
 137              		.loc 1 1621 3 view .LVU25
1622:Drivers/STM32F1xx_HAL_Driver/Src/stm32f1xx_ll_usb.c ****   /* NOTE : - This function is not required by USB Device FS peripheral, it is used 
1623:Drivers/STM32F1xx_HAL_Driver/Src/stm32f1xx_ll_usb.c ****               only by USB OTG FS peripheral.
1624:Drivers/STM32F1xx_HAL_Driver/Src/stm32f1xx_ll_usb.c ****             - This function is added to ensure compatibility across platforms.
1625:Drivers/STM32F1xx_HAL_Driver/Src/stm32f1xx_ll_usb.c ****    */
1626:Drivers/STM32F1xx_HAL_Driver/Src/stm32f1xx_ll_usb.c ****   return HAL_OK;
 138              		.loc 1 1626 3 view .LVU26
1627:Drivers/STM32F1xx_HAL_Driver/Src/stm32f1xx_ll_usb.c **** }
 139              		.loc 1 1627 1 is_stmt 0 view .LVU27
 140 0000 0020     		movs	r0, #0
 141              	.LVL7:
 142              		.loc 1 1627 1 view .LVU28
 143 0002 7047     		bx	lr
 144              		.cfi_endproc
 145              	.LFE69:
 147              		.section	.text.USB_DevInit,"ax",%progbits
 148              		.align	1
ARM GAS  /var/folders/rf/wfq6hz5s56g3yh4wqgd7820c0000gn/T//ccZ1SRBq.s 			page 32


 149              		.global	USB_DevInit
 150              		.syntax unified
 151              		.thumb
 152              		.thumb_func
 153              		.fpu softvfp
 155              	USB_DevInit:
 156              	.LVL8:
 157              	.LFB70:
1628:Drivers/STM32F1xx_HAL_Driver/Src/stm32f1xx_ll_usb.c **** 
1629:Drivers/STM32F1xx_HAL_Driver/Src/stm32f1xx_ll_usb.c **** /**
1630:Drivers/STM32F1xx_HAL_Driver/Src/stm32f1xx_ll_usb.c ****   * @brief  USB_DevInit : Initializes the USB controller registers 
1631:Drivers/STM32F1xx_HAL_Driver/Src/stm32f1xx_ll_usb.c ****   *         for device mode
1632:Drivers/STM32F1xx_HAL_Driver/Src/stm32f1xx_ll_usb.c ****   * @param  USBx : Selected device
1633:Drivers/STM32F1xx_HAL_Driver/Src/stm32f1xx_ll_usb.c ****   * @param  cfg  : pointer to a USB_CfgTypeDef structure that contains
1634:Drivers/STM32F1xx_HAL_Driver/Src/stm32f1xx_ll_usb.c ****   *         the configuration information for the specified USBx peripheral.
1635:Drivers/STM32F1xx_HAL_Driver/Src/stm32f1xx_ll_usb.c ****   * @retval HAL status
1636:Drivers/STM32F1xx_HAL_Driver/Src/stm32f1xx_ll_usb.c ****   */
1637:Drivers/STM32F1xx_HAL_Driver/Src/stm32f1xx_ll_usb.c **** HAL_StatusTypeDef USB_DevInit (USB_TypeDef *USBx, USB_CfgTypeDef cfg)
1638:Drivers/STM32F1xx_HAL_Driver/Src/stm32f1xx_ll_usb.c **** {
 158              		.loc 1 1638 1 is_stmt 1 view -0
 159              		.cfi_startproc
 160              		@ args = 36, pretend = 16, frame = 0
 161              		@ frame_needed = 0, uses_anonymous_args = 0
 162              		.loc 1 1638 1 is_stmt 0 view .LVU30
 163 0000 84B0     		sub	sp, sp, #16
 164              	.LCFI2:
 165              		.cfi_def_cfa_offset 16
 166 0002 38B5     		push	{r3, r4, r5, lr}
 167              	.LCFI3:
 168              		.cfi_def_cfa_offset 32
 169              		.cfi_offset 3, -32
 170              		.cfi_offset 4, -28
 171              		.cfi_offset 5, -24
 172              		.cfi_offset 14, -20
 173 0004 05AD     		add	r5, sp, #20
 174 0006 85E80E00 		stm	r5, {r1, r2, r3}
1639:Drivers/STM32F1xx_HAL_Driver/Src/stm32f1xx_ll_usb.c ****   /* Prevent unused argument(s) compilation warning */
1640:Drivers/STM32F1xx_HAL_Driver/Src/stm32f1xx_ll_usb.c ****   UNUSED(cfg);
 175              		.loc 1 1640 3 is_stmt 1 view .LVU31
1641:Drivers/STM32F1xx_HAL_Driver/Src/stm32f1xx_ll_usb.c **** 
1642:Drivers/STM32F1xx_HAL_Driver/Src/stm32f1xx_ll_usb.c ****   /* Init Device */
1643:Drivers/STM32F1xx_HAL_Driver/Src/stm32f1xx_ll_usb.c ****   /*CNTR_FRES = 1*/
1644:Drivers/STM32F1xx_HAL_Driver/Src/stm32f1xx_ll_usb.c ****   USBx->CNTR = USB_CNTR_FRES;
 176              		.loc 1 1644 3 view .LVU32
 177              		.loc 1 1644 14 is_stmt 0 view .LVU33
 178 000a 0123     		movs	r3, #1
 179 000c A0F84030 		strh	r3, [r0, #64]	@ movhi
1645:Drivers/STM32F1xx_HAL_Driver/Src/stm32f1xx_ll_usb.c ****   
1646:Drivers/STM32F1xx_HAL_Driver/Src/stm32f1xx_ll_usb.c ****   /*CNTR_FRES = 0*/
1647:Drivers/STM32F1xx_HAL_Driver/Src/stm32f1xx_ll_usb.c ****   USBx->CNTR = 0;
 180              		.loc 1 1647 3 is_stmt 1 view .LVU34
 181              		.loc 1 1647 14 is_stmt 0 view .LVU35
 182 0010 0025     		movs	r5, #0
 183 0012 A0F84050 		strh	r5, [r0, #64]	@ movhi
1648:Drivers/STM32F1xx_HAL_Driver/Src/stm32f1xx_ll_usb.c ****  
1649:Drivers/STM32F1xx_HAL_Driver/Src/stm32f1xx_ll_usb.c ****   /*Clear pending interrupts*/
1650:Drivers/STM32F1xx_HAL_Driver/Src/stm32f1xx_ll_usb.c ****   USBx->ISTR = 0;
ARM GAS  /var/folders/rf/wfq6hz5s56g3yh4wqgd7820c0000gn/T//ccZ1SRBq.s 			page 33


 184              		.loc 1 1650 3 is_stmt 1 view .LVU36
 185              		.loc 1 1650 14 is_stmt 0 view .LVU37
 186 0016 A0F84450 		strh	r5, [r0, #68]	@ movhi
1651:Drivers/STM32F1xx_HAL_Driver/Src/stm32f1xx_ll_usb.c ****   
1652:Drivers/STM32F1xx_HAL_Driver/Src/stm32f1xx_ll_usb.c ****   /*Set Btable Address*/
1653:Drivers/STM32F1xx_HAL_Driver/Src/stm32f1xx_ll_usb.c ****   USBx->BTABLE = BTABLE_ADDRESS;
 187              		.loc 1 1653 3 is_stmt 1 view .LVU38
 188              		.loc 1 1653 16 is_stmt 0 view .LVU39
 189 001a A0F85050 		strh	r5, [r0, #80]	@ movhi
1654:Drivers/STM32F1xx_HAL_Driver/Src/stm32f1xx_ll_usb.c ****   
1655:Drivers/STM32F1xx_HAL_Driver/Src/stm32f1xx_ll_usb.c ****   /* Enable USB Device Interrupt mask */
1656:Drivers/STM32F1xx_HAL_Driver/Src/stm32f1xx_ll_usb.c ****   USB_EnableGlobalInt(USBx);
 190              		.loc 1 1656 3 is_stmt 1 view .LVU40
 191 001e FFF7FEFF 		bl	USB_EnableGlobalInt
 192              	.LVL9:
1657:Drivers/STM32F1xx_HAL_Driver/Src/stm32f1xx_ll_usb.c ****     
1658:Drivers/STM32F1xx_HAL_Driver/Src/stm32f1xx_ll_usb.c ****   return HAL_OK;
 193              		.loc 1 1658 3 view .LVU41
1659:Drivers/STM32F1xx_HAL_Driver/Src/stm32f1xx_ll_usb.c **** }
 194              		.loc 1 1659 1 is_stmt 0 view .LVU42
 195 0022 2846     		mov	r0, r5
 196 0024 BDE83840 		pop	{r3, r4, r5, lr}
 197              	.LCFI4:
 198              		.cfi_restore 14
 199              		.cfi_restore 5
 200              		.cfi_restore 4
 201              		.cfi_restore 3
 202              		.cfi_def_cfa_offset 16
 203 0028 04B0     		add	sp, sp, #16
 204              	.LCFI5:
 205              		.cfi_def_cfa_offset 0
 206 002a 7047     		bx	lr
 207              		.cfi_endproc
 208              	.LFE70:
 210              		.section	.text.USB_FlushTxFifo,"ax",%progbits
 211              		.align	1
 212              		.global	USB_FlushTxFifo
 213              		.syntax unified
 214              		.thumb
 215              		.thumb_func
 216              		.fpu softvfp
 218              	USB_FlushTxFifo:
 219              	.LVL10:
 220              	.LFB71:
1660:Drivers/STM32F1xx_HAL_Driver/Src/stm32f1xx_ll_usb.c **** 
1661:Drivers/STM32F1xx_HAL_Driver/Src/stm32f1xx_ll_usb.c **** /**
1662:Drivers/STM32F1xx_HAL_Driver/Src/stm32f1xx_ll_usb.c ****   * @brief  USB_FlushTxFifo : Flush a Tx FIFO
1663:Drivers/STM32F1xx_HAL_Driver/Src/stm32f1xx_ll_usb.c ****   * @param  USBx : Selected device
1664:Drivers/STM32F1xx_HAL_Driver/Src/stm32f1xx_ll_usb.c ****   * @param  num : FIFO number
1665:Drivers/STM32F1xx_HAL_Driver/Src/stm32f1xx_ll_usb.c ****   *         This parameter can be a value from 1 to 15
1666:Drivers/STM32F1xx_HAL_Driver/Src/stm32f1xx_ll_usb.c ****             15 means Flush all Tx FIFOs
1667:Drivers/STM32F1xx_HAL_Driver/Src/stm32f1xx_ll_usb.c ****   * @retval HAL status
1668:Drivers/STM32F1xx_HAL_Driver/Src/stm32f1xx_ll_usb.c ****   */
1669:Drivers/STM32F1xx_HAL_Driver/Src/stm32f1xx_ll_usb.c **** HAL_StatusTypeDef USB_FlushTxFifo (USB_TypeDef *USBx, uint32_t num)
1670:Drivers/STM32F1xx_HAL_Driver/Src/stm32f1xx_ll_usb.c **** {
 221              		.loc 1 1670 1 is_stmt 1 view -0
 222              		.cfi_startproc
ARM GAS  /var/folders/rf/wfq6hz5s56g3yh4wqgd7820c0000gn/T//ccZ1SRBq.s 			page 34


 223              		@ args = 0, pretend = 0, frame = 0
 224              		@ frame_needed = 0, uses_anonymous_args = 0
 225              		@ link register save eliminated.
1671:Drivers/STM32F1xx_HAL_Driver/Src/stm32f1xx_ll_usb.c ****   /* Prevent unused argument(s) compilation warning */
1672:Drivers/STM32F1xx_HAL_Driver/Src/stm32f1xx_ll_usb.c ****   UNUSED(USBx);
 226              		.loc 1 1672 3 view .LVU44
1673:Drivers/STM32F1xx_HAL_Driver/Src/stm32f1xx_ll_usb.c ****   UNUSED(num);
 227              		.loc 1 1673 3 view .LVU45
1674:Drivers/STM32F1xx_HAL_Driver/Src/stm32f1xx_ll_usb.c ****   /* NOTE : - This function is not required by USB Device FS peripheral, it is used 
1675:Drivers/STM32F1xx_HAL_Driver/Src/stm32f1xx_ll_usb.c ****               only by USB OTG FS peripheral.
1676:Drivers/STM32F1xx_HAL_Driver/Src/stm32f1xx_ll_usb.c ****             - This function is added to ensure compatibility across platforms.
1677:Drivers/STM32F1xx_HAL_Driver/Src/stm32f1xx_ll_usb.c ****    */
1678:Drivers/STM32F1xx_HAL_Driver/Src/stm32f1xx_ll_usb.c ****   return HAL_OK;
 228              		.loc 1 1678 3 view .LVU46
1679:Drivers/STM32F1xx_HAL_Driver/Src/stm32f1xx_ll_usb.c **** }
 229              		.loc 1 1679 1 is_stmt 0 view .LVU47
 230 0000 0020     		movs	r0, #0
 231              	.LVL11:
 232              		.loc 1 1679 1 view .LVU48
 233 0002 7047     		bx	lr
 234              		.cfi_endproc
 235              	.LFE71:
 237              		.section	.text.USB_FlushRxFifo,"ax",%progbits
 238              		.align	1
 239              		.global	USB_FlushRxFifo
 240              		.syntax unified
 241              		.thumb
 242              		.thumb_func
 243              		.fpu softvfp
 245              	USB_FlushRxFifo:
 246              	.LVL12:
 247              	.LFB72:
1680:Drivers/STM32F1xx_HAL_Driver/Src/stm32f1xx_ll_usb.c **** 
1681:Drivers/STM32F1xx_HAL_Driver/Src/stm32f1xx_ll_usb.c **** /**
1682:Drivers/STM32F1xx_HAL_Driver/Src/stm32f1xx_ll_usb.c ****   * @brief  USB_FlushRxFifo : Flush Rx FIFO
1683:Drivers/STM32F1xx_HAL_Driver/Src/stm32f1xx_ll_usb.c ****   * @param  USBx : Selected device
1684:Drivers/STM32F1xx_HAL_Driver/Src/stm32f1xx_ll_usb.c ****   * @retval HAL status
1685:Drivers/STM32F1xx_HAL_Driver/Src/stm32f1xx_ll_usb.c ****   */
1686:Drivers/STM32F1xx_HAL_Driver/Src/stm32f1xx_ll_usb.c **** HAL_StatusTypeDef USB_FlushRxFifo(USB_TypeDef *USBx)
1687:Drivers/STM32F1xx_HAL_Driver/Src/stm32f1xx_ll_usb.c **** {
 248              		.loc 1 1687 1 is_stmt 1 view -0
 249              		.cfi_startproc
 250              		@ args = 0, pretend = 0, frame = 0
 251              		@ frame_needed = 0, uses_anonymous_args = 0
 252              		@ link register save eliminated.
1688:Drivers/STM32F1xx_HAL_Driver/Src/stm32f1xx_ll_usb.c ****   /* Prevent unused argument(s) compilation warning */
1689:Drivers/STM32F1xx_HAL_Driver/Src/stm32f1xx_ll_usb.c ****   UNUSED(USBx);
 253              		.loc 1 1689 3 view .LVU50
1690:Drivers/STM32F1xx_HAL_Driver/Src/stm32f1xx_ll_usb.c ****   /* NOTE : - This function is not required by USB Device FS peripheral, it is used 
1691:Drivers/STM32F1xx_HAL_Driver/Src/stm32f1xx_ll_usb.c ****               only by USB OTG FS peripheral.
1692:Drivers/STM32F1xx_HAL_Driver/Src/stm32f1xx_ll_usb.c ****             - This function is added to ensure compatibility across platforms.
1693:Drivers/STM32F1xx_HAL_Driver/Src/stm32f1xx_ll_usb.c ****    */
1694:Drivers/STM32F1xx_HAL_Driver/Src/stm32f1xx_ll_usb.c ****   return HAL_OK;
 254              		.loc 1 1694 3 view .LVU51
1695:Drivers/STM32F1xx_HAL_Driver/Src/stm32f1xx_ll_usb.c **** }
 255              		.loc 1 1695 1 is_stmt 0 view .LVU52
 256 0000 0020     		movs	r0, #0
ARM GAS  /var/folders/rf/wfq6hz5s56g3yh4wqgd7820c0000gn/T//ccZ1SRBq.s 			page 35


 257              	.LVL13:
 258              		.loc 1 1695 1 view .LVU53
 259 0002 7047     		bx	lr
 260              		.cfi_endproc
 261              	.LFE72:
 263              		.section	.text.USB_ActivateEndpoint,"ax",%progbits
 264              		.align	1
 265              		.global	USB_ActivateEndpoint
 266              		.syntax unified
 267              		.thumb
 268              		.thumb_func
 269              		.fpu softvfp
 271              	USB_ActivateEndpoint:
 272              	.LVL14:
 273              	.LFB73:
1696:Drivers/STM32F1xx_HAL_Driver/Src/stm32f1xx_ll_usb.c **** 
1697:Drivers/STM32F1xx_HAL_Driver/Src/stm32f1xx_ll_usb.c **** /**
1698:Drivers/STM32F1xx_HAL_Driver/Src/stm32f1xx_ll_usb.c ****   * @brief  Activate and configure an endpoint
1699:Drivers/STM32F1xx_HAL_Driver/Src/stm32f1xx_ll_usb.c ****   * @param  USBx : Selected device
1700:Drivers/STM32F1xx_HAL_Driver/Src/stm32f1xx_ll_usb.c ****   * @param  ep: pointer to endpoint structure
1701:Drivers/STM32F1xx_HAL_Driver/Src/stm32f1xx_ll_usb.c ****   * @retval HAL status
1702:Drivers/STM32F1xx_HAL_Driver/Src/stm32f1xx_ll_usb.c ****   */
1703:Drivers/STM32F1xx_HAL_Driver/Src/stm32f1xx_ll_usb.c **** HAL_StatusTypeDef USB_ActivateEndpoint(USB_TypeDef *USBx, USB_EPTypeDef *ep)
1704:Drivers/STM32F1xx_HAL_Driver/Src/stm32f1xx_ll_usb.c **** {
 274              		.loc 1 1704 1 is_stmt 1 view -0
 275              		.cfi_startproc
 276              		@ args = 0, pretend = 0, frame = 0
 277              		@ frame_needed = 0, uses_anonymous_args = 0
 278              		@ link register save eliminated.
 279              		.loc 1 1704 1 is_stmt 0 view .LVU55
 280 0000 10B4     		push	{r4}
 281              	.LCFI6:
 282              		.cfi_def_cfa_offset 4
 283              		.cfi_offset 4, -4
1705:Drivers/STM32F1xx_HAL_Driver/Src/stm32f1xx_ll_usb.c ****   /* initialize Endpoint */
1706:Drivers/STM32F1xx_HAL_Driver/Src/stm32f1xx_ll_usb.c ****   switch (ep->type)
 284              		.loc 1 1706 3 is_stmt 1 view .LVU56
 285              		.loc 1 1706 13 is_stmt 0 view .LVU57
 286 0002 CB78     		ldrb	r3, [r1, #3]	@ zero_extendqisi2
 287 0004 032B     		cmp	r3, #3
 288 0006 0FD8     		bhi	.L11
 289 0008 DFE803F0 		tbb	[pc, r3]
 290              	.L13:
 291 000c 02       		.byte	(.L16-.L13)/2
 292 000d 6E       		.byte	(.L15-.L13)/2
 293 000e 55       		.byte	(.L14-.L13)/2
 294 000f 61       		.byte	(.L12-.L13)/2
 295              		.p2align 1
 296              	.L16:
1707:Drivers/STM32F1xx_HAL_Driver/Src/stm32f1xx_ll_usb.c ****   {
1708:Drivers/STM32F1xx_HAL_Driver/Src/stm32f1xx_ll_usb.c ****   case EP_TYPE_CTRL:
1709:Drivers/STM32F1xx_HAL_Driver/Src/stm32f1xx_ll_usb.c ****     PCD_SET_EPTYPE(USBx, ep->num, USB_EP_CONTROL);
 297              		.loc 1 1709 5 is_stmt 1 view .LVU58
 298 0010 0A78     		ldrb	r2, [r1]	@ zero_extendqisi2
 299 0012 30F82230 		ldrh	r3, [r0, r2, lsl #2]
 300 0016 9BB2     		uxth	r3, r3
 301 0018 23F4EC43 		bic	r3, r3, #30208
ARM GAS  /var/folders/rf/wfq6hz5s56g3yh4wqgd7820c0000gn/T//ccZ1SRBq.s 			page 36


 302 001c 23F07003 		bic	r3, r3, #112
 303 0020 43F40073 		orr	r3, r3, #512
 304 0024 20F82230 		strh	r3, [r0, r2, lsl #2]	@ movhi
1710:Drivers/STM32F1xx_HAL_Driver/Src/stm32f1xx_ll_usb.c ****     break;
 305              		.loc 1 1710 5 view .LVU59
 306              	.L11:
1711:Drivers/STM32F1xx_HAL_Driver/Src/stm32f1xx_ll_usb.c ****   case EP_TYPE_BULK:
1712:Drivers/STM32F1xx_HAL_Driver/Src/stm32f1xx_ll_usb.c ****     PCD_SET_EPTYPE(USBx, ep->num, USB_EP_BULK);
1713:Drivers/STM32F1xx_HAL_Driver/Src/stm32f1xx_ll_usb.c ****     break;
1714:Drivers/STM32F1xx_HAL_Driver/Src/stm32f1xx_ll_usb.c ****   case EP_TYPE_INTR:
1715:Drivers/STM32F1xx_HAL_Driver/Src/stm32f1xx_ll_usb.c ****     PCD_SET_EPTYPE(USBx, ep->num, USB_EP_INTERRUPT);
1716:Drivers/STM32F1xx_HAL_Driver/Src/stm32f1xx_ll_usb.c ****     break;
1717:Drivers/STM32F1xx_HAL_Driver/Src/stm32f1xx_ll_usb.c ****   case EP_TYPE_ISOC:
1718:Drivers/STM32F1xx_HAL_Driver/Src/stm32f1xx_ll_usb.c ****     PCD_SET_EPTYPE(USBx, ep->num, USB_EP_ISOCHRONOUS);
1719:Drivers/STM32F1xx_HAL_Driver/Src/stm32f1xx_ll_usb.c ****     break;
1720:Drivers/STM32F1xx_HAL_Driver/Src/stm32f1xx_ll_usb.c ****   default:
1721:Drivers/STM32F1xx_HAL_Driver/Src/stm32f1xx_ll_usb.c ****       break;
1722:Drivers/STM32F1xx_HAL_Driver/Src/stm32f1xx_ll_usb.c ****   } 
1723:Drivers/STM32F1xx_HAL_Driver/Src/stm32f1xx_ll_usb.c ****   
1724:Drivers/STM32F1xx_HAL_Driver/Src/stm32f1xx_ll_usb.c ****   PCD_SET_EP_ADDRESS(USBx, ep->num, ep->num);
 307              		.loc 1 1724 3 view .LVU60
 308 0028 0A78     		ldrb	r2, [r1]	@ zero_extendqisi2
 309 002a 30F82230 		ldrh	r3, [r0, r2, lsl #2]
 310 002e 23F0F003 		bic	r3, r3, #240
 311 0032 1B05     		lsls	r3, r3, #20
 312 0034 1B0D     		lsrs	r3, r3, #20
 313 0036 1343     		orrs	r3, r3, r2
 314 0038 43F40043 		orr	r3, r3, #32768
 315 003c 43F08003 		orr	r3, r3, #128
 316 0040 20F82230 		strh	r3, [r0, r2, lsl #2]	@ movhi
1725:Drivers/STM32F1xx_HAL_Driver/Src/stm32f1xx_ll_usb.c ****   
1726:Drivers/STM32F1xx_HAL_Driver/Src/stm32f1xx_ll_usb.c ****   if (ep->doublebuffer == 0) 
 317              		.loc 1 1726 3 view .LVU61
 318              		.loc 1 1726 9 is_stmt 0 view .LVU62
 319 0044 8B7A     		ldrb	r3, [r1, #10]	@ zero_extendqisi2
 320              		.loc 1 1726 6 view .LVU63
 321 0046 002B     		cmp	r3, #0
 322 0048 40F0B280 		bne	.L17
1727:Drivers/STM32F1xx_HAL_Driver/Src/stm32f1xx_ll_usb.c ****   {
1728:Drivers/STM32F1xx_HAL_Driver/Src/stm32f1xx_ll_usb.c ****     if (ep->is_in)
 323              		.loc 1 1728 5 is_stmt 1 view .LVU64
 324              		.loc 1 1728 11 is_stmt 0 view .LVU65
 325 004c 4B78     		ldrb	r3, [r1, #1]	@ zero_extendqisi2
 326              		.loc 1 1728 8 view .LVU66
 327 004e 002B     		cmp	r3, #0
 328 0050 57D0     		beq	.L18
1729:Drivers/STM32F1xx_HAL_Driver/Src/stm32f1xx_ll_usb.c ****     {
1730:Drivers/STM32F1xx_HAL_Driver/Src/stm32f1xx_ll_usb.c ****       /*Set the endpoint Transmit buffer address */
1731:Drivers/STM32F1xx_HAL_Driver/Src/stm32f1xx_ll_usb.c ****       PCD_SET_EP_TX_ADDRESS(USBx, ep->num, ep->pmaadress);
 329              		.loc 1 1731 7 is_stmt 1 view .LVU67
 330 0052 8A88     		ldrh	r2, [r1, #4]
 331 0054 5208     		lsrs	r2, r2, #1
 332 0056 B0F85030 		ldrh	r3, [r0, #80]
 333 005a 9BB2     		uxth	r3, r3
 334 005c 0C78     		ldrb	r4, [r1]	@ zero_extendqisi2
 335 005e 03EBC403 		add	r3, r3, r4, lsl #3
 336 0062 00EB4303 		add	r3, r0, r3, lsl #1
ARM GAS  /var/folders/rf/wfq6hz5s56g3yh4wqgd7820c0000gn/T//ccZ1SRBq.s 			page 37


 337 0066 5200     		lsls	r2, r2, #1
 338 0068 C3F80024 		str	r2, [r3, #1024]
1732:Drivers/STM32F1xx_HAL_Driver/Src/stm32f1xx_ll_usb.c ****       PCD_CLEAR_TX_DTOG(USBx, ep->num);
 339              		.loc 1 1732 7 view .LVU68
 340 006c 0A78     		ldrb	r2, [r1]	@ zero_extendqisi2
 341 006e 30F82230 		ldrh	r3, [r0, r2, lsl #2]
 342 0072 13F0400F 		tst	r3, #64
 343 0076 0BD0     		beq	.L19
 344              		.loc 1 1732 7 discriminator 1 view .LVU69
 345 0078 30F82230 		ldrh	r3, [r0, r2, lsl #2]
 346 007c 23F0F003 		bic	r3, r3, #240
 347 0080 1B05     		lsls	r3, r3, #20
 348 0082 1B0D     		lsrs	r3, r3, #20
 349 0084 43F40043 		orr	r3, r3, #32768
 350 0088 43F0C003 		orr	r3, r3, #192
 351 008c 20F82230 		strh	r3, [r0, r2, lsl #2]	@ movhi
 352              	.L19:
 353              		.loc 1 1732 39 discriminator 3 view .LVU70
 354              	.LBB2:
1733:Drivers/STM32F1xx_HAL_Driver/Src/stm32f1xx_ll_usb.c ****       /* Configure NAK status for the Endpoint*/
1734:Drivers/STM32F1xx_HAL_Driver/Src/stm32f1xx_ll_usb.c ****       PCD_SET_EP_TX_STATUS(USBx, ep->num, USB_EP_TX_NAK); 
 355              		.loc 1 1734 7 discriminator 3 view .LVU71
 356              		.loc 1 1734 7 discriminator 3 view .LVU72
 357 0090 0A78     		ldrb	r2, [r1]	@ zero_extendqisi2
 358 0092 30F82230 		ldrh	r3, [r0, r2, lsl #2]
 359 0096 9BB2     		uxth	r3, r3
 360 0098 23F4E043 		bic	r3, r3, #28672
 361 009c 23F04003 		bic	r3, r3, #64
 362              	.LVL15:
 363              		.loc 1 1734 7 discriminator 3 view .LVU73
 364              		.loc 1 1734 7 discriminator 3 view .LVU74
 365              		.loc 1 1734 7 discriminator 3 view .LVU75
 366 00a0 83F02003 		eor	r3, r3, #32
 367              	.LVL16:
 368              		.loc 1 1734 7 discriminator 3 view .LVU76
 369 00a4 43F40043 		orr	r3, r3, #32768
 370              	.LVL17:
 371              		.loc 1 1734 7 is_stmt 0 discriminator 3 view .LVU77
 372 00a8 43F08003 		orr	r3, r3, #128
 373 00ac 20F82230 		strh	r3, [r0, r2, lsl #2]	@ movhi
 374              	.LBE2:
 375              		.loc 1 1734 57 is_stmt 1 discriminator 3 view .LVU78
 376              	.L20:
1735:Drivers/STM32F1xx_HAL_Driver/Src/stm32f1xx_ll_usb.c ****     }
1736:Drivers/STM32F1xx_HAL_Driver/Src/stm32f1xx_ll_usb.c ****     else
1737:Drivers/STM32F1xx_HAL_Driver/Src/stm32f1xx_ll_usb.c ****     {
1738:Drivers/STM32F1xx_HAL_Driver/Src/stm32f1xx_ll_usb.c ****       /*Set the endpoint Receive buffer address */
1739:Drivers/STM32F1xx_HAL_Driver/Src/stm32f1xx_ll_usb.c ****       PCD_SET_EP_RX_ADDRESS(USBx, ep->num, ep->pmaadress);
1740:Drivers/STM32F1xx_HAL_Driver/Src/stm32f1xx_ll_usb.c ****       /*Set the endpoint Receive buffer counter*/
1741:Drivers/STM32F1xx_HAL_Driver/Src/stm32f1xx_ll_usb.c ****       PCD_SET_EP_RX_CNT(USBx, ep->num, ep->maxpacket);
1742:Drivers/STM32F1xx_HAL_Driver/Src/stm32f1xx_ll_usb.c ****       PCD_CLEAR_RX_DTOG(USBx, ep->num);
1743:Drivers/STM32F1xx_HAL_Driver/Src/stm32f1xx_ll_usb.c ****       /* Configure VALID status for the Endpoint*/
1744:Drivers/STM32F1xx_HAL_Driver/Src/stm32f1xx_ll_usb.c ****       PCD_SET_EP_RX_STATUS(USBx, ep->num, USB_EP_RX_VALID);
1745:Drivers/STM32F1xx_HAL_Driver/Src/stm32f1xx_ll_usb.c ****     }
1746:Drivers/STM32F1xx_HAL_Driver/Src/stm32f1xx_ll_usb.c ****   }
1747:Drivers/STM32F1xx_HAL_Driver/Src/stm32f1xx_ll_usb.c ****   /*Double Buffer*/
1748:Drivers/STM32F1xx_HAL_Driver/Src/stm32f1xx_ll_usb.c ****   else
ARM GAS  /var/folders/rf/wfq6hz5s56g3yh4wqgd7820c0000gn/T//ccZ1SRBq.s 			page 38


1749:Drivers/STM32F1xx_HAL_Driver/Src/stm32f1xx_ll_usb.c ****   {
1750:Drivers/STM32F1xx_HAL_Driver/Src/stm32f1xx_ll_usb.c ****     /*Set the endpoint as double buffered*/
1751:Drivers/STM32F1xx_HAL_Driver/Src/stm32f1xx_ll_usb.c ****     PCD_SET_EP_DBUF(USBx, ep->num);
1752:Drivers/STM32F1xx_HAL_Driver/Src/stm32f1xx_ll_usb.c ****     /*Set buffer address for double buffered mode*/
1753:Drivers/STM32F1xx_HAL_Driver/Src/stm32f1xx_ll_usb.c ****     PCD_SET_EP_DBUF_ADDR(USBx, ep->num,ep->pmaaddr0, ep->pmaaddr1);
1754:Drivers/STM32F1xx_HAL_Driver/Src/stm32f1xx_ll_usb.c ****     
1755:Drivers/STM32F1xx_HAL_Driver/Src/stm32f1xx_ll_usb.c ****     if (ep->is_in==0)
1756:Drivers/STM32F1xx_HAL_Driver/Src/stm32f1xx_ll_usb.c ****     {
1757:Drivers/STM32F1xx_HAL_Driver/Src/stm32f1xx_ll_usb.c ****       /* Clear the data toggle bits for the endpoint IN/OUT*/
1758:Drivers/STM32F1xx_HAL_Driver/Src/stm32f1xx_ll_usb.c ****       PCD_CLEAR_RX_DTOG(USBx, ep->num);
1759:Drivers/STM32F1xx_HAL_Driver/Src/stm32f1xx_ll_usb.c ****       PCD_CLEAR_TX_DTOG(USBx, ep->num);
1760:Drivers/STM32F1xx_HAL_Driver/Src/stm32f1xx_ll_usb.c ****       
1761:Drivers/STM32F1xx_HAL_Driver/Src/stm32f1xx_ll_usb.c ****       /* Reset value of the data toggle bits for the endpoint out*/
1762:Drivers/STM32F1xx_HAL_Driver/Src/stm32f1xx_ll_usb.c ****       PCD_TX_DTOG(USBx, ep->num);
1763:Drivers/STM32F1xx_HAL_Driver/Src/stm32f1xx_ll_usb.c ****       
1764:Drivers/STM32F1xx_HAL_Driver/Src/stm32f1xx_ll_usb.c ****       PCD_SET_EP_RX_STATUS(USBx, ep->num, USB_EP_RX_VALID);
1765:Drivers/STM32F1xx_HAL_Driver/Src/stm32f1xx_ll_usb.c ****       PCD_SET_EP_TX_STATUS(USBx, ep->num, USB_EP_TX_DIS);
1766:Drivers/STM32F1xx_HAL_Driver/Src/stm32f1xx_ll_usb.c ****     }
1767:Drivers/STM32F1xx_HAL_Driver/Src/stm32f1xx_ll_usb.c ****     else
1768:Drivers/STM32F1xx_HAL_Driver/Src/stm32f1xx_ll_usb.c ****     {
1769:Drivers/STM32F1xx_HAL_Driver/Src/stm32f1xx_ll_usb.c ****       /* Clear the data toggle bits for the endpoint IN/OUT*/
1770:Drivers/STM32F1xx_HAL_Driver/Src/stm32f1xx_ll_usb.c ****       PCD_CLEAR_RX_DTOG(USBx, ep->num);
1771:Drivers/STM32F1xx_HAL_Driver/Src/stm32f1xx_ll_usb.c ****       PCD_CLEAR_TX_DTOG(USBx, ep->num);
1772:Drivers/STM32F1xx_HAL_Driver/Src/stm32f1xx_ll_usb.c ****       PCD_RX_DTOG(USBx, ep->num);
1773:Drivers/STM32F1xx_HAL_Driver/Src/stm32f1xx_ll_usb.c ****       /* Configure DISABLE status for the Endpoint*/
1774:Drivers/STM32F1xx_HAL_Driver/Src/stm32f1xx_ll_usb.c ****       PCD_SET_EP_TX_STATUS(USBx, ep->num, USB_EP_TX_DIS);
1775:Drivers/STM32F1xx_HAL_Driver/Src/stm32f1xx_ll_usb.c ****       PCD_SET_EP_RX_STATUS(USBx, ep->num, USB_EP_RX_DIS);
 377              		.loc 1 1775 57 discriminator 7 view .LVU79
1776:Drivers/STM32F1xx_HAL_Driver/Src/stm32f1xx_ll_usb.c ****     }
1777:Drivers/STM32F1xx_HAL_Driver/Src/stm32f1xx_ll_usb.c ****   }
1778:Drivers/STM32F1xx_HAL_Driver/Src/stm32f1xx_ll_usb.c ****   
1779:Drivers/STM32F1xx_HAL_Driver/Src/stm32f1xx_ll_usb.c ****   return HAL_OK;
 378              		.loc 1 1779 3 discriminator 7 view .LVU80
1780:Drivers/STM32F1xx_HAL_Driver/Src/stm32f1xx_ll_usb.c **** }
 379              		.loc 1 1780 1 is_stmt 0 discriminator 7 view .LVU81
 380 00b0 0020     		movs	r0, #0
 381              	.LVL18:
 382              		.loc 1 1780 1 discriminator 7 view .LVU82
 383 00b2 10BC     		pop	{r4}
 384              	.LCFI7:
 385              		.cfi_remember_state
 386              		.cfi_restore 4
 387              		.cfi_def_cfa_offset 0
 388 00b4 7047     		bx	lr
 389              	.LVL19:
 390              	.L14:
 391              	.LCFI8:
 392              		.cfi_restore_state
1712:Drivers/STM32F1xx_HAL_Driver/Src/stm32f1xx_ll_usb.c ****     break;
 393              		.loc 1 1712 5 is_stmt 1 view .LVU83
 394 00b6 0A78     		ldrb	r2, [r1]	@ zero_extendqisi2
 395 00b8 30F82230 		ldrh	r3, [r0, r2, lsl #2]
 396 00bc 9BB2     		uxth	r3, r3
 397 00be 23F4EC43 		bic	r3, r3, #30208
 398 00c2 23F07003 		bic	r3, r3, #112
 399 00c6 9BB2     		uxth	r3, r3
 400 00c8 20F82230 		strh	r3, [r0, r2, lsl #2]	@ movhi
ARM GAS  /var/folders/rf/wfq6hz5s56g3yh4wqgd7820c0000gn/T//ccZ1SRBq.s 			page 39


1713:Drivers/STM32F1xx_HAL_Driver/Src/stm32f1xx_ll_usb.c ****   case EP_TYPE_INTR:
 401              		.loc 1 1713 5 view .LVU84
 402 00cc ACE7     		b	.L11
 403              	.L12:
1715:Drivers/STM32F1xx_HAL_Driver/Src/stm32f1xx_ll_usb.c ****     break;
 404              		.loc 1 1715 5 view .LVU85
 405 00ce 0A78     		ldrb	r2, [r1]	@ zero_extendqisi2
 406 00d0 30F82230 		ldrh	r3, [r0, r2, lsl #2]
 407 00d4 9BB2     		uxth	r3, r3
 408 00d6 23F4EC43 		bic	r3, r3, #30208
 409 00da 23F07003 		bic	r3, r3, #112
 410 00de 43F4C063 		orr	r3, r3, #1536
 411 00e2 20F82230 		strh	r3, [r0, r2, lsl #2]	@ movhi
1716:Drivers/STM32F1xx_HAL_Driver/Src/stm32f1xx_ll_usb.c ****   case EP_TYPE_ISOC:
 412              		.loc 1 1716 5 view .LVU86
 413 00e6 9FE7     		b	.L11
 414              	.L15:
1718:Drivers/STM32F1xx_HAL_Driver/Src/stm32f1xx_ll_usb.c ****     break;
 415              		.loc 1 1718 5 view .LVU87
 416 00e8 0A78     		ldrb	r2, [r1]	@ zero_extendqisi2
 417 00ea 30F82230 		ldrh	r3, [r0, r2, lsl #2]
 418 00ee 9BB2     		uxth	r3, r3
 419 00f0 23F4EC43 		bic	r3, r3, #30208
 420 00f4 23F07003 		bic	r3, r3, #112
 421 00f8 43F48063 		orr	r3, r3, #1024
 422 00fc 20F82230 		strh	r3, [r0, r2, lsl #2]	@ movhi
1719:Drivers/STM32F1xx_HAL_Driver/Src/stm32f1xx_ll_usb.c ****   default:
 423              		.loc 1 1719 5 view .LVU88
 424 0100 92E7     		b	.L11
 425              	.L18:
1739:Drivers/STM32F1xx_HAL_Driver/Src/stm32f1xx_ll_usb.c ****       /*Set the endpoint Receive buffer counter*/
 426              		.loc 1 1739 7 view .LVU89
 427 0102 8A88     		ldrh	r2, [r1, #4]
 428 0104 5208     		lsrs	r2, r2, #1
 429 0106 B0F85030 		ldrh	r3, [r0, #80]
 430 010a 9BB2     		uxth	r3, r3
 431 010c 0C78     		ldrb	r4, [r1]	@ zero_extendqisi2
 432 010e 03EBC403 		add	r3, r3, r4, lsl #3
 433 0112 0433     		adds	r3, r3, #4
 434 0114 00EB4303 		add	r3, r0, r3, lsl #1
 435 0118 5200     		lsls	r2, r2, #1
 436 011a C3F80024 		str	r2, [r3, #1024]
 437              	.LBB3:
1741:Drivers/STM32F1xx_HAL_Driver/Src/stm32f1xx_ll_usb.c ****       PCD_CLEAR_RX_DTOG(USBx, ep->num);
 438              		.loc 1 1741 7 view .LVU90
 439 011e B0F85030 		ldrh	r3, [r0, #80]
 440 0122 9BB2     		uxth	r3, r3
 441 0124 0A78     		ldrb	r2, [r1]	@ zero_extendqisi2
 442 0126 03EBC203 		add	r3, r3, r2, lsl #3
 443 012a 0633     		adds	r3, r3, #6
 444 012c 00EB4303 		add	r3, r0, r3, lsl #1
 445              	.LVL20:
 446              	.LBB4:
1741:Drivers/STM32F1xx_HAL_Driver/Src/stm32f1xx_ll_usb.c ****       PCD_CLEAR_RX_DTOG(USBx, ep->num);
 447              		.loc 1 1741 7 view .LVU91
1741:Drivers/STM32F1xx_HAL_Driver/Src/stm32f1xx_ll_usb.c ****       PCD_CLEAR_RX_DTOG(USBx, ep->num);
 448              		.loc 1 1741 7 view .LVU92
ARM GAS  /var/folders/rf/wfq6hz5s56g3yh4wqgd7820c0000gn/T//ccZ1SRBq.s 			page 40


 449 0130 0C69     		ldr	r4, [r1, #16]
 450 0132 3E2C     		cmp	r4, #62
 451 0134 30D9     		bls	.L21
1741:Drivers/STM32F1xx_HAL_Driver/Src/stm32f1xx_ll_usb.c ****       PCD_CLEAR_RX_DTOG(USBx, ep->num);
 452              		.loc 1 1741 7 discriminator 1 view .LVU93
 453 0136 C4F34F12 		ubfx	r2, r4, #5, #16
 454              	.LVL21:
1741:Drivers/STM32F1xx_HAL_Driver/Src/stm32f1xx_ll_usb.c ****       PCD_CLEAR_RX_DTOG(USBx, ep->num);
 455              		.loc 1 1741 7 discriminator 1 view .LVU94
 456 013a 14F01F0F 		tst	r4, #31
 457 013e 01D1     		bne	.L22
1741:Drivers/STM32F1xx_HAL_Driver/Src/stm32f1xx_ll_usb.c ****       PCD_CLEAR_RX_DTOG(USBx, ep->num);
 458              		.loc 1 1741 7 discriminator 3 view .LVU95
 459 0140 013A     		subs	r2, r2, #1
 460              	.LVL22:
1741:Drivers/STM32F1xx_HAL_Driver/Src/stm32f1xx_ll_usb.c ****       PCD_CLEAR_RX_DTOG(USBx, ep->num);
 461              		.loc 1 1741 7 is_stmt 0 discriminator 3 view .LVU96
 462 0142 92B2     		uxth	r2, r2
 463              	.LVL23:
 464              	.L22:
1741:Drivers/STM32F1xx_HAL_Driver/Src/stm32f1xx_ll_usb.c ****       PCD_CLEAR_RX_DTOG(USBx, ep->num);
 465              		.loc 1 1741 7 is_stmt 1 discriminator 5 view .LVU97
 466 0144 6FEAC262 		mvn	r2, r2, lsl #27
 467              	.LVL24:
1741:Drivers/STM32F1xx_HAL_Driver/Src/stm32f1xx_ll_usb.c ****       PCD_CLEAR_RX_DTOG(USBx, ep->num);
 468              		.loc 1 1741 7 is_stmt 0 discriminator 5 view .LVU98
 469 0148 6FEA5242 		mvn	r2, r2, lsr #17
 470 014c 92B2     		uxth	r2, r2
 471 014e C3F80024 		str	r2, [r3, #1024]
1741:Drivers/STM32F1xx_HAL_Driver/Src/stm32f1xx_ll_usb.c ****       PCD_CLEAR_RX_DTOG(USBx, ep->num);
 472              		.loc 1 1741 7 is_stmt 1 discriminator 5 view .LVU99
 473              	.L23:
1741:Drivers/STM32F1xx_HAL_Driver/Src/stm32f1xx_ll_usb.c ****       PCD_CLEAR_RX_DTOG(USBx, ep->num);
 474              		.loc 1 1741 7 discriminator 10 view .LVU100
 475              	.LBE4:
1741:Drivers/STM32F1xx_HAL_Driver/Src/stm32f1xx_ll_usb.c ****       PCD_CLEAR_RX_DTOG(USBx, ep->num);
 476              		.loc 1 1741 7 discriminator 10 view .LVU101
 477              	.LBE3:
1741:Drivers/STM32F1xx_HAL_Driver/Src/stm32f1xx_ll_usb.c ****       PCD_CLEAR_RX_DTOG(USBx, ep->num);
 478              		.loc 1 1741 54 discriminator 10 view .LVU102
1742:Drivers/STM32F1xx_HAL_Driver/Src/stm32f1xx_ll_usb.c ****       /* Configure VALID status for the Endpoint*/
 479              		.loc 1 1742 7 discriminator 10 view .LVU103
 480 0152 0A78     		ldrb	r2, [r1]	@ zero_extendqisi2
 481 0154 30F82230 		ldrh	r3, [r0, r2, lsl #2]
 482              	.LVL25:
1742:Drivers/STM32F1xx_HAL_Driver/Src/stm32f1xx_ll_usb.c ****       /* Configure VALID status for the Endpoint*/
 483              		.loc 1 1742 7 is_stmt 0 discriminator 10 view .LVU104
 484 0158 13F4804F 		tst	r3, #16384
 485 015c 0BD0     		beq	.L25
1742:Drivers/STM32F1xx_HAL_Driver/Src/stm32f1xx_ll_usb.c ****       /* Configure VALID status for the Endpoint*/
 486              		.loc 1 1742 7 is_stmt 1 discriminator 1 view .LVU105
 487 015e 30F82230 		ldrh	r3, [r0, r2, lsl #2]
 488 0162 23F0F003 		bic	r3, r3, #240
 489 0166 1B05     		lsls	r3, r3, #20
 490 0168 1B0D     		lsrs	r3, r3, #20
 491 016a 43F44043 		orr	r3, r3, #49152
 492 016e 43F08003 		orr	r3, r3, #128
ARM GAS  /var/folders/rf/wfq6hz5s56g3yh4wqgd7820c0000gn/T//ccZ1SRBq.s 			page 41


 493 0172 20F82230 		strh	r3, [r0, r2, lsl #2]	@ movhi
 494              	.L25:
1742:Drivers/STM32F1xx_HAL_Driver/Src/stm32f1xx_ll_usb.c ****       /* Configure VALID status for the Endpoint*/
 495              		.loc 1 1742 39 discriminator 3 view .LVU106
 496              	.LBB6:
1744:Drivers/STM32F1xx_HAL_Driver/Src/stm32f1xx_ll_usb.c ****     }
 497              		.loc 1 1744 7 discriminator 3 view .LVU107
1744:Drivers/STM32F1xx_HAL_Driver/Src/stm32f1xx_ll_usb.c ****     }
 498              		.loc 1 1744 7 discriminator 3 view .LVU108
 499 0176 0A78     		ldrb	r2, [r1]	@ zero_extendqisi2
 500 0178 30F82230 		ldrh	r3, [r0, r2, lsl #2]
 501 017c 9BB2     		uxth	r3, r3
 502 017e 23F48043 		bic	r3, r3, #16384
 503 0182 23F07003 		bic	r3, r3, #112
 504              	.LVL26:
1744:Drivers/STM32F1xx_HAL_Driver/Src/stm32f1xx_ll_usb.c ****     }
 505              		.loc 1 1744 7 discriminator 3 view .LVU109
1744:Drivers/STM32F1xx_HAL_Driver/Src/stm32f1xx_ll_usb.c ****     }
 506              		.loc 1 1744 7 discriminator 3 view .LVU110
1744:Drivers/STM32F1xx_HAL_Driver/Src/stm32f1xx_ll_usb.c ****     }
 507              		.loc 1 1744 7 discriminator 3 view .LVU111
1744:Drivers/STM32F1xx_HAL_Driver/Src/stm32f1xx_ll_usb.c ****     }
 508              		.loc 1 1744 7 discriminator 3 view .LVU112
 509 0186 83F44053 		eor	r3, r3, #12288
 510              	.LVL27:
1744:Drivers/STM32F1xx_HAL_Driver/Src/stm32f1xx_ll_usb.c ****     }
 511              		.loc 1 1744 7 discriminator 3 view .LVU113
 512 018a 43F40043 		orr	r3, r3, #32768
 513              	.LVL28:
1744:Drivers/STM32F1xx_HAL_Driver/Src/stm32f1xx_ll_usb.c ****     }
 514              		.loc 1 1744 7 is_stmt 0 discriminator 3 view .LVU114
 515 018e 43F08003 		orr	r3, r3, #128
 516 0192 20F82230 		strh	r3, [r0, r2, lsl #2]	@ movhi
 517 0196 8BE7     		b	.L20
 518              	.LVL29:
 519              	.L21:
1744:Drivers/STM32F1xx_HAL_Driver/Src/stm32f1xx_ll_usb.c ****     }
 520              		.loc 1 1744 7 discriminator 3 view .LVU115
 521              	.LBE6:
 522              	.LBB7:
 523              	.LBB5:
1741:Drivers/STM32F1xx_HAL_Driver/Src/stm32f1xx_ll_usb.c ****       PCD_CLEAR_RX_DTOG(USBx, ep->num);
 524              		.loc 1 1741 7 is_stmt 1 discriminator 2 view .LVU116
 525 0198 C4F34F02 		ubfx	r2, r4, #1, #16
 526              	.LVL30:
1741:Drivers/STM32F1xx_HAL_Driver/Src/stm32f1xx_ll_usb.c ****       PCD_CLEAR_RX_DTOG(USBx, ep->num);
 527              		.loc 1 1741 7 discriminator 2 view .LVU117
 528 019c 14F0010F 		tst	r4, #1
 529 01a0 01D0     		beq	.L24
1741:Drivers/STM32F1xx_HAL_Driver/Src/stm32f1xx_ll_usb.c ****       PCD_CLEAR_RX_DTOG(USBx, ep->num);
 530              		.loc 1 1741 7 discriminator 7 view .LVU118
 531 01a2 0132     		adds	r2, r2, #1
 532              	.LVL31:
1741:Drivers/STM32F1xx_HAL_Driver/Src/stm32f1xx_ll_usb.c ****       PCD_CLEAR_RX_DTOG(USBx, ep->num);
 533              		.loc 1 1741 7 is_stmt 0 discriminator 7 view .LVU119
 534 01a4 92B2     		uxth	r2, r2
 535              	.LVL32:
ARM GAS  /var/folders/rf/wfq6hz5s56g3yh4wqgd7820c0000gn/T//ccZ1SRBq.s 			page 42


 536              	.L24:
1741:Drivers/STM32F1xx_HAL_Driver/Src/stm32f1xx_ll_usb.c ****       PCD_CLEAR_RX_DTOG(USBx, ep->num);
 537              		.loc 1 1741 7 is_stmt 1 discriminator 9 view .LVU120
 538 01a6 9202     		lsls	r2, r2, #10
 539              	.LVL33:
1741:Drivers/STM32F1xx_HAL_Driver/Src/stm32f1xx_ll_usb.c ****       PCD_CLEAR_RX_DTOG(USBx, ep->num);
 540              		.loc 1 1741 7 is_stmt 0 discriminator 9 view .LVU121
 541 01a8 92B2     		uxth	r2, r2
 542 01aa C3F80024 		str	r2, [r3, #1024]
 543 01ae D0E7     		b	.L23
 544              	.LVL34:
 545              	.L17:
1741:Drivers/STM32F1xx_HAL_Driver/Src/stm32f1xx_ll_usb.c ****       PCD_CLEAR_RX_DTOG(USBx, ep->num);
 546              		.loc 1 1741 7 discriminator 9 view .LVU122
 547              	.LBE5:
 548              	.LBE7:
1751:Drivers/STM32F1xx_HAL_Driver/Src/stm32f1xx_ll_usb.c ****     /*Set buffer address for double buffered mode*/
 549              		.loc 1 1751 5 is_stmt 1 view .LVU123
 550 01b0 0A78     		ldrb	r2, [r1]	@ zero_extendqisi2
 551 01b2 30F82230 		ldrh	r3, [r0, r2, lsl #2]
 552 01b6 23F4F873 		bic	r3, r3, #496
 553 01ba 1B05     		lsls	r3, r3, #20
 554 01bc 1B0D     		lsrs	r3, r3, #20
 555 01be 43F40143 		orr	r3, r3, #33024
 556 01c2 43F08003 		orr	r3, r3, #128
 557 01c6 20F82230 		strh	r3, [r0, r2, lsl #2]	@ movhi
1753:Drivers/STM32F1xx_HAL_Driver/Src/stm32f1xx_ll_usb.c ****     
 558              		.loc 1 1753 5 view .LVU124
 559 01ca CA88     		ldrh	r2, [r1, #6]
 560 01cc 5208     		lsrs	r2, r2, #1
 561 01ce B0F85030 		ldrh	r3, [r0, #80]
 562 01d2 9BB2     		uxth	r3, r3
 563 01d4 0C78     		ldrb	r4, [r1]	@ zero_extendqisi2
 564 01d6 03EBC403 		add	r3, r3, r4, lsl #3
 565 01da 00EB4303 		add	r3, r0, r3, lsl #1
 566 01de 5200     		lsls	r2, r2, #1
 567 01e0 C3F80024 		str	r2, [r3, #1024]
1753:Drivers/STM32F1xx_HAL_Driver/Src/stm32f1xx_ll_usb.c ****     
 568              		.loc 1 1753 5 view .LVU125
1753:Drivers/STM32F1xx_HAL_Driver/Src/stm32f1xx_ll_usb.c ****     
 569              		.loc 1 1753 5 view .LVU126
 570 01e4 0A89     		ldrh	r2, [r1, #8]
 571 01e6 5208     		lsrs	r2, r2, #1
 572 01e8 B0F85030 		ldrh	r3, [r0, #80]
 573 01ec 9BB2     		uxth	r3, r3
 574 01ee 0C78     		ldrb	r4, [r1]	@ zero_extendqisi2
 575 01f0 03EBC403 		add	r3, r3, r4, lsl #3
 576 01f4 0433     		adds	r3, r3, #4
 577 01f6 00EB4303 		add	r3, r0, r3, lsl #1
 578 01fa 5200     		lsls	r2, r2, #1
 579 01fc C3F80024 		str	r2, [r3, #1024]
1753:Drivers/STM32F1xx_HAL_Driver/Src/stm32f1xx_ll_usb.c ****     
 580              		.loc 1 1753 5 view .LVU127
1753:Drivers/STM32F1xx_HAL_Driver/Src/stm32f1xx_ll_usb.c ****     
 581              		.loc 1 1753 67 view .LVU128
1755:Drivers/STM32F1xx_HAL_Driver/Src/stm32f1xx_ll_usb.c ****     {
 582              		.loc 1 1755 5 view .LVU129
ARM GAS  /var/folders/rf/wfq6hz5s56g3yh4wqgd7820c0000gn/T//ccZ1SRBq.s 			page 43


1755:Drivers/STM32F1xx_HAL_Driver/Src/stm32f1xx_ll_usb.c ****     {
 583              		.loc 1 1755 11 is_stmt 0 view .LVU130
 584 0200 4B78     		ldrb	r3, [r1, #1]	@ zero_extendqisi2
1755:Drivers/STM32F1xx_HAL_Driver/Src/stm32f1xx_ll_usb.c ****     {
 585              		.loc 1 1755 8 view .LVU131
 586 0202 002B     		cmp	r3, #0
 587 0204 4BD1     		bne	.L26
1758:Drivers/STM32F1xx_HAL_Driver/Src/stm32f1xx_ll_usb.c ****       PCD_CLEAR_TX_DTOG(USBx, ep->num);
 588              		.loc 1 1758 7 is_stmt 1 view .LVU132
 589 0206 0A78     		ldrb	r2, [r1]	@ zero_extendqisi2
 590 0208 30F82230 		ldrh	r3, [r0, r2, lsl #2]
 591 020c 13F4804F 		tst	r3, #16384
 592 0210 0BD0     		beq	.L27
1758:Drivers/STM32F1xx_HAL_Driver/Src/stm32f1xx_ll_usb.c ****       PCD_CLEAR_TX_DTOG(USBx, ep->num);
 593              		.loc 1 1758 7 discriminator 1 view .LVU133
 594 0212 30F82230 		ldrh	r3, [r0, r2, lsl #2]
 595 0216 23F0F003 		bic	r3, r3, #240
 596 021a 1B05     		lsls	r3, r3, #20
 597 021c 1B0D     		lsrs	r3, r3, #20
 598 021e 43F44043 		orr	r3, r3, #49152
 599 0222 43F08003 		orr	r3, r3, #128
 600 0226 20F82230 		strh	r3, [r0, r2, lsl #2]	@ movhi
 601              	.L27:
1758:Drivers/STM32F1xx_HAL_Driver/Src/stm32f1xx_ll_usb.c ****       PCD_CLEAR_TX_DTOG(USBx, ep->num);
 602              		.loc 1 1758 39 discriminator 3 view .LVU134
1759:Drivers/STM32F1xx_HAL_Driver/Src/stm32f1xx_ll_usb.c ****       
 603              		.loc 1 1759 7 discriminator 3 view .LVU135
 604 022a 0A78     		ldrb	r2, [r1]	@ zero_extendqisi2
 605 022c 30F82230 		ldrh	r3, [r0, r2, lsl #2]
 606 0230 13F0400F 		tst	r3, #64
 607 0234 0BD0     		beq	.L28
1759:Drivers/STM32F1xx_HAL_Driver/Src/stm32f1xx_ll_usb.c ****       
 608              		.loc 1 1759 7 discriminator 1 view .LVU136
 609 0236 30F82230 		ldrh	r3, [r0, r2, lsl #2]
 610 023a 23F0F003 		bic	r3, r3, #240
 611 023e 1B05     		lsls	r3, r3, #20
 612 0240 1B0D     		lsrs	r3, r3, #20
 613 0242 43F40043 		orr	r3, r3, #32768
 614 0246 43F0C003 		orr	r3, r3, #192
 615 024a 20F82230 		strh	r3, [r0, r2, lsl #2]	@ movhi
 616              	.L28:
1759:Drivers/STM32F1xx_HAL_Driver/Src/stm32f1xx_ll_usb.c ****       
 617              		.loc 1 1759 39 discriminator 3 view .LVU137
1762:Drivers/STM32F1xx_HAL_Driver/Src/stm32f1xx_ll_usb.c ****       
 618              		.loc 1 1762 7 discriminator 3 view .LVU138
 619 024e 0A78     		ldrb	r2, [r1]	@ zero_extendqisi2
 620 0250 30F82230 		ldrh	r3, [r0, r2, lsl #2]
 621 0254 23F0F003 		bic	r3, r3, #240
 622 0258 1B05     		lsls	r3, r3, #20
 623 025a 1B0D     		lsrs	r3, r3, #20
 624 025c 43F40043 		orr	r3, r3, #32768
 625 0260 43F0C003 		orr	r3, r3, #192
 626 0264 20F82230 		strh	r3, [r0, r2, lsl #2]	@ movhi
 627              	.LBB8:
1764:Drivers/STM32F1xx_HAL_Driver/Src/stm32f1xx_ll_usb.c ****       PCD_SET_EP_TX_STATUS(USBx, ep->num, USB_EP_TX_DIS);
 628              		.loc 1 1764 7 discriminator 3 view .LVU139
1764:Drivers/STM32F1xx_HAL_Driver/Src/stm32f1xx_ll_usb.c ****       PCD_SET_EP_TX_STATUS(USBx, ep->num, USB_EP_TX_DIS);
ARM GAS  /var/folders/rf/wfq6hz5s56g3yh4wqgd7820c0000gn/T//ccZ1SRBq.s 			page 44


 629              		.loc 1 1764 7 discriminator 3 view .LVU140
 630 0268 0A78     		ldrb	r2, [r1]	@ zero_extendqisi2
 631 026a 30F82230 		ldrh	r3, [r0, r2, lsl #2]
 632 026e 9BB2     		uxth	r3, r3
 633 0270 23F48043 		bic	r3, r3, #16384
 634 0274 23F07003 		bic	r3, r3, #112
 635              	.LVL35:
1764:Drivers/STM32F1xx_HAL_Driver/Src/stm32f1xx_ll_usb.c ****       PCD_SET_EP_TX_STATUS(USBx, ep->num, USB_EP_TX_DIS);
 636              		.loc 1 1764 7 discriminator 3 view .LVU141
1764:Drivers/STM32F1xx_HAL_Driver/Src/stm32f1xx_ll_usb.c ****       PCD_SET_EP_TX_STATUS(USBx, ep->num, USB_EP_TX_DIS);
 637              		.loc 1 1764 7 discriminator 3 view .LVU142
1764:Drivers/STM32F1xx_HAL_Driver/Src/stm32f1xx_ll_usb.c ****       PCD_SET_EP_TX_STATUS(USBx, ep->num, USB_EP_TX_DIS);
 638              		.loc 1 1764 7 discriminator 3 view .LVU143
1764:Drivers/STM32F1xx_HAL_Driver/Src/stm32f1xx_ll_usb.c ****       PCD_SET_EP_TX_STATUS(USBx, ep->num, USB_EP_TX_DIS);
 639              		.loc 1 1764 7 discriminator 3 view .LVU144
 640 0278 83F44053 		eor	r3, r3, #12288
 641              	.LVL36:
1764:Drivers/STM32F1xx_HAL_Driver/Src/stm32f1xx_ll_usb.c ****       PCD_SET_EP_TX_STATUS(USBx, ep->num, USB_EP_TX_DIS);
 642              		.loc 1 1764 7 discriminator 3 view .LVU145
 643 027c 48F28004 		movw	r4, #32896
 644 0280 2343     		orrs	r3, r3, r4
 645              	.LVL37:
1764:Drivers/STM32F1xx_HAL_Driver/Src/stm32f1xx_ll_usb.c ****       PCD_SET_EP_TX_STATUS(USBx, ep->num, USB_EP_TX_DIS);
 646              		.loc 1 1764 7 is_stmt 0 discriminator 3 view .LVU146
 647 0282 20F82230 		strh	r3, [r0, r2, lsl #2]	@ movhi
 648              	.LBE8:
1764:Drivers/STM32F1xx_HAL_Driver/Src/stm32f1xx_ll_usb.c ****       PCD_SET_EP_TX_STATUS(USBx, ep->num, USB_EP_TX_DIS);
 649              		.loc 1 1764 59 is_stmt 1 discriminator 3 view .LVU147
 650              	.LBB9:
1765:Drivers/STM32F1xx_HAL_Driver/Src/stm32f1xx_ll_usb.c ****     }
 651              		.loc 1 1765 7 discriminator 3 view .LVU148
1765:Drivers/STM32F1xx_HAL_Driver/Src/stm32f1xx_ll_usb.c ****     }
 652              		.loc 1 1765 7 discriminator 3 view .LVU149
 653 0286 0A78     		ldrb	r2, [r1]	@ zero_extendqisi2
 654 0288 30F82230 		ldrh	r3, [r0, r2, lsl #2]
 655 028c 9BB2     		uxth	r3, r3
 656 028e 23F4E043 		bic	r3, r3, #28672
 657 0292 23F04003 		bic	r3, r3, #64
 658              	.LVL38:
1765:Drivers/STM32F1xx_HAL_Driver/Src/stm32f1xx_ll_usb.c ****     }
 659              		.loc 1 1765 7 discriminator 3 view .LVU150
1765:Drivers/STM32F1xx_HAL_Driver/Src/stm32f1xx_ll_usb.c ****     }
 660              		.loc 1 1765 7 discriminator 3 view .LVU151
1765:Drivers/STM32F1xx_HAL_Driver/Src/stm32f1xx_ll_usb.c ****     }
 661              		.loc 1 1765 7 discriminator 3 view .LVU152
 662 0296 2343     		orrs	r3, r3, r4
 663              	.LVL39:
1765:Drivers/STM32F1xx_HAL_Driver/Src/stm32f1xx_ll_usb.c ****     }
 664              		.loc 1 1765 7 is_stmt 0 discriminator 3 view .LVU153
 665 0298 20F82230 		strh	r3, [r0, r2, lsl #2]	@ movhi
 666              	.LBE9:
1765:Drivers/STM32F1xx_HAL_Driver/Src/stm32f1xx_ll_usb.c ****     }
 667              		.loc 1 1765 57 is_stmt 1 discriminator 3 view .LVU154
 668 029c 08E7     		b	.L20
 669              	.L26:
1770:Drivers/STM32F1xx_HAL_Driver/Src/stm32f1xx_ll_usb.c ****       PCD_CLEAR_TX_DTOG(USBx, ep->num);
 670              		.loc 1 1770 7 view .LVU155
ARM GAS  /var/folders/rf/wfq6hz5s56g3yh4wqgd7820c0000gn/T//ccZ1SRBq.s 			page 45


 671 029e 0A78     		ldrb	r2, [r1]	@ zero_extendqisi2
 672 02a0 30F82230 		ldrh	r3, [r0, r2, lsl #2]
 673 02a4 13F4804F 		tst	r3, #16384
 674 02a8 0BD0     		beq	.L29
1770:Drivers/STM32F1xx_HAL_Driver/Src/stm32f1xx_ll_usb.c ****       PCD_CLEAR_TX_DTOG(USBx, ep->num);
 675              		.loc 1 1770 7 discriminator 1 view .LVU156
 676 02aa 30F82230 		ldrh	r3, [r0, r2, lsl #2]
 677 02ae 23F0F003 		bic	r3, r3, #240
 678 02b2 1B05     		lsls	r3, r3, #20
 679 02b4 1B0D     		lsrs	r3, r3, #20
 680 02b6 43F44043 		orr	r3, r3, #49152
 681 02ba 43F08003 		orr	r3, r3, #128
 682 02be 20F82230 		strh	r3, [r0, r2, lsl #2]	@ movhi
 683              	.L29:
1770:Drivers/STM32F1xx_HAL_Driver/Src/stm32f1xx_ll_usb.c ****       PCD_CLEAR_TX_DTOG(USBx, ep->num);
 684              		.loc 1 1770 39 discriminator 3 view .LVU157
1771:Drivers/STM32F1xx_HAL_Driver/Src/stm32f1xx_ll_usb.c ****       PCD_RX_DTOG(USBx, ep->num);
 685              		.loc 1 1771 7 discriminator 3 view .LVU158
 686 02c2 0A78     		ldrb	r2, [r1]	@ zero_extendqisi2
 687 02c4 30F82230 		ldrh	r3, [r0, r2, lsl #2]
 688 02c8 13F0400F 		tst	r3, #64
 689 02cc 0BD0     		beq	.L30
1771:Drivers/STM32F1xx_HAL_Driver/Src/stm32f1xx_ll_usb.c ****       PCD_RX_DTOG(USBx, ep->num);
 690              		.loc 1 1771 7 discriminator 1 view .LVU159
 691 02ce 30F82230 		ldrh	r3, [r0, r2, lsl #2]
 692 02d2 23F0F003 		bic	r3, r3, #240
 693 02d6 1B05     		lsls	r3, r3, #20
 694 02d8 1B0D     		lsrs	r3, r3, #20
 695 02da 43F40043 		orr	r3, r3, #32768
 696 02de 43F0C003 		orr	r3, r3, #192
 697 02e2 20F82230 		strh	r3, [r0, r2, lsl #2]	@ movhi
 698              	.L30:
1771:Drivers/STM32F1xx_HAL_Driver/Src/stm32f1xx_ll_usb.c ****       PCD_RX_DTOG(USBx, ep->num);
 699              		.loc 1 1771 39 discriminator 3 view .LVU160
1772:Drivers/STM32F1xx_HAL_Driver/Src/stm32f1xx_ll_usb.c ****       /* Configure DISABLE status for the Endpoint*/
 700              		.loc 1 1772 7 discriminator 3 view .LVU161
 701 02e6 0A78     		ldrb	r2, [r1]	@ zero_extendqisi2
 702 02e8 30F82230 		ldrh	r3, [r0, r2, lsl #2]
 703 02ec 23F0F003 		bic	r3, r3, #240
 704 02f0 1B05     		lsls	r3, r3, #20
 705 02f2 1B0D     		lsrs	r3, r3, #20
 706 02f4 43F44043 		orr	r3, r3, #49152
 707 02f8 43F08003 		orr	r3, r3, #128
 708 02fc 20F82230 		strh	r3, [r0, r2, lsl #2]	@ movhi
 709              	.LBB10:
1774:Drivers/STM32F1xx_HAL_Driver/Src/stm32f1xx_ll_usb.c ****       PCD_SET_EP_RX_STATUS(USBx, ep->num, USB_EP_RX_DIS);
 710              		.loc 1 1774 7 discriminator 3 view .LVU162
1774:Drivers/STM32F1xx_HAL_Driver/Src/stm32f1xx_ll_usb.c ****       PCD_SET_EP_RX_STATUS(USBx, ep->num, USB_EP_RX_DIS);
 711              		.loc 1 1774 7 discriminator 3 view .LVU163
 712 0300 0B78     		ldrb	r3, [r1]	@ zero_extendqisi2
 713 0302 30F82320 		ldrh	r2, [r0, r3, lsl #2]
 714 0306 92B2     		uxth	r2, r2
 715 0308 22F4E042 		bic	r2, r2, #28672
 716 030c 22F04002 		bic	r2, r2, #64
 717              	.LVL40:
1774:Drivers/STM32F1xx_HAL_Driver/Src/stm32f1xx_ll_usb.c ****       PCD_SET_EP_RX_STATUS(USBx, ep->num, USB_EP_RX_DIS);
 718              		.loc 1 1774 7 discriminator 3 view .LVU164
ARM GAS  /var/folders/rf/wfq6hz5s56g3yh4wqgd7820c0000gn/T//ccZ1SRBq.s 			page 46


1774:Drivers/STM32F1xx_HAL_Driver/Src/stm32f1xx_ll_usb.c ****       PCD_SET_EP_RX_STATUS(USBx, ep->num, USB_EP_RX_DIS);
 719              		.loc 1 1774 7 discriminator 3 view .LVU165
1774:Drivers/STM32F1xx_HAL_Driver/Src/stm32f1xx_ll_usb.c ****       PCD_SET_EP_RX_STATUS(USBx, ep->num, USB_EP_RX_DIS);
 720              		.loc 1 1774 7 discriminator 3 view .LVU166
 721 0310 48F28004 		movw	r4, #32896
 722 0314 2243     		orrs	r2, r2, r4
 723              	.LVL41:
1774:Drivers/STM32F1xx_HAL_Driver/Src/stm32f1xx_ll_usb.c ****       PCD_SET_EP_RX_STATUS(USBx, ep->num, USB_EP_RX_DIS);
 724              		.loc 1 1774 7 is_stmt 0 discriminator 3 view .LVU167
 725 0316 20F82320 		strh	r2, [r0, r3, lsl #2]	@ movhi
 726              	.LBE10:
1774:Drivers/STM32F1xx_HAL_Driver/Src/stm32f1xx_ll_usb.c ****       PCD_SET_EP_RX_STATUS(USBx, ep->num, USB_EP_RX_DIS);
 727              		.loc 1 1774 57 is_stmt 1 discriminator 3 view .LVU168
 728              	.LBB11:
1775:Drivers/STM32F1xx_HAL_Driver/Src/stm32f1xx_ll_usb.c ****     }
 729              		.loc 1 1775 7 discriminator 3 view .LVU169
1775:Drivers/STM32F1xx_HAL_Driver/Src/stm32f1xx_ll_usb.c ****     }
 730              		.loc 1 1775 7 discriminator 3 view .LVU170
 731 031a 0A78     		ldrb	r2, [r1]	@ zero_extendqisi2
 732 031c 30F82230 		ldrh	r3, [r0, r2, lsl #2]
 733 0320 9BB2     		uxth	r3, r3
 734 0322 23F48043 		bic	r3, r3, #16384
 735 0326 23F07003 		bic	r3, r3, #112
 736              	.LVL42:
1775:Drivers/STM32F1xx_HAL_Driver/Src/stm32f1xx_ll_usb.c ****     }
 737              		.loc 1 1775 7 discriminator 3 view .LVU171
1775:Drivers/STM32F1xx_HAL_Driver/Src/stm32f1xx_ll_usb.c ****     }
 738              		.loc 1 1775 7 discriminator 3 view .LVU172
1775:Drivers/STM32F1xx_HAL_Driver/Src/stm32f1xx_ll_usb.c ****     }
 739              		.loc 1 1775 7 discriminator 3 view .LVU173
 740 032a 2343     		orrs	r3, r3, r4
 741              	.LVL43:
1775:Drivers/STM32F1xx_HAL_Driver/Src/stm32f1xx_ll_usb.c ****     }
 742              		.loc 1 1775 7 is_stmt 0 discriminator 3 view .LVU174
 743 032c 20F82230 		strh	r3, [r0, r2, lsl #2]	@ movhi
 744 0330 BEE6     		b	.L20
 745              	.LBE11:
 746              		.cfi_endproc
 747              	.LFE73:
 749              		.section	.text.USB_DeactivateEndpoint,"ax",%progbits
 750              		.align	1
 751              		.global	USB_DeactivateEndpoint
 752              		.syntax unified
 753              		.thumb
 754              		.thumb_func
 755              		.fpu softvfp
 757              	USB_DeactivateEndpoint:
 758              	.LVL44:
 759              	.LFB74:
1781:Drivers/STM32F1xx_HAL_Driver/Src/stm32f1xx_ll_usb.c **** 
1782:Drivers/STM32F1xx_HAL_Driver/Src/stm32f1xx_ll_usb.c **** /**
1783:Drivers/STM32F1xx_HAL_Driver/Src/stm32f1xx_ll_usb.c ****   * @brief  De-activate and de-initialize an endpoint
1784:Drivers/STM32F1xx_HAL_Driver/Src/stm32f1xx_ll_usb.c ****   * @param  USBx : Selected device
1785:Drivers/STM32F1xx_HAL_Driver/Src/stm32f1xx_ll_usb.c ****   * @param  ep: pointer to endpoint structure
1786:Drivers/STM32F1xx_HAL_Driver/Src/stm32f1xx_ll_usb.c ****   * @retval HAL status
1787:Drivers/STM32F1xx_HAL_Driver/Src/stm32f1xx_ll_usb.c ****   */
1788:Drivers/STM32F1xx_HAL_Driver/Src/stm32f1xx_ll_usb.c **** HAL_StatusTypeDef USB_DeactivateEndpoint(USB_TypeDef *USBx, USB_EPTypeDef *ep)
ARM GAS  /var/folders/rf/wfq6hz5s56g3yh4wqgd7820c0000gn/T//ccZ1SRBq.s 			page 47


1789:Drivers/STM32F1xx_HAL_Driver/Src/stm32f1xx_ll_usb.c **** {
 760              		.loc 1 1789 1 is_stmt 1 view -0
 761              		.cfi_startproc
 762              		@ args = 0, pretend = 0, frame = 0
 763              		@ frame_needed = 0, uses_anonymous_args = 0
 764              		@ link register save eliminated.
1790:Drivers/STM32F1xx_HAL_Driver/Src/stm32f1xx_ll_usb.c ****   if (ep->doublebuffer == 0) 
 765              		.loc 1 1790 3 view .LVU176
 766              		.loc 1 1790 9 is_stmt 0 view .LVU177
 767 0000 8B7A     		ldrb	r3, [r1, #10]	@ zero_extendqisi2
 768              		.loc 1 1790 6 view .LVU178
 769 0002 002B     		cmp	r3, #0
 770 0004 44D1     		bne	.L33
1791:Drivers/STM32F1xx_HAL_Driver/Src/stm32f1xx_ll_usb.c ****   {
1792:Drivers/STM32F1xx_HAL_Driver/Src/stm32f1xx_ll_usb.c ****     if (ep->is_in)
 771              		.loc 1 1792 5 is_stmt 1 view .LVU179
 772              		.loc 1 1792 11 is_stmt 0 view .LVU180
 773 0006 4B78     		ldrb	r3, [r1, #1]	@ zero_extendqisi2
 774              		.loc 1 1792 8 view .LVU181
 775 0008 0BB3     		cbz	r3, .L34
1793:Drivers/STM32F1xx_HAL_Driver/Src/stm32f1xx_ll_usb.c ****     {
1794:Drivers/STM32F1xx_HAL_Driver/Src/stm32f1xx_ll_usb.c ****       PCD_CLEAR_TX_DTOG(USBx, ep->num);
 776              		.loc 1 1794 7 is_stmt 1 view .LVU182
 777 000a 0A78     		ldrb	r2, [r1]	@ zero_extendqisi2
 778 000c 30F82230 		ldrh	r3, [r0, r2, lsl #2]
 779 0010 13F0400F 		tst	r3, #64
 780 0014 0BD0     		beq	.L35
 781              		.loc 1 1794 7 discriminator 1 view .LVU183
 782 0016 30F82230 		ldrh	r3, [r0, r2, lsl #2]
 783 001a 23F0F003 		bic	r3, r3, #240
 784 001e 1B05     		lsls	r3, r3, #20
 785 0020 1B0D     		lsrs	r3, r3, #20
 786 0022 43F40043 		orr	r3, r3, #32768
 787 0026 43F0C003 		orr	r3, r3, #192
 788 002a 20F82230 		strh	r3, [r0, r2, lsl #2]	@ movhi
 789              	.L35:
 790              		.loc 1 1794 39 discriminator 3 view .LVU184
 791              	.LBB12:
1795:Drivers/STM32F1xx_HAL_Driver/Src/stm32f1xx_ll_usb.c ****       /* Configure DISABLE status for the Endpoint*/
1796:Drivers/STM32F1xx_HAL_Driver/Src/stm32f1xx_ll_usb.c ****       PCD_SET_EP_TX_STATUS(USBx, ep->num, USB_EP_TX_DIS); 
 792              		.loc 1 1796 7 discriminator 3 view .LVU185
 793              		.loc 1 1796 7 discriminator 3 view .LVU186
 794 002e 0A78     		ldrb	r2, [r1]	@ zero_extendqisi2
 795 0030 30F82230 		ldrh	r3, [r0, r2, lsl #2]
 796 0034 9BB2     		uxth	r3, r3
 797 0036 23F4E043 		bic	r3, r3, #28672
 798 003a 23F04003 		bic	r3, r3, #64
 799              	.LVL45:
 800              		.loc 1 1796 7 discriminator 3 view .LVU187
 801              		.loc 1 1796 7 discriminator 3 view .LVU188
 802              		.loc 1 1796 7 discriminator 3 view .LVU189
 803 003e 43F40043 		orr	r3, r3, #32768
 804              	.LVL46:
 805              		.loc 1 1796 7 is_stmt 0 discriminator 3 view .LVU190
 806 0042 43F08003 		orr	r3, r3, #128
 807 0046 20F82230 		strh	r3, [r0, r2, lsl #2]	@ movhi
 808              	.LBE12:
ARM GAS  /var/folders/rf/wfq6hz5s56g3yh4wqgd7820c0000gn/T//ccZ1SRBq.s 			page 48


 809              		.loc 1 1796 57 is_stmt 1 discriminator 3 view .LVU191
 810              	.L44:
1797:Drivers/STM32F1xx_HAL_Driver/Src/stm32f1xx_ll_usb.c ****     }
1798:Drivers/STM32F1xx_HAL_Driver/Src/stm32f1xx_ll_usb.c ****     else
1799:Drivers/STM32F1xx_HAL_Driver/Src/stm32f1xx_ll_usb.c ****     {
1800:Drivers/STM32F1xx_HAL_Driver/Src/stm32f1xx_ll_usb.c ****       PCD_CLEAR_RX_DTOG(USBx, ep->num);
1801:Drivers/STM32F1xx_HAL_Driver/Src/stm32f1xx_ll_usb.c ****       /* Configure DISABLE status for the Endpoint*/
1802:Drivers/STM32F1xx_HAL_Driver/Src/stm32f1xx_ll_usb.c ****       PCD_SET_EP_RX_STATUS(USBx, ep->num, USB_EP_RX_DIS);
1803:Drivers/STM32F1xx_HAL_Driver/Src/stm32f1xx_ll_usb.c ****     }
1804:Drivers/STM32F1xx_HAL_Driver/Src/stm32f1xx_ll_usb.c ****   }
1805:Drivers/STM32F1xx_HAL_Driver/Src/stm32f1xx_ll_usb.c ****   /*Double Buffer*/
1806:Drivers/STM32F1xx_HAL_Driver/Src/stm32f1xx_ll_usb.c ****   else
1807:Drivers/STM32F1xx_HAL_Driver/Src/stm32f1xx_ll_usb.c ****   { 
1808:Drivers/STM32F1xx_HAL_Driver/Src/stm32f1xx_ll_usb.c ****     if (ep->is_in==0)
1809:Drivers/STM32F1xx_HAL_Driver/Src/stm32f1xx_ll_usb.c ****     {
1810:Drivers/STM32F1xx_HAL_Driver/Src/stm32f1xx_ll_usb.c ****       /* Clear the data toggle bits for the endpoint IN/OUT*/
1811:Drivers/STM32F1xx_HAL_Driver/Src/stm32f1xx_ll_usb.c ****       PCD_CLEAR_RX_DTOG(USBx, ep->num);
1812:Drivers/STM32F1xx_HAL_Driver/Src/stm32f1xx_ll_usb.c ****       PCD_CLEAR_TX_DTOG(USBx, ep->num);
1813:Drivers/STM32F1xx_HAL_Driver/Src/stm32f1xx_ll_usb.c ****       
1814:Drivers/STM32F1xx_HAL_Driver/Src/stm32f1xx_ll_usb.c ****       /* Reset value of the data toggle bits for the endpoint out*/
1815:Drivers/STM32F1xx_HAL_Driver/Src/stm32f1xx_ll_usb.c ****       PCD_TX_DTOG(USBx, ep->num);
1816:Drivers/STM32F1xx_HAL_Driver/Src/stm32f1xx_ll_usb.c ****       
1817:Drivers/STM32F1xx_HAL_Driver/Src/stm32f1xx_ll_usb.c ****       PCD_SET_EP_RX_STATUS(USBx, ep->num, USB_EP_RX_DIS);
1818:Drivers/STM32F1xx_HAL_Driver/Src/stm32f1xx_ll_usb.c ****       PCD_SET_EP_TX_STATUS(USBx, ep->num, USB_EP_TX_DIS);
1819:Drivers/STM32F1xx_HAL_Driver/Src/stm32f1xx_ll_usb.c ****     }
1820:Drivers/STM32F1xx_HAL_Driver/Src/stm32f1xx_ll_usb.c ****     else
1821:Drivers/STM32F1xx_HAL_Driver/Src/stm32f1xx_ll_usb.c ****     {
1822:Drivers/STM32F1xx_HAL_Driver/Src/stm32f1xx_ll_usb.c ****       /* Clear the data toggle bits for the endpoint IN/OUT*/
1823:Drivers/STM32F1xx_HAL_Driver/Src/stm32f1xx_ll_usb.c ****       PCD_CLEAR_RX_DTOG(USBx, ep->num);
1824:Drivers/STM32F1xx_HAL_Driver/Src/stm32f1xx_ll_usb.c ****       PCD_CLEAR_TX_DTOG(USBx, ep->num);
1825:Drivers/STM32F1xx_HAL_Driver/Src/stm32f1xx_ll_usb.c ****       PCD_RX_DTOG(USBx, ep->num);
1826:Drivers/STM32F1xx_HAL_Driver/Src/stm32f1xx_ll_usb.c ****       /* Configure DISABLE status for the Endpoint*/
1827:Drivers/STM32F1xx_HAL_Driver/Src/stm32f1xx_ll_usb.c ****       PCD_SET_EP_TX_STATUS(USBx, ep->num, USB_EP_TX_DIS);
1828:Drivers/STM32F1xx_HAL_Driver/Src/stm32f1xx_ll_usb.c ****       PCD_SET_EP_RX_STATUS(USBx, ep->num, USB_EP_RX_DIS);
 811              		.loc 1 1828 57 view .LVU192
1829:Drivers/STM32F1xx_HAL_Driver/Src/stm32f1xx_ll_usb.c ****     }
1830:Drivers/STM32F1xx_HAL_Driver/Src/stm32f1xx_ll_usb.c ****   }
1831:Drivers/STM32F1xx_HAL_Driver/Src/stm32f1xx_ll_usb.c ****   
1832:Drivers/STM32F1xx_HAL_Driver/Src/stm32f1xx_ll_usb.c ****   return HAL_OK;
 812              		.loc 1 1832 3 view .LVU193
1833:Drivers/STM32F1xx_HAL_Driver/Src/stm32f1xx_ll_usb.c **** }
 813              		.loc 1 1833 1 is_stmt 0 view .LVU194
 814 004a 0020     		movs	r0, #0
 815              	.LVL47:
 816              		.loc 1 1833 1 view .LVU195
 817 004c 7047     		bx	lr
 818              	.LVL48:
 819              	.L34:
1800:Drivers/STM32F1xx_HAL_Driver/Src/stm32f1xx_ll_usb.c ****       /* Configure DISABLE status for the Endpoint*/
 820              		.loc 1 1800 7 is_stmt 1 view .LVU196
 821 004e 0A78     		ldrb	r2, [r1]	@ zero_extendqisi2
 822 0050 30F82230 		ldrh	r3, [r0, r2, lsl #2]
 823 0054 13F4804F 		tst	r3, #16384
 824 0058 0BD0     		beq	.L37
1800:Drivers/STM32F1xx_HAL_Driver/Src/stm32f1xx_ll_usb.c ****       /* Configure DISABLE status for the Endpoint*/
 825              		.loc 1 1800 7 discriminator 1 view .LVU197
 826 005a 30F82230 		ldrh	r3, [r0, r2, lsl #2]
ARM GAS  /var/folders/rf/wfq6hz5s56g3yh4wqgd7820c0000gn/T//ccZ1SRBq.s 			page 49


 827 005e 23F0F003 		bic	r3, r3, #240
 828 0062 1B05     		lsls	r3, r3, #20
 829 0064 1B0D     		lsrs	r3, r3, #20
 830 0066 43F44043 		orr	r3, r3, #49152
 831 006a 43F08003 		orr	r3, r3, #128
 832 006e 20F82230 		strh	r3, [r0, r2, lsl #2]	@ movhi
 833              	.L37:
1800:Drivers/STM32F1xx_HAL_Driver/Src/stm32f1xx_ll_usb.c ****       /* Configure DISABLE status for the Endpoint*/
 834              		.loc 1 1800 39 discriminator 3 view .LVU198
 835              	.LBB13:
1802:Drivers/STM32F1xx_HAL_Driver/Src/stm32f1xx_ll_usb.c ****     }
 836              		.loc 1 1802 7 discriminator 3 view .LVU199
1802:Drivers/STM32F1xx_HAL_Driver/Src/stm32f1xx_ll_usb.c ****     }
 837              		.loc 1 1802 7 discriminator 3 view .LVU200
 838 0072 0A78     		ldrb	r2, [r1]	@ zero_extendqisi2
 839 0074 30F82230 		ldrh	r3, [r0, r2, lsl #2]
 840 0078 9BB2     		uxth	r3, r3
 841 007a 23F48043 		bic	r3, r3, #16384
 842 007e 23F07003 		bic	r3, r3, #112
 843              	.LVL49:
1802:Drivers/STM32F1xx_HAL_Driver/Src/stm32f1xx_ll_usb.c ****     }
 844              		.loc 1 1802 7 discriminator 3 view .LVU201
1802:Drivers/STM32F1xx_HAL_Driver/Src/stm32f1xx_ll_usb.c ****     }
 845              		.loc 1 1802 7 discriminator 3 view .LVU202
1802:Drivers/STM32F1xx_HAL_Driver/Src/stm32f1xx_ll_usb.c ****     }
 846              		.loc 1 1802 7 discriminator 3 view .LVU203
 847 0082 43F40043 		orr	r3, r3, #32768
 848              	.LVL50:
1802:Drivers/STM32F1xx_HAL_Driver/Src/stm32f1xx_ll_usb.c ****     }
 849              		.loc 1 1802 7 is_stmt 0 discriminator 3 view .LVU204
 850 0086 43F08003 		orr	r3, r3, #128
 851 008a 20F82230 		strh	r3, [r0, r2, lsl #2]	@ movhi
 852 008e DCE7     		b	.L44
 853              	.L33:
1802:Drivers/STM32F1xx_HAL_Driver/Src/stm32f1xx_ll_usb.c ****     }
 854              		.loc 1 1802 7 discriminator 3 view .LVU205
 855              	.LBE13:
1789:Drivers/STM32F1xx_HAL_Driver/Src/stm32f1xx_ll_usb.c ****   if (ep->doublebuffer == 0) 
 856              		.loc 1 1789 1 view .LVU206
 857 0090 10B4     		push	{r4}
 858              	.LCFI9:
 859              		.cfi_def_cfa_offset 4
 860              		.cfi_offset 4, -4
1808:Drivers/STM32F1xx_HAL_Driver/Src/stm32f1xx_ll_usb.c ****     {
 861              		.loc 1 1808 5 is_stmt 1 view .LVU207
1808:Drivers/STM32F1xx_HAL_Driver/Src/stm32f1xx_ll_usb.c ****     {
 862              		.loc 1 1808 11 is_stmt 0 view .LVU208
 863 0092 4B78     		ldrb	r3, [r1, #1]	@ zero_extendqisi2
1808:Drivers/STM32F1xx_HAL_Driver/Src/stm32f1xx_ll_usb.c ****     {
 864              		.loc 1 1808 8 view .LVU209
 865 0094 002B     		cmp	r3, #0
 866 0096 4BD1     		bne	.L38
1811:Drivers/STM32F1xx_HAL_Driver/Src/stm32f1xx_ll_usb.c ****       PCD_CLEAR_TX_DTOG(USBx, ep->num);
 867              		.loc 1 1811 7 is_stmt 1 view .LVU210
 868 0098 0A78     		ldrb	r2, [r1]	@ zero_extendqisi2
 869 009a 30F82230 		ldrh	r3, [r0, r2, lsl #2]
 870 009e 13F4804F 		tst	r3, #16384
ARM GAS  /var/folders/rf/wfq6hz5s56g3yh4wqgd7820c0000gn/T//ccZ1SRBq.s 			page 50


 871 00a2 0BD0     		beq	.L39
1811:Drivers/STM32F1xx_HAL_Driver/Src/stm32f1xx_ll_usb.c ****       PCD_CLEAR_TX_DTOG(USBx, ep->num);
 872              		.loc 1 1811 7 discriminator 1 view .LVU211
 873 00a4 30F82230 		ldrh	r3, [r0, r2, lsl #2]
 874 00a8 23F0F003 		bic	r3, r3, #240
 875 00ac 1B05     		lsls	r3, r3, #20
 876 00ae 1B0D     		lsrs	r3, r3, #20
 877 00b0 43F44043 		orr	r3, r3, #49152
 878 00b4 43F08003 		orr	r3, r3, #128
 879 00b8 20F82230 		strh	r3, [r0, r2, lsl #2]	@ movhi
 880              	.L39:
1811:Drivers/STM32F1xx_HAL_Driver/Src/stm32f1xx_ll_usb.c ****       PCD_CLEAR_TX_DTOG(USBx, ep->num);
 881              		.loc 1 1811 39 discriminator 3 view .LVU212
1812:Drivers/STM32F1xx_HAL_Driver/Src/stm32f1xx_ll_usb.c ****       
 882              		.loc 1 1812 7 discriminator 3 view .LVU213
 883 00bc 0A78     		ldrb	r2, [r1]	@ zero_extendqisi2
 884 00be 30F82230 		ldrh	r3, [r0, r2, lsl #2]
 885 00c2 13F0400F 		tst	r3, #64
 886 00c6 0BD0     		beq	.L40
1812:Drivers/STM32F1xx_HAL_Driver/Src/stm32f1xx_ll_usb.c ****       
 887              		.loc 1 1812 7 discriminator 1 view .LVU214
 888 00c8 30F82230 		ldrh	r3, [r0, r2, lsl #2]
 889 00cc 23F0F003 		bic	r3, r3, #240
 890 00d0 1B05     		lsls	r3, r3, #20
 891 00d2 1B0D     		lsrs	r3, r3, #20
 892 00d4 43F40043 		orr	r3, r3, #32768
 893 00d8 43F0C003 		orr	r3, r3, #192
 894 00dc 20F82230 		strh	r3, [r0, r2, lsl #2]	@ movhi
 895              	.L40:
1812:Drivers/STM32F1xx_HAL_Driver/Src/stm32f1xx_ll_usb.c ****       
 896              		.loc 1 1812 39 discriminator 3 view .LVU215
1815:Drivers/STM32F1xx_HAL_Driver/Src/stm32f1xx_ll_usb.c ****       
 897              		.loc 1 1815 7 discriminator 3 view .LVU216
 898 00e0 0A78     		ldrb	r2, [r1]	@ zero_extendqisi2
 899 00e2 30F82230 		ldrh	r3, [r0, r2, lsl #2]
 900 00e6 23F0F003 		bic	r3, r3, #240
 901 00ea 1B05     		lsls	r3, r3, #20
 902 00ec 1B0D     		lsrs	r3, r3, #20
 903 00ee 43F40043 		orr	r3, r3, #32768
 904 00f2 43F0C003 		orr	r3, r3, #192
 905 00f6 20F82230 		strh	r3, [r0, r2, lsl #2]	@ movhi
 906              	.LBB14:
1817:Drivers/STM32F1xx_HAL_Driver/Src/stm32f1xx_ll_usb.c ****       PCD_SET_EP_TX_STATUS(USBx, ep->num, USB_EP_TX_DIS);
 907              		.loc 1 1817 7 discriminator 3 view .LVU217
1817:Drivers/STM32F1xx_HAL_Driver/Src/stm32f1xx_ll_usb.c ****       PCD_SET_EP_TX_STATUS(USBx, ep->num, USB_EP_TX_DIS);
 908              		.loc 1 1817 7 discriminator 3 view .LVU218
 909 00fa 0B78     		ldrb	r3, [r1]	@ zero_extendqisi2
 910 00fc 30F82320 		ldrh	r2, [r0, r3, lsl #2]
 911 0100 92B2     		uxth	r2, r2
 912 0102 22F48042 		bic	r2, r2, #16384
 913 0106 22F07002 		bic	r2, r2, #112
 914              	.LVL51:
1817:Drivers/STM32F1xx_HAL_Driver/Src/stm32f1xx_ll_usb.c ****       PCD_SET_EP_TX_STATUS(USBx, ep->num, USB_EP_TX_DIS);
 915              		.loc 1 1817 7 discriminator 3 view .LVU219
1817:Drivers/STM32F1xx_HAL_Driver/Src/stm32f1xx_ll_usb.c ****       PCD_SET_EP_TX_STATUS(USBx, ep->num, USB_EP_TX_DIS);
 916              		.loc 1 1817 7 discriminator 3 view .LVU220
1817:Drivers/STM32F1xx_HAL_Driver/Src/stm32f1xx_ll_usb.c ****       PCD_SET_EP_TX_STATUS(USBx, ep->num, USB_EP_TX_DIS);
ARM GAS  /var/folders/rf/wfq6hz5s56g3yh4wqgd7820c0000gn/T//ccZ1SRBq.s 			page 51


 917              		.loc 1 1817 7 discriminator 3 view .LVU221
 918 010a 48F28004 		movw	r4, #32896
 919 010e 2243     		orrs	r2, r2, r4
 920              	.LVL52:
1817:Drivers/STM32F1xx_HAL_Driver/Src/stm32f1xx_ll_usb.c ****       PCD_SET_EP_TX_STATUS(USBx, ep->num, USB_EP_TX_DIS);
 921              		.loc 1 1817 7 is_stmt 0 discriminator 3 view .LVU222
 922 0110 20F82320 		strh	r2, [r0, r3, lsl #2]	@ movhi
 923              	.LBE14:
1817:Drivers/STM32F1xx_HAL_Driver/Src/stm32f1xx_ll_usb.c ****       PCD_SET_EP_TX_STATUS(USBx, ep->num, USB_EP_TX_DIS);
 924              		.loc 1 1817 57 is_stmt 1 discriminator 3 view .LVU223
 925              	.LBB15:
1818:Drivers/STM32F1xx_HAL_Driver/Src/stm32f1xx_ll_usb.c ****     }
 926              		.loc 1 1818 7 discriminator 3 view .LVU224
1818:Drivers/STM32F1xx_HAL_Driver/Src/stm32f1xx_ll_usb.c ****     }
 927              		.loc 1 1818 7 discriminator 3 view .LVU225
 928 0114 0A78     		ldrb	r2, [r1]	@ zero_extendqisi2
 929 0116 30F82230 		ldrh	r3, [r0, r2, lsl #2]
 930 011a 9BB2     		uxth	r3, r3
 931 011c 23F4E043 		bic	r3, r3, #28672
 932 0120 23F04003 		bic	r3, r3, #64
 933              	.LVL53:
1818:Drivers/STM32F1xx_HAL_Driver/Src/stm32f1xx_ll_usb.c ****     }
 934              		.loc 1 1818 7 discriminator 3 view .LVU226
1818:Drivers/STM32F1xx_HAL_Driver/Src/stm32f1xx_ll_usb.c ****     }
 935              		.loc 1 1818 7 discriminator 3 view .LVU227
1818:Drivers/STM32F1xx_HAL_Driver/Src/stm32f1xx_ll_usb.c ****     }
 936              		.loc 1 1818 7 discriminator 3 view .LVU228
 937 0124 2343     		orrs	r3, r3, r4
 938              	.LVL54:
1818:Drivers/STM32F1xx_HAL_Driver/Src/stm32f1xx_ll_usb.c ****     }
 939              		.loc 1 1818 7 is_stmt 0 discriminator 3 view .LVU229
 940 0126 20F82230 		strh	r3, [r0, r2, lsl #2]	@ movhi
 941              	.LBE15:
1818:Drivers/STM32F1xx_HAL_Driver/Src/stm32f1xx_ll_usb.c ****     }
 942              		.loc 1 1818 57 is_stmt 1 discriminator 3 view .LVU230
 943              	.L36:
1828:Drivers/STM32F1xx_HAL_Driver/Src/stm32f1xx_ll_usb.c ****     }
 944              		.loc 1 1828 57 discriminator 7 view .LVU231
1832:Drivers/STM32F1xx_HAL_Driver/Src/stm32f1xx_ll_usb.c **** }
 945              		.loc 1 1832 3 discriminator 7 view .LVU232
 946              		.loc 1 1833 1 is_stmt 0 discriminator 7 view .LVU233
 947 012a 0020     		movs	r0, #0
 948              	.LVL55:
 949              		.loc 1 1833 1 discriminator 7 view .LVU234
 950 012c 10BC     		pop	{r4}
 951              	.LCFI10:
 952              		.cfi_remember_state
 953              		.cfi_restore 4
 954              		.cfi_def_cfa_offset 0
 955 012e 7047     		bx	lr
 956              	.LVL56:
 957              	.L38:
 958              	.LCFI11:
 959              		.cfi_restore_state
1823:Drivers/STM32F1xx_HAL_Driver/Src/stm32f1xx_ll_usb.c ****       PCD_CLEAR_TX_DTOG(USBx, ep->num);
 960              		.loc 1 1823 7 is_stmt 1 view .LVU235
 961 0130 0A78     		ldrb	r2, [r1]	@ zero_extendqisi2
ARM GAS  /var/folders/rf/wfq6hz5s56g3yh4wqgd7820c0000gn/T//ccZ1SRBq.s 			page 52


 962 0132 30F82230 		ldrh	r3, [r0, r2, lsl #2]
 963 0136 13F4804F 		tst	r3, #16384
 964 013a 0BD0     		beq	.L41
1823:Drivers/STM32F1xx_HAL_Driver/Src/stm32f1xx_ll_usb.c ****       PCD_CLEAR_TX_DTOG(USBx, ep->num);
 965              		.loc 1 1823 7 discriminator 1 view .LVU236
 966 013c 30F82230 		ldrh	r3, [r0, r2, lsl #2]
 967 0140 23F0F003 		bic	r3, r3, #240
 968 0144 1B05     		lsls	r3, r3, #20
 969 0146 1B0D     		lsrs	r3, r3, #20
 970 0148 43F44043 		orr	r3, r3, #49152
 971 014c 43F08003 		orr	r3, r3, #128
 972 0150 20F82230 		strh	r3, [r0, r2, lsl #2]	@ movhi
 973              	.L41:
1823:Drivers/STM32F1xx_HAL_Driver/Src/stm32f1xx_ll_usb.c ****       PCD_CLEAR_TX_DTOG(USBx, ep->num);
 974              		.loc 1 1823 39 discriminator 3 view .LVU237
1824:Drivers/STM32F1xx_HAL_Driver/Src/stm32f1xx_ll_usb.c ****       PCD_RX_DTOG(USBx, ep->num);
 975              		.loc 1 1824 7 discriminator 3 view .LVU238
 976 0154 0A78     		ldrb	r2, [r1]	@ zero_extendqisi2
 977 0156 30F82230 		ldrh	r3, [r0, r2, lsl #2]
 978 015a 13F0400F 		tst	r3, #64
 979 015e 0BD0     		beq	.L42
1824:Drivers/STM32F1xx_HAL_Driver/Src/stm32f1xx_ll_usb.c ****       PCD_RX_DTOG(USBx, ep->num);
 980              		.loc 1 1824 7 discriminator 1 view .LVU239
 981 0160 30F82230 		ldrh	r3, [r0, r2, lsl #2]
 982 0164 23F0F003 		bic	r3, r3, #240
 983 0168 1B05     		lsls	r3, r3, #20
 984 016a 1B0D     		lsrs	r3, r3, #20
 985 016c 43F40043 		orr	r3, r3, #32768
 986 0170 43F0C003 		orr	r3, r3, #192
 987 0174 20F82230 		strh	r3, [r0, r2, lsl #2]	@ movhi
 988              	.L42:
1824:Drivers/STM32F1xx_HAL_Driver/Src/stm32f1xx_ll_usb.c ****       PCD_RX_DTOG(USBx, ep->num);
 989              		.loc 1 1824 39 discriminator 3 view .LVU240
1825:Drivers/STM32F1xx_HAL_Driver/Src/stm32f1xx_ll_usb.c ****       /* Configure DISABLE status for the Endpoint*/
 990              		.loc 1 1825 7 discriminator 3 view .LVU241
 991 0178 0A78     		ldrb	r2, [r1]	@ zero_extendqisi2
 992 017a 30F82230 		ldrh	r3, [r0, r2, lsl #2]
 993 017e 23F0F003 		bic	r3, r3, #240
 994 0182 1B05     		lsls	r3, r3, #20
 995 0184 1B0D     		lsrs	r3, r3, #20
 996 0186 43F44043 		orr	r3, r3, #49152
 997 018a 43F08003 		orr	r3, r3, #128
 998 018e 20F82230 		strh	r3, [r0, r2, lsl #2]	@ movhi
 999              	.LBB16:
1827:Drivers/STM32F1xx_HAL_Driver/Src/stm32f1xx_ll_usb.c ****       PCD_SET_EP_RX_STATUS(USBx, ep->num, USB_EP_RX_DIS);
 1000              		.loc 1 1827 7 discriminator 3 view .LVU242
1827:Drivers/STM32F1xx_HAL_Driver/Src/stm32f1xx_ll_usb.c ****       PCD_SET_EP_RX_STATUS(USBx, ep->num, USB_EP_RX_DIS);
 1001              		.loc 1 1827 7 discriminator 3 view .LVU243
 1002 0192 0B78     		ldrb	r3, [r1]	@ zero_extendqisi2
 1003 0194 30F82320 		ldrh	r2, [r0, r3, lsl #2]
 1004 0198 92B2     		uxth	r2, r2
 1005 019a 22F4E042 		bic	r2, r2, #28672
 1006 019e 22F04002 		bic	r2, r2, #64
 1007              	.LVL57:
1827:Drivers/STM32F1xx_HAL_Driver/Src/stm32f1xx_ll_usb.c ****       PCD_SET_EP_RX_STATUS(USBx, ep->num, USB_EP_RX_DIS);
 1008              		.loc 1 1827 7 discriminator 3 view .LVU244
1827:Drivers/STM32F1xx_HAL_Driver/Src/stm32f1xx_ll_usb.c ****       PCD_SET_EP_RX_STATUS(USBx, ep->num, USB_EP_RX_DIS);
ARM GAS  /var/folders/rf/wfq6hz5s56g3yh4wqgd7820c0000gn/T//ccZ1SRBq.s 			page 53


 1009              		.loc 1 1827 7 discriminator 3 view .LVU245
1827:Drivers/STM32F1xx_HAL_Driver/Src/stm32f1xx_ll_usb.c ****       PCD_SET_EP_RX_STATUS(USBx, ep->num, USB_EP_RX_DIS);
 1010              		.loc 1 1827 7 discriminator 3 view .LVU246
 1011 01a2 48F28004 		movw	r4, #32896
 1012 01a6 2243     		orrs	r2, r2, r4
 1013              	.LVL58:
1827:Drivers/STM32F1xx_HAL_Driver/Src/stm32f1xx_ll_usb.c ****       PCD_SET_EP_RX_STATUS(USBx, ep->num, USB_EP_RX_DIS);
 1014              		.loc 1 1827 7 is_stmt 0 discriminator 3 view .LVU247
 1015 01a8 20F82320 		strh	r2, [r0, r3, lsl #2]	@ movhi
 1016              	.LBE16:
1827:Drivers/STM32F1xx_HAL_Driver/Src/stm32f1xx_ll_usb.c ****       PCD_SET_EP_RX_STATUS(USBx, ep->num, USB_EP_RX_DIS);
 1017              		.loc 1 1827 57 is_stmt 1 discriminator 3 view .LVU248
 1018              	.LBB17:
1828:Drivers/STM32F1xx_HAL_Driver/Src/stm32f1xx_ll_usb.c ****     }
 1019              		.loc 1 1828 7 discriminator 3 view .LVU249
1828:Drivers/STM32F1xx_HAL_Driver/Src/stm32f1xx_ll_usb.c ****     }
 1020              		.loc 1 1828 7 discriminator 3 view .LVU250
 1021 01ac 0A78     		ldrb	r2, [r1]	@ zero_extendqisi2
 1022 01ae 30F82230 		ldrh	r3, [r0, r2, lsl #2]
 1023 01b2 9BB2     		uxth	r3, r3
 1024 01b4 23F48043 		bic	r3, r3, #16384
 1025 01b8 23F07003 		bic	r3, r3, #112
 1026              	.LVL59:
1828:Drivers/STM32F1xx_HAL_Driver/Src/stm32f1xx_ll_usb.c ****     }
 1027              		.loc 1 1828 7 discriminator 3 view .LVU251
1828:Drivers/STM32F1xx_HAL_Driver/Src/stm32f1xx_ll_usb.c ****     }
 1028              		.loc 1 1828 7 discriminator 3 view .LVU252
1828:Drivers/STM32F1xx_HAL_Driver/Src/stm32f1xx_ll_usb.c ****     }
 1029              		.loc 1 1828 7 discriminator 3 view .LVU253
 1030 01bc 2343     		orrs	r3, r3, r4
 1031              	.LVL60:
1828:Drivers/STM32F1xx_HAL_Driver/Src/stm32f1xx_ll_usb.c ****     }
 1032              		.loc 1 1828 7 is_stmt 0 discriminator 3 view .LVU254
 1033 01be 20F82230 		strh	r3, [r0, r2, lsl #2]	@ movhi
 1034 01c2 B2E7     		b	.L36
 1035              	.LBE17:
 1036              		.cfi_endproc
 1037              	.LFE74:
 1039              		.section	.text.USB_WritePacket,"ax",%progbits
 1040              		.align	1
 1041              		.global	USB_WritePacket
 1042              		.syntax unified
 1043              		.thumb
 1044              		.thumb_func
 1045              		.fpu softvfp
 1047              	USB_WritePacket:
 1048              	.LVL61:
 1049              	.LFB76:
1834:Drivers/STM32F1xx_HAL_Driver/Src/stm32f1xx_ll_usb.c **** 
1835:Drivers/STM32F1xx_HAL_Driver/Src/stm32f1xx_ll_usb.c **** /**
1836:Drivers/STM32F1xx_HAL_Driver/Src/stm32f1xx_ll_usb.c ****   * @brief  USB_EPStartXfer : setup and starts a transfer over an EP
1837:Drivers/STM32F1xx_HAL_Driver/Src/stm32f1xx_ll_usb.c ****   * @param  USBx : Selected device
1838:Drivers/STM32F1xx_HAL_Driver/Src/stm32f1xx_ll_usb.c ****   * @param  ep: pointer to endpoint structure
1839:Drivers/STM32F1xx_HAL_Driver/Src/stm32f1xx_ll_usb.c ****   * @retval HAL status
1840:Drivers/STM32F1xx_HAL_Driver/Src/stm32f1xx_ll_usb.c ****   */
1841:Drivers/STM32F1xx_HAL_Driver/Src/stm32f1xx_ll_usb.c **** HAL_StatusTypeDef USB_EPStartXfer(USB_TypeDef *USBx , USB_EPTypeDef *ep)
1842:Drivers/STM32F1xx_HAL_Driver/Src/stm32f1xx_ll_usb.c **** {
ARM GAS  /var/folders/rf/wfq6hz5s56g3yh4wqgd7820c0000gn/T//ccZ1SRBq.s 			page 54


1843:Drivers/STM32F1xx_HAL_Driver/Src/stm32f1xx_ll_usb.c ****   uint16_t pmabuffer = 0;
1844:Drivers/STM32F1xx_HAL_Driver/Src/stm32f1xx_ll_usb.c ****   uint32_t len = ep->xfer_len;
1845:Drivers/STM32F1xx_HAL_Driver/Src/stm32f1xx_ll_usb.c ****   
1846:Drivers/STM32F1xx_HAL_Driver/Src/stm32f1xx_ll_usb.c ****   /* IN endpoint */
1847:Drivers/STM32F1xx_HAL_Driver/Src/stm32f1xx_ll_usb.c ****   if (ep->is_in == 1)
1848:Drivers/STM32F1xx_HAL_Driver/Src/stm32f1xx_ll_usb.c ****   {
1849:Drivers/STM32F1xx_HAL_Driver/Src/stm32f1xx_ll_usb.c ****     /*Multi packet transfer*/
1850:Drivers/STM32F1xx_HAL_Driver/Src/stm32f1xx_ll_usb.c ****     if (ep->xfer_len > ep->maxpacket)
1851:Drivers/STM32F1xx_HAL_Driver/Src/stm32f1xx_ll_usb.c ****     {
1852:Drivers/STM32F1xx_HAL_Driver/Src/stm32f1xx_ll_usb.c ****       len=ep->maxpacket;
1853:Drivers/STM32F1xx_HAL_Driver/Src/stm32f1xx_ll_usb.c ****       ep->xfer_len-=len; 
1854:Drivers/STM32F1xx_HAL_Driver/Src/stm32f1xx_ll_usb.c ****     }
1855:Drivers/STM32F1xx_HAL_Driver/Src/stm32f1xx_ll_usb.c ****     else
1856:Drivers/STM32F1xx_HAL_Driver/Src/stm32f1xx_ll_usb.c ****     {  
1857:Drivers/STM32F1xx_HAL_Driver/Src/stm32f1xx_ll_usb.c ****       len=ep->xfer_len;
1858:Drivers/STM32F1xx_HAL_Driver/Src/stm32f1xx_ll_usb.c ****       ep->xfer_len =0;
1859:Drivers/STM32F1xx_HAL_Driver/Src/stm32f1xx_ll_usb.c ****     }
1860:Drivers/STM32F1xx_HAL_Driver/Src/stm32f1xx_ll_usb.c ****     
1861:Drivers/STM32F1xx_HAL_Driver/Src/stm32f1xx_ll_usb.c ****     /* configure and validate Tx endpoint */
1862:Drivers/STM32F1xx_HAL_Driver/Src/stm32f1xx_ll_usb.c ****     if (ep->doublebuffer == 0) 
1863:Drivers/STM32F1xx_HAL_Driver/Src/stm32f1xx_ll_usb.c ****     {
1864:Drivers/STM32F1xx_HAL_Driver/Src/stm32f1xx_ll_usb.c ****       USB_WritePMA(USBx, ep->xfer_buff, ep->pmaadress, len);
1865:Drivers/STM32F1xx_HAL_Driver/Src/stm32f1xx_ll_usb.c ****       PCD_SET_EP_TX_CNT(USBx, ep->num, len);
1866:Drivers/STM32F1xx_HAL_Driver/Src/stm32f1xx_ll_usb.c ****     }
1867:Drivers/STM32F1xx_HAL_Driver/Src/stm32f1xx_ll_usb.c ****     else
1868:Drivers/STM32F1xx_HAL_Driver/Src/stm32f1xx_ll_usb.c ****     {
1869:Drivers/STM32F1xx_HAL_Driver/Src/stm32f1xx_ll_usb.c ****       /* Write the data to the USB endpoint */
1870:Drivers/STM32F1xx_HAL_Driver/Src/stm32f1xx_ll_usb.c ****       if (PCD_GET_ENDPOINT(USBx, ep->num)& USB_EP_DTOG_TX)
1871:Drivers/STM32F1xx_HAL_Driver/Src/stm32f1xx_ll_usb.c ****       {
1872:Drivers/STM32F1xx_HAL_Driver/Src/stm32f1xx_ll_usb.c ****         /* Set the Double buffer counter for pmabuffer1 */
1873:Drivers/STM32F1xx_HAL_Driver/Src/stm32f1xx_ll_usb.c ****         PCD_SET_EP_DBUF1_CNT(USBx, ep->num, ep->is_in, len);
1874:Drivers/STM32F1xx_HAL_Driver/Src/stm32f1xx_ll_usb.c ****         pmabuffer = ep->pmaaddr1;
1875:Drivers/STM32F1xx_HAL_Driver/Src/stm32f1xx_ll_usb.c ****       }
1876:Drivers/STM32F1xx_HAL_Driver/Src/stm32f1xx_ll_usb.c ****       else
1877:Drivers/STM32F1xx_HAL_Driver/Src/stm32f1xx_ll_usb.c ****       {
1878:Drivers/STM32F1xx_HAL_Driver/Src/stm32f1xx_ll_usb.c ****         /* Set the Double buffer counter for pmabuffer0 */
1879:Drivers/STM32F1xx_HAL_Driver/Src/stm32f1xx_ll_usb.c ****         PCD_SET_EP_DBUF0_CNT(USBx, ep->num, ep->is_in, len);
1880:Drivers/STM32F1xx_HAL_Driver/Src/stm32f1xx_ll_usb.c ****         pmabuffer = ep->pmaaddr0;
1881:Drivers/STM32F1xx_HAL_Driver/Src/stm32f1xx_ll_usb.c ****       }
1882:Drivers/STM32F1xx_HAL_Driver/Src/stm32f1xx_ll_usb.c ****       USB_WritePMA(USBx, ep->xfer_buff, pmabuffer, len);
1883:Drivers/STM32F1xx_HAL_Driver/Src/stm32f1xx_ll_usb.c ****       PCD_FreeUserBuffer(USBx, ep->num, ep->is_in);
1884:Drivers/STM32F1xx_HAL_Driver/Src/stm32f1xx_ll_usb.c ****     }
1885:Drivers/STM32F1xx_HAL_Driver/Src/stm32f1xx_ll_usb.c ****     
1886:Drivers/STM32F1xx_HAL_Driver/Src/stm32f1xx_ll_usb.c ****     PCD_SET_EP_TX_STATUS(USBx, ep->num, USB_EP_TX_VALID);
1887:Drivers/STM32F1xx_HAL_Driver/Src/stm32f1xx_ll_usb.c ****   }
1888:Drivers/STM32F1xx_HAL_Driver/Src/stm32f1xx_ll_usb.c ****   else /* OUT endpoint */
1889:Drivers/STM32F1xx_HAL_Driver/Src/stm32f1xx_ll_usb.c ****   {
1890:Drivers/STM32F1xx_HAL_Driver/Src/stm32f1xx_ll_usb.c ****     /* Multi packet transfer*/
1891:Drivers/STM32F1xx_HAL_Driver/Src/stm32f1xx_ll_usb.c ****     if (ep->xfer_len > ep->maxpacket)
1892:Drivers/STM32F1xx_HAL_Driver/Src/stm32f1xx_ll_usb.c ****     {
1893:Drivers/STM32F1xx_HAL_Driver/Src/stm32f1xx_ll_usb.c ****       len=ep->maxpacket;
1894:Drivers/STM32F1xx_HAL_Driver/Src/stm32f1xx_ll_usb.c ****       ep->xfer_len-=len; 
1895:Drivers/STM32F1xx_HAL_Driver/Src/stm32f1xx_ll_usb.c ****     }
1896:Drivers/STM32F1xx_HAL_Driver/Src/stm32f1xx_ll_usb.c ****     else
1897:Drivers/STM32F1xx_HAL_Driver/Src/stm32f1xx_ll_usb.c ****     {
1898:Drivers/STM32F1xx_HAL_Driver/Src/stm32f1xx_ll_usb.c ****       len=ep->xfer_len;
1899:Drivers/STM32F1xx_HAL_Driver/Src/stm32f1xx_ll_usb.c ****       ep->xfer_len =0;
ARM GAS  /var/folders/rf/wfq6hz5s56g3yh4wqgd7820c0000gn/T//ccZ1SRBq.s 			page 55


1900:Drivers/STM32F1xx_HAL_Driver/Src/stm32f1xx_ll_usb.c ****     }
1901:Drivers/STM32F1xx_HAL_Driver/Src/stm32f1xx_ll_usb.c ****     
1902:Drivers/STM32F1xx_HAL_Driver/Src/stm32f1xx_ll_usb.c ****     /* configure and validate Rx endpoint */
1903:Drivers/STM32F1xx_HAL_Driver/Src/stm32f1xx_ll_usb.c ****     if (ep->doublebuffer == 0) 
1904:Drivers/STM32F1xx_HAL_Driver/Src/stm32f1xx_ll_usb.c ****     {
1905:Drivers/STM32F1xx_HAL_Driver/Src/stm32f1xx_ll_usb.c ****       /*Set RX buffer count*/
1906:Drivers/STM32F1xx_HAL_Driver/Src/stm32f1xx_ll_usb.c ****       PCD_SET_EP_RX_CNT(USBx, ep->num, len);
1907:Drivers/STM32F1xx_HAL_Driver/Src/stm32f1xx_ll_usb.c ****     }
1908:Drivers/STM32F1xx_HAL_Driver/Src/stm32f1xx_ll_usb.c ****     else
1909:Drivers/STM32F1xx_HAL_Driver/Src/stm32f1xx_ll_usb.c ****     {
1910:Drivers/STM32F1xx_HAL_Driver/Src/stm32f1xx_ll_usb.c ****       /*Set the Double buffer counter*/
1911:Drivers/STM32F1xx_HAL_Driver/Src/stm32f1xx_ll_usb.c ****       PCD_SET_EP_DBUF_CNT(USBx, ep->num, ep->is_in, len);
1912:Drivers/STM32F1xx_HAL_Driver/Src/stm32f1xx_ll_usb.c ****     }
1913:Drivers/STM32F1xx_HAL_Driver/Src/stm32f1xx_ll_usb.c ****     
1914:Drivers/STM32F1xx_HAL_Driver/Src/stm32f1xx_ll_usb.c ****     PCD_SET_EP_RX_STATUS(USBx, ep->num, USB_EP_RX_VALID);
1915:Drivers/STM32F1xx_HAL_Driver/Src/stm32f1xx_ll_usb.c ****   }
1916:Drivers/STM32F1xx_HAL_Driver/Src/stm32f1xx_ll_usb.c ****   
1917:Drivers/STM32F1xx_HAL_Driver/Src/stm32f1xx_ll_usb.c ****   return HAL_OK;
1918:Drivers/STM32F1xx_HAL_Driver/Src/stm32f1xx_ll_usb.c **** }
1919:Drivers/STM32F1xx_HAL_Driver/Src/stm32f1xx_ll_usb.c **** 
1920:Drivers/STM32F1xx_HAL_Driver/Src/stm32f1xx_ll_usb.c **** /**
1921:Drivers/STM32F1xx_HAL_Driver/Src/stm32f1xx_ll_usb.c ****   * @brief  USB_WritePacket : Writes a packet into the Tx FIFO associated 
1922:Drivers/STM32F1xx_HAL_Driver/Src/stm32f1xx_ll_usb.c ****   *         with the EP/channel
1923:Drivers/STM32F1xx_HAL_Driver/Src/stm32f1xx_ll_usb.c ****   * @param  USBx : Selected device
1924:Drivers/STM32F1xx_HAL_Driver/Src/stm32f1xx_ll_usb.c ****   * @param  src :  pointer to source buffer
1925:Drivers/STM32F1xx_HAL_Driver/Src/stm32f1xx_ll_usb.c ****   * @param  ch_ep_num : endpoint or host channel number
1926:Drivers/STM32F1xx_HAL_Driver/Src/stm32f1xx_ll_usb.c ****   * @param  len : Number of bytes to write
1927:Drivers/STM32F1xx_HAL_Driver/Src/stm32f1xx_ll_usb.c ****   * @retval HAL status
1928:Drivers/STM32F1xx_HAL_Driver/Src/stm32f1xx_ll_usb.c ****   */
1929:Drivers/STM32F1xx_HAL_Driver/Src/stm32f1xx_ll_usb.c **** HAL_StatusTypeDef USB_WritePacket(USB_TypeDef *USBx, uint8_t *src, uint8_t ch_ep_num, uint16_t len)
1930:Drivers/STM32F1xx_HAL_Driver/Src/stm32f1xx_ll_usb.c **** {
 1050              		.loc 1 1930 1 is_stmt 1 view -0
 1051              		.cfi_startproc
 1052              		@ args = 0, pretend = 0, frame = 0
 1053              		@ frame_needed = 0, uses_anonymous_args = 0
 1054              		@ link register save eliminated.
1931:Drivers/STM32F1xx_HAL_Driver/Src/stm32f1xx_ll_usb.c ****   /* Prevent unused argument(s) compilation warning */
1932:Drivers/STM32F1xx_HAL_Driver/Src/stm32f1xx_ll_usb.c ****   UNUSED(USBx);
 1055              		.loc 1 1932 3 view .LVU256
1933:Drivers/STM32F1xx_HAL_Driver/Src/stm32f1xx_ll_usb.c ****   UNUSED(src);
 1056              		.loc 1 1933 3 view .LVU257
1934:Drivers/STM32F1xx_HAL_Driver/Src/stm32f1xx_ll_usb.c ****   UNUSED(ch_ep_num);
 1057              		.loc 1 1934 3 view .LVU258
1935:Drivers/STM32F1xx_HAL_Driver/Src/stm32f1xx_ll_usb.c ****   UNUSED(len);
 1058              		.loc 1 1935 3 view .LVU259
1936:Drivers/STM32F1xx_HAL_Driver/Src/stm32f1xx_ll_usb.c ****   /* NOTE : - This function is not required by USB Device FS peripheral, it is used 
1937:Drivers/STM32F1xx_HAL_Driver/Src/stm32f1xx_ll_usb.c ****               only by USB OTG FS peripheral.
1938:Drivers/STM32F1xx_HAL_Driver/Src/stm32f1xx_ll_usb.c ****             - This function is added to ensure compatibility across platforms.
1939:Drivers/STM32F1xx_HAL_Driver/Src/stm32f1xx_ll_usb.c ****    */
1940:Drivers/STM32F1xx_HAL_Driver/Src/stm32f1xx_ll_usb.c ****   return HAL_OK;
 1059              		.loc 1 1940 3 view .LVU260
1941:Drivers/STM32F1xx_HAL_Driver/Src/stm32f1xx_ll_usb.c **** }
 1060              		.loc 1 1941 1 is_stmt 0 view .LVU261
 1061 0000 0020     		movs	r0, #0
 1062              	.LVL62:
 1063              		.loc 1 1941 1 view .LVU262
 1064 0002 7047     		bx	lr
ARM GAS  /var/folders/rf/wfq6hz5s56g3yh4wqgd7820c0000gn/T//ccZ1SRBq.s 			page 56


 1065              		.cfi_endproc
 1066              	.LFE76:
 1068              		.section	.text.USB_ReadPacket,"ax",%progbits
 1069              		.align	1
 1070              		.global	USB_ReadPacket
 1071              		.syntax unified
 1072              		.thumb
 1073              		.thumb_func
 1074              		.fpu softvfp
 1076              	USB_ReadPacket:
 1077              	.LVL63:
 1078              	.LFB77:
1942:Drivers/STM32F1xx_HAL_Driver/Src/stm32f1xx_ll_usb.c **** 
1943:Drivers/STM32F1xx_HAL_Driver/Src/stm32f1xx_ll_usb.c **** /**
1944:Drivers/STM32F1xx_HAL_Driver/Src/stm32f1xx_ll_usb.c ****   * @brief  USB_ReadPacket : read a packet from the Tx FIFO associated 
1945:Drivers/STM32F1xx_HAL_Driver/Src/stm32f1xx_ll_usb.c ****   *         with the EP/channel
1946:Drivers/STM32F1xx_HAL_Driver/Src/stm32f1xx_ll_usb.c ****   * @param  USBx : Selected device
1947:Drivers/STM32F1xx_HAL_Driver/Src/stm32f1xx_ll_usb.c ****   * @param  dest : destination pointer
1948:Drivers/STM32F1xx_HAL_Driver/Src/stm32f1xx_ll_usb.c ****   * @param  len : Number of bytes to read
1949:Drivers/STM32F1xx_HAL_Driver/Src/stm32f1xx_ll_usb.c ****   * @retval pointer to destination buffer
1950:Drivers/STM32F1xx_HAL_Driver/Src/stm32f1xx_ll_usb.c ****   */
1951:Drivers/STM32F1xx_HAL_Driver/Src/stm32f1xx_ll_usb.c **** void *USB_ReadPacket(USB_TypeDef *USBx, uint8_t *dest, uint16_t len)
1952:Drivers/STM32F1xx_HAL_Driver/Src/stm32f1xx_ll_usb.c **** {
 1079              		.loc 1 1952 1 is_stmt 1 view -0
 1080              		.cfi_startproc
 1081              		@ args = 0, pretend = 0, frame = 0
 1082              		@ frame_needed = 0, uses_anonymous_args = 0
 1083              		@ link register save eliminated.
1953:Drivers/STM32F1xx_HAL_Driver/Src/stm32f1xx_ll_usb.c ****   /* Prevent unused argument(s) compilation warning */
1954:Drivers/STM32F1xx_HAL_Driver/Src/stm32f1xx_ll_usb.c ****   UNUSED(USBx);
 1084              		.loc 1 1954 3 view .LVU264
1955:Drivers/STM32F1xx_HAL_Driver/Src/stm32f1xx_ll_usb.c ****   UNUSED(dest);
 1085              		.loc 1 1955 3 view .LVU265
1956:Drivers/STM32F1xx_HAL_Driver/Src/stm32f1xx_ll_usb.c ****   UNUSED(len);
 1086              		.loc 1 1956 3 view .LVU266
1957:Drivers/STM32F1xx_HAL_Driver/Src/stm32f1xx_ll_usb.c ****   /* NOTE : - This function is not required by USB Device FS peripheral, it is used 
1958:Drivers/STM32F1xx_HAL_Driver/Src/stm32f1xx_ll_usb.c ****               only by USB OTG FS peripheral.
1959:Drivers/STM32F1xx_HAL_Driver/Src/stm32f1xx_ll_usb.c ****             - This function is added to ensure compatibility across platforms.
1960:Drivers/STM32F1xx_HAL_Driver/Src/stm32f1xx_ll_usb.c ****    */
1961:Drivers/STM32F1xx_HAL_Driver/Src/stm32f1xx_ll_usb.c ****   return ((void *)NULL);
 1087              		.loc 1 1961 3 view .LVU267
1962:Drivers/STM32F1xx_HAL_Driver/Src/stm32f1xx_ll_usb.c **** }
 1088              		.loc 1 1962 1 is_stmt 0 view .LVU268
 1089 0000 0020     		movs	r0, #0
 1090              	.LVL64:
 1091              		.loc 1 1962 1 view .LVU269
 1092 0002 7047     		bx	lr
 1093              		.cfi_endproc
 1094              	.LFE77:
 1096              		.section	.text.USB_EPSetStall,"ax",%progbits
 1097              		.align	1
 1098              		.global	USB_EPSetStall
 1099              		.syntax unified
 1100              		.thumb
 1101              		.thumb_func
 1102              		.fpu softvfp
 1104              	USB_EPSetStall:
ARM GAS  /var/folders/rf/wfq6hz5s56g3yh4wqgd7820c0000gn/T//ccZ1SRBq.s 			page 57


 1105              	.LVL65:
 1106              	.LFB78:
1963:Drivers/STM32F1xx_HAL_Driver/Src/stm32f1xx_ll_usb.c **** 
1964:Drivers/STM32F1xx_HAL_Driver/Src/stm32f1xx_ll_usb.c **** /**
1965:Drivers/STM32F1xx_HAL_Driver/Src/stm32f1xx_ll_usb.c ****   * @brief  USB_EPSetStall : set a stall condition over an EP
1966:Drivers/STM32F1xx_HAL_Driver/Src/stm32f1xx_ll_usb.c ****   * @param  USBx : Selected device
1967:Drivers/STM32F1xx_HAL_Driver/Src/stm32f1xx_ll_usb.c ****   * @param  ep: pointer to endpoint structure   
1968:Drivers/STM32F1xx_HAL_Driver/Src/stm32f1xx_ll_usb.c ****   * @retval HAL status
1969:Drivers/STM32F1xx_HAL_Driver/Src/stm32f1xx_ll_usb.c ****   */
1970:Drivers/STM32F1xx_HAL_Driver/Src/stm32f1xx_ll_usb.c **** HAL_StatusTypeDef USB_EPSetStall(USB_TypeDef *USBx , USB_EPTypeDef *ep)
1971:Drivers/STM32F1xx_HAL_Driver/Src/stm32f1xx_ll_usb.c **** {
 1107              		.loc 1 1971 1 is_stmt 1 view -0
 1108              		.cfi_startproc
 1109              		@ args = 0, pretend = 0, frame = 0
 1110              		@ frame_needed = 0, uses_anonymous_args = 0
 1111              		@ link register save eliminated.
1972:Drivers/STM32F1xx_HAL_Driver/Src/stm32f1xx_ll_usb.c ****   if (ep->num == 0)
 1112              		.loc 1 1972 3 view .LVU271
 1113              		.loc 1 1972 9 is_stmt 0 view .LVU272
 1114 0000 0A78     		ldrb	r2, [r1]	@ zero_extendqisi2
 1115              		.loc 1 1972 6 view .LVU273
 1116 0002 92B9     		cbnz	r2, .L49
 1117              	.LBB18:
1973:Drivers/STM32F1xx_HAL_Driver/Src/stm32f1xx_ll_usb.c ****   {
1974:Drivers/STM32F1xx_HAL_Driver/Src/stm32f1xx_ll_usb.c ****     /* This macro sets STALL status for RX & TX*/ 
1975:Drivers/STM32F1xx_HAL_Driver/Src/stm32f1xx_ll_usb.c ****     PCD_SET_EP_TXRX_STATUS(USBx, ep->num, USB_EP_RX_STALL, USB_EP_TX_STALL); 
 1118              		.loc 1 1975 5 is_stmt 1 view .LVU274
 1119              		.loc 1 1975 5 view .LVU275
 1120 0004 30F82230 		ldrh	r3, [r0, r2, lsl #2]
 1121 0008 9BB2     		uxth	r3, r3
 1122              	.LVL66:
 1123              		.loc 1 1975 5 view .LVU276
 1124              		.loc 1 1975 5 view .LVU277
 1125              		.loc 1 1975 5 view .LVU278
 1126              		.loc 1 1975 5 view .LVU279
 1127              		.loc 1 1975 5 view .LVU280
 1128              		.loc 1 1975 5 view .LVU281
 1129              		.loc 1 1975 5 view .LVU282
 1130 000a 23F48043 		bic	r3, r3, #16384
 1131              	.LVL67:
 1132              		.loc 1 1975 5 is_stmt 0 view .LVU283
 1133 000e 23F04003 		bic	r3, r3, #64
 1134 0012 83F48053 		eor	r3, r3, #4096
 1135 0016 83F01003 		eor	r3, r3, #16
 1136 001a 43F40043 		orr	r3, r3, #32768
 1137 001e 43F08003 		orr	r3, r3, #128
 1138 0022 20F82230 		strh	r3, [r0, r2, lsl #2]	@ movhi
 1139              	.LBE18:
 1140              		.loc 1 1975 76 is_stmt 1 view .LVU284
 1141              	.L50:
1976:Drivers/STM32F1xx_HAL_Driver/Src/stm32f1xx_ll_usb.c ****   }
1977:Drivers/STM32F1xx_HAL_Driver/Src/stm32f1xx_ll_usb.c ****   else
1978:Drivers/STM32F1xx_HAL_Driver/Src/stm32f1xx_ll_usb.c ****   {
1979:Drivers/STM32F1xx_HAL_Driver/Src/stm32f1xx_ll_usb.c ****     if (ep->is_in)
1980:Drivers/STM32F1xx_HAL_Driver/Src/stm32f1xx_ll_usb.c ****     {
1981:Drivers/STM32F1xx_HAL_Driver/Src/stm32f1xx_ll_usb.c ****       PCD_SET_EP_TX_STATUS(USBx, ep->num , USB_EP_TX_STALL); 
1982:Drivers/STM32F1xx_HAL_Driver/Src/stm32f1xx_ll_usb.c ****     }
ARM GAS  /var/folders/rf/wfq6hz5s56g3yh4wqgd7820c0000gn/T//ccZ1SRBq.s 			page 58


1983:Drivers/STM32F1xx_HAL_Driver/Src/stm32f1xx_ll_usb.c ****     else
1984:Drivers/STM32F1xx_HAL_Driver/Src/stm32f1xx_ll_usb.c ****     {
1985:Drivers/STM32F1xx_HAL_Driver/Src/stm32f1xx_ll_usb.c ****       PCD_SET_EP_RX_STATUS(USBx, ep->num , USB_EP_RX_STALL);
 1142              		.loc 1 1985 60 discriminator 7 view .LVU285
1986:Drivers/STM32F1xx_HAL_Driver/Src/stm32f1xx_ll_usb.c ****     }
1987:Drivers/STM32F1xx_HAL_Driver/Src/stm32f1xx_ll_usb.c ****   }
1988:Drivers/STM32F1xx_HAL_Driver/Src/stm32f1xx_ll_usb.c ****   return HAL_OK;
 1143              		.loc 1 1988 3 discriminator 7 view .LVU286
1989:Drivers/STM32F1xx_HAL_Driver/Src/stm32f1xx_ll_usb.c **** }
 1144              		.loc 1 1989 1 is_stmt 0 discriminator 7 view .LVU287
 1145 0026 0020     		movs	r0, #0
 1146              	.LVL68:
 1147              		.loc 1 1989 1 discriminator 7 view .LVU288
 1148 0028 7047     		bx	lr
 1149              	.LVL69:
 1150              	.L49:
1979:Drivers/STM32F1xx_HAL_Driver/Src/stm32f1xx_ll_usb.c ****     {
 1151              		.loc 1 1979 5 is_stmt 1 view .LVU289
1979:Drivers/STM32F1xx_HAL_Driver/Src/stm32f1xx_ll_usb.c ****     {
 1152              		.loc 1 1979 11 is_stmt 0 view .LVU290
 1153 002a 4B78     		ldrb	r3, [r1, #1]	@ zero_extendqisi2
1979:Drivers/STM32F1xx_HAL_Driver/Src/stm32f1xx_ll_usb.c ****     {
 1154              		.loc 1 1979 8 view .LVU291
 1155 002c 7BB1     		cbz	r3, .L51
 1156              	.LBB19:
1981:Drivers/STM32F1xx_HAL_Driver/Src/stm32f1xx_ll_usb.c ****     }
 1157              		.loc 1 1981 7 is_stmt 1 view .LVU292
1981:Drivers/STM32F1xx_HAL_Driver/Src/stm32f1xx_ll_usb.c ****     }
 1158              		.loc 1 1981 7 view .LVU293
 1159 002e 30F82230 		ldrh	r3, [r0, r2, lsl #2]
 1160 0032 9BB2     		uxth	r3, r3
 1161 0034 23F4E043 		bic	r3, r3, #28672
 1162 0038 23F04003 		bic	r3, r3, #64
 1163              	.LVL70:
1981:Drivers/STM32F1xx_HAL_Driver/Src/stm32f1xx_ll_usb.c ****     }
 1164              		.loc 1 1981 7 view .LVU294
1981:Drivers/STM32F1xx_HAL_Driver/Src/stm32f1xx_ll_usb.c ****     }
 1165              		.loc 1 1981 7 view .LVU295
 1166 003c 83F01003 		eor	r3, r3, #16
 1167              	.LVL71:
1981:Drivers/STM32F1xx_HAL_Driver/Src/stm32f1xx_ll_usb.c ****     }
 1168              		.loc 1 1981 7 view .LVU296
1981:Drivers/STM32F1xx_HAL_Driver/Src/stm32f1xx_ll_usb.c ****     }
 1169              		.loc 1 1981 7 view .LVU297
 1170 0040 43F40043 		orr	r3, r3, #32768
 1171              	.LVL72:
1981:Drivers/STM32F1xx_HAL_Driver/Src/stm32f1xx_ll_usb.c ****     }
 1172              		.loc 1 1981 7 is_stmt 0 view .LVU298
 1173 0044 43F08003 		orr	r3, r3, #128
 1174 0048 20F82230 		strh	r3, [r0, r2, lsl #2]	@ movhi
 1175              	.LBE19:
1981:Drivers/STM32F1xx_HAL_Driver/Src/stm32f1xx_ll_usb.c ****     }
 1176              		.loc 1 1981 60 is_stmt 1 view .LVU299
 1177 004c EBE7     		b	.L50
 1178              	.L51:
 1179              	.LBB20:
1985:Drivers/STM32F1xx_HAL_Driver/Src/stm32f1xx_ll_usb.c ****     }
ARM GAS  /var/folders/rf/wfq6hz5s56g3yh4wqgd7820c0000gn/T//ccZ1SRBq.s 			page 59


 1180              		.loc 1 1985 7 view .LVU300
1985:Drivers/STM32F1xx_HAL_Driver/Src/stm32f1xx_ll_usb.c ****     }
 1181              		.loc 1 1985 7 view .LVU301
 1182 004e 30F82230 		ldrh	r3, [r0, r2, lsl #2]
 1183 0052 9BB2     		uxth	r3, r3
 1184 0054 23F48043 		bic	r3, r3, #16384
 1185 0058 23F07003 		bic	r3, r3, #112
 1186              	.LVL73:
1985:Drivers/STM32F1xx_HAL_Driver/Src/stm32f1xx_ll_usb.c ****     }
 1187              		.loc 1 1985 7 view .LVU302
1985:Drivers/STM32F1xx_HAL_Driver/Src/stm32f1xx_ll_usb.c ****     }
 1188              		.loc 1 1985 7 view .LVU303
 1189 005c 83F48053 		eor	r3, r3, #4096
 1190              	.LVL74:
1985:Drivers/STM32F1xx_HAL_Driver/Src/stm32f1xx_ll_usb.c ****     }
 1191              		.loc 1 1985 7 view .LVU304
1985:Drivers/STM32F1xx_HAL_Driver/Src/stm32f1xx_ll_usb.c ****     }
 1192              		.loc 1 1985 7 view .LVU305
 1193 0060 43F40043 		orr	r3, r3, #32768
 1194              	.LVL75:
1985:Drivers/STM32F1xx_HAL_Driver/Src/stm32f1xx_ll_usb.c ****     }
 1195              		.loc 1 1985 7 is_stmt 0 view .LVU306
 1196 0064 43F08003 		orr	r3, r3, #128
 1197 0068 20F82230 		strh	r3, [r0, r2, lsl #2]	@ movhi
 1198 006c DBE7     		b	.L50
 1199              	.LBE20:
 1200              		.cfi_endproc
 1201              	.LFE78:
 1203              		.section	.text.USB_EPClearStall,"ax",%progbits
 1204              		.align	1
 1205              		.global	USB_EPClearStall
 1206              		.syntax unified
 1207              		.thumb
 1208              		.thumb_func
 1209              		.fpu softvfp
 1211              	USB_EPClearStall:
 1212              	.LVL76:
 1213              	.LFB79:
1990:Drivers/STM32F1xx_HAL_Driver/Src/stm32f1xx_ll_usb.c **** 
1991:Drivers/STM32F1xx_HAL_Driver/Src/stm32f1xx_ll_usb.c **** /**
1992:Drivers/STM32F1xx_HAL_Driver/Src/stm32f1xx_ll_usb.c ****   * @brief  USB_EPClearStall : Clear a stall condition over an EP
1993:Drivers/STM32F1xx_HAL_Driver/Src/stm32f1xx_ll_usb.c ****   * @param  USBx : Selected device
1994:Drivers/STM32F1xx_HAL_Driver/Src/stm32f1xx_ll_usb.c ****   * @param  ep: pointer to endpoint structure
1995:Drivers/STM32F1xx_HAL_Driver/Src/stm32f1xx_ll_usb.c ****   * @retval HAL status
1996:Drivers/STM32F1xx_HAL_Driver/Src/stm32f1xx_ll_usb.c ****   */
1997:Drivers/STM32F1xx_HAL_Driver/Src/stm32f1xx_ll_usb.c **** HAL_StatusTypeDef USB_EPClearStall(USB_TypeDef *USBx, USB_EPTypeDef *ep)
1998:Drivers/STM32F1xx_HAL_Driver/Src/stm32f1xx_ll_usb.c **** {
 1214              		.loc 1 1998 1 is_stmt 1 view -0
 1215              		.cfi_startproc
 1216              		@ args = 0, pretend = 0, frame = 0
 1217              		@ frame_needed = 0, uses_anonymous_args = 0
 1218              		@ link register save eliminated.
1999:Drivers/STM32F1xx_HAL_Driver/Src/stm32f1xx_ll_usb.c ****   if (ep->is_in)
 1219              		.loc 1 1999 3 view .LVU308
 1220              		.loc 1 1999 9 is_stmt 0 view .LVU309
 1221 0000 4B78     		ldrb	r3, [r1, #1]	@ zero_extendqisi2
 1222              		.loc 1 1999 6 view .LVU310
ARM GAS  /var/folders/rf/wfq6hz5s56g3yh4wqgd7820c0000gn/T//ccZ1SRBq.s 			page 60


 1223 0002 1BB3     		cbz	r3, .L53
2000:Drivers/STM32F1xx_HAL_Driver/Src/stm32f1xx_ll_usb.c ****   {
2001:Drivers/STM32F1xx_HAL_Driver/Src/stm32f1xx_ll_usb.c ****     PCD_CLEAR_TX_DTOG(USBx, ep->num);
 1224              		.loc 1 2001 5 is_stmt 1 view .LVU311
 1225 0004 0A78     		ldrb	r2, [r1]	@ zero_extendqisi2
 1226 0006 30F82230 		ldrh	r3, [r0, r2, lsl #2]
 1227 000a 13F0400F 		tst	r3, #64
 1228 000e 0BD0     		beq	.L54
 1229              		.loc 1 2001 5 discriminator 1 view .LVU312
 1230 0010 30F82230 		ldrh	r3, [r0, r2, lsl #2]
 1231 0014 23F0F003 		bic	r3, r3, #240
 1232 0018 1B05     		lsls	r3, r3, #20
 1233 001a 1B0D     		lsrs	r3, r3, #20
 1234 001c 43F40043 		orr	r3, r3, #32768
 1235 0020 43F0C003 		orr	r3, r3, #192
 1236 0024 20F82230 		strh	r3, [r0, r2, lsl #2]	@ movhi
 1237              	.L54:
 1238              		.loc 1 2001 37 discriminator 3 view .LVU313
 1239              	.LBB21:
2002:Drivers/STM32F1xx_HAL_Driver/Src/stm32f1xx_ll_usb.c ****     PCD_SET_EP_TX_STATUS(USBx, ep->num, USB_EP_TX_VALID);
 1240              		.loc 1 2002 5 discriminator 3 view .LVU314
 1241              		.loc 1 2002 5 discriminator 3 view .LVU315
 1242 0028 0A78     		ldrb	r2, [r1]	@ zero_extendqisi2
 1243 002a 30F82230 		ldrh	r3, [r0, r2, lsl #2]
 1244 002e 9BB2     		uxth	r3, r3
 1245 0030 23F4E043 		bic	r3, r3, #28672
 1246 0034 23F04003 		bic	r3, r3, #64
 1247              	.LVL77:
 1248              		.loc 1 2002 5 discriminator 3 view .LVU316
 1249              		.loc 1 2002 5 discriminator 3 view .LVU317
 1250              		.loc 1 2002 5 discriminator 3 view .LVU318
 1251              		.loc 1 2002 5 discriminator 3 view .LVU319
 1252 0038 83F03003 		eor	r3, r3, #48
 1253              	.LVL78:
 1254              		.loc 1 2002 5 discriminator 3 view .LVU320
 1255 003c 43F40043 		orr	r3, r3, #32768
 1256              	.LVL79:
 1257              		.loc 1 2002 5 is_stmt 0 discriminator 3 view .LVU321
 1258 0040 43F08003 		orr	r3, r3, #128
 1259 0044 20F82230 		strh	r3, [r0, r2, lsl #2]	@ movhi
 1260              	.LBE21:
 1261              		.loc 1 2002 57 is_stmt 1 discriminator 3 view .LVU322
 1262              	.L55:
2003:Drivers/STM32F1xx_HAL_Driver/Src/stm32f1xx_ll_usb.c ****   }
2004:Drivers/STM32F1xx_HAL_Driver/Src/stm32f1xx_ll_usb.c ****   else
2005:Drivers/STM32F1xx_HAL_Driver/Src/stm32f1xx_ll_usb.c ****   {
2006:Drivers/STM32F1xx_HAL_Driver/Src/stm32f1xx_ll_usb.c ****     PCD_CLEAR_RX_DTOG(USBx, ep->num);
2007:Drivers/STM32F1xx_HAL_Driver/Src/stm32f1xx_ll_usb.c ****     PCD_SET_EP_RX_STATUS(USBx, ep->num, USB_EP_RX_VALID);
 1263              		.loc 1 2007 57 discriminator 7 view .LVU323
2008:Drivers/STM32F1xx_HAL_Driver/Src/stm32f1xx_ll_usb.c ****   }
2009:Drivers/STM32F1xx_HAL_Driver/Src/stm32f1xx_ll_usb.c ****   return HAL_OK;
 1264              		.loc 1 2009 3 discriminator 7 view .LVU324
2010:Drivers/STM32F1xx_HAL_Driver/Src/stm32f1xx_ll_usb.c **** }
 1265              		.loc 1 2010 1 is_stmt 0 discriminator 7 view .LVU325
 1266 0048 0020     		movs	r0, #0
 1267              	.LVL80:
 1268              		.loc 1 2010 1 discriminator 7 view .LVU326
ARM GAS  /var/folders/rf/wfq6hz5s56g3yh4wqgd7820c0000gn/T//ccZ1SRBq.s 			page 61


 1269 004a 7047     		bx	lr
 1270              	.LVL81:
 1271              	.L53:
2006:Drivers/STM32F1xx_HAL_Driver/Src/stm32f1xx_ll_usb.c ****     PCD_SET_EP_RX_STATUS(USBx, ep->num, USB_EP_RX_VALID);
 1272              		.loc 1 2006 5 is_stmt 1 view .LVU327
 1273 004c 0A78     		ldrb	r2, [r1]	@ zero_extendqisi2
 1274 004e 30F82230 		ldrh	r3, [r0, r2, lsl #2]
 1275 0052 13F4804F 		tst	r3, #16384
 1276 0056 0BD0     		beq	.L56
2006:Drivers/STM32F1xx_HAL_Driver/Src/stm32f1xx_ll_usb.c ****     PCD_SET_EP_RX_STATUS(USBx, ep->num, USB_EP_RX_VALID);
 1277              		.loc 1 2006 5 discriminator 1 view .LVU328
 1278 0058 30F82230 		ldrh	r3, [r0, r2, lsl #2]
 1279 005c 23F0F003 		bic	r3, r3, #240
 1280 0060 1B05     		lsls	r3, r3, #20
 1281 0062 1B0D     		lsrs	r3, r3, #20
 1282 0064 43F44043 		orr	r3, r3, #49152
 1283 0068 43F08003 		orr	r3, r3, #128
 1284 006c 20F82230 		strh	r3, [r0, r2, lsl #2]	@ movhi
 1285              	.L56:
2006:Drivers/STM32F1xx_HAL_Driver/Src/stm32f1xx_ll_usb.c ****     PCD_SET_EP_RX_STATUS(USBx, ep->num, USB_EP_RX_VALID);
 1286              		.loc 1 2006 37 discriminator 3 view .LVU329
 1287              	.LBB22:
2007:Drivers/STM32F1xx_HAL_Driver/Src/stm32f1xx_ll_usb.c ****   }
 1288              		.loc 1 2007 5 discriminator 3 view .LVU330
2007:Drivers/STM32F1xx_HAL_Driver/Src/stm32f1xx_ll_usb.c ****   }
 1289              		.loc 1 2007 5 discriminator 3 view .LVU331
 1290 0070 0A78     		ldrb	r2, [r1]	@ zero_extendqisi2
 1291 0072 30F82230 		ldrh	r3, [r0, r2, lsl #2]
 1292 0076 9BB2     		uxth	r3, r3
 1293 0078 23F48043 		bic	r3, r3, #16384
 1294 007c 23F07003 		bic	r3, r3, #112
 1295              	.LVL82:
2007:Drivers/STM32F1xx_HAL_Driver/Src/stm32f1xx_ll_usb.c ****   }
 1296              		.loc 1 2007 5 discriminator 3 view .LVU332
2007:Drivers/STM32F1xx_HAL_Driver/Src/stm32f1xx_ll_usb.c ****   }
 1297              		.loc 1 2007 5 discriminator 3 view .LVU333
2007:Drivers/STM32F1xx_HAL_Driver/Src/stm32f1xx_ll_usb.c ****   }
 1298              		.loc 1 2007 5 discriminator 3 view .LVU334
2007:Drivers/STM32F1xx_HAL_Driver/Src/stm32f1xx_ll_usb.c ****   }
 1299              		.loc 1 2007 5 discriminator 3 view .LVU335
 1300 0080 83F44053 		eor	r3, r3, #12288
 1301              	.LVL83:
2007:Drivers/STM32F1xx_HAL_Driver/Src/stm32f1xx_ll_usb.c ****   }
 1302              		.loc 1 2007 5 discriminator 3 view .LVU336
 1303 0084 43F40043 		orr	r3, r3, #32768
 1304              	.LVL84:
2007:Drivers/STM32F1xx_HAL_Driver/Src/stm32f1xx_ll_usb.c ****   }
 1305              		.loc 1 2007 5 is_stmt 0 discriminator 3 view .LVU337
 1306 0088 43F08003 		orr	r3, r3, #128
 1307 008c 20F82230 		strh	r3, [r0, r2, lsl #2]	@ movhi
 1308 0090 DAE7     		b	.L55
 1309              	.LBE22:
 1310              		.cfi_endproc
 1311              	.LFE79:
 1313              		.section	.text.USB_StopDevice,"ax",%progbits
 1314              		.align	1
 1315              		.global	USB_StopDevice
ARM GAS  /var/folders/rf/wfq6hz5s56g3yh4wqgd7820c0000gn/T//ccZ1SRBq.s 			page 62


 1316              		.syntax unified
 1317              		.thumb
 1318              		.thumb_func
 1319              		.fpu softvfp
 1321              	USB_StopDevice:
 1322              	.LVL85:
 1323              	.LFB80:
2011:Drivers/STM32F1xx_HAL_Driver/Src/stm32f1xx_ll_usb.c **** 
2012:Drivers/STM32F1xx_HAL_Driver/Src/stm32f1xx_ll_usb.c **** /**
2013:Drivers/STM32F1xx_HAL_Driver/Src/stm32f1xx_ll_usb.c ****   * @brief  USB_StopDevice : Stop the usb device mode
2014:Drivers/STM32F1xx_HAL_Driver/Src/stm32f1xx_ll_usb.c ****   * @param  USBx : Selected device
2015:Drivers/STM32F1xx_HAL_Driver/Src/stm32f1xx_ll_usb.c ****   * @retval HAL status
2016:Drivers/STM32F1xx_HAL_Driver/Src/stm32f1xx_ll_usb.c ****   */
2017:Drivers/STM32F1xx_HAL_Driver/Src/stm32f1xx_ll_usb.c **** HAL_StatusTypeDef USB_StopDevice(USB_TypeDef *USBx)
2018:Drivers/STM32F1xx_HAL_Driver/Src/stm32f1xx_ll_usb.c **** {
 1324              		.loc 1 2018 1 is_stmt 1 view -0
 1325              		.cfi_startproc
 1326              		@ args = 0, pretend = 0, frame = 0
 1327              		@ frame_needed = 0, uses_anonymous_args = 0
 1328              		@ link register save eliminated.
 1329              		.loc 1 2018 1 is_stmt 0 view .LVU339
 1330 0000 0346     		mov	r3, r0
2019:Drivers/STM32F1xx_HAL_Driver/Src/stm32f1xx_ll_usb.c ****   /* disable all interrupts and force USB reset */
2020:Drivers/STM32F1xx_HAL_Driver/Src/stm32f1xx_ll_usb.c ****   USBx->CNTR = USB_CNTR_FRES;
 1331              		.loc 1 2020 3 is_stmt 1 view .LVU340
 1332              		.loc 1 2020 14 is_stmt 0 view .LVU341
 1333 0002 0122     		movs	r2, #1
 1334 0004 A0F84020 		strh	r2, [r0, #64]	@ movhi
2021:Drivers/STM32F1xx_HAL_Driver/Src/stm32f1xx_ll_usb.c ****   
2022:Drivers/STM32F1xx_HAL_Driver/Src/stm32f1xx_ll_usb.c ****   /* clear interrupt status register */
2023:Drivers/STM32F1xx_HAL_Driver/Src/stm32f1xx_ll_usb.c ****   USBx->ISTR = 0;
 1335              		.loc 1 2023 3 is_stmt 1 view .LVU342
 1336              		.loc 1 2023 14 is_stmt 0 view .LVU343
 1337 0008 0020     		movs	r0, #0
 1338              	.LVL86:
 1339              		.loc 1 2023 14 view .LVU344
 1340 000a A3F84400 		strh	r0, [r3, #68]	@ movhi
2024:Drivers/STM32F1xx_HAL_Driver/Src/stm32f1xx_ll_usb.c ****   
2025:Drivers/STM32F1xx_HAL_Driver/Src/stm32f1xx_ll_usb.c ****   /* switch-off device */
2026:Drivers/STM32F1xx_HAL_Driver/Src/stm32f1xx_ll_usb.c ****   USBx->CNTR = (USB_CNTR_FRES | USB_CNTR_PDWN);
 1341              		.loc 1 2026 3 is_stmt 1 view .LVU345
 1342              		.loc 1 2026 14 is_stmt 0 view .LVU346
 1343 000e 0322     		movs	r2, #3
 1344 0010 A3F84020 		strh	r2, [r3, #64]	@ movhi
2027:Drivers/STM32F1xx_HAL_Driver/Src/stm32f1xx_ll_usb.c ****   
2028:Drivers/STM32F1xx_HAL_Driver/Src/stm32f1xx_ll_usb.c ****   return HAL_OK;
 1345              		.loc 1 2028 3 is_stmt 1 view .LVU347
2029:Drivers/STM32F1xx_HAL_Driver/Src/stm32f1xx_ll_usb.c **** }
 1346              		.loc 1 2029 1 is_stmt 0 view .LVU348
 1347 0014 7047     		bx	lr
 1348              		.cfi_endproc
 1349              	.LFE80:
 1351              		.section	.text.USB_SetDevAddress,"ax",%progbits
 1352              		.align	1
 1353              		.global	USB_SetDevAddress
 1354              		.syntax unified
 1355              		.thumb
ARM GAS  /var/folders/rf/wfq6hz5s56g3yh4wqgd7820c0000gn/T//ccZ1SRBq.s 			page 63


 1356              		.thumb_func
 1357              		.fpu softvfp
 1359              	USB_SetDevAddress:
 1360              	.LVL87:
 1361              	.LFB81:
2030:Drivers/STM32F1xx_HAL_Driver/Src/stm32f1xx_ll_usb.c **** 
2031:Drivers/STM32F1xx_HAL_Driver/Src/stm32f1xx_ll_usb.c **** /**
2032:Drivers/STM32F1xx_HAL_Driver/Src/stm32f1xx_ll_usb.c ****   * @brief  USB_SetDevAddress : Stop the usb device mode
2033:Drivers/STM32F1xx_HAL_Driver/Src/stm32f1xx_ll_usb.c ****   * @param  USBx : Selected device
2034:Drivers/STM32F1xx_HAL_Driver/Src/stm32f1xx_ll_usb.c ****   * @param  address : new device address to be assigned
2035:Drivers/STM32F1xx_HAL_Driver/Src/stm32f1xx_ll_usb.c ****   *          This parameter can be a value from 0 to 255
2036:Drivers/STM32F1xx_HAL_Driver/Src/stm32f1xx_ll_usb.c ****   * @retval HAL status
2037:Drivers/STM32F1xx_HAL_Driver/Src/stm32f1xx_ll_usb.c ****   */
2038:Drivers/STM32F1xx_HAL_Driver/Src/stm32f1xx_ll_usb.c **** HAL_StatusTypeDef  USB_SetDevAddress (USB_TypeDef *USBx, uint8_t address)
2039:Drivers/STM32F1xx_HAL_Driver/Src/stm32f1xx_ll_usb.c **** {
 1362              		.loc 1 2039 1 is_stmt 1 view -0
 1363              		.cfi_startproc
 1364              		@ args = 0, pretend = 0, frame = 0
 1365              		@ frame_needed = 0, uses_anonymous_args = 0
 1366              		@ link register save eliminated.
2040:Drivers/STM32F1xx_HAL_Driver/Src/stm32f1xx_ll_usb.c ****   if(address == 0) 
 1367              		.loc 1 2040 3 view .LVU350
 1368              		.loc 1 2040 5 is_stmt 0 view .LVU351
 1369 0000 11B9     		cbnz	r1, .L59
2041:Drivers/STM32F1xx_HAL_Driver/Src/stm32f1xx_ll_usb.c ****   {
2042:Drivers/STM32F1xx_HAL_Driver/Src/stm32f1xx_ll_usb.c ****    /* set device address and enable function */
2043:Drivers/STM32F1xx_HAL_Driver/Src/stm32f1xx_ll_usb.c ****    USBx->DADDR = USB_DADDR_EF;
 1370              		.loc 1 2043 4 is_stmt 1 view .LVU352
 1371              		.loc 1 2043 16 is_stmt 0 view .LVU353
 1372 0002 8023     		movs	r3, #128
 1373 0004 A0F84C30 		strh	r3, [r0, #76]	@ movhi
 1374              	.L59:
2044:Drivers/STM32F1xx_HAL_Driver/Src/stm32f1xx_ll_usb.c ****   }
2045:Drivers/STM32F1xx_HAL_Driver/Src/stm32f1xx_ll_usb.c ****   
2046:Drivers/STM32F1xx_HAL_Driver/Src/stm32f1xx_ll_usb.c ****   return HAL_OK;
 1375              		.loc 1 2046 3 is_stmt 1 view .LVU354
2047:Drivers/STM32F1xx_HAL_Driver/Src/stm32f1xx_ll_usb.c **** }
 1376              		.loc 1 2047 1 is_stmt 0 view .LVU355
 1377 0008 0020     		movs	r0, #0
 1378              	.LVL88:
 1379              		.loc 1 2047 1 view .LVU356
 1380 000a 7047     		bx	lr
 1381              		.cfi_endproc
 1382              	.LFE81:
 1384              		.section	.text.USB_DevConnect,"ax",%progbits
 1385              		.align	1
 1386              		.global	USB_DevConnect
 1387              		.syntax unified
 1388              		.thumb
 1389              		.thumb_func
 1390              		.fpu softvfp
 1392              	USB_DevConnect:
 1393              	.LVL89:
 1394              	.LFB82:
2048:Drivers/STM32F1xx_HAL_Driver/Src/stm32f1xx_ll_usb.c **** 
2049:Drivers/STM32F1xx_HAL_Driver/Src/stm32f1xx_ll_usb.c **** /**
2050:Drivers/STM32F1xx_HAL_Driver/Src/stm32f1xx_ll_usb.c ****   * @brief  USB_DevConnect : Connect the USB device by enabling the pull-up/pull-down
ARM GAS  /var/folders/rf/wfq6hz5s56g3yh4wqgd7820c0000gn/T//ccZ1SRBq.s 			page 64


2051:Drivers/STM32F1xx_HAL_Driver/Src/stm32f1xx_ll_usb.c ****   * @param  USBx : Selected device
2052:Drivers/STM32F1xx_HAL_Driver/Src/stm32f1xx_ll_usb.c ****   * @retval HAL status
2053:Drivers/STM32F1xx_HAL_Driver/Src/stm32f1xx_ll_usb.c ****   */
2054:Drivers/STM32F1xx_HAL_Driver/Src/stm32f1xx_ll_usb.c **** HAL_StatusTypeDef  USB_DevConnect (USB_TypeDef *USBx)
2055:Drivers/STM32F1xx_HAL_Driver/Src/stm32f1xx_ll_usb.c **** {
 1395              		.loc 1 2055 1 is_stmt 1 view -0
 1396              		.cfi_startproc
 1397              		@ args = 0, pretend = 0, frame = 0
 1398              		@ frame_needed = 0, uses_anonymous_args = 0
 1399              		@ link register save eliminated.
2056:Drivers/STM32F1xx_HAL_Driver/Src/stm32f1xx_ll_usb.c ****   /* Prevent unused argument(s) compilation warning */
2057:Drivers/STM32F1xx_HAL_Driver/Src/stm32f1xx_ll_usb.c ****   UNUSED(USBx);
 1400              		.loc 1 2057 3 view .LVU358
2058:Drivers/STM32F1xx_HAL_Driver/Src/stm32f1xx_ll_usb.c ****   /* NOTE : - This function is not required by USB Device FS peripheral, it is used 
2059:Drivers/STM32F1xx_HAL_Driver/Src/stm32f1xx_ll_usb.c ****               only by USB OTG FS peripheral.
2060:Drivers/STM32F1xx_HAL_Driver/Src/stm32f1xx_ll_usb.c ****             - This function is added to ensure compatibility across platforms.
2061:Drivers/STM32F1xx_HAL_Driver/Src/stm32f1xx_ll_usb.c ****    */
2062:Drivers/STM32F1xx_HAL_Driver/Src/stm32f1xx_ll_usb.c ****   return HAL_OK;
 1401              		.loc 1 2062 3 view .LVU359
2063:Drivers/STM32F1xx_HAL_Driver/Src/stm32f1xx_ll_usb.c **** }
 1402              		.loc 1 2063 1 is_stmt 0 view .LVU360
 1403 0000 0020     		movs	r0, #0
 1404              	.LVL90:
 1405              		.loc 1 2063 1 view .LVU361
 1406 0002 7047     		bx	lr
 1407              		.cfi_endproc
 1408              	.LFE82:
 1410              		.section	.text.USB_DevDisconnect,"ax",%progbits
 1411              		.align	1
 1412              		.global	USB_DevDisconnect
 1413              		.syntax unified
 1414              		.thumb
 1415              		.thumb_func
 1416              		.fpu softvfp
 1418              	USB_DevDisconnect:
 1419              	.LVL91:
 1420              	.LFB83:
2064:Drivers/STM32F1xx_HAL_Driver/Src/stm32f1xx_ll_usb.c **** 
2065:Drivers/STM32F1xx_HAL_Driver/Src/stm32f1xx_ll_usb.c **** /**
2066:Drivers/STM32F1xx_HAL_Driver/Src/stm32f1xx_ll_usb.c ****   * @brief  USB_DevDisconnect : Disconnect the USB device by disabling the pull-up/pull-down
2067:Drivers/STM32F1xx_HAL_Driver/Src/stm32f1xx_ll_usb.c ****   * @param  USBx : Selected device
2068:Drivers/STM32F1xx_HAL_Driver/Src/stm32f1xx_ll_usb.c ****   * @retval HAL status
2069:Drivers/STM32F1xx_HAL_Driver/Src/stm32f1xx_ll_usb.c ****   */
2070:Drivers/STM32F1xx_HAL_Driver/Src/stm32f1xx_ll_usb.c **** HAL_StatusTypeDef  USB_DevDisconnect (USB_TypeDef *USBx)
2071:Drivers/STM32F1xx_HAL_Driver/Src/stm32f1xx_ll_usb.c **** {
 1421              		.loc 1 2071 1 is_stmt 1 view -0
 1422              		.cfi_startproc
 1423              		@ args = 0, pretend = 0, frame = 0
 1424              		@ frame_needed = 0, uses_anonymous_args = 0
 1425              		@ link register save eliminated.
2072:Drivers/STM32F1xx_HAL_Driver/Src/stm32f1xx_ll_usb.c ****   /* Prevent unused argument(s) compilation warning */
2073:Drivers/STM32F1xx_HAL_Driver/Src/stm32f1xx_ll_usb.c ****   UNUSED(USBx);
 1426              		.loc 1 2073 3 view .LVU363
2074:Drivers/STM32F1xx_HAL_Driver/Src/stm32f1xx_ll_usb.c ****   /* NOTE : - This function is not required by USB Device FS peripheral, it is used 
2075:Drivers/STM32F1xx_HAL_Driver/Src/stm32f1xx_ll_usb.c ****               only by USB OTG FS peripheral.
2076:Drivers/STM32F1xx_HAL_Driver/Src/stm32f1xx_ll_usb.c ****             - This function is added to ensure compatibility across platforms.
2077:Drivers/STM32F1xx_HAL_Driver/Src/stm32f1xx_ll_usb.c ****    */
ARM GAS  /var/folders/rf/wfq6hz5s56g3yh4wqgd7820c0000gn/T//ccZ1SRBq.s 			page 65


2078:Drivers/STM32F1xx_HAL_Driver/Src/stm32f1xx_ll_usb.c ****   return HAL_OK;
 1427              		.loc 1 2078 3 view .LVU364
2079:Drivers/STM32F1xx_HAL_Driver/Src/stm32f1xx_ll_usb.c **** }
 1428              		.loc 1 2079 1 is_stmt 0 view .LVU365
 1429 0000 0020     		movs	r0, #0
 1430              	.LVL92:
 1431              		.loc 1 2079 1 view .LVU366
 1432 0002 7047     		bx	lr
 1433              		.cfi_endproc
 1434              	.LFE83:
 1436              		.section	.text.USB_ReadInterrupts,"ax",%progbits
 1437              		.align	1
 1438              		.global	USB_ReadInterrupts
 1439              		.syntax unified
 1440              		.thumb
 1441              		.thumb_func
 1442              		.fpu softvfp
 1444              	USB_ReadInterrupts:
 1445              	.LVL93:
 1446              	.LFB84:
2080:Drivers/STM32F1xx_HAL_Driver/Src/stm32f1xx_ll_usb.c **** 
2081:Drivers/STM32F1xx_HAL_Driver/Src/stm32f1xx_ll_usb.c **** /**
2082:Drivers/STM32F1xx_HAL_Driver/Src/stm32f1xx_ll_usb.c ****   * @brief  USB_ReadInterrupts: return the global USB interrupt status
2083:Drivers/STM32F1xx_HAL_Driver/Src/stm32f1xx_ll_usb.c ****   * @param  USBx : Selected device
2084:Drivers/STM32F1xx_HAL_Driver/Src/stm32f1xx_ll_usb.c ****   * @retval HAL status
2085:Drivers/STM32F1xx_HAL_Driver/Src/stm32f1xx_ll_usb.c ****   */
2086:Drivers/STM32F1xx_HAL_Driver/Src/stm32f1xx_ll_usb.c **** uint32_t  USB_ReadInterrupts (USB_TypeDef *USBx)
2087:Drivers/STM32F1xx_HAL_Driver/Src/stm32f1xx_ll_usb.c **** {
 1447              		.loc 1 2087 1 is_stmt 1 view -0
 1448              		.cfi_startproc
 1449              		@ args = 0, pretend = 0, frame = 0
 1450              		@ frame_needed = 0, uses_anonymous_args = 0
 1451              		@ link register save eliminated.
2088:Drivers/STM32F1xx_HAL_Driver/Src/stm32f1xx_ll_usb.c ****   uint32_t tmpreg = 0;
 1452              		.loc 1 2088 3 view .LVU368
2089:Drivers/STM32F1xx_HAL_Driver/Src/stm32f1xx_ll_usb.c ****   
2090:Drivers/STM32F1xx_HAL_Driver/Src/stm32f1xx_ll_usb.c ****   tmpreg = USBx->ISTR;
 1453              		.loc 1 2090 3 view .LVU369
 1454              		.loc 1 2090 16 is_stmt 0 view .LVU370
 1455 0000 B0F84400 		ldrh	r0, [r0, #68]
 1456              	.LVL94:
2091:Drivers/STM32F1xx_HAL_Driver/Src/stm32f1xx_ll_usb.c ****   return tmpreg;
 1457              		.loc 1 2091 3 is_stmt 1 view .LVU371
2092:Drivers/STM32F1xx_HAL_Driver/Src/stm32f1xx_ll_usb.c **** }
 1458              		.loc 1 2092 1 is_stmt 0 view .LVU372
 1459 0004 80B2     		uxth	r0, r0
 1460              	.LVL95:
 1461              		.loc 1 2092 1 view .LVU373
 1462 0006 7047     		bx	lr
 1463              		.cfi_endproc
 1464              	.LFE84:
 1466              		.section	.text.USB_ReadDevAllOutEpInterrupt,"ax",%progbits
 1467              		.align	1
 1468              		.global	USB_ReadDevAllOutEpInterrupt
 1469              		.syntax unified
 1470              		.thumb
 1471              		.thumb_func
ARM GAS  /var/folders/rf/wfq6hz5s56g3yh4wqgd7820c0000gn/T//ccZ1SRBq.s 			page 66


 1472              		.fpu softvfp
 1474              	USB_ReadDevAllOutEpInterrupt:
 1475              	.LVL96:
 1476              	.LFB85:
2093:Drivers/STM32F1xx_HAL_Driver/Src/stm32f1xx_ll_usb.c **** 
2094:Drivers/STM32F1xx_HAL_Driver/Src/stm32f1xx_ll_usb.c **** /**
2095:Drivers/STM32F1xx_HAL_Driver/Src/stm32f1xx_ll_usb.c ****   * @brief  USB_ReadDevAllOutEpInterrupt: return the USB device OUT endpoints interrupt status
2096:Drivers/STM32F1xx_HAL_Driver/Src/stm32f1xx_ll_usb.c ****   * @param  USBx : Selected device
2097:Drivers/STM32F1xx_HAL_Driver/Src/stm32f1xx_ll_usb.c ****   * @retval HAL status
2098:Drivers/STM32F1xx_HAL_Driver/Src/stm32f1xx_ll_usb.c ****   */
2099:Drivers/STM32F1xx_HAL_Driver/Src/stm32f1xx_ll_usb.c **** uint32_t USB_ReadDevAllOutEpInterrupt (USB_TypeDef *USBx)
2100:Drivers/STM32F1xx_HAL_Driver/Src/stm32f1xx_ll_usb.c **** {
 1477              		.loc 1 2100 1 is_stmt 1 view -0
 1478              		.cfi_startproc
 1479              		@ args = 0, pretend = 0, frame = 0
 1480              		@ frame_needed = 0, uses_anonymous_args = 0
 1481              		@ link register save eliminated.
2101:Drivers/STM32F1xx_HAL_Driver/Src/stm32f1xx_ll_usb.c ****   /* Prevent unused argument(s) compilation warning */
2102:Drivers/STM32F1xx_HAL_Driver/Src/stm32f1xx_ll_usb.c ****   UNUSED(USBx);
 1482              		.loc 1 2102 3 view .LVU375
2103:Drivers/STM32F1xx_HAL_Driver/Src/stm32f1xx_ll_usb.c ****   /* NOTE : - This function is not required by USB Device FS peripheral, it is used 
2104:Drivers/STM32F1xx_HAL_Driver/Src/stm32f1xx_ll_usb.c ****               only by USB OTG FS peripheral.
2105:Drivers/STM32F1xx_HAL_Driver/Src/stm32f1xx_ll_usb.c ****             - This function is added to ensure compatibility across platforms.
2106:Drivers/STM32F1xx_HAL_Driver/Src/stm32f1xx_ll_usb.c ****    */
2107:Drivers/STM32F1xx_HAL_Driver/Src/stm32f1xx_ll_usb.c ****   return (0);
 1483              		.loc 1 2107 3 view .LVU376
2108:Drivers/STM32F1xx_HAL_Driver/Src/stm32f1xx_ll_usb.c **** }
 1484              		.loc 1 2108 1 is_stmt 0 view .LVU377
 1485 0000 0020     		movs	r0, #0
 1486              	.LVL97:
 1487              		.loc 1 2108 1 view .LVU378
 1488 0002 7047     		bx	lr
 1489              		.cfi_endproc
 1490              	.LFE85:
 1492              		.section	.text.USB_ReadDevAllInEpInterrupt,"ax",%progbits
 1493              		.align	1
 1494              		.global	USB_ReadDevAllInEpInterrupt
 1495              		.syntax unified
 1496              		.thumb
 1497              		.thumb_func
 1498              		.fpu softvfp
 1500              	USB_ReadDevAllInEpInterrupt:
 1501              	.LVL98:
 1502              	.LFB86:
2109:Drivers/STM32F1xx_HAL_Driver/Src/stm32f1xx_ll_usb.c **** 
2110:Drivers/STM32F1xx_HAL_Driver/Src/stm32f1xx_ll_usb.c **** /**
2111:Drivers/STM32F1xx_HAL_Driver/Src/stm32f1xx_ll_usb.c ****   * @brief  USB_ReadDevAllInEpInterrupt: return the USB device IN endpoints interrupt status
2112:Drivers/STM32F1xx_HAL_Driver/Src/stm32f1xx_ll_usb.c ****   * @param  USBx : Selected device
2113:Drivers/STM32F1xx_HAL_Driver/Src/stm32f1xx_ll_usb.c ****   * @retval HAL status
2114:Drivers/STM32F1xx_HAL_Driver/Src/stm32f1xx_ll_usb.c ****   */
2115:Drivers/STM32F1xx_HAL_Driver/Src/stm32f1xx_ll_usb.c **** uint32_t USB_ReadDevAllInEpInterrupt (USB_TypeDef *USBx)
2116:Drivers/STM32F1xx_HAL_Driver/Src/stm32f1xx_ll_usb.c **** {
 1503              		.loc 1 2116 1 is_stmt 1 view -0
 1504              		.cfi_startproc
 1505              		@ args = 0, pretend = 0, frame = 0
 1506              		@ frame_needed = 0, uses_anonymous_args = 0
 1507              		@ link register save eliminated.
ARM GAS  /var/folders/rf/wfq6hz5s56g3yh4wqgd7820c0000gn/T//ccZ1SRBq.s 			page 67


2117:Drivers/STM32F1xx_HAL_Driver/Src/stm32f1xx_ll_usb.c ****   /* Prevent unused argument(s) compilation warning */
2118:Drivers/STM32F1xx_HAL_Driver/Src/stm32f1xx_ll_usb.c ****   UNUSED(USBx);
 1508              		.loc 1 2118 3 view .LVU380
2119:Drivers/STM32F1xx_HAL_Driver/Src/stm32f1xx_ll_usb.c ****   /* NOTE : - This function is not required by USB Device FS peripheral, it is used 
2120:Drivers/STM32F1xx_HAL_Driver/Src/stm32f1xx_ll_usb.c ****               only by USB OTG FS peripheral.
2121:Drivers/STM32F1xx_HAL_Driver/Src/stm32f1xx_ll_usb.c ****             - This function is added to ensure compatibility across platforms.
2122:Drivers/STM32F1xx_HAL_Driver/Src/stm32f1xx_ll_usb.c ****    */
2123:Drivers/STM32F1xx_HAL_Driver/Src/stm32f1xx_ll_usb.c ****   return (0);
 1509              		.loc 1 2123 3 view .LVU381
2124:Drivers/STM32F1xx_HAL_Driver/Src/stm32f1xx_ll_usb.c **** }
 1510              		.loc 1 2124 1 is_stmt 0 view .LVU382
 1511 0000 0020     		movs	r0, #0
 1512              	.LVL99:
 1513              		.loc 1 2124 1 view .LVU383
 1514 0002 7047     		bx	lr
 1515              		.cfi_endproc
 1516              	.LFE86:
 1518              		.section	.text.USB_ReadDevOutEPInterrupt,"ax",%progbits
 1519              		.align	1
 1520              		.global	USB_ReadDevOutEPInterrupt
 1521              		.syntax unified
 1522              		.thumb
 1523              		.thumb_func
 1524              		.fpu softvfp
 1526              	USB_ReadDevOutEPInterrupt:
 1527              	.LVL100:
 1528              	.LFB87:
2125:Drivers/STM32F1xx_HAL_Driver/Src/stm32f1xx_ll_usb.c **** 
2126:Drivers/STM32F1xx_HAL_Driver/Src/stm32f1xx_ll_usb.c **** /**
2127:Drivers/STM32F1xx_HAL_Driver/Src/stm32f1xx_ll_usb.c ****   * @brief  Returns Device OUT EP Interrupt register
2128:Drivers/STM32F1xx_HAL_Driver/Src/stm32f1xx_ll_usb.c ****   * @param  USBx : Selected device
2129:Drivers/STM32F1xx_HAL_Driver/Src/stm32f1xx_ll_usb.c ****   * @param  epnum : endpoint number
2130:Drivers/STM32F1xx_HAL_Driver/Src/stm32f1xx_ll_usb.c ****   *          This parameter can be a value from 0 to 15
2131:Drivers/STM32F1xx_HAL_Driver/Src/stm32f1xx_ll_usb.c ****   * @retval Device OUT EP Interrupt register
2132:Drivers/STM32F1xx_HAL_Driver/Src/stm32f1xx_ll_usb.c ****   */
2133:Drivers/STM32F1xx_HAL_Driver/Src/stm32f1xx_ll_usb.c **** uint32_t USB_ReadDevOutEPInterrupt (USB_TypeDef *USBx , uint8_t epnum)
2134:Drivers/STM32F1xx_HAL_Driver/Src/stm32f1xx_ll_usb.c **** {
 1529              		.loc 1 2134 1 is_stmt 1 view -0
 1530              		.cfi_startproc
 1531              		@ args = 0, pretend = 0, frame = 0
 1532              		@ frame_needed = 0, uses_anonymous_args = 0
 1533              		@ link register save eliminated.
2135:Drivers/STM32F1xx_HAL_Driver/Src/stm32f1xx_ll_usb.c ****   /* Prevent unused argument(s) compilation warning */
2136:Drivers/STM32F1xx_HAL_Driver/Src/stm32f1xx_ll_usb.c ****   UNUSED(USBx);
 1534              		.loc 1 2136 3 view .LVU385
2137:Drivers/STM32F1xx_HAL_Driver/Src/stm32f1xx_ll_usb.c ****   UNUSED(epnum);
 1535              		.loc 1 2137 3 view .LVU386
2138:Drivers/STM32F1xx_HAL_Driver/Src/stm32f1xx_ll_usb.c ****   /* NOTE : - This function is not required by USB Device FS peripheral, it is used 
2139:Drivers/STM32F1xx_HAL_Driver/Src/stm32f1xx_ll_usb.c ****               only by USB OTG FS peripheral.
2140:Drivers/STM32F1xx_HAL_Driver/Src/stm32f1xx_ll_usb.c ****             - This function is added to ensure compatibility across platforms.
2141:Drivers/STM32F1xx_HAL_Driver/Src/stm32f1xx_ll_usb.c ****    */
2142:Drivers/STM32F1xx_HAL_Driver/Src/stm32f1xx_ll_usb.c ****   return (0);
 1536              		.loc 1 2142 3 view .LVU387
2143:Drivers/STM32F1xx_HAL_Driver/Src/stm32f1xx_ll_usb.c **** }
 1537              		.loc 1 2143 1 is_stmt 0 view .LVU388
 1538 0000 0020     		movs	r0, #0
 1539              	.LVL101:
ARM GAS  /var/folders/rf/wfq6hz5s56g3yh4wqgd7820c0000gn/T//ccZ1SRBq.s 			page 68


 1540              		.loc 1 2143 1 view .LVU389
 1541 0002 7047     		bx	lr
 1542              		.cfi_endproc
 1543              	.LFE87:
 1545              		.section	.text.USB_ReadDevInEPInterrupt,"ax",%progbits
 1546              		.align	1
 1547              		.global	USB_ReadDevInEPInterrupt
 1548              		.syntax unified
 1549              		.thumb
 1550              		.thumb_func
 1551              		.fpu softvfp
 1553              	USB_ReadDevInEPInterrupt:
 1554              	.LVL102:
 1555              	.LFB88:
2144:Drivers/STM32F1xx_HAL_Driver/Src/stm32f1xx_ll_usb.c **** 
2145:Drivers/STM32F1xx_HAL_Driver/Src/stm32f1xx_ll_usb.c **** /**
2146:Drivers/STM32F1xx_HAL_Driver/Src/stm32f1xx_ll_usb.c ****   * @brief  Returns Device IN EP Interrupt register
2147:Drivers/STM32F1xx_HAL_Driver/Src/stm32f1xx_ll_usb.c ****   * @param  USBx : Selected device
2148:Drivers/STM32F1xx_HAL_Driver/Src/stm32f1xx_ll_usb.c ****   * @param  epnum : endpoint number
2149:Drivers/STM32F1xx_HAL_Driver/Src/stm32f1xx_ll_usb.c ****   *          This parameter can be a value from 0 to 15
2150:Drivers/STM32F1xx_HAL_Driver/Src/stm32f1xx_ll_usb.c ****   * @retval Device IN EP Interrupt register
2151:Drivers/STM32F1xx_HAL_Driver/Src/stm32f1xx_ll_usb.c ****   */
2152:Drivers/STM32F1xx_HAL_Driver/Src/stm32f1xx_ll_usb.c **** uint32_t USB_ReadDevInEPInterrupt (USB_TypeDef *USBx , uint8_t epnum)
2153:Drivers/STM32F1xx_HAL_Driver/Src/stm32f1xx_ll_usb.c **** {
 1556              		.loc 1 2153 1 is_stmt 1 view -0
 1557              		.cfi_startproc
 1558              		@ args = 0, pretend = 0, frame = 0
 1559              		@ frame_needed = 0, uses_anonymous_args = 0
 1560              		@ link register save eliminated.
2154:Drivers/STM32F1xx_HAL_Driver/Src/stm32f1xx_ll_usb.c ****   /* Prevent unused argument(s) compilation warning */
2155:Drivers/STM32F1xx_HAL_Driver/Src/stm32f1xx_ll_usb.c ****   UNUSED(USBx);
 1561              		.loc 1 2155 3 view .LVU391
2156:Drivers/STM32F1xx_HAL_Driver/Src/stm32f1xx_ll_usb.c ****   UNUSED(epnum);
 1562              		.loc 1 2156 3 view .LVU392
2157:Drivers/STM32F1xx_HAL_Driver/Src/stm32f1xx_ll_usb.c ****   /* NOTE : - This function is not required by USB Device FS peripheral, it is used 
2158:Drivers/STM32F1xx_HAL_Driver/Src/stm32f1xx_ll_usb.c ****               only by USB OTG FS peripheral.
2159:Drivers/STM32F1xx_HAL_Driver/Src/stm32f1xx_ll_usb.c ****             - This function is added to ensure compatibility across platforms.
2160:Drivers/STM32F1xx_HAL_Driver/Src/stm32f1xx_ll_usb.c ****    */
2161:Drivers/STM32F1xx_HAL_Driver/Src/stm32f1xx_ll_usb.c ****   return (0);
 1563              		.loc 1 2161 3 view .LVU393
2162:Drivers/STM32F1xx_HAL_Driver/Src/stm32f1xx_ll_usb.c **** }
 1564              		.loc 1 2162 1 is_stmt 0 view .LVU394
 1565 0000 0020     		movs	r0, #0
 1566              	.LVL103:
 1567              		.loc 1 2162 1 view .LVU395
 1568 0002 7047     		bx	lr
 1569              		.cfi_endproc
 1570              	.LFE88:
 1572              		.section	.text.USB_ClearInterrupts,"ax",%progbits
 1573              		.align	1
 1574              		.global	USB_ClearInterrupts
 1575              		.syntax unified
 1576              		.thumb
 1577              		.thumb_func
 1578              		.fpu softvfp
 1580              	USB_ClearInterrupts:
 1581              	.LVL104:
ARM GAS  /var/folders/rf/wfq6hz5s56g3yh4wqgd7820c0000gn/T//ccZ1SRBq.s 			page 69


 1582              	.LFB89:
2163:Drivers/STM32F1xx_HAL_Driver/Src/stm32f1xx_ll_usb.c **** 
2164:Drivers/STM32F1xx_HAL_Driver/Src/stm32f1xx_ll_usb.c **** /**
2165:Drivers/STM32F1xx_HAL_Driver/Src/stm32f1xx_ll_usb.c ****   * @brief  USB_ClearInterrupts: clear a USB interrupt
2166:Drivers/STM32F1xx_HAL_Driver/Src/stm32f1xx_ll_usb.c ****   * @param  USBx : Selected device
2167:Drivers/STM32F1xx_HAL_Driver/Src/stm32f1xx_ll_usb.c ****   * @param  interrupt : interrupt flag
2168:Drivers/STM32F1xx_HAL_Driver/Src/stm32f1xx_ll_usb.c ****   * @retval None
2169:Drivers/STM32F1xx_HAL_Driver/Src/stm32f1xx_ll_usb.c ****   */
2170:Drivers/STM32F1xx_HAL_Driver/Src/stm32f1xx_ll_usb.c **** void  USB_ClearInterrupts (USB_TypeDef *USBx, uint32_t interrupt)
2171:Drivers/STM32F1xx_HAL_Driver/Src/stm32f1xx_ll_usb.c **** {
 1583              		.loc 1 2171 1 is_stmt 1 view -0
 1584              		.cfi_startproc
 1585              		@ args = 0, pretend = 0, frame = 0
 1586              		@ frame_needed = 0, uses_anonymous_args = 0
 1587              		@ link register save eliminated.
2172:Drivers/STM32F1xx_HAL_Driver/Src/stm32f1xx_ll_usb.c ****   /* Prevent unused argument(s) compilation warning */
2173:Drivers/STM32F1xx_HAL_Driver/Src/stm32f1xx_ll_usb.c ****   UNUSED(USBx);
 1588              		.loc 1 2173 3 view .LVU397
2174:Drivers/STM32F1xx_HAL_Driver/Src/stm32f1xx_ll_usb.c ****   UNUSED(interrupt);
 1589              		.loc 1 2174 3 view .LVU398
2175:Drivers/STM32F1xx_HAL_Driver/Src/stm32f1xx_ll_usb.c ****   /* NOTE : - This function is not required by USB Device FS peripheral, it is used 
2176:Drivers/STM32F1xx_HAL_Driver/Src/stm32f1xx_ll_usb.c ****               only by USB OTG FS peripheral.
2177:Drivers/STM32F1xx_HAL_Driver/Src/stm32f1xx_ll_usb.c ****             - This function is added to ensure compatibility across platforms.
2178:Drivers/STM32F1xx_HAL_Driver/Src/stm32f1xx_ll_usb.c ****    */
2179:Drivers/STM32F1xx_HAL_Driver/Src/stm32f1xx_ll_usb.c **** }
 1590              		.loc 1 2179 1 is_stmt 0 view .LVU399
 1591 0000 7047     		bx	lr
 1592              		.cfi_endproc
 1593              	.LFE89:
 1595              		.section	.text.USB_EP0_OutStart,"ax",%progbits
 1596              		.align	1
 1597              		.global	USB_EP0_OutStart
 1598              		.syntax unified
 1599              		.thumb
 1600              		.thumb_func
 1601              		.fpu softvfp
 1603              	USB_EP0_OutStart:
 1604              	.LVL105:
 1605              	.LFB90:
2180:Drivers/STM32F1xx_HAL_Driver/Src/stm32f1xx_ll_usb.c **** 
2181:Drivers/STM32F1xx_HAL_Driver/Src/stm32f1xx_ll_usb.c **** /**
2182:Drivers/STM32F1xx_HAL_Driver/Src/stm32f1xx_ll_usb.c ****   * @brief  Prepare the EP0 to start the first control setup
2183:Drivers/STM32F1xx_HAL_Driver/Src/stm32f1xx_ll_usb.c ****   * @param  USBx : Selected device
2184:Drivers/STM32F1xx_HAL_Driver/Src/stm32f1xx_ll_usb.c ****   * @param  psetup : pointer to setup packet
2185:Drivers/STM32F1xx_HAL_Driver/Src/stm32f1xx_ll_usb.c ****   * @retval HAL status
2186:Drivers/STM32F1xx_HAL_Driver/Src/stm32f1xx_ll_usb.c ****   */
2187:Drivers/STM32F1xx_HAL_Driver/Src/stm32f1xx_ll_usb.c **** HAL_StatusTypeDef USB_EP0_OutStart(USB_TypeDef *USBx, uint8_t *psetup)
2188:Drivers/STM32F1xx_HAL_Driver/Src/stm32f1xx_ll_usb.c **** {
 1606              		.loc 1 2188 1 is_stmt 1 view -0
 1607              		.cfi_startproc
 1608              		@ args = 0, pretend = 0, frame = 0
 1609              		@ frame_needed = 0, uses_anonymous_args = 0
 1610              		@ link register save eliminated.
2189:Drivers/STM32F1xx_HAL_Driver/Src/stm32f1xx_ll_usb.c ****   /* Prevent unused argument(s) compilation warning */
2190:Drivers/STM32F1xx_HAL_Driver/Src/stm32f1xx_ll_usb.c ****   UNUSED(USBx);
 1611              		.loc 1 2190 3 view .LVU401
2191:Drivers/STM32F1xx_HAL_Driver/Src/stm32f1xx_ll_usb.c ****   UNUSED(psetup);
ARM GAS  /var/folders/rf/wfq6hz5s56g3yh4wqgd7820c0000gn/T//ccZ1SRBq.s 			page 70


 1612              		.loc 1 2191 3 view .LVU402
2192:Drivers/STM32F1xx_HAL_Driver/Src/stm32f1xx_ll_usb.c ****   /* NOTE : - This function is not required by USB Device FS peripheral, it is used 
2193:Drivers/STM32F1xx_HAL_Driver/Src/stm32f1xx_ll_usb.c ****               only by USB OTG FS peripheral.
2194:Drivers/STM32F1xx_HAL_Driver/Src/stm32f1xx_ll_usb.c ****             - This function is added to ensure compatibility across platforms.
2195:Drivers/STM32F1xx_HAL_Driver/Src/stm32f1xx_ll_usb.c ****    */
2196:Drivers/STM32F1xx_HAL_Driver/Src/stm32f1xx_ll_usb.c ****   return HAL_OK;
 1613              		.loc 1 2196 3 view .LVU403
2197:Drivers/STM32F1xx_HAL_Driver/Src/stm32f1xx_ll_usb.c **** }
 1614              		.loc 1 2197 1 is_stmt 0 view .LVU404
 1615 0000 0020     		movs	r0, #0
 1616              	.LVL106:
 1617              		.loc 1 2197 1 view .LVU405
 1618 0002 7047     		bx	lr
 1619              		.cfi_endproc
 1620              	.LFE90:
 1622              		.section	.text.USB_ActivateRemoteWakeup,"ax",%progbits
 1623              		.align	1
 1624              		.global	USB_ActivateRemoteWakeup
 1625              		.syntax unified
 1626              		.thumb
 1627              		.thumb_func
 1628              		.fpu softvfp
 1630              	USB_ActivateRemoteWakeup:
 1631              	.LVL107:
 1632              	.LFB91:
2198:Drivers/STM32F1xx_HAL_Driver/Src/stm32f1xx_ll_usb.c **** 
2199:Drivers/STM32F1xx_HAL_Driver/Src/stm32f1xx_ll_usb.c **** /**
2200:Drivers/STM32F1xx_HAL_Driver/Src/stm32f1xx_ll_usb.c ****   * @brief  USB_ActivateRemoteWakeup : active remote wakeup signalling
2201:Drivers/STM32F1xx_HAL_Driver/Src/stm32f1xx_ll_usb.c ****   * @param  USBx : Selected device
2202:Drivers/STM32F1xx_HAL_Driver/Src/stm32f1xx_ll_usb.c ****   * @retval HAL status
2203:Drivers/STM32F1xx_HAL_Driver/Src/stm32f1xx_ll_usb.c ****   */
2204:Drivers/STM32F1xx_HAL_Driver/Src/stm32f1xx_ll_usb.c **** HAL_StatusTypeDef USB_ActivateRemoteWakeup(USB_TypeDef *USBx)
2205:Drivers/STM32F1xx_HAL_Driver/Src/stm32f1xx_ll_usb.c **** {
 1633              		.loc 1 2205 1 is_stmt 1 view -0
 1634              		.cfi_startproc
 1635              		@ args = 0, pretend = 0, frame = 0
 1636              		@ frame_needed = 0, uses_anonymous_args = 0
 1637              		@ link register save eliminated.
2206:Drivers/STM32F1xx_HAL_Driver/Src/stm32f1xx_ll_usb.c ****   USBx->CNTR |= USB_CNTR_RESUME;
 1638              		.loc 1 2206 3 view .LVU407
 1639              		.loc 1 2206 14 is_stmt 0 view .LVU408
 1640 0000 B0F84030 		ldrh	r3, [r0, #64]
 1641 0004 9BB2     		uxth	r3, r3
 1642 0006 43F01003 		orr	r3, r3, #16
 1643 000a A0F84030 		strh	r3, [r0, #64]	@ movhi
2207:Drivers/STM32F1xx_HAL_Driver/Src/stm32f1xx_ll_usb.c ****   
2208:Drivers/STM32F1xx_HAL_Driver/Src/stm32f1xx_ll_usb.c ****   return HAL_OK;
 1644              		.loc 1 2208 3 is_stmt 1 view .LVU409
2209:Drivers/STM32F1xx_HAL_Driver/Src/stm32f1xx_ll_usb.c **** }
 1645              		.loc 1 2209 1 is_stmt 0 view .LVU410
 1646 000e 0020     		movs	r0, #0
 1647              	.LVL108:
 1648              		.loc 1 2209 1 view .LVU411
 1649 0010 7047     		bx	lr
 1650              		.cfi_endproc
 1651              	.LFE91:
 1653              		.section	.text.USB_DeActivateRemoteWakeup,"ax",%progbits
ARM GAS  /var/folders/rf/wfq6hz5s56g3yh4wqgd7820c0000gn/T//ccZ1SRBq.s 			page 71


 1654              		.align	1
 1655              		.global	USB_DeActivateRemoteWakeup
 1656              		.syntax unified
 1657              		.thumb
 1658              		.thumb_func
 1659              		.fpu softvfp
 1661              	USB_DeActivateRemoteWakeup:
 1662              	.LVL109:
 1663              	.LFB92:
2210:Drivers/STM32F1xx_HAL_Driver/Src/stm32f1xx_ll_usb.c **** 
2211:Drivers/STM32F1xx_HAL_Driver/Src/stm32f1xx_ll_usb.c **** /**
2212:Drivers/STM32F1xx_HAL_Driver/Src/stm32f1xx_ll_usb.c ****   * @brief  USB_DeActivateRemoteWakeup : de-active remote wakeup signalling
2213:Drivers/STM32F1xx_HAL_Driver/Src/stm32f1xx_ll_usb.c ****   * @param  USBx : Selected device
2214:Drivers/STM32F1xx_HAL_Driver/Src/stm32f1xx_ll_usb.c ****   * @retval HAL status
2215:Drivers/STM32F1xx_HAL_Driver/Src/stm32f1xx_ll_usb.c ****   */
2216:Drivers/STM32F1xx_HAL_Driver/Src/stm32f1xx_ll_usb.c **** HAL_StatusTypeDef USB_DeActivateRemoteWakeup(USB_TypeDef *USBx)
2217:Drivers/STM32F1xx_HAL_Driver/Src/stm32f1xx_ll_usb.c **** {
 1664              		.loc 1 2217 1 is_stmt 1 view -0
 1665              		.cfi_startproc
 1666              		@ args = 0, pretend = 0, frame = 0
 1667              		@ frame_needed = 0, uses_anonymous_args = 0
 1668              		@ link register save eliminated.
2218:Drivers/STM32F1xx_HAL_Driver/Src/stm32f1xx_ll_usb.c ****   USBx->CNTR &= ~(USB_CNTR_RESUME);
 1669              		.loc 1 2218 3 view .LVU413
 1670              		.loc 1 2218 14 is_stmt 0 view .LVU414
 1671 0000 B0F84030 		ldrh	r3, [r0, #64]
 1672 0004 9BB2     		uxth	r3, r3
 1673 0006 23F01003 		bic	r3, r3, #16
 1674 000a 9BB2     		uxth	r3, r3
 1675 000c A0F84030 		strh	r3, [r0, #64]	@ movhi
2219:Drivers/STM32F1xx_HAL_Driver/Src/stm32f1xx_ll_usb.c ****   return HAL_OK;
 1676              		.loc 1 2219 3 is_stmt 1 view .LVU415
2220:Drivers/STM32F1xx_HAL_Driver/Src/stm32f1xx_ll_usb.c **** }
 1677              		.loc 1 2220 1 is_stmt 0 view .LVU416
 1678 0010 0020     		movs	r0, #0
 1679              	.LVL110:
 1680              		.loc 1 2220 1 view .LVU417
 1681 0012 7047     		bx	lr
 1682              		.cfi_endproc
 1683              	.LFE92:
 1685              		.section	.text.USB_WritePMA,"ax",%progbits
 1686              		.align	1
 1687              		.global	USB_WritePMA
 1688              		.syntax unified
 1689              		.thumb
 1690              		.thumb_func
 1691              		.fpu softvfp
 1693              	USB_WritePMA:
 1694              	.LVL111:
 1695              	.LFB93:
2221:Drivers/STM32F1xx_HAL_Driver/Src/stm32f1xx_ll_usb.c **** 
2222:Drivers/STM32F1xx_HAL_Driver/Src/stm32f1xx_ll_usb.c **** /**
2223:Drivers/STM32F1xx_HAL_Driver/Src/stm32f1xx_ll_usb.c ****   * @brief  Copy a buffer from user memory area to packet memory area (PMA)
2224:Drivers/STM32F1xx_HAL_Driver/Src/stm32f1xx_ll_usb.c ****   * @param  USBx : pointer to USB register.
2225:Drivers/STM32F1xx_HAL_Driver/Src/stm32f1xx_ll_usb.c ****   * @param  pbUsrBuf : pointer to user memory area.
2226:Drivers/STM32F1xx_HAL_Driver/Src/stm32f1xx_ll_usb.c ****   * @param  wPMABufAddr : address into PMA.
2227:Drivers/STM32F1xx_HAL_Driver/Src/stm32f1xx_ll_usb.c ****   * @param  wNBytes : number of bytes to be copied.
ARM GAS  /var/folders/rf/wfq6hz5s56g3yh4wqgd7820c0000gn/T//ccZ1SRBq.s 			page 72


2228:Drivers/STM32F1xx_HAL_Driver/Src/stm32f1xx_ll_usb.c ****   * @retval None
2229:Drivers/STM32F1xx_HAL_Driver/Src/stm32f1xx_ll_usb.c ****   */
2230:Drivers/STM32F1xx_HAL_Driver/Src/stm32f1xx_ll_usb.c **** void USB_WritePMA(USB_TypeDef *USBx, uint8_t *pbUsrBuf, uint16_t wPMABufAddr, uint16_t wNBytes)
2231:Drivers/STM32F1xx_HAL_Driver/Src/stm32f1xx_ll_usb.c **** {
 1696              		.loc 1 2231 1 is_stmt 1 view -0
 1697              		.cfi_startproc
 1698              		@ args = 0, pretend = 0, frame = 0
 1699              		@ frame_needed = 0, uses_anonymous_args = 0
 1700              		@ link register save eliminated.
 1701              		.loc 1 2231 1 is_stmt 0 view .LVU419
 1702 0000 10B4     		push	{r4}
 1703              	.LCFI12:
 1704              		.cfi_def_cfa_offset 4
 1705              		.cfi_offset 4, -4
2232:Drivers/STM32F1xx_HAL_Driver/Src/stm32f1xx_ll_usb.c ****   uint32_t nbytes = (wNBytes + 1) >> 1;   /* nbytes = (wNBytes + 1) / 2 */
 1706              		.loc 1 2232 3 is_stmt 1 view .LVU420
 1707              		.loc 1 2232 30 is_stmt 0 view .LVU421
 1708 0002 5C1C     		adds	r4, r3, #1
 1709              		.loc 1 2232 35 view .LVU422
 1710 0004 6410     		asrs	r4, r4, #1
 1711              	.LVL112:
2233:Drivers/STM32F1xx_HAL_Driver/Src/stm32f1xx_ll_usb.c ****   uint32_t index = 0, temp1 = 0, temp2 = 0;
 1712              		.loc 1 2233 3 is_stmt 1 view .LVU423
2234:Drivers/STM32F1xx_HAL_Driver/Src/stm32f1xx_ll_usb.c ****   uint16_t *pdwVal = NULL;
 1713              		.loc 1 2234 3 view .LVU424
2235:Drivers/STM32F1xx_HAL_Driver/Src/stm32f1xx_ll_usb.c ****   
2236:Drivers/STM32F1xx_HAL_Driver/Src/stm32f1xx_ll_usb.c ****   pdwVal = (uint16_t *)(wPMABufAddr * 2 + (uint32_t)USBx + 0x400);
 1714              		.loc 1 2236 3 view .LVU425
 1715              		.loc 1 2236 41 is_stmt 0 view .LVU426
 1716 0006 00EB4202 		add	r2, r0, r2, lsl #1
 1717              	.LVL113:
 1718              		.loc 1 2236 58 view .LVU427
 1719 000a 02F58062 		add	r2, r2, #1024
 1720              	.LVL114:
2237:Drivers/STM32F1xx_HAL_Driver/Src/stm32f1xx_ll_usb.c ****   for (index = nbytes; index != 0; index--)
 1721              		.loc 1 2237 3 is_stmt 1 view .LVU428
 1722              	.L72:
 1723              		.loc 1 2237 24 discriminator 1 view .LVU429
 1724              		.loc 1 2237 3 is_stmt 0 discriminator 1 view .LVU430
 1725 000e 44B1     		cbz	r4, .L75
2238:Drivers/STM32F1xx_HAL_Driver/Src/stm32f1xx_ll_usb.c ****   {
2239:Drivers/STM32F1xx_HAL_Driver/Src/stm32f1xx_ll_usb.c ****     temp1 = (uint16_t) * pbUsrBuf;
 1726              		.loc 1 2239 5 is_stmt 1 discriminator 3 view .LVU431
 1727              		.loc 1 2239 24 is_stmt 0 discriminator 3 view .LVU432
 1728 0010 0B78     		ldrb	r3, [r1]	@ zero_extendqisi2
 1729              	.LVL115:
2240:Drivers/STM32F1xx_HAL_Driver/Src/stm32f1xx_ll_usb.c ****     pbUsrBuf++;
 1730              		.loc 1 2240 5 is_stmt 1 discriminator 3 view .LVU433
2241:Drivers/STM32F1xx_HAL_Driver/Src/stm32f1xx_ll_usb.c ****     temp2 = temp1 | (uint16_t) * pbUsrBuf << 8;
 1731              		.loc 1 2241 5 discriminator 3 view .LVU434
 1732              		.loc 1 2241 32 is_stmt 0 discriminator 3 view .LVU435
 1733 0012 4878     		ldrb	r0, [r1, #1]	@ zero_extendqisi2
 1734              		.loc 1 2241 11 discriminator 3 view .LVU436
 1735 0014 43EA0023 		orr	r3, r3, r0, lsl #8
 1736              	.LVL116:
2242:Drivers/STM32F1xx_HAL_Driver/Src/stm32f1xx_ll_usb.c ****     *pdwVal++ = temp2;
 1737              		.loc 1 2242 5 is_stmt 1 discriminator 3 view .LVU437
ARM GAS  /var/folders/rf/wfq6hz5s56g3yh4wqgd7820c0000gn/T//ccZ1SRBq.s 			page 73


 1738              		.loc 1 2242 15 is_stmt 0 discriminator 3 view .LVU438
 1739 0018 22F8043B 		strh	r3, [r2], #4	@ movhi
 1740              	.LVL117:
2243:Drivers/STM32F1xx_HAL_Driver/Src/stm32f1xx_ll_usb.c ****     pdwVal++;
 1741              		.loc 1 2243 5 is_stmt 1 discriminator 3 view .LVU439
2244:Drivers/STM32F1xx_HAL_Driver/Src/stm32f1xx_ll_usb.c ****     pbUsrBuf++;
 1742              		.loc 1 2244 5 discriminator 3 view .LVU440
 1743              		.loc 1 2244 13 is_stmt 0 discriminator 3 view .LVU441
 1744 001c 0231     		adds	r1, r1, #2
 1745              	.LVL118:
2237:Drivers/STM32F1xx_HAL_Driver/Src/stm32f1xx_ll_usb.c ****   {
 1746              		.loc 1 2237 36 is_stmt 1 discriminator 3 view .LVU442
2237:Drivers/STM32F1xx_HAL_Driver/Src/stm32f1xx_ll_usb.c ****   {
 1747              		.loc 1 2237 41 is_stmt 0 discriminator 3 view .LVU443
 1748 001e 013C     		subs	r4, r4, #1
 1749              	.LVL119:
2237:Drivers/STM32F1xx_HAL_Driver/Src/stm32f1xx_ll_usb.c ****   {
 1750              		.loc 1 2237 41 discriminator 3 view .LVU444
 1751 0020 F5E7     		b	.L72
 1752              	.LVL120:
 1753              	.L75:
2245:Drivers/STM32F1xx_HAL_Driver/Src/stm32f1xx_ll_usb.c ****   }
2246:Drivers/STM32F1xx_HAL_Driver/Src/stm32f1xx_ll_usb.c **** }
 1754              		.loc 1 2246 1 view .LVU445
 1755 0022 10BC     		pop	{r4}
 1756              	.LCFI13:
 1757              		.cfi_restore 4
 1758              		.cfi_def_cfa_offset 0
 1759              	.LVL121:
 1760              		.loc 1 2246 1 view .LVU446
 1761 0024 7047     		bx	lr
 1762              		.cfi_endproc
 1763              	.LFE93:
 1765              		.section	.text.USB_EPStartXfer,"ax",%progbits
 1766              		.align	1
 1767              		.global	USB_EPStartXfer
 1768              		.syntax unified
 1769              		.thumb
 1770              		.thumb_func
 1771              		.fpu softvfp
 1773              	USB_EPStartXfer:
 1774              	.LVL122:
 1775              	.LFB75:
1842:Drivers/STM32F1xx_HAL_Driver/Src/stm32f1xx_ll_usb.c ****   uint16_t pmabuffer = 0;
 1776              		.loc 1 1842 1 is_stmt 1 view -0
 1777              		.cfi_startproc
 1778              		@ args = 0, pretend = 0, frame = 0
 1779              		@ frame_needed = 0, uses_anonymous_args = 0
1842:Drivers/STM32F1xx_HAL_Driver/Src/stm32f1xx_ll_usb.c ****   uint16_t pmabuffer = 0;
 1780              		.loc 1 1842 1 is_stmt 0 view .LVU448
 1781 0000 70B5     		push	{r4, r5, r6, lr}
 1782              	.LCFI14:
 1783              		.cfi_def_cfa_offset 16
 1784              		.cfi_offset 4, -16
 1785              		.cfi_offset 5, -12
 1786              		.cfi_offset 6, -8
 1787              		.cfi_offset 14, -4
ARM GAS  /var/folders/rf/wfq6hz5s56g3yh4wqgd7820c0000gn/T//ccZ1SRBq.s 			page 74


 1788 0002 0546     		mov	r5, r0
 1789 0004 0C46     		mov	r4, r1
1843:Drivers/STM32F1xx_HAL_Driver/Src/stm32f1xx_ll_usb.c ****   uint32_t len = ep->xfer_len;
 1790              		.loc 1 1843 3 is_stmt 1 view .LVU449
 1791              	.LVL123:
1844:Drivers/STM32F1xx_HAL_Driver/Src/stm32f1xx_ll_usb.c ****   
 1792              		.loc 1 1844 3 view .LVU450
1844:Drivers/STM32F1xx_HAL_Driver/Src/stm32f1xx_ll_usb.c ****   
 1793              		.loc 1 1844 12 is_stmt 0 view .LVU451
 1794 0006 8A69     		ldr	r2, [r1, #24]
 1795              	.LVL124:
1847:Drivers/STM32F1xx_HAL_Driver/Src/stm32f1xx_ll_usb.c ****   {
 1796              		.loc 1 1847 3 is_stmt 1 view .LVU452
1847:Drivers/STM32F1xx_HAL_Driver/Src/stm32f1xx_ll_usb.c ****   {
 1797              		.loc 1 1847 9 is_stmt 0 view .LVU453
 1798 0008 4978     		ldrb	r1, [r1, #1]	@ zero_extendqisi2
 1799              	.LVL125:
1847:Drivers/STM32F1xx_HAL_Driver/Src/stm32f1xx_ll_usb.c ****   {
 1800              		.loc 1 1847 6 view .LVU454
 1801 000a 0129     		cmp	r1, #1
 1802 000c 35D0     		beq	.L112
1891:Drivers/STM32F1xx_HAL_Driver/Src/stm32f1xx_ll_usb.c ****     {
 1803              		.loc 1 1891 5 is_stmt 1 view .LVU455
1891:Drivers/STM32F1xx_HAL_Driver/Src/stm32f1xx_ll_usb.c ****     {
 1804              		.loc 1 1891 26 is_stmt 0 view .LVU456
 1805 000e 2369     		ldr	r3, [r4, #16]
1891:Drivers/STM32F1xx_HAL_Driver/Src/stm32f1xx_ll_usb.c ****     {
 1806              		.loc 1 1891 8 view .LVU457
 1807 0010 9342     		cmp	r3, r2
 1808 0012 80F0EF80 		bcs	.L96
1893:Drivers/STM32F1xx_HAL_Driver/Src/stm32f1xx_ll_usb.c ****       ep->xfer_len-=len; 
 1809              		.loc 1 1893 7 is_stmt 1 view .LVU458
 1810              	.LVL126:
1894:Drivers/STM32F1xx_HAL_Driver/Src/stm32f1xx_ll_usb.c ****     }
 1811              		.loc 1 1894 7 view .LVU459
1894:Drivers/STM32F1xx_HAL_Driver/Src/stm32f1xx_ll_usb.c ****     }
 1812              		.loc 1 1894 19 is_stmt 0 view .LVU460
 1813 0016 D21A     		subs	r2, r2, r3
 1814 0018 A261     		str	r2, [r4, #24]
 1815              	.L97:
1903:Drivers/STM32F1xx_HAL_Driver/Src/stm32f1xx_ll_usb.c ****     {
 1816              		.loc 1 1903 5 is_stmt 1 view .LVU461
1903:Drivers/STM32F1xx_HAL_Driver/Src/stm32f1xx_ll_usb.c ****     {
 1817              		.loc 1 1903 11 is_stmt 0 view .LVU462
 1818 001a A27A     		ldrb	r2, [r4, #10]	@ zero_extendqisi2
1903:Drivers/STM32F1xx_HAL_Driver/Src/stm32f1xx_ll_usb.c ****     {
 1819              		.loc 1 1903 8 view .LVU463
 1820 001c 002A     		cmp	r2, #0
 1821 001e 40F0F980 		bne	.L98
 1822              	.LBB23:
1906:Drivers/STM32F1xx_HAL_Driver/Src/stm32f1xx_ll_usb.c ****     }
 1823              		.loc 1 1906 7 is_stmt 1 view .LVU464
 1824 0022 B5F85020 		ldrh	r2, [r5, #80]
 1825 0026 92B2     		uxth	r2, r2
 1826 0028 2178     		ldrb	r1, [r4]	@ zero_extendqisi2
 1827 002a 02EBC102 		add	r2, r2, r1, lsl #3
 1828 002e 0632     		adds	r2, r2, #6
ARM GAS  /var/folders/rf/wfq6hz5s56g3yh4wqgd7820c0000gn/T//ccZ1SRBq.s 			page 75


 1829 0030 05EB4202 		add	r2, r5, r2, lsl #1
 1830              	.LVL127:
 1831              	.LBB24:
1906:Drivers/STM32F1xx_HAL_Driver/Src/stm32f1xx_ll_usb.c ****     }
 1832              		.loc 1 1906 7 view .LVU465
1906:Drivers/STM32F1xx_HAL_Driver/Src/stm32f1xx_ll_usb.c ****     }
 1833              		.loc 1 1906 7 view .LVU466
 1834 0034 3E2B     		cmp	r3, #62
 1835 0036 40F2E180 		bls	.L99
1906:Drivers/STM32F1xx_HAL_Driver/Src/stm32f1xx_ll_usb.c ****     }
 1836              		.loc 1 1906 7 discriminator 1 view .LVU467
 1837 003a C3F34F11 		ubfx	r1, r3, #5, #16
 1838              	.LVL128:
1906:Drivers/STM32F1xx_HAL_Driver/Src/stm32f1xx_ll_usb.c ****     }
 1839              		.loc 1 1906 7 discriminator 1 view .LVU468
 1840 003e 13F01F0F 		tst	r3, #31
 1841 0042 01D1     		bne	.L100
1906:Drivers/STM32F1xx_HAL_Driver/Src/stm32f1xx_ll_usb.c ****     }
 1842              		.loc 1 1906 7 discriminator 3 view .LVU469
 1843 0044 0139     		subs	r1, r1, #1
 1844              	.LVL129:
1906:Drivers/STM32F1xx_HAL_Driver/Src/stm32f1xx_ll_usb.c ****     }
 1845              		.loc 1 1906 7 is_stmt 0 discriminator 3 view .LVU470
 1846 0046 89B2     		uxth	r1, r1
 1847              	.LVL130:
 1848              	.L100:
1906:Drivers/STM32F1xx_HAL_Driver/Src/stm32f1xx_ll_usb.c ****     }
 1849              		.loc 1 1906 7 is_stmt 1 discriminator 5 view .LVU471
 1850 0048 6FEAC161 		mvn	r1, r1, lsl #27
 1851              	.LVL131:
1906:Drivers/STM32F1xx_HAL_Driver/Src/stm32f1xx_ll_usb.c ****     }
 1852              		.loc 1 1906 7 is_stmt 0 discriminator 5 view .LVU472
 1853 004c 6FEA5141 		mvn	r1, r1, lsr #17
 1854 0050 89B2     		uxth	r1, r1
 1855 0052 C2F80014 		str	r1, [r2, #1024]
1906:Drivers/STM32F1xx_HAL_Driver/Src/stm32f1xx_ll_usb.c ****     }
 1856              		.loc 1 1906 7 is_stmt 1 discriminator 5 view .LVU473
 1857              	.LVL132:
 1858              	.L101:
1906:Drivers/STM32F1xx_HAL_Driver/Src/stm32f1xx_ll_usb.c ****     }
 1859              		.loc 1 1906 7 is_stmt 0 discriminator 5 view .LVU474
 1860              	.LBE24:
 1861              	.LBE23:
1911:Drivers/STM32F1xx_HAL_Driver/Src/stm32f1xx_ll_usb.c ****     }
 1862              		.loc 1 1911 7 is_stmt 1 discriminator 30 view .LVU475
1911:Drivers/STM32F1xx_HAL_Driver/Src/stm32f1xx_ll_usb.c ****     }
 1863              		.loc 1 1911 57 discriminator 30 view .LVU476
 1864              	.LBB26:
1914:Drivers/STM32F1xx_HAL_Driver/Src/stm32f1xx_ll_usb.c ****   }
 1865              		.loc 1 1914 5 discriminator 30 view .LVU477
1914:Drivers/STM32F1xx_HAL_Driver/Src/stm32f1xx_ll_usb.c ****   }
 1866              		.loc 1 1914 5 discriminator 30 view .LVU478
 1867 0056 2278     		ldrb	r2, [r4]	@ zero_extendqisi2
 1868 0058 35F82230 		ldrh	r3, [r5, r2, lsl #2]
 1869              	.LVL133:
1914:Drivers/STM32F1xx_HAL_Driver/Src/stm32f1xx_ll_usb.c ****   }
 1870              		.loc 1 1914 5 is_stmt 0 discriminator 30 view .LVU479
ARM GAS  /var/folders/rf/wfq6hz5s56g3yh4wqgd7820c0000gn/T//ccZ1SRBq.s 			page 76


 1871 005c 9BB2     		uxth	r3, r3
 1872 005e 23F48043 		bic	r3, r3, #16384
 1873 0062 23F07003 		bic	r3, r3, #112
 1874              	.LVL134:
1914:Drivers/STM32F1xx_HAL_Driver/Src/stm32f1xx_ll_usb.c ****   }
 1875              		.loc 1 1914 5 is_stmt 1 discriminator 30 view .LVU480
1914:Drivers/STM32F1xx_HAL_Driver/Src/stm32f1xx_ll_usb.c ****   }
 1876              		.loc 1 1914 5 discriminator 30 view .LVU481
1914:Drivers/STM32F1xx_HAL_Driver/Src/stm32f1xx_ll_usb.c ****   }
 1877              		.loc 1 1914 5 discriminator 30 view .LVU482
1914:Drivers/STM32F1xx_HAL_Driver/Src/stm32f1xx_ll_usb.c ****   }
 1878              		.loc 1 1914 5 discriminator 30 view .LVU483
 1879 0066 83F44053 		eor	r3, r3, #12288
 1880              	.LVL135:
1914:Drivers/STM32F1xx_HAL_Driver/Src/stm32f1xx_ll_usb.c ****   }
 1881              		.loc 1 1914 5 discriminator 30 view .LVU484
 1882 006a 43F40043 		orr	r3, r3, #32768
 1883              	.LVL136:
1914:Drivers/STM32F1xx_HAL_Driver/Src/stm32f1xx_ll_usb.c ****   }
 1884              		.loc 1 1914 5 is_stmt 0 discriminator 30 view .LVU485
 1885 006e 43F08003 		orr	r3, r3, #128
 1886 0072 25F82230 		strh	r3, [r5, r2, lsl #2]	@ movhi
 1887              	.LVL137:
 1888              	.L95:
1914:Drivers/STM32F1xx_HAL_Driver/Src/stm32f1xx_ll_usb.c ****   }
 1889              		.loc 1 1914 5 discriminator 30 view .LVU486
 1890              	.LBE26:
1914:Drivers/STM32F1xx_HAL_Driver/Src/stm32f1xx_ll_usb.c ****   }
 1891              		.loc 1 1914 57 is_stmt 1 discriminator 7 view .LVU487
1917:Drivers/STM32F1xx_HAL_Driver/Src/stm32f1xx_ll_usb.c **** }
 1892              		.loc 1 1917 3 discriminator 7 view .LVU488
1918:Drivers/STM32F1xx_HAL_Driver/Src/stm32f1xx_ll_usb.c **** 
 1893              		.loc 1 1918 1 is_stmt 0 discriminator 7 view .LVU489
 1894 0076 0020     		movs	r0, #0
 1895 0078 70BD     		pop	{r4, r5, r6, pc}
 1896              	.LVL138:
 1897              	.L112:
1850:Drivers/STM32F1xx_HAL_Driver/Src/stm32f1xx_ll_usb.c ****     {
 1898              		.loc 1 1850 5 is_stmt 1 view .LVU490
1850:Drivers/STM32F1xx_HAL_Driver/Src/stm32f1xx_ll_usb.c ****     {
 1899              		.loc 1 1850 26 is_stmt 0 view .LVU491
 1900 007a 2669     		ldr	r6, [r4, #16]
1850:Drivers/STM32F1xx_HAL_Driver/Src/stm32f1xx_ll_usb.c ****     {
 1901              		.loc 1 1850 8 view .LVU492
 1902 007c 9642     		cmp	r6, r2
 1903 007e 24D2     		bcs	.L78
1852:Drivers/STM32F1xx_HAL_Driver/Src/stm32f1xx_ll_usb.c ****       ep->xfer_len-=len; 
 1904              		.loc 1 1852 7 is_stmt 1 view .LVU493
 1905              	.LVL139:
1853:Drivers/STM32F1xx_HAL_Driver/Src/stm32f1xx_ll_usb.c ****     }
 1906              		.loc 1 1853 7 view .LVU494
1853:Drivers/STM32F1xx_HAL_Driver/Src/stm32f1xx_ll_usb.c ****     }
 1907              		.loc 1 1853 19 is_stmt 0 view .LVU495
 1908 0080 921B     		subs	r2, r2, r6
 1909 0082 A261     		str	r2, [r4, #24]
 1910              	.L79:
1862:Drivers/STM32F1xx_HAL_Driver/Src/stm32f1xx_ll_usb.c ****     {
ARM GAS  /var/folders/rf/wfq6hz5s56g3yh4wqgd7820c0000gn/T//ccZ1SRBq.s 			page 77


 1911              		.loc 1 1862 5 is_stmt 1 view .LVU496
1862:Drivers/STM32F1xx_HAL_Driver/Src/stm32f1xx_ll_usb.c ****     {
 1912              		.loc 1 1862 11 is_stmt 0 view .LVU497
 1913 0084 A37A     		ldrb	r3, [r4, #10]	@ zero_extendqisi2
1862:Drivers/STM32F1xx_HAL_Driver/Src/stm32f1xx_ll_usb.c ****     {
 1914              		.loc 1 1862 8 view .LVU498
 1915 0086 23B3     		cbz	r3, .L113
1870:Drivers/STM32F1xx_HAL_Driver/Src/stm32f1xx_ll_usb.c ****       {
 1916              		.loc 1 1870 7 is_stmt 1 view .LVU499
1870:Drivers/STM32F1xx_HAL_Driver/Src/stm32f1xx_ll_usb.c ****       {
 1917              		.loc 1 1870 11 is_stmt 0 view .LVU500
 1918 0088 2378     		ldrb	r3, [r4]	@ zero_extendqisi2
 1919 008a 35F82320 		ldrh	r2, [r5, r3, lsl #2]
1870:Drivers/STM32F1xx_HAL_Driver/Src/stm32f1xx_ll_usb.c ****       {
 1920              		.loc 1 1870 10 view .LVU501
 1921 008e 12F0400F 		tst	r2, #64
 1922 0092 6DD0     		beq	.L82
1873:Drivers/STM32F1xx_HAL_Driver/Src/stm32f1xx_ll_usb.c ****         pmabuffer = ep->pmaaddr1;
 1923              		.loc 1 1873 9 is_stmt 1 view .LVU502
 1924 0094 0029     		cmp	r1, #0
 1925 0096 3AD1     		bne	.L83
 1926              	.LBB27:
1873:Drivers/STM32F1xx_HAL_Driver/Src/stm32f1xx_ll_usb.c ****         pmabuffer = ep->pmaaddr1;
 1927              		.loc 1 1873 9 discriminator 1 view .LVU503
 1928 0098 B5F85020 		ldrh	r2, [r5, #80]
 1929 009c 92B2     		uxth	r2, r2
 1930 009e 02EBC303 		add	r3, r2, r3, lsl #3
 1931 00a2 0633     		adds	r3, r3, #6
 1932 00a4 05EB4303 		add	r3, r5, r3, lsl #1
 1933              	.LVL140:
 1934              	.LBB28:
1873:Drivers/STM32F1xx_HAL_Driver/Src/stm32f1xx_ll_usb.c ****         pmabuffer = ep->pmaaddr1;
 1935              		.loc 1 1873 9 discriminator 1 view .LVU504
1873:Drivers/STM32F1xx_HAL_Driver/Src/stm32f1xx_ll_usb.c ****         pmabuffer = ep->pmaaddr1;
 1936              		.loc 1 1873 9 discriminator 1 view .LVU505
 1937 00a8 3E2E     		cmp	r6, #62
 1938 00aa 24D9     		bls	.L84
1873:Drivers/STM32F1xx_HAL_Driver/Src/stm32f1xx_ll_usb.c ****         pmabuffer = ep->pmaaddr1;
 1939              		.loc 1 1873 9 discriminator 3 view .LVU506
 1940 00ac C6F34F12 		ubfx	r2, r6, #5, #16
 1941              	.LVL141:
1873:Drivers/STM32F1xx_HAL_Driver/Src/stm32f1xx_ll_usb.c ****         pmabuffer = ep->pmaaddr1;
 1942              		.loc 1 1873 9 discriminator 3 view .LVU507
 1943 00b0 16F01F0F 		tst	r6, #31
 1944 00b4 01D1     		bne	.L85
1873:Drivers/STM32F1xx_HAL_Driver/Src/stm32f1xx_ll_usb.c ****         pmabuffer = ep->pmaaddr1;
 1945              		.loc 1 1873 9 discriminator 5 view .LVU508
 1946 00b6 013A     		subs	r2, r2, #1
 1947              	.LVL142:
1873:Drivers/STM32F1xx_HAL_Driver/Src/stm32f1xx_ll_usb.c ****         pmabuffer = ep->pmaaddr1;
 1948              		.loc 1 1873 9 is_stmt 0 discriminator 5 view .LVU509
 1949 00b8 92B2     		uxth	r2, r2
 1950              	.LVL143:
 1951              	.L85:
1873:Drivers/STM32F1xx_HAL_Driver/Src/stm32f1xx_ll_usb.c ****         pmabuffer = ep->pmaaddr1;
 1952              		.loc 1 1873 9 is_stmt 1 discriminator 7 view .LVU510
 1953 00ba 6FEAC262 		mvn	r2, r2, lsl #27
ARM GAS  /var/folders/rf/wfq6hz5s56g3yh4wqgd7820c0000gn/T//ccZ1SRBq.s 			page 78


 1954              	.LVL144:
1873:Drivers/STM32F1xx_HAL_Driver/Src/stm32f1xx_ll_usb.c ****         pmabuffer = ep->pmaaddr1;
 1955              		.loc 1 1873 9 is_stmt 0 discriminator 7 view .LVU511
 1956 00be 6FEA5242 		mvn	r2, r2, lsr #17
 1957 00c2 92B2     		uxth	r2, r2
 1958 00c4 C3F80024 		str	r2, [r3, #1024]
1873:Drivers/STM32F1xx_HAL_Driver/Src/stm32f1xx_ll_usb.c ****         pmabuffer = ep->pmaaddr1;
 1959              		.loc 1 1873 9 is_stmt 1 discriminator 7 view .LVU512
 1960 00c8 2BE0     		b	.L86
 1961              	.LVL145:
 1962              	.L78:
1873:Drivers/STM32F1xx_HAL_Driver/Src/stm32f1xx_ll_usb.c ****         pmabuffer = ep->pmaaddr1;
 1963              		.loc 1 1873 9 is_stmt 0 discriminator 7 view .LVU513
 1964              	.LBE28:
 1965              	.LBE27:
1857:Drivers/STM32F1xx_HAL_Driver/Src/stm32f1xx_ll_usb.c ****       ep->xfer_len =0;
 1966              		.loc 1 1857 7 is_stmt 1 view .LVU514
1858:Drivers/STM32F1xx_HAL_Driver/Src/stm32f1xx_ll_usb.c ****     }
 1967              		.loc 1 1858 7 view .LVU515
1858:Drivers/STM32F1xx_HAL_Driver/Src/stm32f1xx_ll_usb.c ****     }
 1968              		.loc 1 1858 20 is_stmt 0 view .LVU516
 1969 00ca 0023     		movs	r3, #0
 1970 00cc A361     		str	r3, [r4, #24]
1857:Drivers/STM32F1xx_HAL_Driver/Src/stm32f1xx_ll_usb.c ****       ep->xfer_len =0;
 1971              		.loc 1 1857 10 view .LVU517
 1972 00ce 1646     		mov	r6, r2
 1973 00d0 D8E7     		b	.L79
 1974              	.LVL146:
 1975              	.L113:
1864:Drivers/STM32F1xx_HAL_Driver/Src/stm32f1xx_ll_usb.c ****       PCD_SET_EP_TX_CNT(USBx, ep->num, len);
 1976              		.loc 1 1864 7 is_stmt 1 view .LVU518
 1977 00d2 B3B2     		uxth	r3, r6
 1978 00d4 A288     		ldrh	r2, [r4, #4]
 1979 00d6 6169     		ldr	r1, [r4, #20]
 1980 00d8 2846     		mov	r0, r5
 1981              	.LVL147:
1864:Drivers/STM32F1xx_HAL_Driver/Src/stm32f1xx_ll_usb.c ****       PCD_SET_EP_TX_CNT(USBx, ep->num, len);
 1982              		.loc 1 1864 7 is_stmt 0 view .LVU519
 1983 00da FFF7FEFF 		bl	USB_WritePMA
 1984              	.LVL148:
1865:Drivers/STM32F1xx_HAL_Driver/Src/stm32f1xx_ll_usb.c ****     }
 1985              		.loc 1 1865 7 is_stmt 1 view .LVU520
 1986 00de B5F85030 		ldrh	r3, [r5, #80]
 1987 00e2 9BB2     		uxth	r3, r3
 1988 00e4 2278     		ldrb	r2, [r4]	@ zero_extendqisi2
 1989 00e6 03EBC203 		add	r3, r3, r2, lsl #3
 1990 00ea 0233     		adds	r3, r3, #2
 1991 00ec 05EB4303 		add	r3, r5, r3, lsl #1
 1992 00f0 C3F80064 		str	r6, [r3, #1024]
 1993 00f4 2BE0     		b	.L81
 1994              	.LVL149:
 1995              	.L84:
 1996              	.LBB30:
 1997              	.LBB29:
1873:Drivers/STM32F1xx_HAL_Driver/Src/stm32f1xx_ll_usb.c ****         pmabuffer = ep->pmaaddr1;
 1998              		.loc 1 1873 9 discriminator 4 view .LVU521
 1999 00f6 C6F34F02 		ubfx	r2, r6, #1, #16
ARM GAS  /var/folders/rf/wfq6hz5s56g3yh4wqgd7820c0000gn/T//ccZ1SRBq.s 			page 79


 2000              	.LVL150:
1873:Drivers/STM32F1xx_HAL_Driver/Src/stm32f1xx_ll_usb.c ****         pmabuffer = ep->pmaaddr1;
 2001              		.loc 1 1873 9 discriminator 4 view .LVU522
 2002 00fa 16F0010F 		tst	r6, #1
 2003 00fe 01D0     		beq	.L87
1873:Drivers/STM32F1xx_HAL_Driver/Src/stm32f1xx_ll_usb.c ****         pmabuffer = ep->pmaaddr1;
 2004              		.loc 1 1873 9 discriminator 9 view .LVU523
 2005 0100 0132     		adds	r2, r2, #1
 2006              	.LVL151:
1873:Drivers/STM32F1xx_HAL_Driver/Src/stm32f1xx_ll_usb.c ****         pmabuffer = ep->pmaaddr1;
 2007              		.loc 1 1873 9 is_stmt 0 discriminator 9 view .LVU524
 2008 0102 92B2     		uxth	r2, r2
 2009              	.LVL152:
 2010              	.L87:
1873:Drivers/STM32F1xx_HAL_Driver/Src/stm32f1xx_ll_usb.c ****         pmabuffer = ep->pmaaddr1;
 2011              		.loc 1 1873 9 is_stmt 1 discriminator 11 view .LVU525
 2012 0104 9202     		lsls	r2, r2, #10
 2013              	.LVL153:
1873:Drivers/STM32F1xx_HAL_Driver/Src/stm32f1xx_ll_usb.c ****         pmabuffer = ep->pmaaddr1;
 2014              		.loc 1 1873 9 is_stmt 0 discriminator 11 view .LVU526
 2015 0106 92B2     		uxth	r2, r2
 2016 0108 C3F80024 		str	r2, [r3, #1024]
 2017 010c 09E0     		b	.L86
 2018              	.LVL154:
 2019              	.L83:
1873:Drivers/STM32F1xx_HAL_Driver/Src/stm32f1xx_ll_usb.c ****         pmabuffer = ep->pmaaddr1;
 2020              		.loc 1 1873 9 discriminator 11 view .LVU527
 2021              	.LBE29:
 2022              	.LBE30:
1873:Drivers/STM32F1xx_HAL_Driver/Src/stm32f1xx_ll_usb.c ****         pmabuffer = ep->pmaaddr1;
 2023              		.loc 1 1873 9 is_stmt 1 discriminator 13 view .LVU528
1873:Drivers/STM32F1xx_HAL_Driver/Src/stm32f1xx_ll_usb.c ****         pmabuffer = ep->pmaaddr1;
 2024              		.loc 1 1873 9 discriminator 13 view .LVU529
 2025 010e B5F85020 		ldrh	r2, [r5, #80]
 2026 0112 92B2     		uxth	r2, r2
 2027 0114 02EBC303 		add	r3, r2, r3, lsl #3
 2028 0118 0233     		adds	r3, r3, #2
 2029 011a 05EB4303 		add	r3, r5, r3, lsl #1
 2030 011e C3F80064 		str	r6, [r3, #1024]
 2031              	.L86:
1873:Drivers/STM32F1xx_HAL_Driver/Src/stm32f1xx_ll_usb.c ****         pmabuffer = ep->pmaaddr1;
 2032              		.loc 1 1873 60 discriminator 15 view .LVU530
1874:Drivers/STM32F1xx_HAL_Driver/Src/stm32f1xx_ll_usb.c ****       }
 2033              		.loc 1 1874 9 discriminator 15 view .LVU531
1874:Drivers/STM32F1xx_HAL_Driver/Src/stm32f1xx_ll_usb.c ****       }
 2034              		.loc 1 1874 19 is_stmt 0 discriminator 15 view .LVU532
 2035 0122 2289     		ldrh	r2, [r4, #8]
 2036              	.LVL155:
 2037              	.L88:
1882:Drivers/STM32F1xx_HAL_Driver/Src/stm32f1xx_ll_usb.c ****       PCD_FreeUserBuffer(USBx, ep->num, ep->is_in);
 2038              		.loc 1 1882 7 is_stmt 1 view .LVU533
 2039 0124 B3B2     		uxth	r3, r6
 2040 0126 6169     		ldr	r1, [r4, #20]
 2041 0128 2846     		mov	r0, r5
 2042              	.LVL156:
1882:Drivers/STM32F1xx_HAL_Driver/Src/stm32f1xx_ll_usb.c ****       PCD_FreeUserBuffer(USBx, ep->num, ep->is_in);
 2043              		.loc 1 1882 7 is_stmt 0 view .LVU534
ARM GAS  /var/folders/rf/wfq6hz5s56g3yh4wqgd7820c0000gn/T//ccZ1SRBq.s 			page 80


 2044 012a FFF7FEFF 		bl	USB_WritePMA
 2045              	.LVL157:
1883:Drivers/STM32F1xx_HAL_Driver/Src/stm32f1xx_ll_usb.c ****     }
 2046              		.loc 1 1883 7 is_stmt 1 view .LVU535
 2047 012e 6378     		ldrb	r3, [r4, #1]	@ zero_extendqisi2
 2048 0130 002B     		cmp	r3, #0
 2049 0132 4FD1     		bne	.L94
1883:Drivers/STM32F1xx_HAL_Driver/Src/stm32f1xx_ll_usb.c ****     }
 2050              		.loc 1 1883 7 discriminator 1 view .LVU536
 2051 0134 2278     		ldrb	r2, [r4]	@ zero_extendqisi2
 2052 0136 35F82230 		ldrh	r3, [r5, r2, lsl #2]
 2053 013a 23F0F003 		bic	r3, r3, #240
 2054 013e 1B05     		lsls	r3, r3, #20
 2055 0140 1B0D     		lsrs	r3, r3, #20
 2056 0142 43F40043 		orr	r3, r3, #32768
 2057 0146 43F0C003 		orr	r3, r3, #192
 2058 014a 25F82230 		strh	r3, [r5, r2, lsl #2]	@ movhi
 2059              	.L81:
1883:Drivers/STM32F1xx_HAL_Driver/Src/stm32f1xx_ll_usb.c ****     }
 2060              		.loc 1 1883 51 discriminator 6 view .LVU537
 2061              	.LBB31:
1886:Drivers/STM32F1xx_HAL_Driver/Src/stm32f1xx_ll_usb.c ****   }
 2062              		.loc 1 1886 5 discriminator 6 view .LVU538
1886:Drivers/STM32F1xx_HAL_Driver/Src/stm32f1xx_ll_usb.c ****   }
 2063              		.loc 1 1886 5 discriminator 6 view .LVU539
 2064 014e 2278     		ldrb	r2, [r4]	@ zero_extendqisi2
 2065 0150 35F82230 		ldrh	r3, [r5, r2, lsl #2]
 2066 0154 9BB2     		uxth	r3, r3
 2067 0156 23F4E043 		bic	r3, r3, #28672
 2068 015a 23F04003 		bic	r3, r3, #64
 2069              	.LVL158:
1886:Drivers/STM32F1xx_HAL_Driver/Src/stm32f1xx_ll_usb.c ****   }
 2070              		.loc 1 1886 5 discriminator 6 view .LVU540
1886:Drivers/STM32F1xx_HAL_Driver/Src/stm32f1xx_ll_usb.c ****   }
 2071              		.loc 1 1886 5 discriminator 6 view .LVU541
1886:Drivers/STM32F1xx_HAL_Driver/Src/stm32f1xx_ll_usb.c ****   }
 2072              		.loc 1 1886 5 discriminator 6 view .LVU542
1886:Drivers/STM32F1xx_HAL_Driver/Src/stm32f1xx_ll_usb.c ****   }
 2073              		.loc 1 1886 5 discriminator 6 view .LVU543
 2074 015e 83F03003 		eor	r3, r3, #48
 2075              	.LVL159:
1886:Drivers/STM32F1xx_HAL_Driver/Src/stm32f1xx_ll_usb.c ****   }
 2076              		.loc 1 1886 5 discriminator 6 view .LVU544
 2077 0162 43F40043 		orr	r3, r3, #32768
 2078              	.LVL160:
1886:Drivers/STM32F1xx_HAL_Driver/Src/stm32f1xx_ll_usb.c ****   }
 2079              		.loc 1 1886 5 is_stmt 0 discriminator 6 view .LVU545
 2080 0166 43F08003 		orr	r3, r3, #128
 2081 016a 25F82230 		strh	r3, [r5, r2, lsl #2]	@ movhi
 2082              	.LBE31:
1886:Drivers/STM32F1xx_HAL_Driver/Src/stm32f1xx_ll_usb.c ****   }
 2083              		.loc 1 1886 57 is_stmt 1 discriminator 6 view .LVU546
 2084 016e 82E7     		b	.L95
 2085              	.LVL161:
 2086              	.L82:
1879:Drivers/STM32F1xx_HAL_Driver/Src/stm32f1xx_ll_usb.c ****         pmabuffer = ep->pmaaddr0;
 2087              		.loc 1 1879 9 view .LVU547
ARM GAS  /var/folders/rf/wfq6hz5s56g3yh4wqgd7820c0000gn/T//ccZ1SRBq.s 			page 81


 2088 0170 21BB     		cbnz	r1, .L89
 2089              	.LBB32:
1879:Drivers/STM32F1xx_HAL_Driver/Src/stm32f1xx_ll_usb.c ****         pmabuffer = ep->pmaaddr0;
 2090              		.loc 1 1879 9 discriminator 1 view .LVU548
 2091 0172 B5F85020 		ldrh	r2, [r5, #80]
 2092 0176 92B2     		uxth	r2, r2
 2093 0178 02EBC303 		add	r3, r2, r3, lsl #3
 2094 017c 0233     		adds	r3, r3, #2
 2095 017e 05EB4303 		add	r3, r5, r3, lsl #1
 2096              	.LVL162:
 2097              	.LBB33:
1879:Drivers/STM32F1xx_HAL_Driver/Src/stm32f1xx_ll_usb.c ****         pmabuffer = ep->pmaaddr0;
 2098              		.loc 1 1879 9 discriminator 1 view .LVU549
1879:Drivers/STM32F1xx_HAL_Driver/Src/stm32f1xx_ll_usb.c ****         pmabuffer = ep->pmaaddr0;
 2099              		.loc 1 1879 9 discriminator 1 view .LVU550
 2100 0182 3E2E     		cmp	r6, #62
 2101 0184 0ED9     		bls	.L90
1879:Drivers/STM32F1xx_HAL_Driver/Src/stm32f1xx_ll_usb.c ****         pmabuffer = ep->pmaaddr0;
 2102              		.loc 1 1879 9 discriminator 3 view .LVU551
 2103 0186 C6F34F12 		ubfx	r2, r6, #5, #16
 2104              	.LVL163:
1879:Drivers/STM32F1xx_HAL_Driver/Src/stm32f1xx_ll_usb.c ****         pmabuffer = ep->pmaaddr0;
 2105              		.loc 1 1879 9 discriminator 3 view .LVU552
 2106 018a 16F01F0F 		tst	r6, #31
 2107 018e 01D1     		bne	.L91
1879:Drivers/STM32F1xx_HAL_Driver/Src/stm32f1xx_ll_usb.c ****         pmabuffer = ep->pmaaddr0;
 2108              		.loc 1 1879 9 discriminator 5 view .LVU553
 2109 0190 013A     		subs	r2, r2, #1
 2110              	.LVL164:
1879:Drivers/STM32F1xx_HAL_Driver/Src/stm32f1xx_ll_usb.c ****         pmabuffer = ep->pmaaddr0;
 2111              		.loc 1 1879 9 is_stmt 0 discriminator 5 view .LVU554
 2112 0192 92B2     		uxth	r2, r2
 2113              	.LVL165:
 2114              	.L91:
1879:Drivers/STM32F1xx_HAL_Driver/Src/stm32f1xx_ll_usb.c ****         pmabuffer = ep->pmaaddr0;
 2115              		.loc 1 1879 9 is_stmt 1 discriminator 7 view .LVU555
 2116 0194 6FEAC262 		mvn	r2, r2, lsl #27
 2117              	.LVL166:
1879:Drivers/STM32F1xx_HAL_Driver/Src/stm32f1xx_ll_usb.c ****         pmabuffer = ep->pmaaddr0;
 2118              		.loc 1 1879 9 is_stmt 0 discriminator 7 view .LVU556
 2119 0198 6FEA5242 		mvn	r2, r2, lsr #17
 2120 019c 92B2     		uxth	r2, r2
 2121 019e C3F80024 		str	r2, [r3, #1024]
1879:Drivers/STM32F1xx_HAL_Driver/Src/stm32f1xx_ll_usb.c ****         pmabuffer = ep->pmaaddr0;
 2122              		.loc 1 1879 9 is_stmt 1 discriminator 7 view .LVU557
 2123 01a2 15E0     		b	.L92
 2124              	.L90:
1879:Drivers/STM32F1xx_HAL_Driver/Src/stm32f1xx_ll_usb.c ****         pmabuffer = ep->pmaaddr0;
 2125              		.loc 1 1879 9 discriminator 4 view .LVU558
 2126 01a4 C6F34F02 		ubfx	r2, r6, #1, #16
 2127              	.LVL167:
1879:Drivers/STM32F1xx_HAL_Driver/Src/stm32f1xx_ll_usb.c ****         pmabuffer = ep->pmaaddr0;
 2128              		.loc 1 1879 9 discriminator 4 view .LVU559
 2129 01a8 16F0010F 		tst	r6, #1
 2130 01ac 01D0     		beq	.L93
1879:Drivers/STM32F1xx_HAL_Driver/Src/stm32f1xx_ll_usb.c ****         pmabuffer = ep->pmaaddr0;
 2131              		.loc 1 1879 9 discriminator 9 view .LVU560
ARM GAS  /var/folders/rf/wfq6hz5s56g3yh4wqgd7820c0000gn/T//ccZ1SRBq.s 			page 82


 2132 01ae 0132     		adds	r2, r2, #1
 2133              	.LVL168:
1879:Drivers/STM32F1xx_HAL_Driver/Src/stm32f1xx_ll_usb.c ****         pmabuffer = ep->pmaaddr0;
 2134              		.loc 1 1879 9 is_stmt 0 discriminator 9 view .LVU561
 2135 01b0 92B2     		uxth	r2, r2
 2136              	.LVL169:
 2137              	.L93:
1879:Drivers/STM32F1xx_HAL_Driver/Src/stm32f1xx_ll_usb.c ****         pmabuffer = ep->pmaaddr0;
 2138              		.loc 1 1879 9 is_stmt 1 discriminator 11 view .LVU562
 2139 01b2 9202     		lsls	r2, r2, #10
 2140              	.LVL170:
1879:Drivers/STM32F1xx_HAL_Driver/Src/stm32f1xx_ll_usb.c ****         pmabuffer = ep->pmaaddr0;
 2141              		.loc 1 1879 9 is_stmt 0 discriminator 11 view .LVU563
 2142 01b4 92B2     		uxth	r2, r2
 2143 01b6 C3F80024 		str	r2, [r3, #1024]
 2144 01ba 09E0     		b	.L92
 2145              	.LVL171:
 2146              	.L89:
1879:Drivers/STM32F1xx_HAL_Driver/Src/stm32f1xx_ll_usb.c ****         pmabuffer = ep->pmaaddr0;
 2147              		.loc 1 1879 9 discriminator 11 view .LVU564
 2148              	.LBE33:
 2149              	.LBE32:
1879:Drivers/STM32F1xx_HAL_Driver/Src/stm32f1xx_ll_usb.c ****         pmabuffer = ep->pmaaddr0;
 2150              		.loc 1 1879 9 is_stmt 1 discriminator 13 view .LVU565
1879:Drivers/STM32F1xx_HAL_Driver/Src/stm32f1xx_ll_usb.c ****         pmabuffer = ep->pmaaddr0;
 2151              		.loc 1 1879 9 discriminator 13 view .LVU566
 2152 01bc B5F85020 		ldrh	r2, [r5, #80]
 2153 01c0 92B2     		uxth	r2, r2
 2154 01c2 02EBC303 		add	r3, r2, r3, lsl #3
 2155 01c6 0233     		adds	r3, r3, #2
 2156 01c8 05EB4303 		add	r3, r5, r3, lsl #1
 2157 01cc C3F80064 		str	r6, [r3, #1024]
 2158              	.L92:
1879:Drivers/STM32F1xx_HAL_Driver/Src/stm32f1xx_ll_usb.c ****         pmabuffer = ep->pmaaddr0;
 2159              		.loc 1 1879 60 discriminator 15 view .LVU567
1880:Drivers/STM32F1xx_HAL_Driver/Src/stm32f1xx_ll_usb.c ****       }
 2160              		.loc 1 1880 9 discriminator 15 view .LVU568
1880:Drivers/STM32F1xx_HAL_Driver/Src/stm32f1xx_ll_usb.c ****       }
 2161              		.loc 1 1880 19 is_stmt 0 discriminator 15 view .LVU569
 2162 01d0 E288     		ldrh	r2, [r4, #6]
 2163              	.LVL172:
1880:Drivers/STM32F1xx_HAL_Driver/Src/stm32f1xx_ll_usb.c ****       }
 2164              		.loc 1 1880 19 discriminator 15 view .LVU570
 2165 01d2 A7E7     		b	.L88
 2166              	.LVL173:
 2167              	.L94:
1883:Drivers/STM32F1xx_HAL_Driver/Src/stm32f1xx_ll_usb.c ****     }
 2168              		.loc 1 1883 7 is_stmt 1 discriminator 2 view .LVU571
 2169 01d4 012B     		cmp	r3, #1
 2170 01d6 BAD1     		bne	.L81
1883:Drivers/STM32F1xx_HAL_Driver/Src/stm32f1xx_ll_usb.c ****     }
 2171              		.loc 1 1883 7 discriminator 4 view .LVU572
 2172 01d8 2278     		ldrb	r2, [r4]	@ zero_extendqisi2
 2173 01da 35F82230 		ldrh	r3, [r5, r2, lsl #2]
 2174 01de 23F0F003 		bic	r3, r3, #240
 2175 01e2 1B05     		lsls	r3, r3, #20
 2176 01e4 1B0D     		lsrs	r3, r3, #20
ARM GAS  /var/folders/rf/wfq6hz5s56g3yh4wqgd7820c0000gn/T//ccZ1SRBq.s 			page 83


 2177 01e6 43F44043 		orr	r3, r3, #49152
 2178 01ea 43F08003 		orr	r3, r3, #128
 2179 01ee 25F82230 		strh	r3, [r5, r2, lsl #2]	@ movhi
 2180 01f2 ACE7     		b	.L81
 2181              	.LVL174:
 2182              	.L96:
1898:Drivers/STM32F1xx_HAL_Driver/Src/stm32f1xx_ll_usb.c ****       ep->xfer_len =0;
 2183              		.loc 1 1898 7 view .LVU573
1899:Drivers/STM32F1xx_HAL_Driver/Src/stm32f1xx_ll_usb.c ****     }
 2184              		.loc 1 1899 7 view .LVU574
1899:Drivers/STM32F1xx_HAL_Driver/Src/stm32f1xx_ll_usb.c ****     }
 2185              		.loc 1 1899 20 is_stmt 0 view .LVU575
 2186 01f4 0023     		movs	r3, #0
 2187 01f6 A361     		str	r3, [r4, #24]
1898:Drivers/STM32F1xx_HAL_Driver/Src/stm32f1xx_ll_usb.c ****       ep->xfer_len =0;
 2188              		.loc 1 1898 10 view .LVU576
 2189 01f8 1346     		mov	r3, r2
 2190 01fa 0EE7     		b	.L97
 2191              	.LVL175:
 2192              	.L99:
 2193              	.LBB34:
 2194              	.LBB25:
1906:Drivers/STM32F1xx_HAL_Driver/Src/stm32f1xx_ll_usb.c ****     }
 2195              		.loc 1 1906 7 is_stmt 1 discriminator 2 view .LVU577
 2196 01fc C3F34F01 		ubfx	r1, r3, #1, #16
 2197              	.LVL176:
1906:Drivers/STM32F1xx_HAL_Driver/Src/stm32f1xx_ll_usb.c ****     }
 2198              		.loc 1 1906 7 discriminator 2 view .LVU578
 2199 0200 13F0010F 		tst	r3, #1
 2200 0204 01D0     		beq	.L102
1906:Drivers/STM32F1xx_HAL_Driver/Src/stm32f1xx_ll_usb.c ****     }
 2201              		.loc 1 1906 7 discriminator 7 view .LVU579
 2202 0206 0131     		adds	r1, r1, #1
 2203              	.LVL177:
1906:Drivers/STM32F1xx_HAL_Driver/Src/stm32f1xx_ll_usb.c ****     }
 2204              		.loc 1 1906 7 is_stmt 0 discriminator 7 view .LVU580
 2205 0208 89B2     		uxth	r1, r1
 2206              	.LVL178:
 2207              	.L102:
1906:Drivers/STM32F1xx_HAL_Driver/Src/stm32f1xx_ll_usb.c ****     }
 2208              		.loc 1 1906 7 is_stmt 1 discriminator 9 view .LVU581
 2209 020a 8902     		lsls	r1, r1, #10
 2210              	.LVL179:
1906:Drivers/STM32F1xx_HAL_Driver/Src/stm32f1xx_ll_usb.c ****     }
 2211              		.loc 1 1906 7 is_stmt 0 discriminator 9 view .LVU582
 2212 020c 89B2     		uxth	r1, r1
 2213 020e C2F80014 		str	r1, [r2, #1024]
 2214 0212 20E7     		b	.L101
 2215              	.LVL180:
 2216              	.L98:
1906:Drivers/STM32F1xx_HAL_Driver/Src/stm32f1xx_ll_usb.c ****     }
 2217              		.loc 1 1906 7 discriminator 9 view .LVU583
 2218              	.LBE25:
 2219              	.LBE34:
1911:Drivers/STM32F1xx_HAL_Driver/Src/stm32f1xx_ll_usb.c ****     }
 2220              		.loc 1 1911 7 is_stmt 1 view .LVU584
 2221 0214 C1B9     		cbnz	r1, .L103
ARM GAS  /var/folders/rf/wfq6hz5s56g3yh4wqgd7820c0000gn/T//ccZ1SRBq.s 			page 84


 2222              	.LBB35:
1911:Drivers/STM32F1xx_HAL_Driver/Src/stm32f1xx_ll_usb.c ****     }
 2223              		.loc 1 1911 7 discriminator 1 view .LVU585
 2224 0216 B5F85020 		ldrh	r2, [r5, #80]
 2225 021a 92B2     		uxth	r2, r2
 2226 021c 2178     		ldrb	r1, [r4]	@ zero_extendqisi2
 2227 021e 02EBC102 		add	r2, r2, r1, lsl #3
 2228 0222 0232     		adds	r2, r2, #2
 2229 0224 05EB4202 		add	r2, r5, r2, lsl #1
 2230              	.LVL181:
 2231              	.LBB36:
1911:Drivers/STM32F1xx_HAL_Driver/Src/stm32f1xx_ll_usb.c ****     }
 2232              		.loc 1 1911 7 discriminator 1 view .LVU586
1911:Drivers/STM32F1xx_HAL_Driver/Src/stm32f1xx_ll_usb.c ****     }
 2233              		.loc 1 1911 7 discriminator 1 view .LVU587
 2234 0228 3E2B     		cmp	r3, #62
 2235 022a 29D9     		bls	.L104
1911:Drivers/STM32F1xx_HAL_Driver/Src/stm32f1xx_ll_usb.c ****     }
 2236              		.loc 1 1911 7 discriminator 3 view .LVU588
 2237 022c C3F34F11 		ubfx	r1, r3, #5, #16
 2238              	.LVL182:
1911:Drivers/STM32F1xx_HAL_Driver/Src/stm32f1xx_ll_usb.c ****     }
 2239              		.loc 1 1911 7 discriminator 3 view .LVU589
 2240 0230 13F01F0F 		tst	r3, #31
 2241 0234 01D1     		bne	.L105
1911:Drivers/STM32F1xx_HAL_Driver/Src/stm32f1xx_ll_usb.c ****     }
 2242              		.loc 1 1911 7 discriminator 5 view .LVU590
 2243 0236 0139     		subs	r1, r1, #1
 2244              	.LVL183:
1911:Drivers/STM32F1xx_HAL_Driver/Src/stm32f1xx_ll_usb.c ****     }
 2245              		.loc 1 1911 7 is_stmt 0 discriminator 5 view .LVU591
 2246 0238 89B2     		uxth	r1, r1
 2247              	.LVL184:
 2248              	.L105:
1911:Drivers/STM32F1xx_HAL_Driver/Src/stm32f1xx_ll_usb.c ****     }
 2249              		.loc 1 1911 7 is_stmt 1 discriminator 7 view .LVU592
 2250 023a 6FEAC161 		mvn	r1, r1, lsl #27
 2251              	.LVL185:
1911:Drivers/STM32F1xx_HAL_Driver/Src/stm32f1xx_ll_usb.c ****     }
 2252              		.loc 1 1911 7 is_stmt 0 discriminator 7 view .LVU593
 2253 023e 6FEA5141 		mvn	r1, r1, lsr #17
 2254 0242 89B2     		uxth	r1, r1
 2255 0244 C2F80014 		str	r1, [r2, #1024]
1911:Drivers/STM32F1xx_HAL_Driver/Src/stm32f1xx_ll_usb.c ****     }
 2256              		.loc 1 1911 7 is_stmt 1 discriminator 7 view .LVU594
 2257              	.LVL186:
 2258              	.L103:
1911:Drivers/STM32F1xx_HAL_Driver/Src/stm32f1xx_ll_usb.c ****     }
 2259              		.loc 1 1911 7 is_stmt 0 discriminator 7 view .LVU595
 2260              	.LBE36:
 2261              	.LBE35:
1911:Drivers/STM32F1xx_HAL_Driver/Src/stm32f1xx_ll_usb.c ****     }
 2262              		.loc 1 1911 7 is_stmt 1 discriminator 15 view .LVU596
1911:Drivers/STM32F1xx_HAL_Driver/Src/stm32f1xx_ll_usb.c ****     }
 2263              		.loc 1 1911 7 discriminator 15 view .LVU597
 2264 0248 6278     		ldrb	r2, [r4, #1]	@ zero_extendqisi2
 2265 024a 8ABB     		cbnz	r2, .L107
ARM GAS  /var/folders/rf/wfq6hz5s56g3yh4wqgd7820c0000gn/T//ccZ1SRBq.s 			page 85


 2266              	.LBB38:
1911:Drivers/STM32F1xx_HAL_Driver/Src/stm32f1xx_ll_usb.c ****     }
 2267              		.loc 1 1911 7 discriminator 16 view .LVU598
 2268 024c B5F85020 		ldrh	r2, [r5, #80]
 2269 0250 92B2     		uxth	r2, r2
 2270 0252 2178     		ldrb	r1, [r4]	@ zero_extendqisi2
 2271 0254 02EBC102 		add	r2, r2, r1, lsl #3
 2272 0258 0632     		adds	r2, r2, #6
 2273 025a 05EB4202 		add	r2, r5, r2, lsl #1
 2274              	.LVL187:
 2275              	.LBB39:
1911:Drivers/STM32F1xx_HAL_Driver/Src/stm32f1xx_ll_usb.c ****     }
 2276              		.loc 1 1911 7 discriminator 16 view .LVU599
1911:Drivers/STM32F1xx_HAL_Driver/Src/stm32f1xx_ll_usb.c ****     }
 2277              		.loc 1 1911 7 discriminator 16 view .LVU600
 2278 025e 3E2B     		cmp	r3, #62
 2279 0260 1AD9     		bls	.L108
1911:Drivers/STM32F1xx_HAL_Driver/Src/stm32f1xx_ll_usb.c ****     }
 2280              		.loc 1 1911 7 discriminator 18 view .LVU601
 2281 0262 C3F34F11 		ubfx	r1, r3, #5, #16
 2282              	.LVL188:
1911:Drivers/STM32F1xx_HAL_Driver/Src/stm32f1xx_ll_usb.c ****     }
 2283              		.loc 1 1911 7 discriminator 18 view .LVU602
 2284 0266 13F01F0F 		tst	r3, #31
 2285 026a 01D1     		bne	.L109
1911:Drivers/STM32F1xx_HAL_Driver/Src/stm32f1xx_ll_usb.c ****     }
 2286              		.loc 1 1911 7 discriminator 20 view .LVU603
 2287 026c 0139     		subs	r1, r1, #1
 2288              	.LVL189:
1911:Drivers/STM32F1xx_HAL_Driver/Src/stm32f1xx_ll_usb.c ****     }
 2289              		.loc 1 1911 7 is_stmt 0 discriminator 20 view .LVU604
 2290 026e 89B2     		uxth	r1, r1
 2291              	.LVL190:
 2292              	.L109:
1911:Drivers/STM32F1xx_HAL_Driver/Src/stm32f1xx_ll_usb.c ****     }
 2293              		.loc 1 1911 7 is_stmt 1 discriminator 22 view .LVU605
 2294 0270 6FEAC161 		mvn	r1, r1, lsl #27
 2295              	.LVL191:
1911:Drivers/STM32F1xx_HAL_Driver/Src/stm32f1xx_ll_usb.c ****     }
 2296              		.loc 1 1911 7 is_stmt 0 discriminator 22 view .LVU606
 2297 0274 6FEA5141 		mvn	r1, r1, lsr #17
 2298 0278 89B2     		uxth	r1, r1
 2299 027a C2F80014 		str	r1, [r2, #1024]
1911:Drivers/STM32F1xx_HAL_Driver/Src/stm32f1xx_ll_usb.c ****     }
 2300              		.loc 1 1911 7 is_stmt 1 discriminator 22 view .LVU607
 2301 027e EAE6     		b	.L101
 2302              	.LVL192:
 2303              	.L104:
1911:Drivers/STM32F1xx_HAL_Driver/Src/stm32f1xx_ll_usb.c ****     }
 2304              		.loc 1 1911 7 is_stmt 0 discriminator 22 view .LVU608
 2305              	.LBE39:
 2306              	.LBE38:
 2307              	.LBB41:
 2308              	.LBB37:
1911:Drivers/STM32F1xx_HAL_Driver/Src/stm32f1xx_ll_usb.c ****     }
 2309              		.loc 1 1911 7 is_stmt 1 discriminator 4 view .LVU609
 2310 0280 C3F34F01 		ubfx	r1, r3, #1, #16
ARM GAS  /var/folders/rf/wfq6hz5s56g3yh4wqgd7820c0000gn/T//ccZ1SRBq.s 			page 86


 2311              	.LVL193:
1911:Drivers/STM32F1xx_HAL_Driver/Src/stm32f1xx_ll_usb.c ****     }
 2312              		.loc 1 1911 7 discriminator 4 view .LVU610
 2313 0284 13F0010F 		tst	r3, #1
 2314 0288 01D0     		beq	.L106
1911:Drivers/STM32F1xx_HAL_Driver/Src/stm32f1xx_ll_usb.c ****     }
 2315              		.loc 1 1911 7 discriminator 9 view .LVU611
 2316 028a 0131     		adds	r1, r1, #1
 2317              	.LVL194:
1911:Drivers/STM32F1xx_HAL_Driver/Src/stm32f1xx_ll_usb.c ****     }
 2318              		.loc 1 1911 7 is_stmt 0 discriminator 9 view .LVU612
 2319 028c 89B2     		uxth	r1, r1
 2320              	.LVL195:
 2321              	.L106:
1911:Drivers/STM32F1xx_HAL_Driver/Src/stm32f1xx_ll_usb.c ****     }
 2322              		.loc 1 1911 7 is_stmt 1 discriminator 11 view .LVU613
 2323 028e 8902     		lsls	r1, r1, #10
 2324              	.LVL196:
1911:Drivers/STM32F1xx_HAL_Driver/Src/stm32f1xx_ll_usb.c ****     }
 2325              		.loc 1 1911 7 is_stmt 0 discriminator 11 view .LVU614
 2326 0290 89B2     		uxth	r1, r1
 2327 0292 C2F80014 		str	r1, [r2, #1024]
 2328 0296 D7E7     		b	.L103
 2329              	.LVL197:
 2330              	.L108:
1911:Drivers/STM32F1xx_HAL_Driver/Src/stm32f1xx_ll_usb.c ****     }
 2331              		.loc 1 1911 7 discriminator 11 view .LVU615
 2332              	.LBE37:
 2333              	.LBE41:
 2334              	.LBB42:
 2335              	.LBB40:
1911:Drivers/STM32F1xx_HAL_Driver/Src/stm32f1xx_ll_usb.c ****     }
 2336              		.loc 1 1911 7 is_stmt 1 discriminator 19 view .LVU616
 2337 0298 C3F34F01 		ubfx	r1, r3, #1, #16
 2338              	.LVL198:
1911:Drivers/STM32F1xx_HAL_Driver/Src/stm32f1xx_ll_usb.c ****     }
 2339              		.loc 1 1911 7 discriminator 19 view .LVU617
 2340 029c 13F0010F 		tst	r3, #1
 2341 02a0 01D0     		beq	.L110
1911:Drivers/STM32F1xx_HAL_Driver/Src/stm32f1xx_ll_usb.c ****     }
 2342              		.loc 1 1911 7 discriminator 24 view .LVU618
 2343 02a2 0131     		adds	r1, r1, #1
 2344              	.LVL199:
1911:Drivers/STM32F1xx_HAL_Driver/Src/stm32f1xx_ll_usb.c ****     }
 2345              		.loc 1 1911 7 is_stmt 0 discriminator 24 view .LVU619
 2346 02a4 89B2     		uxth	r1, r1
 2347              	.LVL200:
 2348              	.L110:
1911:Drivers/STM32F1xx_HAL_Driver/Src/stm32f1xx_ll_usb.c ****     }
 2349              		.loc 1 1911 7 is_stmt 1 discriminator 26 view .LVU620
 2350 02a6 8902     		lsls	r1, r1, #10
 2351              	.LVL201:
1911:Drivers/STM32F1xx_HAL_Driver/Src/stm32f1xx_ll_usb.c ****     }
 2352              		.loc 1 1911 7 is_stmt 0 discriminator 26 view .LVU621
 2353 02a8 89B2     		uxth	r1, r1
 2354 02aa C2F80014 		str	r1, [r2, #1024]
 2355 02ae D2E6     		b	.L101
ARM GAS  /var/folders/rf/wfq6hz5s56g3yh4wqgd7820c0000gn/T//ccZ1SRBq.s 			page 87


 2356              	.LVL202:
 2357              	.L107:
1911:Drivers/STM32F1xx_HAL_Driver/Src/stm32f1xx_ll_usb.c ****     }
 2358              		.loc 1 1911 7 discriminator 26 view .LVU622
 2359              	.LBE40:
 2360              	.LBE42:
1911:Drivers/STM32F1xx_HAL_Driver/Src/stm32f1xx_ll_usb.c ****     }
 2361              		.loc 1 1911 7 is_stmt 1 discriminator 17 view .LVU623
 2362 02b0 012A     		cmp	r2, #1
 2363 02b2 7FF4D0AE 		bne	.L101
1911:Drivers/STM32F1xx_HAL_Driver/Src/stm32f1xx_ll_usb.c ****     }
 2364              		.loc 1 1911 7 discriminator 28 view .LVU624
 2365 02b6 B5F85020 		ldrh	r2, [r5, #80]
 2366 02ba 92B2     		uxth	r2, r2
 2367 02bc 2178     		ldrb	r1, [r4]	@ zero_extendqisi2
 2368 02be 02EBC102 		add	r2, r2, r1, lsl #3
 2369 02c2 0232     		adds	r2, r2, #2
 2370 02c4 05EB4202 		add	r2, r5, r2, lsl #1
 2371 02c8 C2F80034 		str	r3, [r2, #1024]
 2372 02cc C3E6     		b	.L101
 2373              		.cfi_endproc
 2374              	.LFE75:
 2376              		.section	.text.USB_ReadPMA,"ax",%progbits
 2377              		.align	1
 2378              		.global	USB_ReadPMA
 2379              		.syntax unified
 2380              		.thumb
 2381              		.thumb_func
 2382              		.fpu softvfp
 2384              	USB_ReadPMA:
 2385              	.LVL203:
 2386              	.LFB94:
2247:Drivers/STM32F1xx_HAL_Driver/Src/stm32f1xx_ll_usb.c **** 
2248:Drivers/STM32F1xx_HAL_Driver/Src/stm32f1xx_ll_usb.c **** /**
2249:Drivers/STM32F1xx_HAL_Driver/Src/stm32f1xx_ll_usb.c ****   * @brief  Copy a buffer from user memory area to packet memory area (PMA)
2250:Drivers/STM32F1xx_HAL_Driver/Src/stm32f1xx_ll_usb.c ****   * @param  USBx : pointer to USB register.
2251:Drivers/STM32F1xx_HAL_Driver/Src/stm32f1xx_ll_usb.c **** * @param  pbUsrBuf : pointer to user memory area.
2252:Drivers/STM32F1xx_HAL_Driver/Src/stm32f1xx_ll_usb.c ****   * @param  wPMABufAddr : address into PMA.
2253:Drivers/STM32F1xx_HAL_Driver/Src/stm32f1xx_ll_usb.c ****   * @param  wNBytes : number of bytes to be copied.
2254:Drivers/STM32F1xx_HAL_Driver/Src/stm32f1xx_ll_usb.c ****   * @retval None
2255:Drivers/STM32F1xx_HAL_Driver/Src/stm32f1xx_ll_usb.c ****   */
2256:Drivers/STM32F1xx_HAL_Driver/Src/stm32f1xx_ll_usb.c **** void USB_ReadPMA(USB_TypeDef *USBx, uint8_t *pbUsrBuf, uint16_t wPMABufAddr, uint16_t wNBytes)
2257:Drivers/STM32F1xx_HAL_Driver/Src/stm32f1xx_ll_usb.c **** {
 2387              		.loc 1 2257 1 view -0
 2388              		.cfi_startproc
 2389              		@ args = 0, pretend = 0, frame = 0
 2390              		@ frame_needed = 0, uses_anonymous_args = 0
 2391              		@ link register save eliminated.
2258:Drivers/STM32F1xx_HAL_Driver/Src/stm32f1xx_ll_usb.c ****   uint32_t nbytes = (wNBytes + 1) >> 1;/* /2*/
 2392              		.loc 1 2258 3 view .LVU626
 2393              		.loc 1 2258 30 is_stmt 0 view .LVU627
 2394 0000 0133     		adds	r3, r3, #1
 2395              	.LVL204:
 2396              		.loc 1 2258 35 view .LVU628
 2397 0002 5B10     		asrs	r3, r3, #1
 2398              	.LVL205:
2259:Drivers/STM32F1xx_HAL_Driver/Src/stm32f1xx_ll_usb.c ****   uint32_t index = 0;
ARM GAS  /var/folders/rf/wfq6hz5s56g3yh4wqgd7820c0000gn/T//ccZ1SRBq.s 			page 88


 2399              		.loc 1 2259 3 is_stmt 1 view .LVU629
2260:Drivers/STM32F1xx_HAL_Driver/Src/stm32f1xx_ll_usb.c ****   uint32_t *pdwVal = NULL;
 2400              		.loc 1 2260 3 view .LVU630
2261:Drivers/STM32F1xx_HAL_Driver/Src/stm32f1xx_ll_usb.c ****   
2262:Drivers/STM32F1xx_HAL_Driver/Src/stm32f1xx_ll_usb.c ****   pdwVal = (uint32_t *)(wPMABufAddr * 2 + (uint32_t)USBx + 0x400);
 2401              		.loc 1 2262 3 view .LVU631
 2402              		.loc 1 2262 41 is_stmt 0 view .LVU632
 2403 0004 00EB4202 		add	r2, r0, r2, lsl #1
 2404              	.LVL206:
 2405              		.loc 1 2262 58 view .LVU633
 2406 0008 02F58062 		add	r2, r2, #1024
 2407              	.LVL207:
2263:Drivers/STM32F1xx_HAL_Driver/Src/stm32f1xx_ll_usb.c ****   for (index = nbytes; index != 0; index--)
 2408              		.loc 1 2263 3 is_stmt 1 view .LVU634
 2409              	.L115:
 2410              		.loc 1 2263 24 discriminator 1 view .LVU635
 2411              		.loc 1 2263 3 is_stmt 0 discriminator 1 view .LVU636
 2412 000c 2BB1     		cbz	r3, .L117
2264:Drivers/STM32F1xx_HAL_Driver/Src/stm32f1xx_ll_usb.c ****   {
2265:Drivers/STM32F1xx_HAL_Driver/Src/stm32f1xx_ll_usb.c ****     *(uint16_t*)pbUsrBuf++ = *pdwVal++;
 2413              		.loc 1 2265 5 is_stmt 1 discriminator 3 view .LVU637
 2414              	.LVL208:
 2415              		.loc 1 2265 30 is_stmt 0 discriminator 3 view .LVU638
 2416 000e 52F8040B 		ldr	r0, [r2], #4
 2417              	.LVL209:
 2418              		.loc 1 2265 28 discriminator 3 view .LVU639
 2419 0012 21F8020B 		strh	r0, [r1], #2	@ movhi
 2420              	.LVL210:
2266:Drivers/STM32F1xx_HAL_Driver/Src/stm32f1xx_ll_usb.c ****     pbUsrBuf++;
 2421              		.loc 1 2266 5 is_stmt 1 discriminator 3 view .LVU640
2263:Drivers/STM32F1xx_HAL_Driver/Src/stm32f1xx_ll_usb.c ****   for (index = nbytes; index != 0; index--)
 2422              		.loc 1 2263 36 discriminator 3 view .LVU641
2263:Drivers/STM32F1xx_HAL_Driver/Src/stm32f1xx_ll_usb.c ****   for (index = nbytes; index != 0; index--)
 2423              		.loc 1 2263 41 is_stmt 0 discriminator 3 view .LVU642
 2424 0016 013B     		subs	r3, r3, #1
 2425              	.LVL211:
2263:Drivers/STM32F1xx_HAL_Driver/Src/stm32f1xx_ll_usb.c ****   for (index = nbytes; index != 0; index--)
 2426              		.loc 1 2263 41 discriminator 3 view .LVU643
 2427 0018 F8E7     		b	.L115
 2428              	.L117:
2267:Drivers/STM32F1xx_HAL_Driver/Src/stm32f1xx_ll_usb.c ****   }
2268:Drivers/STM32F1xx_HAL_Driver/Src/stm32f1xx_ll_usb.c **** }
 2429              		.loc 1 2268 1 view .LVU644
 2430 001a 7047     		bx	lr
 2431              		.cfi_endproc
 2432              	.LFE94:
 2434              		.text
 2435              	.Letext0:
 2436              		.file 2 "/usr/local/Cellar/arm-gcc-bin/9-2019-q4-major/arm-none-eabi/include/machine/_default_type
 2437              		.file 3 "/usr/local/Cellar/arm-gcc-bin/9-2019-q4-major/arm-none-eabi/include/sys/_stdint.h"
 2438              		.file 4 "Drivers/CMSIS/Include/core_cm3.h"
 2439              		.file 5 "Drivers/CMSIS/Device/ST/STM32F1xx/Include/system_stm32f1xx.h"
 2440              		.file 6 "Drivers/CMSIS/Device/ST/STM32F1xx/Include/stm32f103xb.h"
 2441              		.file 7 "/usr/local/Cellar/arm-gcc-bin/9-2019-q4-major/arm-none-eabi/include/sys/lock.h"
 2442              		.file 8 "/usr/local/Cellar/arm-gcc-bin/9-2019-q4-major/arm-none-eabi/include/sys/_types.h"
 2443              		.file 9 "/usr/local/Cellar/arm-gcc-bin/9-2019-q4-major/lib/gcc/arm-none-eabi/9.2.1/include/stddef.
 2444              		.file 10 "/usr/local/Cellar/arm-gcc-bin/9-2019-q4-major/arm-none-eabi/include/sys/reent.h"
ARM GAS  /var/folders/rf/wfq6hz5s56g3yh4wqgd7820c0000gn/T//ccZ1SRBq.s 			page 89


 2445              		.file 11 "Drivers/STM32F1xx_HAL_Driver/Inc/stm32f1xx_hal_def.h"
 2446              		.file 12 "Drivers/STM32F1xx_HAL_Driver/Inc/stm32f1xx_ll_usb.h"
 2447              		.file 13 "Drivers/STM32F1xx_HAL_Driver/Inc/stm32f1xx_hal_pcd.h"
ARM GAS  /var/folders/rf/wfq6hz5s56g3yh4wqgd7820c0000gn/T//ccZ1SRBq.s 			page 90


DEFINED SYMBOLS
                            *ABS*:0000000000000000 stm32f1xx_ll_usb.c
/var/folders/rf/wfq6hz5s56g3yh4wqgd7820c0000gn/T//ccZ1SRBq.s:16     .text.USB_CoreInit:0000000000000000 $t
/var/folders/rf/wfq6hz5s56g3yh4wqgd7820c0000gn/T//ccZ1SRBq.s:24     .text.USB_CoreInit:0000000000000000 USB_CoreInit
/var/folders/rf/wfq6hz5s56g3yh4wqgd7820c0000gn/T//ccZ1SRBq.s:54     .text.USB_EnableGlobalInt:0000000000000000 $t
/var/folders/rf/wfq6hz5s56g3yh4wqgd7820c0000gn/T//ccZ1SRBq.s:61     .text.USB_EnableGlobalInt:0000000000000000 USB_EnableGlobalInt
/var/folders/rf/wfq6hz5s56g3yh4wqgd7820c0000gn/T//ccZ1SRBq.s:87     .text.USB_DisableGlobalInt:0000000000000000 $t
/var/folders/rf/wfq6hz5s56g3yh4wqgd7820c0000gn/T//ccZ1SRBq.s:94     .text.USB_DisableGlobalInt:0000000000000000 USB_DisableGlobalInt
/var/folders/rf/wfq6hz5s56g3yh4wqgd7820c0000gn/T//ccZ1SRBq.s:121    .text.USB_SetCurrentMode:0000000000000000 $t
/var/folders/rf/wfq6hz5s56g3yh4wqgd7820c0000gn/T//ccZ1SRBq.s:128    .text.USB_SetCurrentMode:0000000000000000 USB_SetCurrentMode
/var/folders/rf/wfq6hz5s56g3yh4wqgd7820c0000gn/T//ccZ1SRBq.s:148    .text.USB_DevInit:0000000000000000 $t
/var/folders/rf/wfq6hz5s56g3yh4wqgd7820c0000gn/T//ccZ1SRBq.s:155    .text.USB_DevInit:0000000000000000 USB_DevInit
/var/folders/rf/wfq6hz5s56g3yh4wqgd7820c0000gn/T//ccZ1SRBq.s:211    .text.USB_FlushTxFifo:0000000000000000 $t
/var/folders/rf/wfq6hz5s56g3yh4wqgd7820c0000gn/T//ccZ1SRBq.s:218    .text.USB_FlushTxFifo:0000000000000000 USB_FlushTxFifo
/var/folders/rf/wfq6hz5s56g3yh4wqgd7820c0000gn/T//ccZ1SRBq.s:238    .text.USB_FlushRxFifo:0000000000000000 $t
/var/folders/rf/wfq6hz5s56g3yh4wqgd7820c0000gn/T//ccZ1SRBq.s:245    .text.USB_FlushRxFifo:0000000000000000 USB_FlushRxFifo
/var/folders/rf/wfq6hz5s56g3yh4wqgd7820c0000gn/T//ccZ1SRBq.s:264    .text.USB_ActivateEndpoint:0000000000000000 $t
/var/folders/rf/wfq6hz5s56g3yh4wqgd7820c0000gn/T//ccZ1SRBq.s:271    .text.USB_ActivateEndpoint:0000000000000000 USB_ActivateEndpoint
/var/folders/rf/wfq6hz5s56g3yh4wqgd7820c0000gn/T//ccZ1SRBq.s:291    .text.USB_ActivateEndpoint:000000000000000c $d
/var/folders/rf/wfq6hz5s56g3yh4wqgd7820c0000gn/T//ccZ1SRBq.s:295    .text.USB_ActivateEndpoint:0000000000000010 $t
/var/folders/rf/wfq6hz5s56g3yh4wqgd7820c0000gn/T//ccZ1SRBq.s:750    .text.USB_DeactivateEndpoint:0000000000000000 $t
/var/folders/rf/wfq6hz5s56g3yh4wqgd7820c0000gn/T//ccZ1SRBq.s:757    .text.USB_DeactivateEndpoint:0000000000000000 USB_DeactivateEndpoint
/var/folders/rf/wfq6hz5s56g3yh4wqgd7820c0000gn/T//ccZ1SRBq.s:1040   .text.USB_WritePacket:0000000000000000 $t
/var/folders/rf/wfq6hz5s56g3yh4wqgd7820c0000gn/T//ccZ1SRBq.s:1047   .text.USB_WritePacket:0000000000000000 USB_WritePacket
/var/folders/rf/wfq6hz5s56g3yh4wqgd7820c0000gn/T//ccZ1SRBq.s:1069   .text.USB_ReadPacket:0000000000000000 $t
/var/folders/rf/wfq6hz5s56g3yh4wqgd7820c0000gn/T//ccZ1SRBq.s:1076   .text.USB_ReadPacket:0000000000000000 USB_ReadPacket
/var/folders/rf/wfq6hz5s56g3yh4wqgd7820c0000gn/T//ccZ1SRBq.s:1097   .text.USB_EPSetStall:0000000000000000 $t
/var/folders/rf/wfq6hz5s56g3yh4wqgd7820c0000gn/T//ccZ1SRBq.s:1104   .text.USB_EPSetStall:0000000000000000 USB_EPSetStall
/var/folders/rf/wfq6hz5s56g3yh4wqgd7820c0000gn/T//ccZ1SRBq.s:1204   .text.USB_EPClearStall:0000000000000000 $t
/var/folders/rf/wfq6hz5s56g3yh4wqgd7820c0000gn/T//ccZ1SRBq.s:1211   .text.USB_EPClearStall:0000000000000000 USB_EPClearStall
/var/folders/rf/wfq6hz5s56g3yh4wqgd7820c0000gn/T//ccZ1SRBq.s:1314   .text.USB_StopDevice:0000000000000000 $t
/var/folders/rf/wfq6hz5s56g3yh4wqgd7820c0000gn/T//ccZ1SRBq.s:1321   .text.USB_StopDevice:0000000000000000 USB_StopDevice
/var/folders/rf/wfq6hz5s56g3yh4wqgd7820c0000gn/T//ccZ1SRBq.s:1352   .text.USB_SetDevAddress:0000000000000000 $t
/var/folders/rf/wfq6hz5s56g3yh4wqgd7820c0000gn/T//ccZ1SRBq.s:1359   .text.USB_SetDevAddress:0000000000000000 USB_SetDevAddress
/var/folders/rf/wfq6hz5s56g3yh4wqgd7820c0000gn/T//ccZ1SRBq.s:1385   .text.USB_DevConnect:0000000000000000 $t
/var/folders/rf/wfq6hz5s56g3yh4wqgd7820c0000gn/T//ccZ1SRBq.s:1392   .text.USB_DevConnect:0000000000000000 USB_DevConnect
/var/folders/rf/wfq6hz5s56g3yh4wqgd7820c0000gn/T//ccZ1SRBq.s:1411   .text.USB_DevDisconnect:0000000000000000 $t
/var/folders/rf/wfq6hz5s56g3yh4wqgd7820c0000gn/T//ccZ1SRBq.s:1418   .text.USB_DevDisconnect:0000000000000000 USB_DevDisconnect
/var/folders/rf/wfq6hz5s56g3yh4wqgd7820c0000gn/T//ccZ1SRBq.s:1437   .text.USB_ReadInterrupts:0000000000000000 $t
/var/folders/rf/wfq6hz5s56g3yh4wqgd7820c0000gn/T//ccZ1SRBq.s:1444   .text.USB_ReadInterrupts:0000000000000000 USB_ReadInterrupts
/var/folders/rf/wfq6hz5s56g3yh4wqgd7820c0000gn/T//ccZ1SRBq.s:1467   .text.USB_ReadDevAllOutEpInterrupt:0000000000000000 $t
/var/folders/rf/wfq6hz5s56g3yh4wqgd7820c0000gn/T//ccZ1SRBq.s:1474   .text.USB_ReadDevAllOutEpInterrupt:0000000000000000 USB_ReadDevAllOutEpInterrupt
/var/folders/rf/wfq6hz5s56g3yh4wqgd7820c0000gn/T//ccZ1SRBq.s:1493   .text.USB_ReadDevAllInEpInterrupt:0000000000000000 $t
/var/folders/rf/wfq6hz5s56g3yh4wqgd7820c0000gn/T//ccZ1SRBq.s:1500   .text.USB_ReadDevAllInEpInterrupt:0000000000000000 USB_ReadDevAllInEpInterrupt
/var/folders/rf/wfq6hz5s56g3yh4wqgd7820c0000gn/T//ccZ1SRBq.s:1519   .text.USB_ReadDevOutEPInterrupt:0000000000000000 $t
/var/folders/rf/wfq6hz5s56g3yh4wqgd7820c0000gn/T//ccZ1SRBq.s:1526   .text.USB_ReadDevOutEPInterrupt:0000000000000000 USB_ReadDevOutEPInterrupt
/var/folders/rf/wfq6hz5s56g3yh4wqgd7820c0000gn/T//ccZ1SRBq.s:1546   .text.USB_ReadDevInEPInterrupt:0000000000000000 $t
/var/folders/rf/wfq6hz5s56g3yh4wqgd7820c0000gn/T//ccZ1SRBq.s:1553   .text.USB_ReadDevInEPInterrupt:0000000000000000 USB_ReadDevInEPInterrupt
/var/folders/rf/wfq6hz5s56g3yh4wqgd7820c0000gn/T//ccZ1SRBq.s:1573   .text.USB_ClearInterrupts:0000000000000000 $t
/var/folders/rf/wfq6hz5s56g3yh4wqgd7820c0000gn/T//ccZ1SRBq.s:1580   .text.USB_ClearInterrupts:0000000000000000 USB_ClearInterrupts
/var/folders/rf/wfq6hz5s56g3yh4wqgd7820c0000gn/T//ccZ1SRBq.s:1596   .text.USB_EP0_OutStart:0000000000000000 $t
/var/folders/rf/wfq6hz5s56g3yh4wqgd7820c0000gn/T//ccZ1SRBq.s:1603   .text.USB_EP0_OutStart:0000000000000000 USB_EP0_OutStart
/var/folders/rf/wfq6hz5s56g3yh4wqgd7820c0000gn/T//ccZ1SRBq.s:1623   .text.USB_ActivateRemoteWakeup:0000000000000000 $t
/var/folders/rf/wfq6hz5s56g3yh4wqgd7820c0000gn/T//ccZ1SRBq.s:1630   .text.USB_ActivateRemoteWakeup:0000000000000000 USB_ActivateRemoteWakeup
/var/folders/rf/wfq6hz5s56g3yh4wqgd7820c0000gn/T//ccZ1SRBq.s:1654   .text.USB_DeActivateRemoteWakeup:0000000000000000 $t
/var/folders/rf/wfq6hz5s56g3yh4wqgd7820c0000gn/T//ccZ1SRBq.s:1661   .text.USB_DeActivateRemoteWakeup:0000000000000000 USB_DeActivateRemoteWakeup
/var/folders/rf/wfq6hz5s56g3yh4wqgd7820c0000gn/T//ccZ1SRBq.s:1686   .text.USB_WritePMA:0000000000000000 $t
ARM GAS  /var/folders/rf/wfq6hz5s56g3yh4wqgd7820c0000gn/T//ccZ1SRBq.s 			page 91


/var/folders/rf/wfq6hz5s56g3yh4wqgd7820c0000gn/T//ccZ1SRBq.s:1693   .text.USB_WritePMA:0000000000000000 USB_WritePMA
/var/folders/rf/wfq6hz5s56g3yh4wqgd7820c0000gn/T//ccZ1SRBq.s:1766   .text.USB_EPStartXfer:0000000000000000 $t
/var/folders/rf/wfq6hz5s56g3yh4wqgd7820c0000gn/T//ccZ1SRBq.s:1773   .text.USB_EPStartXfer:0000000000000000 USB_EPStartXfer
/var/folders/rf/wfq6hz5s56g3yh4wqgd7820c0000gn/T//ccZ1SRBq.s:2377   .text.USB_ReadPMA:0000000000000000 $t
/var/folders/rf/wfq6hz5s56g3yh4wqgd7820c0000gn/T//ccZ1SRBq.s:2384   .text.USB_ReadPMA:0000000000000000 USB_ReadPMA

NO UNDEFINED SYMBOLS
