ARM GAS  /var/folders/rf/wfq6hz5s56g3yh4wqgd7820c0000gn/T//cc4VRrEg.s 			page 1


   1              		.cpu cortex-m3
   2              		.eabi_attribute 20, 1
   3              		.eabi_attribute 21, 1
   4              		.eabi_attribute 23, 3
   5              		.eabi_attribute 24, 1
   6              		.eabi_attribute 25, 1
   7              		.eabi_attribute 26, 1
   8              		.eabi_attribute 30, 1
   9              		.eabi_attribute 34, 1
  10              		.eabi_attribute 18, 4
  11              		.file	"stm32f1xx_hal_pcd.c"
  12              		.text
  13              	.Ltext0:
  14              		.cfi_sections	.debug_frame
  15              		.section	.text.HAL_PCD_MspInit,"ax",%progbits
  16              		.align	1
  17              		.weak	HAL_PCD_MspInit
  18              		.arch armv7-m
  19              		.syntax unified
  20              		.thumb
  21              		.thumb_func
  22              		.fpu softvfp
  24              	HAL_PCD_MspInit:
  25              	.LVL0:
  26              	.LFB68:
  27              		.file 1 "Drivers/STM32F1xx_HAL_Driver/Src/stm32f1xx_hal_pcd.c"
   1:Drivers/STM32F1xx_HAL_Driver/Src/stm32f1xx_hal_pcd.c **** /**
   2:Drivers/STM32F1xx_HAL_Driver/Src/stm32f1xx_hal_pcd.c ****   ******************************************************************************
   3:Drivers/STM32F1xx_HAL_Driver/Src/stm32f1xx_hal_pcd.c ****   * @file    stm32f1xx_hal_pcd.c
   4:Drivers/STM32F1xx_HAL_Driver/Src/stm32f1xx_hal_pcd.c ****   * @author  MCD Application Team
   5:Drivers/STM32F1xx_HAL_Driver/Src/stm32f1xx_hal_pcd.c ****   * @brief   PCD HAL module driver.
   6:Drivers/STM32F1xx_HAL_Driver/Src/stm32f1xx_hal_pcd.c ****   *          This file provides firmware functions to manage the following 
   7:Drivers/STM32F1xx_HAL_Driver/Src/stm32f1xx_hal_pcd.c ****   *          functionalities of the USB Peripheral Controller:
   8:Drivers/STM32F1xx_HAL_Driver/Src/stm32f1xx_hal_pcd.c ****   *           + Initialization and de-initialization functions
   9:Drivers/STM32F1xx_HAL_Driver/Src/stm32f1xx_hal_pcd.c ****   *           + IO operation functions
  10:Drivers/STM32F1xx_HAL_Driver/Src/stm32f1xx_hal_pcd.c ****   *           + Peripheral Control functions 
  11:Drivers/STM32F1xx_HAL_Driver/Src/stm32f1xx_hal_pcd.c ****   *           + Peripheral State functions
  12:Drivers/STM32F1xx_HAL_Driver/Src/stm32f1xx_hal_pcd.c ****   *
  13:Drivers/STM32F1xx_HAL_Driver/Src/stm32f1xx_hal_pcd.c ****   @verbatim
  14:Drivers/STM32F1xx_HAL_Driver/Src/stm32f1xx_hal_pcd.c ****   ==============================================================================
  15:Drivers/STM32F1xx_HAL_Driver/Src/stm32f1xx_hal_pcd.c ****                     ##### How to use this driver #####
  16:Drivers/STM32F1xx_HAL_Driver/Src/stm32f1xx_hal_pcd.c ****   ==============================================================================
  17:Drivers/STM32F1xx_HAL_Driver/Src/stm32f1xx_hal_pcd.c ****     [..]
  18:Drivers/STM32F1xx_HAL_Driver/Src/stm32f1xx_hal_pcd.c ****       The PCD HAL driver can be used as follows:
  19:Drivers/STM32F1xx_HAL_Driver/Src/stm32f1xx_hal_pcd.c **** 
  20:Drivers/STM32F1xx_HAL_Driver/Src/stm32f1xx_hal_pcd.c ****      (#) Declare a PCD_HandleTypeDef handle structure, for example:
  21:Drivers/STM32F1xx_HAL_Driver/Src/stm32f1xx_hal_pcd.c ****          PCD_HandleTypeDef  hpcd;
  22:Drivers/STM32F1xx_HAL_Driver/Src/stm32f1xx_hal_pcd.c **** 
  23:Drivers/STM32F1xx_HAL_Driver/Src/stm32f1xx_hal_pcd.c ****      (#) Fill parameters of Init structure in HCD handle
  24:Drivers/STM32F1xx_HAL_Driver/Src/stm32f1xx_hal_pcd.c **** 
  25:Drivers/STM32F1xx_HAL_Driver/Src/stm32f1xx_hal_pcd.c ****      (#) Call HAL_PCD_Init() API to initialize the HCD peripheral (Core, Device core, ...)
  26:Drivers/STM32F1xx_HAL_Driver/Src/stm32f1xx_hal_pcd.c **** 
  27:Drivers/STM32F1xx_HAL_Driver/Src/stm32f1xx_hal_pcd.c ****      (#) Initialize the PCD low level resources through the HAL_PCD_MspInit() API:
  28:Drivers/STM32F1xx_HAL_Driver/Src/stm32f1xx_hal_pcd.c ****          (##) Enable the PCD/USB Low Level interface clock using the following macro
  29:Drivers/STM32F1xx_HAL_Driver/Src/stm32f1xx_hal_pcd.c ****               (+++) __HAL_RCC_USB_CLK_ENABLE(); For USB Device FS peripheral available
  30:Drivers/STM32F1xx_HAL_Driver/Src/stm32f1xx_hal_pcd.c ****                     on STM32F102xx and STM32F103xx devices
  31:Drivers/STM32F1xx_HAL_Driver/Src/stm32f1xx_hal_pcd.c ****               (+++) __HAL_RCC_USB_OTG_FS_CLK_ENABLE(); For USB OTG FS peripheral available
ARM GAS  /var/folders/rf/wfq6hz5s56g3yh4wqgd7820c0000gn/T//cc4VRrEg.s 			page 2


  32:Drivers/STM32F1xx_HAL_Driver/Src/stm32f1xx_hal_pcd.c ****                     on STM32F105xx and STM32F107xx devices 
  33:Drivers/STM32F1xx_HAL_Driver/Src/stm32f1xx_hal_pcd.c **** 
  34:Drivers/STM32F1xx_HAL_Driver/Src/stm32f1xx_hal_pcd.c ****          (##) Initialize the related GPIO clocks
  35:Drivers/STM32F1xx_HAL_Driver/Src/stm32f1xx_hal_pcd.c ****          (##) Configure PCD pin-out
  36:Drivers/STM32F1xx_HAL_Driver/Src/stm32f1xx_hal_pcd.c ****          (##) Configure PCD NVIC interrupt
  37:Drivers/STM32F1xx_HAL_Driver/Src/stm32f1xx_hal_pcd.c **** 
  38:Drivers/STM32F1xx_HAL_Driver/Src/stm32f1xx_hal_pcd.c ****      (#)Associate the Upper USB device stack to the HAL PCD Driver:
  39:Drivers/STM32F1xx_HAL_Driver/Src/stm32f1xx_hal_pcd.c ****          (##) hpcd.pData = pdev;
  40:Drivers/STM32F1xx_HAL_Driver/Src/stm32f1xx_hal_pcd.c **** 
  41:Drivers/STM32F1xx_HAL_Driver/Src/stm32f1xx_hal_pcd.c ****      (#)Enable HCD transmission and reception:
  42:Drivers/STM32F1xx_HAL_Driver/Src/stm32f1xx_hal_pcd.c ****          (##) HAL_PCD_Start();
  43:Drivers/STM32F1xx_HAL_Driver/Src/stm32f1xx_hal_pcd.c **** 
  44:Drivers/STM32F1xx_HAL_Driver/Src/stm32f1xx_hal_pcd.c ****   @endverbatim
  45:Drivers/STM32F1xx_HAL_Driver/Src/stm32f1xx_hal_pcd.c ****   ******************************************************************************
  46:Drivers/STM32F1xx_HAL_Driver/Src/stm32f1xx_hal_pcd.c ****   * @attention
  47:Drivers/STM32F1xx_HAL_Driver/Src/stm32f1xx_hal_pcd.c ****   *
  48:Drivers/STM32F1xx_HAL_Driver/Src/stm32f1xx_hal_pcd.c ****   * <h2><center>&copy; COPYRIGHT(c) 2016 STMicroelectronics</center></h2>
  49:Drivers/STM32F1xx_HAL_Driver/Src/stm32f1xx_hal_pcd.c ****   *
  50:Drivers/STM32F1xx_HAL_Driver/Src/stm32f1xx_hal_pcd.c ****   * Redistribution and use in source and binary forms, with or without modification,
  51:Drivers/STM32F1xx_HAL_Driver/Src/stm32f1xx_hal_pcd.c ****   * are permitted provided that the following conditions are met:
  52:Drivers/STM32F1xx_HAL_Driver/Src/stm32f1xx_hal_pcd.c ****   *   1. Redistributions of source code must retain the above copyright notice,
  53:Drivers/STM32F1xx_HAL_Driver/Src/stm32f1xx_hal_pcd.c ****   *      this list of conditions and the following disclaimer.
  54:Drivers/STM32F1xx_HAL_Driver/Src/stm32f1xx_hal_pcd.c ****   *   2. Redistributions in binary form must reproduce the above copyright notice,
  55:Drivers/STM32F1xx_HAL_Driver/Src/stm32f1xx_hal_pcd.c ****   *      this list of conditions and the following disclaimer in the documentation
  56:Drivers/STM32F1xx_HAL_Driver/Src/stm32f1xx_hal_pcd.c ****   *      and/or other materials provided with the distribution.
  57:Drivers/STM32F1xx_HAL_Driver/Src/stm32f1xx_hal_pcd.c ****   *   3. Neither the name of STMicroelectronics nor the names of its contributors
  58:Drivers/STM32F1xx_HAL_Driver/Src/stm32f1xx_hal_pcd.c ****   *      may be used to endorse or promote products derived from this software
  59:Drivers/STM32F1xx_HAL_Driver/Src/stm32f1xx_hal_pcd.c ****   *      without specific prior written permission.
  60:Drivers/STM32F1xx_HAL_Driver/Src/stm32f1xx_hal_pcd.c ****   *
  61:Drivers/STM32F1xx_HAL_Driver/Src/stm32f1xx_hal_pcd.c ****   * THIS SOFTWARE IS PROVIDED BY THE COPYRIGHT HOLDERS AND CONTRIBUTORS "AS IS"
  62:Drivers/STM32F1xx_HAL_Driver/Src/stm32f1xx_hal_pcd.c ****   * AND ANY EXPRESS OR IMPLIED WARRANTIES, INCLUDING, BUT NOT LIMITED TO, THE
  63:Drivers/STM32F1xx_HAL_Driver/Src/stm32f1xx_hal_pcd.c ****   * IMPLIED WARRANTIES OF MERCHANTABILITY AND FITNESS FOR A PARTICULAR PURPOSE ARE
  64:Drivers/STM32F1xx_HAL_Driver/Src/stm32f1xx_hal_pcd.c ****   * DISCLAIMED. IN NO EVENT SHALL THE COPYRIGHT HOLDER OR CONTRIBUTORS BE LIABLE
  65:Drivers/STM32F1xx_HAL_Driver/Src/stm32f1xx_hal_pcd.c ****   * FOR ANY DIRECT, INDIRECT, INCIDENTAL, SPECIAL, EXEMPLARY, OR CONSEQUENTIAL
  66:Drivers/STM32F1xx_HAL_Driver/Src/stm32f1xx_hal_pcd.c ****   * DAMAGES (INCLUDING, BUT NOT LIMITED TO, PROCUREMENT OF SUBSTITUTE GOODS OR
  67:Drivers/STM32F1xx_HAL_Driver/Src/stm32f1xx_hal_pcd.c ****   * SERVICES; LOSS OF USE, DATA, OR PROFITS; OR BUSINESS INTERRUPTION) HOWEVER
  68:Drivers/STM32F1xx_HAL_Driver/Src/stm32f1xx_hal_pcd.c ****   * CAUSED AND ON ANY THEORY OF LIABILITY, WHETHER IN CONTRACT, STRICT LIABILITY,
  69:Drivers/STM32F1xx_HAL_Driver/Src/stm32f1xx_hal_pcd.c ****   * OR TORT (INCLUDING NEGLIGENCE OR OTHERWISE) ARISING IN ANY WAY OUT OF THE USE
  70:Drivers/STM32F1xx_HAL_Driver/Src/stm32f1xx_hal_pcd.c ****   * OF THIS SOFTWARE, EVEN IF ADVISED OF THE POSSIBILITY OF SUCH DAMAGE.
  71:Drivers/STM32F1xx_HAL_Driver/Src/stm32f1xx_hal_pcd.c ****   *
  72:Drivers/STM32F1xx_HAL_Driver/Src/stm32f1xx_hal_pcd.c ****   ******************************************************************************
  73:Drivers/STM32F1xx_HAL_Driver/Src/stm32f1xx_hal_pcd.c ****   */
  74:Drivers/STM32F1xx_HAL_Driver/Src/stm32f1xx_hal_pcd.c **** 
  75:Drivers/STM32F1xx_HAL_Driver/Src/stm32f1xx_hal_pcd.c **** /* Includes ------------------------------------------------------------------*/
  76:Drivers/STM32F1xx_HAL_Driver/Src/stm32f1xx_hal_pcd.c **** #include "stm32f1xx_hal.h"
  77:Drivers/STM32F1xx_HAL_Driver/Src/stm32f1xx_hal_pcd.c **** 
  78:Drivers/STM32F1xx_HAL_Driver/Src/stm32f1xx_hal_pcd.c **** /** @addtogroup STM32F1xx_HAL_Driver
  79:Drivers/STM32F1xx_HAL_Driver/Src/stm32f1xx_hal_pcd.c ****   * @{
  80:Drivers/STM32F1xx_HAL_Driver/Src/stm32f1xx_hal_pcd.c ****   */
  81:Drivers/STM32F1xx_HAL_Driver/Src/stm32f1xx_hal_pcd.c **** 
  82:Drivers/STM32F1xx_HAL_Driver/Src/stm32f1xx_hal_pcd.c **** 
  83:Drivers/STM32F1xx_HAL_Driver/Src/stm32f1xx_hal_pcd.c **** 
  84:Drivers/STM32F1xx_HAL_Driver/Src/stm32f1xx_hal_pcd.c **** #ifdef HAL_PCD_MODULE_ENABLED
  85:Drivers/STM32F1xx_HAL_Driver/Src/stm32f1xx_hal_pcd.c **** 
  86:Drivers/STM32F1xx_HAL_Driver/Src/stm32f1xx_hal_pcd.c **** #if defined(STM32F102x6) || defined(STM32F102xB) || \
  87:Drivers/STM32F1xx_HAL_Driver/Src/stm32f1xx_hal_pcd.c ****     defined(STM32F103x6) || defined(STM32F103xB) || \
  88:Drivers/STM32F1xx_HAL_Driver/Src/stm32f1xx_hal_pcd.c ****     defined(STM32F103xE) || defined(STM32F103xG) || \
ARM GAS  /var/folders/rf/wfq6hz5s56g3yh4wqgd7820c0000gn/T//cc4VRrEg.s 			page 3


  89:Drivers/STM32F1xx_HAL_Driver/Src/stm32f1xx_hal_pcd.c ****     defined(STM32F105xC) || defined(STM32F107xC)
  90:Drivers/STM32F1xx_HAL_Driver/Src/stm32f1xx_hal_pcd.c **** 
  91:Drivers/STM32F1xx_HAL_Driver/Src/stm32f1xx_hal_pcd.c **** /** @defgroup PCD PCD
  92:Drivers/STM32F1xx_HAL_Driver/Src/stm32f1xx_hal_pcd.c ****   * @brief PCD HAL module driver
  93:Drivers/STM32F1xx_HAL_Driver/Src/stm32f1xx_hal_pcd.c ****   * @{
  94:Drivers/STM32F1xx_HAL_Driver/Src/stm32f1xx_hal_pcd.c ****   */
  95:Drivers/STM32F1xx_HAL_Driver/Src/stm32f1xx_hal_pcd.c **** 
  96:Drivers/STM32F1xx_HAL_Driver/Src/stm32f1xx_hal_pcd.c **** /* Private types -------------------------------------------------------------*/
  97:Drivers/STM32F1xx_HAL_Driver/Src/stm32f1xx_hal_pcd.c **** /* Private variables ---------------------------------------------------------*/
  98:Drivers/STM32F1xx_HAL_Driver/Src/stm32f1xx_hal_pcd.c **** /* Private constants ---------------------------------------------------------*/
  99:Drivers/STM32F1xx_HAL_Driver/Src/stm32f1xx_hal_pcd.c **** /* Private macros ------------------------------------------------------------*/
 100:Drivers/STM32F1xx_HAL_Driver/Src/stm32f1xx_hal_pcd.c **** /** @defgroup PCD_Private_Macros PCD Private Macros
 101:Drivers/STM32F1xx_HAL_Driver/Src/stm32f1xx_hal_pcd.c ****   * @{
 102:Drivers/STM32F1xx_HAL_Driver/Src/stm32f1xx_hal_pcd.c ****   */ 
 103:Drivers/STM32F1xx_HAL_Driver/Src/stm32f1xx_hal_pcd.c **** #define PCD_MIN(a, b)  (((a) < (b)) ? (a) : (b))
 104:Drivers/STM32F1xx_HAL_Driver/Src/stm32f1xx_hal_pcd.c **** #define PCD_MAX(a, b)  (((a) > (b)) ? (a) : (b))
 105:Drivers/STM32F1xx_HAL_Driver/Src/stm32f1xx_hal_pcd.c **** /**
 106:Drivers/STM32F1xx_HAL_Driver/Src/stm32f1xx_hal_pcd.c ****   * @}
 107:Drivers/STM32F1xx_HAL_Driver/Src/stm32f1xx_hal_pcd.c ****   */
 108:Drivers/STM32F1xx_HAL_Driver/Src/stm32f1xx_hal_pcd.c **** 
 109:Drivers/STM32F1xx_HAL_Driver/Src/stm32f1xx_hal_pcd.c **** /* Private functions ---------------------------------------------------------*/
 110:Drivers/STM32F1xx_HAL_Driver/Src/stm32f1xx_hal_pcd.c **** /** @defgroup PCD_Private_Functions PCD Private Functions
 111:Drivers/STM32F1xx_HAL_Driver/Src/stm32f1xx_hal_pcd.c ****   * @{
 112:Drivers/STM32F1xx_HAL_Driver/Src/stm32f1xx_hal_pcd.c ****   */
 113:Drivers/STM32F1xx_HAL_Driver/Src/stm32f1xx_hal_pcd.c **** #if defined (USB_OTG_FS)
 114:Drivers/STM32F1xx_HAL_Driver/Src/stm32f1xx_hal_pcd.c **** static HAL_StatusTypeDef PCD_WriteEmptyTxFifo(PCD_HandleTypeDef *hpcd, uint32_t epnum);
 115:Drivers/STM32F1xx_HAL_Driver/Src/stm32f1xx_hal_pcd.c **** #endif /* USB_OTG_FS */
 116:Drivers/STM32F1xx_HAL_Driver/Src/stm32f1xx_hal_pcd.c **** 
 117:Drivers/STM32F1xx_HAL_Driver/Src/stm32f1xx_hal_pcd.c **** #if defined (USB)
 118:Drivers/STM32F1xx_HAL_Driver/Src/stm32f1xx_hal_pcd.c **** static HAL_StatusTypeDef PCD_EP_ISR_Handler(PCD_HandleTypeDef *hpcd);
 119:Drivers/STM32F1xx_HAL_Driver/Src/stm32f1xx_hal_pcd.c **** #endif /* USB */
 120:Drivers/STM32F1xx_HAL_Driver/Src/stm32f1xx_hal_pcd.c **** /**
 121:Drivers/STM32F1xx_HAL_Driver/Src/stm32f1xx_hal_pcd.c ****   * @}
 122:Drivers/STM32F1xx_HAL_Driver/Src/stm32f1xx_hal_pcd.c ****   */
 123:Drivers/STM32F1xx_HAL_Driver/Src/stm32f1xx_hal_pcd.c **** 
 124:Drivers/STM32F1xx_HAL_Driver/Src/stm32f1xx_hal_pcd.c **** /* Exported functions --------------------------------------------------------*/
 125:Drivers/STM32F1xx_HAL_Driver/Src/stm32f1xx_hal_pcd.c **** /** @defgroup PCD_Exported_Functions PCD Exported Functions
 126:Drivers/STM32F1xx_HAL_Driver/Src/stm32f1xx_hal_pcd.c ****   * @{
 127:Drivers/STM32F1xx_HAL_Driver/Src/stm32f1xx_hal_pcd.c ****   */
 128:Drivers/STM32F1xx_HAL_Driver/Src/stm32f1xx_hal_pcd.c **** 
 129:Drivers/STM32F1xx_HAL_Driver/Src/stm32f1xx_hal_pcd.c **** /** @defgroup PCD_Exported_Functions_Group1 Initialization and de-initialization functions 
 130:Drivers/STM32F1xx_HAL_Driver/Src/stm32f1xx_hal_pcd.c ****  *  @brief    Initialization and Configuration functions 
 131:Drivers/STM32F1xx_HAL_Driver/Src/stm32f1xx_hal_pcd.c ****  *
 132:Drivers/STM32F1xx_HAL_Driver/Src/stm32f1xx_hal_pcd.c **** @verbatim
 133:Drivers/STM32F1xx_HAL_Driver/Src/stm32f1xx_hal_pcd.c ****  ===============================================================================
 134:Drivers/STM32F1xx_HAL_Driver/Src/stm32f1xx_hal_pcd.c ****             ##### Initialization and de-initialization functions #####
 135:Drivers/STM32F1xx_HAL_Driver/Src/stm32f1xx_hal_pcd.c ****  ===============================================================================
 136:Drivers/STM32F1xx_HAL_Driver/Src/stm32f1xx_hal_pcd.c ****     [..]  This section provides functions allowing to:
 137:Drivers/STM32F1xx_HAL_Driver/Src/stm32f1xx_hal_pcd.c ****  
 138:Drivers/STM32F1xx_HAL_Driver/Src/stm32f1xx_hal_pcd.c **** @endverbatim
 139:Drivers/STM32F1xx_HAL_Driver/Src/stm32f1xx_hal_pcd.c ****   * @{
 140:Drivers/STM32F1xx_HAL_Driver/Src/stm32f1xx_hal_pcd.c ****   */
 141:Drivers/STM32F1xx_HAL_Driver/Src/stm32f1xx_hal_pcd.c **** 
 142:Drivers/STM32F1xx_HAL_Driver/Src/stm32f1xx_hal_pcd.c **** /**
 143:Drivers/STM32F1xx_HAL_Driver/Src/stm32f1xx_hal_pcd.c ****   * @brief  Initializes the PCD according to the specified
 144:Drivers/STM32F1xx_HAL_Driver/Src/stm32f1xx_hal_pcd.c ****   *         parameters in the PCD_InitTypeDef and create the associated handle.
 145:Drivers/STM32F1xx_HAL_Driver/Src/stm32f1xx_hal_pcd.c ****   * @param  hpcd: PCD handle
ARM GAS  /var/folders/rf/wfq6hz5s56g3yh4wqgd7820c0000gn/T//cc4VRrEg.s 			page 4


 146:Drivers/STM32F1xx_HAL_Driver/Src/stm32f1xx_hal_pcd.c ****   * @retval HAL status
 147:Drivers/STM32F1xx_HAL_Driver/Src/stm32f1xx_hal_pcd.c ****   */
 148:Drivers/STM32F1xx_HAL_Driver/Src/stm32f1xx_hal_pcd.c **** HAL_StatusTypeDef HAL_PCD_Init(PCD_HandleTypeDef *hpcd)
 149:Drivers/STM32F1xx_HAL_Driver/Src/stm32f1xx_hal_pcd.c **** {
 150:Drivers/STM32F1xx_HAL_Driver/Src/stm32f1xx_hal_pcd.c ****   uint32_t index = 0U;
 151:Drivers/STM32F1xx_HAL_Driver/Src/stm32f1xx_hal_pcd.c ****   
 152:Drivers/STM32F1xx_HAL_Driver/Src/stm32f1xx_hal_pcd.c ****   /* Check the PCD handle allocation */
 153:Drivers/STM32F1xx_HAL_Driver/Src/stm32f1xx_hal_pcd.c ****   if(hpcd == NULL)
 154:Drivers/STM32F1xx_HAL_Driver/Src/stm32f1xx_hal_pcd.c ****   {
 155:Drivers/STM32F1xx_HAL_Driver/Src/stm32f1xx_hal_pcd.c ****     return HAL_ERROR;
 156:Drivers/STM32F1xx_HAL_Driver/Src/stm32f1xx_hal_pcd.c ****   }
 157:Drivers/STM32F1xx_HAL_Driver/Src/stm32f1xx_hal_pcd.c ****   
 158:Drivers/STM32F1xx_HAL_Driver/Src/stm32f1xx_hal_pcd.c ****   /* Check the parameters */
 159:Drivers/STM32F1xx_HAL_Driver/Src/stm32f1xx_hal_pcd.c ****   assert_param(IS_PCD_ALL_INSTANCE(hpcd->Instance));
 160:Drivers/STM32F1xx_HAL_Driver/Src/stm32f1xx_hal_pcd.c **** 
 161:Drivers/STM32F1xx_HAL_Driver/Src/stm32f1xx_hal_pcd.c ****   if(hpcd->State == HAL_PCD_STATE_RESET)
 162:Drivers/STM32F1xx_HAL_Driver/Src/stm32f1xx_hal_pcd.c ****   {  
 163:Drivers/STM32F1xx_HAL_Driver/Src/stm32f1xx_hal_pcd.c ****     /* Allocate lock resource and initialize it */
 164:Drivers/STM32F1xx_HAL_Driver/Src/stm32f1xx_hal_pcd.c ****     hpcd->Lock = HAL_UNLOCKED;
 165:Drivers/STM32F1xx_HAL_Driver/Src/stm32f1xx_hal_pcd.c **** 
 166:Drivers/STM32F1xx_HAL_Driver/Src/stm32f1xx_hal_pcd.c ****     /* Init the low level hardware : GPIO, CLOCK, NVIC... */
 167:Drivers/STM32F1xx_HAL_Driver/Src/stm32f1xx_hal_pcd.c ****     HAL_PCD_MspInit(hpcd);
 168:Drivers/STM32F1xx_HAL_Driver/Src/stm32f1xx_hal_pcd.c ****   }
 169:Drivers/STM32F1xx_HAL_Driver/Src/stm32f1xx_hal_pcd.c ****   
 170:Drivers/STM32F1xx_HAL_Driver/Src/stm32f1xx_hal_pcd.c ****   hpcd->State = HAL_PCD_STATE_BUSY;
 171:Drivers/STM32F1xx_HAL_Driver/Src/stm32f1xx_hal_pcd.c ****   
 172:Drivers/STM32F1xx_HAL_Driver/Src/stm32f1xx_hal_pcd.c ****   /* Disable the Interrupts */
 173:Drivers/STM32F1xx_HAL_Driver/Src/stm32f1xx_hal_pcd.c ****   __HAL_PCD_DISABLE(hpcd);
 174:Drivers/STM32F1xx_HAL_Driver/Src/stm32f1xx_hal_pcd.c **** 
 175:Drivers/STM32F1xx_HAL_Driver/Src/stm32f1xx_hal_pcd.c ****   /*Init the Core (common init.) */
 176:Drivers/STM32F1xx_HAL_Driver/Src/stm32f1xx_hal_pcd.c ****   USB_CoreInit(hpcd->Instance, hpcd->Init);
 177:Drivers/STM32F1xx_HAL_Driver/Src/stm32f1xx_hal_pcd.c ****  
 178:Drivers/STM32F1xx_HAL_Driver/Src/stm32f1xx_hal_pcd.c ****   /* Force Device Mode*/
 179:Drivers/STM32F1xx_HAL_Driver/Src/stm32f1xx_hal_pcd.c ****   USB_SetCurrentMode(hpcd->Instance , USB_DEVICE_MODE);
 180:Drivers/STM32F1xx_HAL_Driver/Src/stm32f1xx_hal_pcd.c ****  
 181:Drivers/STM32F1xx_HAL_Driver/Src/stm32f1xx_hal_pcd.c ****   /* Init endpoints structures */
 182:Drivers/STM32F1xx_HAL_Driver/Src/stm32f1xx_hal_pcd.c ****   for (index = 0U; index < 15U ; index++)
 183:Drivers/STM32F1xx_HAL_Driver/Src/stm32f1xx_hal_pcd.c ****   {
 184:Drivers/STM32F1xx_HAL_Driver/Src/stm32f1xx_hal_pcd.c ****     /* Init ep structure */
 185:Drivers/STM32F1xx_HAL_Driver/Src/stm32f1xx_hal_pcd.c ****     hpcd->IN_ep[index].is_in = 1U;
 186:Drivers/STM32F1xx_HAL_Driver/Src/stm32f1xx_hal_pcd.c ****     hpcd->IN_ep[index].num = index;
 187:Drivers/STM32F1xx_HAL_Driver/Src/stm32f1xx_hal_pcd.c ****     hpcd->IN_ep[index].tx_fifo_num = index;
 188:Drivers/STM32F1xx_HAL_Driver/Src/stm32f1xx_hal_pcd.c ****     /* Control until ep is actvated */
 189:Drivers/STM32F1xx_HAL_Driver/Src/stm32f1xx_hal_pcd.c ****     hpcd->IN_ep[index].type = EP_TYPE_CTRL;
 190:Drivers/STM32F1xx_HAL_Driver/Src/stm32f1xx_hal_pcd.c ****     hpcd->IN_ep[index].maxpacket =  0U;
 191:Drivers/STM32F1xx_HAL_Driver/Src/stm32f1xx_hal_pcd.c ****     hpcd->IN_ep[index].xfer_buff = 0U;
 192:Drivers/STM32F1xx_HAL_Driver/Src/stm32f1xx_hal_pcd.c ****     hpcd->IN_ep[index].xfer_len = 0U;
 193:Drivers/STM32F1xx_HAL_Driver/Src/stm32f1xx_hal_pcd.c ****   }
 194:Drivers/STM32F1xx_HAL_Driver/Src/stm32f1xx_hal_pcd.c ****  
 195:Drivers/STM32F1xx_HAL_Driver/Src/stm32f1xx_hal_pcd.c ****   for (index = 0U; index < 15U ; index++)
 196:Drivers/STM32F1xx_HAL_Driver/Src/stm32f1xx_hal_pcd.c ****   {
 197:Drivers/STM32F1xx_HAL_Driver/Src/stm32f1xx_hal_pcd.c ****     hpcd->OUT_ep[index].is_in = 0U;
 198:Drivers/STM32F1xx_HAL_Driver/Src/stm32f1xx_hal_pcd.c ****     hpcd->OUT_ep[index].num = index;
 199:Drivers/STM32F1xx_HAL_Driver/Src/stm32f1xx_hal_pcd.c ****     hpcd->IN_ep[index].tx_fifo_num = index;
 200:Drivers/STM32F1xx_HAL_Driver/Src/stm32f1xx_hal_pcd.c ****     /* Control until ep is activated */
 201:Drivers/STM32F1xx_HAL_Driver/Src/stm32f1xx_hal_pcd.c ****     hpcd->OUT_ep[index].type = EP_TYPE_CTRL;
 202:Drivers/STM32F1xx_HAL_Driver/Src/stm32f1xx_hal_pcd.c ****     hpcd->OUT_ep[index].maxpacket = 0U;
ARM GAS  /var/folders/rf/wfq6hz5s56g3yh4wqgd7820c0000gn/T//cc4VRrEg.s 			page 5


 203:Drivers/STM32F1xx_HAL_Driver/Src/stm32f1xx_hal_pcd.c ****     hpcd->OUT_ep[index].xfer_buff = 0U;
 204:Drivers/STM32F1xx_HAL_Driver/Src/stm32f1xx_hal_pcd.c ****     hpcd->OUT_ep[index].xfer_len = 0U;
 205:Drivers/STM32F1xx_HAL_Driver/Src/stm32f1xx_hal_pcd.c ****   }
 206:Drivers/STM32F1xx_HAL_Driver/Src/stm32f1xx_hal_pcd.c ****   
 207:Drivers/STM32F1xx_HAL_Driver/Src/stm32f1xx_hal_pcd.c ****   /* Init Device */
 208:Drivers/STM32F1xx_HAL_Driver/Src/stm32f1xx_hal_pcd.c ****   USB_DevInit(hpcd->Instance, hpcd->Init);
 209:Drivers/STM32F1xx_HAL_Driver/Src/stm32f1xx_hal_pcd.c ****   
 210:Drivers/STM32F1xx_HAL_Driver/Src/stm32f1xx_hal_pcd.c ****   hpcd->USB_Address = 0U;
 211:Drivers/STM32F1xx_HAL_Driver/Src/stm32f1xx_hal_pcd.c ****   hpcd->State= HAL_PCD_STATE_READY;
 212:Drivers/STM32F1xx_HAL_Driver/Src/stm32f1xx_hal_pcd.c ****   
 213:Drivers/STM32F1xx_HAL_Driver/Src/stm32f1xx_hal_pcd.c ****   USB_DevDisconnect (hpcd->Instance);  
 214:Drivers/STM32F1xx_HAL_Driver/Src/stm32f1xx_hal_pcd.c ****   return HAL_OK;
 215:Drivers/STM32F1xx_HAL_Driver/Src/stm32f1xx_hal_pcd.c **** }
 216:Drivers/STM32F1xx_HAL_Driver/Src/stm32f1xx_hal_pcd.c **** 
 217:Drivers/STM32F1xx_HAL_Driver/Src/stm32f1xx_hal_pcd.c **** /**
 218:Drivers/STM32F1xx_HAL_Driver/Src/stm32f1xx_hal_pcd.c ****   * @brief  DeInitializes the PCD peripheral 
 219:Drivers/STM32F1xx_HAL_Driver/Src/stm32f1xx_hal_pcd.c ****   * @param  hpcd: PCD handle
 220:Drivers/STM32F1xx_HAL_Driver/Src/stm32f1xx_hal_pcd.c ****   * @retval HAL status
 221:Drivers/STM32F1xx_HAL_Driver/Src/stm32f1xx_hal_pcd.c ****   */
 222:Drivers/STM32F1xx_HAL_Driver/Src/stm32f1xx_hal_pcd.c **** HAL_StatusTypeDef HAL_PCD_DeInit(PCD_HandleTypeDef *hpcd)
 223:Drivers/STM32F1xx_HAL_Driver/Src/stm32f1xx_hal_pcd.c **** {
 224:Drivers/STM32F1xx_HAL_Driver/Src/stm32f1xx_hal_pcd.c ****   /* Check the PCD handle allocation */
 225:Drivers/STM32F1xx_HAL_Driver/Src/stm32f1xx_hal_pcd.c ****   if(hpcd == NULL)
 226:Drivers/STM32F1xx_HAL_Driver/Src/stm32f1xx_hal_pcd.c ****   {
 227:Drivers/STM32F1xx_HAL_Driver/Src/stm32f1xx_hal_pcd.c ****     return HAL_ERROR;
 228:Drivers/STM32F1xx_HAL_Driver/Src/stm32f1xx_hal_pcd.c ****   }
 229:Drivers/STM32F1xx_HAL_Driver/Src/stm32f1xx_hal_pcd.c **** 
 230:Drivers/STM32F1xx_HAL_Driver/Src/stm32f1xx_hal_pcd.c ****   hpcd->State = HAL_PCD_STATE_BUSY;
 231:Drivers/STM32F1xx_HAL_Driver/Src/stm32f1xx_hal_pcd.c ****   
 232:Drivers/STM32F1xx_HAL_Driver/Src/stm32f1xx_hal_pcd.c ****   /* Stop Device */
 233:Drivers/STM32F1xx_HAL_Driver/Src/stm32f1xx_hal_pcd.c ****   HAL_PCD_Stop(hpcd);
 234:Drivers/STM32F1xx_HAL_Driver/Src/stm32f1xx_hal_pcd.c ****   
 235:Drivers/STM32F1xx_HAL_Driver/Src/stm32f1xx_hal_pcd.c ****   /* DeInit the low level hardware */
 236:Drivers/STM32F1xx_HAL_Driver/Src/stm32f1xx_hal_pcd.c ****   HAL_PCD_MspDeInit(hpcd);
 237:Drivers/STM32F1xx_HAL_Driver/Src/stm32f1xx_hal_pcd.c ****   
 238:Drivers/STM32F1xx_HAL_Driver/Src/stm32f1xx_hal_pcd.c ****   hpcd->State = HAL_PCD_STATE_RESET; 
 239:Drivers/STM32F1xx_HAL_Driver/Src/stm32f1xx_hal_pcd.c ****   
 240:Drivers/STM32F1xx_HAL_Driver/Src/stm32f1xx_hal_pcd.c ****   return HAL_OK;
 241:Drivers/STM32F1xx_HAL_Driver/Src/stm32f1xx_hal_pcd.c **** }
 242:Drivers/STM32F1xx_HAL_Driver/Src/stm32f1xx_hal_pcd.c **** 
 243:Drivers/STM32F1xx_HAL_Driver/Src/stm32f1xx_hal_pcd.c **** /**
 244:Drivers/STM32F1xx_HAL_Driver/Src/stm32f1xx_hal_pcd.c ****   * @brief  Initializes the PCD MSP.
 245:Drivers/STM32F1xx_HAL_Driver/Src/stm32f1xx_hal_pcd.c ****   * @param  hpcd: PCD handle
 246:Drivers/STM32F1xx_HAL_Driver/Src/stm32f1xx_hal_pcd.c ****   * @retval None
 247:Drivers/STM32F1xx_HAL_Driver/Src/stm32f1xx_hal_pcd.c ****   */
 248:Drivers/STM32F1xx_HAL_Driver/Src/stm32f1xx_hal_pcd.c **** __weak void HAL_PCD_MspInit(PCD_HandleTypeDef *hpcd)
 249:Drivers/STM32F1xx_HAL_Driver/Src/stm32f1xx_hal_pcd.c **** {
  28              		.loc 1 249 1 view -0
  29              		.cfi_startproc
  30              		@ args = 0, pretend = 0, frame = 0
  31              		@ frame_needed = 0, uses_anonymous_args = 0
  32              		@ link register save eliminated.
 250:Drivers/STM32F1xx_HAL_Driver/Src/stm32f1xx_hal_pcd.c ****   /* Prevent unused argument(s) compilation warning */
 251:Drivers/STM32F1xx_HAL_Driver/Src/stm32f1xx_hal_pcd.c ****   UNUSED(hpcd);
  33              		.loc 1 251 3 view .LVU1
 252:Drivers/STM32F1xx_HAL_Driver/Src/stm32f1xx_hal_pcd.c ****   /* NOTE : This function should not be modified, when the callback is needed,
 253:Drivers/STM32F1xx_HAL_Driver/Src/stm32f1xx_hal_pcd.c ****             the HAL_PCD_MspInit could be implemented in the user file
ARM GAS  /var/folders/rf/wfq6hz5s56g3yh4wqgd7820c0000gn/T//cc4VRrEg.s 			page 6


 254:Drivers/STM32F1xx_HAL_Driver/Src/stm32f1xx_hal_pcd.c ****    */
 255:Drivers/STM32F1xx_HAL_Driver/Src/stm32f1xx_hal_pcd.c **** }
  34              		.loc 1 255 1 is_stmt 0 view .LVU2
  35 0000 7047     		bx	lr
  36              		.cfi_endproc
  37              	.LFE68:
  39              		.section	.text.HAL_PCD_Init,"ax",%progbits
  40              		.align	1
  41              		.global	HAL_PCD_Init
  42              		.syntax unified
  43              		.thumb
  44              		.thumb_func
  45              		.fpu softvfp
  47              	HAL_PCD_Init:
  48              	.LVL1:
  49              	.LFB66:
 149:Drivers/STM32F1xx_HAL_Driver/Src/stm32f1xx_hal_pcd.c ****   uint32_t index = 0U;
  50              		.loc 1 149 1 is_stmt 1 view -0
  51              		.cfi_startproc
  52              		@ args = 0, pretend = 0, frame = 0
  53              		@ frame_needed = 0, uses_anonymous_args = 0
 150:Drivers/STM32F1xx_HAL_Driver/Src/stm32f1xx_hal_pcd.c ****   
  54              		.loc 1 150 3 view .LVU4
 153:Drivers/STM32F1xx_HAL_Driver/Src/stm32f1xx_hal_pcd.c ****   {
  55              		.loc 1 153 3 view .LVU5
 153:Drivers/STM32F1xx_HAL_Driver/Src/stm32f1xx_hal_pcd.c ****   {
  56              		.loc 1 153 5 is_stmt 0 view .LVU6
  57 0000 0028     		cmp	r0, #0
  58 0002 66D0     		beq	.L9
 149:Drivers/STM32F1xx_HAL_Driver/Src/stm32f1xx_hal_pcd.c ****   uint32_t index = 0U;
  59              		.loc 1 149 1 view .LVU7
  60 0004 F0B5     		push	{r4, r5, r6, r7, lr}
  61              	.LCFI0:
  62              		.cfi_def_cfa_offset 20
  63              		.cfi_offset 4, -20
  64              		.cfi_offset 5, -16
  65              		.cfi_offset 6, -12
  66              		.cfi_offset 7, -8
  67              		.cfi_offset 14, -4
  68 0006 87B0     		sub	sp, sp, #28
  69              	.LCFI1:
  70              		.cfi_def_cfa_offset 48
  71 0008 0446     		mov	r4, r0
 159:Drivers/STM32F1xx_HAL_Driver/Src/stm32f1xx_hal_pcd.c **** 
  72              		.loc 1 159 3 is_stmt 1 view .LVU8
 161:Drivers/STM32F1xx_HAL_Driver/Src/stm32f1xx_hal_pcd.c ****   {  
  73              		.loc 1 161 3 view .LVU9
 161:Drivers/STM32F1xx_HAL_Driver/Src/stm32f1xx_hal_pcd.c ****   {  
  74              		.loc 1 161 10 is_stmt 0 view .LVU10
  75 000a 90F82934 		ldrb	r3, [r0, #1065]	@ zero_extendqisi2
 161:Drivers/STM32F1xx_HAL_Driver/Src/stm32f1xx_hal_pcd.c ****   {  
  76              		.loc 1 161 5 view .LVU11
  77 000e C3B1     		cbz	r3, .L14
  78              	.LVL2:
  79              	.L4:
 170:Drivers/STM32F1xx_HAL_Driver/Src/stm32f1xx_hal_pcd.c ****   
  80              		.loc 1 170 3 is_stmt 1 view .LVU12
ARM GAS  /var/folders/rf/wfq6hz5s56g3yh4wqgd7820c0000gn/T//cc4VRrEg.s 			page 7


 170:Drivers/STM32F1xx_HAL_Driver/Src/stm32f1xx_hal_pcd.c ****   
  81              		.loc 1 170 15 is_stmt 0 view .LVU13
  82 0010 0323     		movs	r3, #3
  83 0012 84F82934 		strb	r3, [r4, #1065]
 173:Drivers/STM32F1xx_HAL_Driver/Src/stm32f1xx_hal_pcd.c **** 
  84              		.loc 1 173 3 is_stmt 1 view .LVU14
  85 0016 2068     		ldr	r0, [r4]
  86 0018 FFF7FEFF 		bl	USB_DisableGlobalInt
  87              	.LVL3:
 176:Drivers/STM32F1xx_HAL_Driver/Src/stm32f1xx_hal_pcd.c ****  
  88              		.loc 1 176 3 view .LVU15
 176:Drivers/STM32F1xx_HAL_Driver/Src/stm32f1xx_hal_pcd.c ****  
  89              		.loc 1 176 20 is_stmt 0 view .LVU16
  90 001c 2546     		mov	r5, r4
  91 001e 55F8107B 		ldr	r7, [r5], #16
 176:Drivers/STM32F1xx_HAL_Driver/Src/stm32f1xx_hal_pcd.c ****  
  92              		.loc 1 176 3 view .LVU17
  93 0022 6E46     		mov	r6, sp
  94 0024 0FCD     		ldmia	r5!, {r0, r1, r2, r3}
  95 0026 0FC6     		stmia	r6!, {r0, r1, r2, r3}
  96 0028 2B68     		ldr	r3, [r5]
  97 002a 3360     		str	r3, [r6]
  98 002c 231D     		adds	r3, r4, #4
  99 002e 0ECB     		ldm	r3, {r1, r2, r3}
 100 0030 3846     		mov	r0, r7
 101 0032 FFF7FEFF 		bl	USB_CoreInit
 102              	.LVL4:
 179:Drivers/STM32F1xx_HAL_Driver/Src/stm32f1xx_hal_pcd.c ****  
 103              		.loc 1 179 3 is_stmt 1 view .LVU18
 104 0036 0021     		movs	r1, #0
 105 0038 2068     		ldr	r0, [r4]
 106 003a FFF7FEFF 		bl	USB_SetCurrentMode
 107              	.LVL5:
 182:Drivers/STM32F1xx_HAL_Driver/Src/stm32f1xx_hal_pcd.c ****   {
 108              		.loc 1 182 3 view .LVU19
 182:Drivers/STM32F1xx_HAL_Driver/Src/stm32f1xx_hal_pcd.c ****   {
 109              		.loc 1 182 14 is_stmt 0 view .LVU20
 110 003e 0023     		movs	r3, #0
 182:Drivers/STM32F1xx_HAL_Driver/Src/stm32f1xx_hal_pcd.c ****   {
 111              		.loc 1 182 3 view .LVU21
 112 0040 15E0     		b	.L5
 113              	.LVL6:
 114              	.L14:
 164:Drivers/STM32F1xx_HAL_Driver/Src/stm32f1xx_hal_pcd.c **** 
 115              		.loc 1 164 5 is_stmt 1 view .LVU22
 164:Drivers/STM32F1xx_HAL_Driver/Src/stm32f1xx_hal_pcd.c **** 
 116              		.loc 1 164 16 is_stmt 0 view .LVU23
 117 0042 80F82834 		strb	r3, [r0, #1064]
 167:Drivers/STM32F1xx_HAL_Driver/Src/stm32f1xx_hal_pcd.c ****   }
 118              		.loc 1 167 5 is_stmt 1 view .LVU24
 119 0046 FFF7FEFF 		bl	HAL_PCD_MspInit
 120              	.LVL7:
 167:Drivers/STM32F1xx_HAL_Driver/Src/stm32f1xx_hal_pcd.c ****   }
 121              		.loc 1 167 5 is_stmt 0 view .LVU25
 122 004a E1E7     		b	.L4
 123              	.LVL8:
 124              	.L6:
ARM GAS  /var/folders/rf/wfq6hz5s56g3yh4wqgd7820c0000gn/T//cc4VRrEg.s 			page 8


 185:Drivers/STM32F1xx_HAL_Driver/Src/stm32f1xx_hal_pcd.c ****     hpcd->IN_ep[index].num = index;
 125              		.loc 1 185 5 is_stmt 1 discriminator 3 view .LVU26
 185:Drivers/STM32F1xx_HAL_Driver/Src/stm32f1xx_hal_pcd.c ****     hpcd->IN_ep[index].num = index;
 126              		.loc 1 185 30 is_stmt 0 discriminator 3 view .LVU27
 127 004c 04EB4312 		add	r2, r4, r3, lsl #5
 128 0050 0121     		movs	r1, #1
 129 0052 82F82910 		strb	r1, [r2, #41]
 186:Drivers/STM32F1xx_HAL_Driver/Src/stm32f1xx_hal_pcd.c ****     hpcd->IN_ep[index].tx_fifo_num = index;
 130              		.loc 1 186 5 is_stmt 1 discriminator 3 view .LVU28
 186:Drivers/STM32F1xx_HAL_Driver/Src/stm32f1xx_hal_pcd.c ****     hpcd->IN_ep[index].tx_fifo_num = index;
 131              		.loc 1 186 28 is_stmt 0 discriminator 3 view .LVU29
 132 0056 82F82830 		strb	r3, [r2, #40]
 187:Drivers/STM32F1xx_HAL_Driver/Src/stm32f1xx_hal_pcd.c ****     /* Control until ep is actvated */
 133              		.loc 1 187 5 is_stmt 1 discriminator 3 view .LVU30
 187:Drivers/STM32F1xx_HAL_Driver/Src/stm32f1xx_hal_pcd.c ****     /* Control until ep is actvated */
 134              		.loc 1 187 36 is_stmt 0 discriminator 3 view .LVU31
 135 005a 9386     		strh	r3, [r2, #52]	@ movhi
 189:Drivers/STM32F1xx_HAL_Driver/Src/stm32f1xx_hal_pcd.c ****     hpcd->IN_ep[index].maxpacket =  0U;
 136              		.loc 1 189 5 is_stmt 1 discriminator 3 view .LVU32
 189:Drivers/STM32F1xx_HAL_Driver/Src/stm32f1xx_hal_pcd.c ****     hpcd->IN_ep[index].maxpacket =  0U;
 137              		.loc 1 189 29 is_stmt 0 discriminator 3 view .LVU33
 138 005c 0021     		movs	r1, #0
 139 005e 82F82B10 		strb	r1, [r2, #43]
 190:Drivers/STM32F1xx_HAL_Driver/Src/stm32f1xx_hal_pcd.c ****     hpcd->IN_ep[index].xfer_buff = 0U;
 140              		.loc 1 190 5 is_stmt 1 discriminator 3 view .LVU34
 190:Drivers/STM32F1xx_HAL_Driver/Src/stm32f1xx_hal_pcd.c ****     hpcd->IN_ep[index].xfer_buff = 0U;
 141              		.loc 1 190 34 is_stmt 0 discriminator 3 view .LVU35
 142 0062 9163     		str	r1, [r2, #56]
 191:Drivers/STM32F1xx_HAL_Driver/Src/stm32f1xx_hal_pcd.c ****     hpcd->IN_ep[index].xfer_len = 0U;
 143              		.loc 1 191 5 is_stmt 1 discriminator 3 view .LVU36
 191:Drivers/STM32F1xx_HAL_Driver/Src/stm32f1xx_hal_pcd.c ****     hpcd->IN_ep[index].xfer_len = 0U;
 144              		.loc 1 191 34 is_stmt 0 discriminator 3 view .LVU37
 145 0064 D163     		str	r1, [r2, #60]
 192:Drivers/STM32F1xx_HAL_Driver/Src/stm32f1xx_hal_pcd.c ****   }
 146              		.loc 1 192 5 is_stmt 1 discriminator 3 view .LVU38
 192:Drivers/STM32F1xx_HAL_Driver/Src/stm32f1xx_hal_pcd.c ****   }
 147              		.loc 1 192 33 is_stmt 0 discriminator 3 view .LVU39
 148 0066 9A1C     		adds	r2, r3, #2
 149 0068 5201     		lsls	r2, r2, #5
 150 006a A150     		str	r1, [r4, r2]
 182:Drivers/STM32F1xx_HAL_Driver/Src/stm32f1xx_hal_pcd.c ****   {
 151              		.loc 1 182 34 is_stmt 1 discriminator 3 view .LVU40
 182:Drivers/STM32F1xx_HAL_Driver/Src/stm32f1xx_hal_pcd.c ****   {
 152              		.loc 1 182 39 is_stmt 0 discriminator 3 view .LVU41
 153 006c 0133     		adds	r3, r3, #1
 154              	.LVL9:
 155              	.L5:
 182:Drivers/STM32F1xx_HAL_Driver/Src/stm32f1xx_hal_pcd.c ****   {
 156              		.loc 1 182 20 is_stmt 1 discriminator 1 view .LVU42
 182:Drivers/STM32F1xx_HAL_Driver/Src/stm32f1xx_hal_pcd.c ****   {
 157              		.loc 1 182 3 is_stmt 0 discriminator 1 view .LVU43
 158 006e 0E2B     		cmp	r3, #14
 159 0070 ECD9     		bls	.L6
 195:Drivers/STM32F1xx_HAL_Driver/Src/stm32f1xx_hal_pcd.c ****   {
 160              		.loc 1 195 14 view .LVU44
 161 0072 0023     		movs	r3, #0
 162              	.LVL10:
ARM GAS  /var/folders/rf/wfq6hz5s56g3yh4wqgd7820c0000gn/T//cc4VRrEg.s 			page 9


 195:Drivers/STM32F1xx_HAL_Driver/Src/stm32f1xx_hal_pcd.c ****   {
 163              		.loc 1 195 14 view .LVU45
 164 0074 12E0     		b	.L7
 165              	.LVL11:
 166              	.L8:
 197:Drivers/STM32F1xx_HAL_Driver/Src/stm32f1xx_hal_pcd.c ****     hpcd->OUT_ep[index].num = index;
 167              		.loc 1 197 5 is_stmt 1 discriminator 3 view .LVU46
 197:Drivers/STM32F1xx_HAL_Driver/Src/stm32f1xx_hal_pcd.c ****     hpcd->OUT_ep[index].num = index;
 168              		.loc 1 197 31 is_stmt 0 discriminator 3 view .LVU47
 169 0076 04EB4312 		add	r2, r4, r3, lsl #5
 170 007a 0021     		movs	r1, #0
 171 007c 82F82912 		strb	r1, [r2, #553]
 198:Drivers/STM32F1xx_HAL_Driver/Src/stm32f1xx_hal_pcd.c ****     hpcd->IN_ep[index].tx_fifo_num = index;
 172              		.loc 1 198 5 is_stmt 1 discriminator 3 view .LVU48
 198:Drivers/STM32F1xx_HAL_Driver/Src/stm32f1xx_hal_pcd.c ****     hpcd->IN_ep[index].tx_fifo_num = index;
 173              		.loc 1 198 29 is_stmt 0 discriminator 3 view .LVU49
 174 0080 82F82832 		strb	r3, [r2, #552]
 199:Drivers/STM32F1xx_HAL_Driver/Src/stm32f1xx_hal_pcd.c ****     /* Control until ep is activated */
 175              		.loc 1 199 5 is_stmt 1 discriminator 3 view .LVU50
 199:Drivers/STM32F1xx_HAL_Driver/Src/stm32f1xx_hal_pcd.c ****     /* Control until ep is activated */
 176              		.loc 1 199 36 is_stmt 0 discriminator 3 view .LVU51
 177 0084 9386     		strh	r3, [r2, #52]	@ movhi
 201:Drivers/STM32F1xx_HAL_Driver/Src/stm32f1xx_hal_pcd.c ****     hpcd->OUT_ep[index].maxpacket = 0U;
 178              		.loc 1 201 5 is_stmt 1 discriminator 3 view .LVU52
 201:Drivers/STM32F1xx_HAL_Driver/Src/stm32f1xx_hal_pcd.c ****     hpcd->OUT_ep[index].maxpacket = 0U;
 179              		.loc 1 201 30 is_stmt 0 discriminator 3 view .LVU53
 180 0086 82F82B12 		strb	r1, [r2, #555]
 202:Drivers/STM32F1xx_HAL_Driver/Src/stm32f1xx_hal_pcd.c ****     hpcd->OUT_ep[index].xfer_buff = 0U;
 181              		.loc 1 202 5 is_stmt 1 discriminator 3 view .LVU54
 202:Drivers/STM32F1xx_HAL_Driver/Src/stm32f1xx_hal_pcd.c ****     hpcd->OUT_ep[index].xfer_buff = 0U;
 182              		.loc 1 202 35 is_stmt 0 discriminator 3 view .LVU55
 183 008a C2F83812 		str	r1, [r2, #568]
 203:Drivers/STM32F1xx_HAL_Driver/Src/stm32f1xx_hal_pcd.c ****     hpcd->OUT_ep[index].xfer_len = 0U;
 184              		.loc 1 203 5 is_stmt 1 discriminator 3 view .LVU56
 203:Drivers/STM32F1xx_HAL_Driver/Src/stm32f1xx_hal_pcd.c ****     hpcd->OUT_ep[index].xfer_len = 0U;
 185              		.loc 1 203 35 is_stmt 0 discriminator 3 view .LVU57
 186 008e C2F83C12 		str	r1, [r2, #572]
 204:Drivers/STM32F1xx_HAL_Driver/Src/stm32f1xx_hal_pcd.c ****   }
 187              		.loc 1 204 5 is_stmt 1 discriminator 3 view .LVU58
 204:Drivers/STM32F1xx_HAL_Driver/Src/stm32f1xx_hal_pcd.c ****   }
 188              		.loc 1 204 34 is_stmt 0 discriminator 3 view .LVU59
 189 0092 03F11202 		add	r2, r3, #18
 190 0096 5201     		lsls	r2, r2, #5
 191 0098 A150     		str	r1, [r4, r2]
 195:Drivers/STM32F1xx_HAL_Driver/Src/stm32f1xx_hal_pcd.c ****   {
 192              		.loc 1 195 34 is_stmt 1 discriminator 3 view .LVU60
 195:Drivers/STM32F1xx_HAL_Driver/Src/stm32f1xx_hal_pcd.c ****   {
 193              		.loc 1 195 39 is_stmt 0 discriminator 3 view .LVU61
 194 009a 0133     		adds	r3, r3, #1
 195              	.LVL12:
 196              	.L7:
 195:Drivers/STM32F1xx_HAL_Driver/Src/stm32f1xx_hal_pcd.c ****   {
 197              		.loc 1 195 20 is_stmt 1 discriminator 1 view .LVU62
 195:Drivers/STM32F1xx_HAL_Driver/Src/stm32f1xx_hal_pcd.c ****   {
 198              		.loc 1 195 3 is_stmt 0 discriminator 1 view .LVU63
 199 009c 0E2B     		cmp	r3, #14
 200 009e EAD9     		bls	.L8
ARM GAS  /var/folders/rf/wfq6hz5s56g3yh4wqgd7820c0000gn/T//cc4VRrEg.s 			page 10


 208:Drivers/STM32F1xx_HAL_Driver/Src/stm32f1xx_hal_pcd.c ****   
 201              		.loc 1 208 3 is_stmt 1 view .LVU64
 208:Drivers/STM32F1xx_HAL_Driver/Src/stm32f1xx_hal_pcd.c ****   
 202              		.loc 1 208 19 is_stmt 0 view .LVU65
 203 00a0 2546     		mov	r5, r4
 204 00a2 55F8107B 		ldr	r7, [r5], #16
 208:Drivers/STM32F1xx_HAL_Driver/Src/stm32f1xx_hal_pcd.c ****   
 205              		.loc 1 208 3 view .LVU66
 206 00a6 6E46     		mov	r6, sp
 207 00a8 0FCD     		ldmia	r5!, {r0, r1, r2, r3}
 208              	.LVL13:
 208:Drivers/STM32F1xx_HAL_Driver/Src/stm32f1xx_hal_pcd.c ****   
 209              		.loc 1 208 3 view .LVU67
 210 00aa 0FC6     		stmia	r6!, {r0, r1, r2, r3}
 211 00ac 2B68     		ldr	r3, [r5]
 212 00ae 3360     		str	r3, [r6]
 213 00b0 231D     		adds	r3, r4, #4
 214 00b2 0ECB     		ldm	r3, {r1, r2, r3}
 215 00b4 3846     		mov	r0, r7
 216 00b6 FFF7FEFF 		bl	USB_DevInit
 217              	.LVL14:
 210:Drivers/STM32F1xx_HAL_Driver/Src/stm32f1xx_hal_pcd.c ****   hpcd->State= HAL_PCD_STATE_READY;
 218              		.loc 1 210 3 is_stmt 1 view .LVU68
 210:Drivers/STM32F1xx_HAL_Driver/Src/stm32f1xx_hal_pcd.c ****   hpcd->State= HAL_PCD_STATE_READY;
 219              		.loc 1 210 21 is_stmt 0 view .LVU69
 220 00ba 0025     		movs	r5, #0
 221 00bc 84F82450 		strb	r5, [r4, #36]
 211:Drivers/STM32F1xx_HAL_Driver/Src/stm32f1xx_hal_pcd.c ****   
 222              		.loc 1 211 3 is_stmt 1 view .LVU70
 211:Drivers/STM32F1xx_HAL_Driver/Src/stm32f1xx_hal_pcd.c ****   
 223              		.loc 1 211 14 is_stmt 0 view .LVU71
 224 00c0 0123     		movs	r3, #1
 225 00c2 84F82934 		strb	r3, [r4, #1065]
 213:Drivers/STM32F1xx_HAL_Driver/Src/stm32f1xx_hal_pcd.c ****   return HAL_OK;
 226              		.loc 1 213 3 is_stmt 1 view .LVU72
 227 00c6 2068     		ldr	r0, [r4]
 228 00c8 FFF7FEFF 		bl	USB_DevDisconnect
 229              	.LVL15:
 214:Drivers/STM32F1xx_HAL_Driver/Src/stm32f1xx_hal_pcd.c **** }
 230              		.loc 1 214 3 view .LVU73
 214:Drivers/STM32F1xx_HAL_Driver/Src/stm32f1xx_hal_pcd.c **** }
 231              		.loc 1 214 10 is_stmt 0 view .LVU74
 232 00cc 2846     		mov	r0, r5
 215:Drivers/STM32F1xx_HAL_Driver/Src/stm32f1xx_hal_pcd.c **** 
 233              		.loc 1 215 1 view .LVU75
 234 00ce 07B0     		add	sp, sp, #28
 235              	.LCFI2:
 236              		.cfi_def_cfa_offset 20
 237              		@ sp needed
 238 00d0 F0BD     		pop	{r4, r5, r6, r7, pc}
 239              	.LVL16:
 240              	.L9:
 241              	.LCFI3:
 242              		.cfi_def_cfa_offset 0
 243              		.cfi_restore 4
 244              		.cfi_restore 5
 245              		.cfi_restore 6
ARM GAS  /var/folders/rf/wfq6hz5s56g3yh4wqgd7820c0000gn/T//cc4VRrEg.s 			page 11


 246              		.cfi_restore 7
 247              		.cfi_restore 14
 155:Drivers/STM32F1xx_HAL_Driver/Src/stm32f1xx_hal_pcd.c ****   }
 248              		.loc 1 155 12 view .LVU76
 249 00d2 0120     		movs	r0, #1
 250              	.LVL17:
 215:Drivers/STM32F1xx_HAL_Driver/Src/stm32f1xx_hal_pcd.c **** 
 251              		.loc 1 215 1 view .LVU77
 252 00d4 7047     		bx	lr
 253              		.cfi_endproc
 254              	.LFE66:
 256              		.section	.text.HAL_PCD_MspDeInit,"ax",%progbits
 257              		.align	1
 258              		.weak	HAL_PCD_MspDeInit
 259              		.syntax unified
 260              		.thumb
 261              		.thumb_func
 262              		.fpu softvfp
 264              	HAL_PCD_MspDeInit:
 265              	.LVL18:
 266              	.LFB69:
 256:Drivers/STM32F1xx_HAL_Driver/Src/stm32f1xx_hal_pcd.c **** 
 257:Drivers/STM32F1xx_HAL_Driver/Src/stm32f1xx_hal_pcd.c **** /**
 258:Drivers/STM32F1xx_HAL_Driver/Src/stm32f1xx_hal_pcd.c ****   * @brief  DeInitializes PCD MSP.
 259:Drivers/STM32F1xx_HAL_Driver/Src/stm32f1xx_hal_pcd.c ****   * @param  hpcd: PCD handle
 260:Drivers/STM32F1xx_HAL_Driver/Src/stm32f1xx_hal_pcd.c ****   * @retval None
 261:Drivers/STM32F1xx_HAL_Driver/Src/stm32f1xx_hal_pcd.c ****   */
 262:Drivers/STM32F1xx_HAL_Driver/Src/stm32f1xx_hal_pcd.c **** __weak void HAL_PCD_MspDeInit(PCD_HandleTypeDef *hpcd)
 263:Drivers/STM32F1xx_HAL_Driver/Src/stm32f1xx_hal_pcd.c **** {
 267              		.loc 1 263 1 is_stmt 1 view -0
 268              		.cfi_startproc
 269              		@ args = 0, pretend = 0, frame = 0
 270              		@ frame_needed = 0, uses_anonymous_args = 0
 271              		@ link register save eliminated.
 264:Drivers/STM32F1xx_HAL_Driver/Src/stm32f1xx_hal_pcd.c ****   /* Prevent unused argument(s) compilation warning */
 265:Drivers/STM32F1xx_HAL_Driver/Src/stm32f1xx_hal_pcd.c ****   UNUSED(hpcd);
 272              		.loc 1 265 3 view .LVU79
 266:Drivers/STM32F1xx_HAL_Driver/Src/stm32f1xx_hal_pcd.c ****   /* NOTE : This function should not be modified, when the callback is needed,
 267:Drivers/STM32F1xx_HAL_Driver/Src/stm32f1xx_hal_pcd.c ****             the HAL_PCD_MspDeInit could be implemented in the user file
 268:Drivers/STM32F1xx_HAL_Driver/Src/stm32f1xx_hal_pcd.c ****    */
 269:Drivers/STM32F1xx_HAL_Driver/Src/stm32f1xx_hal_pcd.c **** }
 273              		.loc 1 269 1 is_stmt 0 view .LVU80
 274 0000 7047     		bx	lr
 275              		.cfi_endproc
 276              	.LFE69:
 278              		.section	.text.HAL_PCD_Start,"ax",%progbits
 279              		.align	1
 280              		.global	HAL_PCD_Start
 281              		.syntax unified
 282              		.thumb
 283              		.thumb_func
 284              		.fpu softvfp
 286              	HAL_PCD_Start:
 287              	.LVL19:
 288              	.LFB70:
 270:Drivers/STM32F1xx_HAL_Driver/Src/stm32f1xx_hal_pcd.c **** 
 271:Drivers/STM32F1xx_HAL_Driver/Src/stm32f1xx_hal_pcd.c **** /**
ARM GAS  /var/folders/rf/wfq6hz5s56g3yh4wqgd7820c0000gn/T//cc4VRrEg.s 			page 12


 272:Drivers/STM32F1xx_HAL_Driver/Src/stm32f1xx_hal_pcd.c ****   * @}
 273:Drivers/STM32F1xx_HAL_Driver/Src/stm32f1xx_hal_pcd.c ****   */
 274:Drivers/STM32F1xx_HAL_Driver/Src/stm32f1xx_hal_pcd.c **** 
 275:Drivers/STM32F1xx_HAL_Driver/Src/stm32f1xx_hal_pcd.c **** /** @defgroup PCD_Exported_Functions_Group2 IO operation functions 
 276:Drivers/STM32F1xx_HAL_Driver/Src/stm32f1xx_hal_pcd.c ****  *  @brief   Data transfers functions 
 277:Drivers/STM32F1xx_HAL_Driver/Src/stm32f1xx_hal_pcd.c ****  *
 278:Drivers/STM32F1xx_HAL_Driver/Src/stm32f1xx_hal_pcd.c **** @verbatim
 279:Drivers/STM32F1xx_HAL_Driver/Src/stm32f1xx_hal_pcd.c ****  ===============================================================================
 280:Drivers/STM32F1xx_HAL_Driver/Src/stm32f1xx_hal_pcd.c ****                       ##### IO operation functions #####
 281:Drivers/STM32F1xx_HAL_Driver/Src/stm32f1xx_hal_pcd.c ****  ===============================================================================
 282:Drivers/STM32F1xx_HAL_Driver/Src/stm32f1xx_hal_pcd.c ****     [..]
 283:Drivers/STM32F1xx_HAL_Driver/Src/stm32f1xx_hal_pcd.c ****     This subsection provides a set of functions allowing to manage the PCD data 
 284:Drivers/STM32F1xx_HAL_Driver/Src/stm32f1xx_hal_pcd.c ****     transfers.
 285:Drivers/STM32F1xx_HAL_Driver/Src/stm32f1xx_hal_pcd.c **** 
 286:Drivers/STM32F1xx_HAL_Driver/Src/stm32f1xx_hal_pcd.c **** @endverbatim
 287:Drivers/STM32F1xx_HAL_Driver/Src/stm32f1xx_hal_pcd.c ****   * @{
 288:Drivers/STM32F1xx_HAL_Driver/Src/stm32f1xx_hal_pcd.c ****   */
 289:Drivers/STM32F1xx_HAL_Driver/Src/stm32f1xx_hal_pcd.c **** 
 290:Drivers/STM32F1xx_HAL_Driver/Src/stm32f1xx_hal_pcd.c **** /**
 291:Drivers/STM32F1xx_HAL_Driver/Src/stm32f1xx_hal_pcd.c ****   * @brief  Start The USB Device.
 292:Drivers/STM32F1xx_HAL_Driver/Src/stm32f1xx_hal_pcd.c ****   * @param  hpcd: PCD handle
 293:Drivers/STM32F1xx_HAL_Driver/Src/stm32f1xx_hal_pcd.c ****   * @retval HAL status
 294:Drivers/STM32F1xx_HAL_Driver/Src/stm32f1xx_hal_pcd.c ****   */
 295:Drivers/STM32F1xx_HAL_Driver/Src/stm32f1xx_hal_pcd.c **** HAL_StatusTypeDef HAL_PCD_Start(PCD_HandleTypeDef *hpcd)
 296:Drivers/STM32F1xx_HAL_Driver/Src/stm32f1xx_hal_pcd.c **** {
 289              		.loc 1 296 1 is_stmt 1 view -0
 290              		.cfi_startproc
 291              		@ args = 0, pretend = 0, frame = 0
 292              		@ frame_needed = 0, uses_anonymous_args = 0
 297:Drivers/STM32F1xx_HAL_Driver/Src/stm32f1xx_hal_pcd.c ****   __HAL_LOCK(hpcd);
 293              		.loc 1 297 3 view .LVU82
 294              		.loc 1 297 3 view .LVU83
 295 0000 90F82834 		ldrb	r3, [r0, #1064]	@ zero_extendqisi2
 296 0004 012B     		cmp	r3, #1
 297 0006 10D0     		beq	.L18
 296:Drivers/STM32F1xx_HAL_Driver/Src/stm32f1xx_hal_pcd.c ****   __HAL_LOCK(hpcd);
 298              		.loc 1 296 1 is_stmt 0 discriminator 2 view .LVU84
 299 0008 10B5     		push	{r4, lr}
 300              	.LCFI4:
 301              		.cfi_def_cfa_offset 8
 302              		.cfi_offset 4, -8
 303              		.cfi_offset 14, -4
 304 000a 0446     		mov	r4, r0
 305              		.loc 1 297 3 is_stmt 1 discriminator 2 view .LVU85
 306 000c 0121     		movs	r1, #1
 307 000e 80F82814 		strb	r1, [r0, #1064]
 308              		.loc 1 297 3 discriminator 2 view .LVU86
 298:Drivers/STM32F1xx_HAL_Driver/Src/stm32f1xx_hal_pcd.c ****   HAL_PCDEx_SetConnectionState (hpcd, 1);
 309              		.loc 1 298 3 discriminator 2 view .LVU87
 310 0012 FFF7FEFF 		bl	HAL_PCDEx_SetConnectionState
 311              	.LVL20:
 299:Drivers/STM32F1xx_HAL_Driver/Src/stm32f1xx_hal_pcd.c ****   USB_DevConnect (hpcd->Instance);
 312              		.loc 1 299 3 discriminator 2 view .LVU88
 313 0016 2068     		ldr	r0, [r4]
 314 0018 FFF7FEFF 		bl	USB_DevConnect
 315              	.LVL21:
 300:Drivers/STM32F1xx_HAL_Driver/Src/stm32f1xx_hal_pcd.c ****   __HAL_PCD_ENABLE(hpcd);
ARM GAS  /var/folders/rf/wfq6hz5s56g3yh4wqgd7820c0000gn/T//cc4VRrEg.s 			page 13


 316              		.loc 1 300 3 discriminator 2 view .LVU89
 317 001c 2068     		ldr	r0, [r4]
 318 001e FFF7FEFF 		bl	USB_EnableGlobalInt
 319              	.LVL22:
 301:Drivers/STM32F1xx_HAL_Driver/Src/stm32f1xx_hal_pcd.c ****   __HAL_UNLOCK(hpcd);
 320              		.loc 1 301 3 discriminator 2 view .LVU90
 321              		.loc 1 301 3 discriminator 2 view .LVU91
 322 0022 0020     		movs	r0, #0
 323 0024 84F82804 		strb	r0, [r4, #1064]
 324              		.loc 1 301 3 discriminator 2 view .LVU92
 302:Drivers/STM32F1xx_HAL_Driver/Src/stm32f1xx_hal_pcd.c ****   return HAL_OK;
 325              		.loc 1 302 3 discriminator 2 view .LVU93
 303:Drivers/STM32F1xx_HAL_Driver/Src/stm32f1xx_hal_pcd.c **** }
 326              		.loc 1 303 1 is_stmt 0 discriminator 2 view .LVU94
 327 0028 10BD     		pop	{r4, pc}
 328              	.LVL23:
 329              	.L18:
 330              	.LCFI5:
 331              		.cfi_def_cfa_offset 0
 332              		.cfi_restore 4
 333              		.cfi_restore 14
 297:Drivers/STM32F1xx_HAL_Driver/Src/stm32f1xx_hal_pcd.c ****   HAL_PCDEx_SetConnectionState (hpcd, 1);
 334              		.loc 1 297 3 view .LVU95
 335 002a 0220     		movs	r0, #2
 336              	.LVL24:
 337              		.loc 1 303 1 view .LVU96
 338 002c 7047     		bx	lr
 339              		.cfi_endproc
 340              	.LFE70:
 342              		.section	.text.HAL_PCD_Stop,"ax",%progbits
 343              		.align	1
 344              		.global	HAL_PCD_Stop
 345              		.syntax unified
 346              		.thumb
 347              		.thumb_func
 348              		.fpu softvfp
 350              	HAL_PCD_Stop:
 351              	.LVL25:
 352              	.LFB71:
 304:Drivers/STM32F1xx_HAL_Driver/Src/stm32f1xx_hal_pcd.c **** 
 305:Drivers/STM32F1xx_HAL_Driver/Src/stm32f1xx_hal_pcd.c **** /**
 306:Drivers/STM32F1xx_HAL_Driver/Src/stm32f1xx_hal_pcd.c ****   * @brief  Stop The USB Device.
 307:Drivers/STM32F1xx_HAL_Driver/Src/stm32f1xx_hal_pcd.c ****   * @param  hpcd: PCD handle
 308:Drivers/STM32F1xx_HAL_Driver/Src/stm32f1xx_hal_pcd.c ****   * @retval HAL status
 309:Drivers/STM32F1xx_HAL_Driver/Src/stm32f1xx_hal_pcd.c ****   */
 310:Drivers/STM32F1xx_HAL_Driver/Src/stm32f1xx_hal_pcd.c **** HAL_StatusTypeDef HAL_PCD_Stop(PCD_HandleTypeDef *hpcd)
 311:Drivers/STM32F1xx_HAL_Driver/Src/stm32f1xx_hal_pcd.c **** {
 353              		.loc 1 311 1 is_stmt 1 view -0
 354              		.cfi_startproc
 355              		@ args = 0, pretend = 0, frame = 0
 356              		@ frame_needed = 0, uses_anonymous_args = 0
 312:Drivers/STM32F1xx_HAL_Driver/Src/stm32f1xx_hal_pcd.c ****   __HAL_LOCK(hpcd);
 357              		.loc 1 312 3 view .LVU98
 358              		.loc 1 312 3 view .LVU99
 359 0000 90F82834 		ldrb	r3, [r0, #1064]	@ zero_extendqisi2
 360 0004 012B     		cmp	r3, #1
 361 0006 11D0     		beq	.L25
ARM GAS  /var/folders/rf/wfq6hz5s56g3yh4wqgd7820c0000gn/T//cc4VRrEg.s 			page 14


 311:Drivers/STM32F1xx_HAL_Driver/Src/stm32f1xx_hal_pcd.c ****   __HAL_LOCK(hpcd);
 362              		.loc 1 311 1 is_stmt 0 discriminator 2 view .LVU100
 363 0008 10B5     		push	{r4, lr}
 364              	.LCFI6:
 365              		.cfi_def_cfa_offset 8
 366              		.cfi_offset 4, -8
 367              		.cfi_offset 14, -4
 368 000a 0446     		mov	r4, r0
 369              		.loc 1 312 3 is_stmt 1 discriminator 2 view .LVU101
 370 000c 0123     		movs	r3, #1
 371 000e 80F82834 		strb	r3, [r0, #1064]
 372              		.loc 1 312 3 discriminator 2 view .LVU102
 313:Drivers/STM32F1xx_HAL_Driver/Src/stm32f1xx_hal_pcd.c ****   __HAL_PCD_DISABLE(hpcd);
 373              		.loc 1 313 3 discriminator 2 view .LVU103
 374 0012 0068     		ldr	r0, [r0]
 375              	.LVL26:
 376              		.loc 1 313 3 is_stmt 0 discriminator 2 view .LVU104
 377 0014 FFF7FEFF 		bl	USB_DisableGlobalInt
 378              	.LVL27:
 314:Drivers/STM32F1xx_HAL_Driver/Src/stm32f1xx_hal_pcd.c ****   USB_StopDevice(hpcd->Instance);
 379              		.loc 1 314 3 is_stmt 1 discriminator 2 view .LVU105
 380 0018 2068     		ldr	r0, [r4]
 381 001a FFF7FEFF 		bl	USB_StopDevice
 382              	.LVL28:
 315:Drivers/STM32F1xx_HAL_Driver/Src/stm32f1xx_hal_pcd.c ****   USB_DevDisconnect (hpcd->Instance);
 383              		.loc 1 315 3 discriminator 2 view .LVU106
 384 001e 2068     		ldr	r0, [r4]
 385 0020 FFF7FEFF 		bl	USB_DevDisconnect
 386              	.LVL29:
 316:Drivers/STM32F1xx_HAL_Driver/Src/stm32f1xx_hal_pcd.c ****   __HAL_UNLOCK(hpcd);
 387              		.loc 1 316 3 discriminator 2 view .LVU107
 388              		.loc 1 316 3 discriminator 2 view .LVU108
 389 0024 0020     		movs	r0, #0
 390 0026 84F82804 		strb	r0, [r4, #1064]
 391              		.loc 1 316 3 discriminator 2 view .LVU109
 317:Drivers/STM32F1xx_HAL_Driver/Src/stm32f1xx_hal_pcd.c ****   return HAL_OK;
 392              		.loc 1 317 3 discriminator 2 view .LVU110
 318:Drivers/STM32F1xx_HAL_Driver/Src/stm32f1xx_hal_pcd.c **** }
 393              		.loc 1 318 1 is_stmt 0 discriminator 2 view .LVU111
 394 002a 10BD     		pop	{r4, pc}
 395              	.LVL30:
 396              	.L25:
 397              	.LCFI7:
 398              		.cfi_def_cfa_offset 0
 399              		.cfi_restore 4
 400              		.cfi_restore 14
 312:Drivers/STM32F1xx_HAL_Driver/Src/stm32f1xx_hal_pcd.c ****   __HAL_PCD_DISABLE(hpcd);
 401              		.loc 1 312 3 view .LVU112
 402 002c 0220     		movs	r0, #2
 403              	.LVL31:
 404              		.loc 1 318 1 view .LVU113
 405 002e 7047     		bx	lr
 406              		.cfi_endproc
 407              	.LFE71:
 409              		.section	.text.HAL_PCD_DeInit,"ax",%progbits
 410              		.align	1
 411              		.global	HAL_PCD_DeInit
ARM GAS  /var/folders/rf/wfq6hz5s56g3yh4wqgd7820c0000gn/T//cc4VRrEg.s 			page 15


 412              		.syntax unified
 413              		.thumb
 414              		.thumb_func
 415              		.fpu softvfp
 417              	HAL_PCD_DeInit:
 418              	.LVL32:
 419              	.LFB67:
 223:Drivers/STM32F1xx_HAL_Driver/Src/stm32f1xx_hal_pcd.c ****   /* Check the PCD handle allocation */
 420              		.loc 1 223 1 is_stmt 1 view -0
 421              		.cfi_startproc
 422              		@ args = 0, pretend = 0, frame = 0
 423              		@ frame_needed = 0, uses_anonymous_args = 0
 225:Drivers/STM32F1xx_HAL_Driver/Src/stm32f1xx_hal_pcd.c ****   {
 424              		.loc 1 225 3 view .LVU115
 225:Drivers/STM32F1xx_HAL_Driver/Src/stm32f1xx_hal_pcd.c ****   {
 425              		.loc 1 225 5 is_stmt 0 view .LVU116
 426 0000 68B1     		cbz	r0, .L32
 223:Drivers/STM32F1xx_HAL_Driver/Src/stm32f1xx_hal_pcd.c ****   /* Check the PCD handle allocation */
 427              		.loc 1 223 1 view .LVU117
 428 0002 10B5     		push	{r4, lr}
 429              	.LCFI8:
 430              		.cfi_def_cfa_offset 8
 431              		.cfi_offset 4, -8
 432              		.cfi_offset 14, -4
 433 0004 0446     		mov	r4, r0
 230:Drivers/STM32F1xx_HAL_Driver/Src/stm32f1xx_hal_pcd.c ****   
 434              		.loc 1 230 3 is_stmt 1 view .LVU118
 230:Drivers/STM32F1xx_HAL_Driver/Src/stm32f1xx_hal_pcd.c ****   
 435              		.loc 1 230 15 is_stmt 0 view .LVU119
 436 0006 0323     		movs	r3, #3
 437 0008 80F82934 		strb	r3, [r0, #1065]
 233:Drivers/STM32F1xx_HAL_Driver/Src/stm32f1xx_hal_pcd.c ****   
 438              		.loc 1 233 3 is_stmt 1 view .LVU120
 439 000c FFF7FEFF 		bl	HAL_PCD_Stop
 440              	.LVL33:
 236:Drivers/STM32F1xx_HAL_Driver/Src/stm32f1xx_hal_pcd.c ****   
 441              		.loc 1 236 3 view .LVU121
 442 0010 2046     		mov	r0, r4
 443 0012 FFF7FEFF 		bl	HAL_PCD_MspDeInit
 444              	.LVL34:
 238:Drivers/STM32F1xx_HAL_Driver/Src/stm32f1xx_hal_pcd.c ****   
 445              		.loc 1 238 3 view .LVU122
 238:Drivers/STM32F1xx_HAL_Driver/Src/stm32f1xx_hal_pcd.c ****   
 446              		.loc 1 238 15 is_stmt 0 view .LVU123
 447 0016 0020     		movs	r0, #0
 448 0018 84F82904 		strb	r0, [r4, #1065]
 240:Drivers/STM32F1xx_HAL_Driver/Src/stm32f1xx_hal_pcd.c **** }
 449              		.loc 1 240 3 is_stmt 1 view .LVU124
 241:Drivers/STM32F1xx_HAL_Driver/Src/stm32f1xx_hal_pcd.c **** 
 450              		.loc 1 241 1 is_stmt 0 view .LVU125
 451 001c 10BD     		pop	{r4, pc}
 452              	.LVL35:
 453              	.L32:
 454              	.LCFI9:
 455              		.cfi_def_cfa_offset 0
 456              		.cfi_restore 4
 457              		.cfi_restore 14
ARM GAS  /var/folders/rf/wfq6hz5s56g3yh4wqgd7820c0000gn/T//cc4VRrEg.s 			page 16


 227:Drivers/STM32F1xx_HAL_Driver/Src/stm32f1xx_hal_pcd.c ****   }
 458              		.loc 1 227 12 view .LVU126
 459 001e 0120     		movs	r0, #1
 460              	.LVL36:
 241:Drivers/STM32F1xx_HAL_Driver/Src/stm32f1xx_hal_pcd.c **** 
 461              		.loc 1 241 1 view .LVU127
 462 0020 7047     		bx	lr
 463              		.cfi_endproc
 464              	.LFE67:
 466              		.section	.text.HAL_PCD_DataOutStageCallback,"ax",%progbits
 467              		.align	1
 468              		.weak	HAL_PCD_DataOutStageCallback
 469              		.syntax unified
 470              		.thumb
 471              		.thumb_func
 472              		.fpu softvfp
 474              	HAL_PCD_DataOutStageCallback:
 475              	.LVL37:
 476              	.LFB73:
 319:Drivers/STM32F1xx_HAL_Driver/Src/stm32f1xx_hal_pcd.c **** 
 320:Drivers/STM32F1xx_HAL_Driver/Src/stm32f1xx_hal_pcd.c **** #if defined (USB_OTG_FS)
 321:Drivers/STM32F1xx_HAL_Driver/Src/stm32f1xx_hal_pcd.c **** /**
 322:Drivers/STM32F1xx_HAL_Driver/Src/stm32f1xx_hal_pcd.c ****   * @brief  This function handles PCD interrupt request.
 323:Drivers/STM32F1xx_HAL_Driver/Src/stm32f1xx_hal_pcd.c ****   * @param  hpcd: PCD handle
 324:Drivers/STM32F1xx_HAL_Driver/Src/stm32f1xx_hal_pcd.c ****   * @retval HAL status
 325:Drivers/STM32F1xx_HAL_Driver/Src/stm32f1xx_hal_pcd.c ****   */
 326:Drivers/STM32F1xx_HAL_Driver/Src/stm32f1xx_hal_pcd.c **** void HAL_PCD_IRQHandler(PCD_HandleTypeDef *hpcd)
 327:Drivers/STM32F1xx_HAL_Driver/Src/stm32f1xx_hal_pcd.c **** {
 328:Drivers/STM32F1xx_HAL_Driver/Src/stm32f1xx_hal_pcd.c ****   USB_OTG_GlobalTypeDef *USBx = hpcd->Instance;
 329:Drivers/STM32F1xx_HAL_Driver/Src/stm32f1xx_hal_pcd.c ****   uint32_t index = 0U, ep_intr = 0U, epint = 0U, epnum = 0U;
 330:Drivers/STM32F1xx_HAL_Driver/Src/stm32f1xx_hal_pcd.c ****   uint32_t fifoemptymsk = 0U, temp = 0U;
 331:Drivers/STM32F1xx_HAL_Driver/Src/stm32f1xx_hal_pcd.c ****   USB_OTG_EPTypeDef *ep = NULL;
 332:Drivers/STM32F1xx_HAL_Driver/Src/stm32f1xx_hal_pcd.c ****   
 333:Drivers/STM32F1xx_HAL_Driver/Src/stm32f1xx_hal_pcd.c ****   /* ensure that we are in device mode */
 334:Drivers/STM32F1xx_HAL_Driver/Src/stm32f1xx_hal_pcd.c ****   if (USB_GetMode(hpcd->Instance) == USB_OTG_MODE_DEVICE)
 335:Drivers/STM32F1xx_HAL_Driver/Src/stm32f1xx_hal_pcd.c ****   {
 336:Drivers/STM32F1xx_HAL_Driver/Src/stm32f1xx_hal_pcd.c ****     /* avoid spurious interrupt */
 337:Drivers/STM32F1xx_HAL_Driver/Src/stm32f1xx_hal_pcd.c ****     if(__HAL_PCD_IS_INVALID_INTERRUPT(hpcd))
 338:Drivers/STM32F1xx_HAL_Driver/Src/stm32f1xx_hal_pcd.c ****     {
 339:Drivers/STM32F1xx_HAL_Driver/Src/stm32f1xx_hal_pcd.c ****       return;
 340:Drivers/STM32F1xx_HAL_Driver/Src/stm32f1xx_hal_pcd.c ****     }
 341:Drivers/STM32F1xx_HAL_Driver/Src/stm32f1xx_hal_pcd.c ****     
 342:Drivers/STM32F1xx_HAL_Driver/Src/stm32f1xx_hal_pcd.c ****     if(__HAL_PCD_GET_FLAG(hpcd, USB_OTG_GINTSTS_MMIS))
 343:Drivers/STM32F1xx_HAL_Driver/Src/stm32f1xx_hal_pcd.c ****     {
 344:Drivers/STM32F1xx_HAL_Driver/Src/stm32f1xx_hal_pcd.c ****      /* incorrect mode, acknowledge the interrupt */
 345:Drivers/STM32F1xx_HAL_Driver/Src/stm32f1xx_hal_pcd.c ****       __HAL_PCD_CLEAR_FLAG(hpcd, USB_OTG_GINTSTS_MMIS);
 346:Drivers/STM32F1xx_HAL_Driver/Src/stm32f1xx_hal_pcd.c ****     }
 347:Drivers/STM32F1xx_HAL_Driver/Src/stm32f1xx_hal_pcd.c ****     
 348:Drivers/STM32F1xx_HAL_Driver/Src/stm32f1xx_hal_pcd.c ****     if(__HAL_PCD_GET_FLAG(hpcd, USB_OTG_GINTSTS_OEPINT))
 349:Drivers/STM32F1xx_HAL_Driver/Src/stm32f1xx_hal_pcd.c ****     {
 350:Drivers/STM32F1xx_HAL_Driver/Src/stm32f1xx_hal_pcd.c ****       epnum = 0U;
 351:Drivers/STM32F1xx_HAL_Driver/Src/stm32f1xx_hal_pcd.c ****       
 352:Drivers/STM32F1xx_HAL_Driver/Src/stm32f1xx_hal_pcd.c ****       /* Read in the device interrupt bits */
 353:Drivers/STM32F1xx_HAL_Driver/Src/stm32f1xx_hal_pcd.c ****       ep_intr = USB_ReadDevAllOutEpInterrupt(hpcd->Instance);
 354:Drivers/STM32F1xx_HAL_Driver/Src/stm32f1xx_hal_pcd.c ****       
 355:Drivers/STM32F1xx_HAL_Driver/Src/stm32f1xx_hal_pcd.c ****       while ( ep_intr )
 356:Drivers/STM32F1xx_HAL_Driver/Src/stm32f1xx_hal_pcd.c ****       {
ARM GAS  /var/folders/rf/wfq6hz5s56g3yh4wqgd7820c0000gn/T//cc4VRrEg.s 			page 17


 357:Drivers/STM32F1xx_HAL_Driver/Src/stm32f1xx_hal_pcd.c ****         if (ep_intr & 0x1U)
 358:Drivers/STM32F1xx_HAL_Driver/Src/stm32f1xx_hal_pcd.c ****         {
 359:Drivers/STM32F1xx_HAL_Driver/Src/stm32f1xx_hal_pcd.c ****           epint = USB_ReadDevOutEPInterrupt(hpcd->Instance, epnum);
 360:Drivers/STM32F1xx_HAL_Driver/Src/stm32f1xx_hal_pcd.c ****           
 361:Drivers/STM32F1xx_HAL_Driver/Src/stm32f1xx_hal_pcd.c ****           if(( epint & USB_OTG_DOEPINT_XFRC) == USB_OTG_DOEPINT_XFRC)
 362:Drivers/STM32F1xx_HAL_Driver/Src/stm32f1xx_hal_pcd.c ****           {
 363:Drivers/STM32F1xx_HAL_Driver/Src/stm32f1xx_hal_pcd.c ****             CLEAR_OUT_EP_INTR(epnum, USB_OTG_DOEPINT_XFRC);
 364:Drivers/STM32F1xx_HAL_Driver/Src/stm32f1xx_hal_pcd.c ****             
 365:Drivers/STM32F1xx_HAL_Driver/Src/stm32f1xx_hal_pcd.c ****             HAL_PCD_DataOutStageCallback(hpcd, epnum);
 366:Drivers/STM32F1xx_HAL_Driver/Src/stm32f1xx_hal_pcd.c ****           }
 367:Drivers/STM32F1xx_HAL_Driver/Src/stm32f1xx_hal_pcd.c ****           
 368:Drivers/STM32F1xx_HAL_Driver/Src/stm32f1xx_hal_pcd.c ****           if(( epint & USB_OTG_DOEPINT_STUP) == USB_OTG_DOEPINT_STUP)
 369:Drivers/STM32F1xx_HAL_Driver/Src/stm32f1xx_hal_pcd.c ****           {
 370:Drivers/STM32F1xx_HAL_Driver/Src/stm32f1xx_hal_pcd.c ****             /* Inform the upper layer that a setup packet is available */
 371:Drivers/STM32F1xx_HAL_Driver/Src/stm32f1xx_hal_pcd.c ****             HAL_PCD_SetupStageCallback(hpcd);
 372:Drivers/STM32F1xx_HAL_Driver/Src/stm32f1xx_hal_pcd.c ****             CLEAR_OUT_EP_INTR(epnum, USB_OTG_DOEPINT_STUP);
 373:Drivers/STM32F1xx_HAL_Driver/Src/stm32f1xx_hal_pcd.c ****           }
 374:Drivers/STM32F1xx_HAL_Driver/Src/stm32f1xx_hal_pcd.c ****           
 375:Drivers/STM32F1xx_HAL_Driver/Src/stm32f1xx_hal_pcd.c ****           if(( epint & USB_OTG_DOEPINT_OTEPDIS) == USB_OTG_DOEPINT_OTEPDIS)
 376:Drivers/STM32F1xx_HAL_Driver/Src/stm32f1xx_hal_pcd.c ****           {
 377:Drivers/STM32F1xx_HAL_Driver/Src/stm32f1xx_hal_pcd.c ****             CLEAR_OUT_EP_INTR(epnum, USB_OTG_DOEPINT_OTEPDIS);
 378:Drivers/STM32F1xx_HAL_Driver/Src/stm32f1xx_hal_pcd.c ****           }
 379:Drivers/STM32F1xx_HAL_Driver/Src/stm32f1xx_hal_pcd.c ****         }
 380:Drivers/STM32F1xx_HAL_Driver/Src/stm32f1xx_hal_pcd.c ****         epnum++;
 381:Drivers/STM32F1xx_HAL_Driver/Src/stm32f1xx_hal_pcd.c ****         ep_intr >>= 1U;
 382:Drivers/STM32F1xx_HAL_Driver/Src/stm32f1xx_hal_pcd.c ****       }
 383:Drivers/STM32F1xx_HAL_Driver/Src/stm32f1xx_hal_pcd.c ****     }
 384:Drivers/STM32F1xx_HAL_Driver/Src/stm32f1xx_hal_pcd.c ****     
 385:Drivers/STM32F1xx_HAL_Driver/Src/stm32f1xx_hal_pcd.c ****     if(__HAL_PCD_GET_FLAG(hpcd, USB_OTG_GINTSTS_IEPINT))
 386:Drivers/STM32F1xx_HAL_Driver/Src/stm32f1xx_hal_pcd.c ****     {
 387:Drivers/STM32F1xx_HAL_Driver/Src/stm32f1xx_hal_pcd.c ****       /* Read in the device interrupt bits */
 388:Drivers/STM32F1xx_HAL_Driver/Src/stm32f1xx_hal_pcd.c ****       ep_intr = USB_ReadDevAllInEpInterrupt(hpcd->Instance);
 389:Drivers/STM32F1xx_HAL_Driver/Src/stm32f1xx_hal_pcd.c ****       
 390:Drivers/STM32F1xx_HAL_Driver/Src/stm32f1xx_hal_pcd.c ****       epnum = 0U;
 391:Drivers/STM32F1xx_HAL_Driver/Src/stm32f1xx_hal_pcd.c ****       
 392:Drivers/STM32F1xx_HAL_Driver/Src/stm32f1xx_hal_pcd.c ****       while ( ep_intr )
 393:Drivers/STM32F1xx_HAL_Driver/Src/stm32f1xx_hal_pcd.c ****       {
 394:Drivers/STM32F1xx_HAL_Driver/Src/stm32f1xx_hal_pcd.c ****         if (ep_intr & 0x1U) /* In ITR */
 395:Drivers/STM32F1xx_HAL_Driver/Src/stm32f1xx_hal_pcd.c ****         {
 396:Drivers/STM32F1xx_HAL_Driver/Src/stm32f1xx_hal_pcd.c ****           epint = USB_ReadDevInEPInterrupt(hpcd->Instance, epnum);
 397:Drivers/STM32F1xx_HAL_Driver/Src/stm32f1xx_hal_pcd.c **** 
 398:Drivers/STM32F1xx_HAL_Driver/Src/stm32f1xx_hal_pcd.c ****           if(( epint & USB_OTG_DIEPINT_XFRC) == USB_OTG_DIEPINT_XFRC)
 399:Drivers/STM32F1xx_HAL_Driver/Src/stm32f1xx_hal_pcd.c ****           {
 400:Drivers/STM32F1xx_HAL_Driver/Src/stm32f1xx_hal_pcd.c ****             fifoemptymsk = 0x1U << epnum;
 401:Drivers/STM32F1xx_HAL_Driver/Src/stm32f1xx_hal_pcd.c ****             USBx_DEVICE->DIEPEMPMSK &= ~fifoemptymsk;
 402:Drivers/STM32F1xx_HAL_Driver/Src/stm32f1xx_hal_pcd.c ****             
 403:Drivers/STM32F1xx_HAL_Driver/Src/stm32f1xx_hal_pcd.c ****             CLEAR_IN_EP_INTR(epnum, USB_OTG_DIEPINT_XFRC);
 404:Drivers/STM32F1xx_HAL_Driver/Src/stm32f1xx_hal_pcd.c ****             
 405:Drivers/STM32F1xx_HAL_Driver/Src/stm32f1xx_hal_pcd.c ****             HAL_PCD_DataInStageCallback(hpcd, epnum);
 406:Drivers/STM32F1xx_HAL_Driver/Src/stm32f1xx_hal_pcd.c ****           }
 407:Drivers/STM32F1xx_HAL_Driver/Src/stm32f1xx_hal_pcd.c ****           if(( epint & USB_OTG_DIEPINT_TOC) == USB_OTG_DIEPINT_TOC)
 408:Drivers/STM32F1xx_HAL_Driver/Src/stm32f1xx_hal_pcd.c ****           {
 409:Drivers/STM32F1xx_HAL_Driver/Src/stm32f1xx_hal_pcd.c ****             CLEAR_IN_EP_INTR(epnum, USB_OTG_DIEPINT_TOC);
 410:Drivers/STM32F1xx_HAL_Driver/Src/stm32f1xx_hal_pcd.c ****           }
 411:Drivers/STM32F1xx_HAL_Driver/Src/stm32f1xx_hal_pcd.c ****           if(( epint & USB_OTG_DIEPINT_ITTXFE) == USB_OTG_DIEPINT_ITTXFE)
 412:Drivers/STM32F1xx_HAL_Driver/Src/stm32f1xx_hal_pcd.c ****           {
 413:Drivers/STM32F1xx_HAL_Driver/Src/stm32f1xx_hal_pcd.c ****             CLEAR_IN_EP_INTR(epnum, USB_OTG_DIEPINT_ITTXFE);
ARM GAS  /var/folders/rf/wfq6hz5s56g3yh4wqgd7820c0000gn/T//cc4VRrEg.s 			page 18


 414:Drivers/STM32F1xx_HAL_Driver/Src/stm32f1xx_hal_pcd.c ****           }
 415:Drivers/STM32F1xx_HAL_Driver/Src/stm32f1xx_hal_pcd.c ****           if(( epint & USB_OTG_DIEPINT_INEPNE) == USB_OTG_DIEPINT_INEPNE)
 416:Drivers/STM32F1xx_HAL_Driver/Src/stm32f1xx_hal_pcd.c ****           {
 417:Drivers/STM32F1xx_HAL_Driver/Src/stm32f1xx_hal_pcd.c ****             CLEAR_IN_EP_INTR(epnum, USB_OTG_DIEPINT_INEPNE);
 418:Drivers/STM32F1xx_HAL_Driver/Src/stm32f1xx_hal_pcd.c ****           }
 419:Drivers/STM32F1xx_HAL_Driver/Src/stm32f1xx_hal_pcd.c ****           if(( epint & USB_OTG_DIEPINT_EPDISD) == USB_OTG_DIEPINT_EPDISD)
 420:Drivers/STM32F1xx_HAL_Driver/Src/stm32f1xx_hal_pcd.c ****           {
 421:Drivers/STM32F1xx_HAL_Driver/Src/stm32f1xx_hal_pcd.c ****             CLEAR_IN_EP_INTR(epnum, USB_OTG_DIEPINT_EPDISD);
 422:Drivers/STM32F1xx_HAL_Driver/Src/stm32f1xx_hal_pcd.c ****           }
 423:Drivers/STM32F1xx_HAL_Driver/Src/stm32f1xx_hal_pcd.c ****           if(( epint & USB_OTG_DIEPINT_TXFE) == USB_OTG_DIEPINT_TXFE)
 424:Drivers/STM32F1xx_HAL_Driver/Src/stm32f1xx_hal_pcd.c ****           {
 425:Drivers/STM32F1xx_HAL_Driver/Src/stm32f1xx_hal_pcd.c ****             PCD_WriteEmptyTxFifo(hpcd , epnum);
 426:Drivers/STM32F1xx_HAL_Driver/Src/stm32f1xx_hal_pcd.c ****           }
 427:Drivers/STM32F1xx_HAL_Driver/Src/stm32f1xx_hal_pcd.c ****         }
 428:Drivers/STM32F1xx_HAL_Driver/Src/stm32f1xx_hal_pcd.c ****         epnum++;
 429:Drivers/STM32F1xx_HAL_Driver/Src/stm32f1xx_hal_pcd.c ****         ep_intr >>= 1U;
 430:Drivers/STM32F1xx_HAL_Driver/Src/stm32f1xx_hal_pcd.c ****       }
 431:Drivers/STM32F1xx_HAL_Driver/Src/stm32f1xx_hal_pcd.c ****     }
 432:Drivers/STM32F1xx_HAL_Driver/Src/stm32f1xx_hal_pcd.c ****     
 433:Drivers/STM32F1xx_HAL_Driver/Src/stm32f1xx_hal_pcd.c ****     /* Handle Resume Interrupt */
 434:Drivers/STM32F1xx_HAL_Driver/Src/stm32f1xx_hal_pcd.c ****     if(__HAL_PCD_GET_FLAG(hpcd, USB_OTG_GINTSTS_WKUINT))
 435:Drivers/STM32F1xx_HAL_Driver/Src/stm32f1xx_hal_pcd.c ****     {
 436:Drivers/STM32F1xx_HAL_Driver/Src/stm32f1xx_hal_pcd.c ****      /* Clear the Remote Wake-up signalling */
 437:Drivers/STM32F1xx_HAL_Driver/Src/stm32f1xx_hal_pcd.c ****       USBx_DEVICE->DCTL &= ~USB_OTG_DCTL_RWUSIG;
 438:Drivers/STM32F1xx_HAL_Driver/Src/stm32f1xx_hal_pcd.c ****      
 439:Drivers/STM32F1xx_HAL_Driver/Src/stm32f1xx_hal_pcd.c ****      HAL_PCD_ResumeCallback(hpcd);
 440:Drivers/STM32F1xx_HAL_Driver/Src/stm32f1xx_hal_pcd.c ****      
 441:Drivers/STM32F1xx_HAL_Driver/Src/stm32f1xx_hal_pcd.c ****      __HAL_PCD_CLEAR_FLAG(hpcd, USB_OTG_GINTSTS_WKUINT);
 442:Drivers/STM32F1xx_HAL_Driver/Src/stm32f1xx_hal_pcd.c ****     }
 443:Drivers/STM32F1xx_HAL_Driver/Src/stm32f1xx_hal_pcd.c ****     
 444:Drivers/STM32F1xx_HAL_Driver/Src/stm32f1xx_hal_pcd.c ****     /* Handle Suspend Interrupt */
 445:Drivers/STM32F1xx_HAL_Driver/Src/stm32f1xx_hal_pcd.c ****     if(__HAL_PCD_GET_FLAG(hpcd, USB_OTG_GINTSTS_USBSUSP))
 446:Drivers/STM32F1xx_HAL_Driver/Src/stm32f1xx_hal_pcd.c ****     {
 447:Drivers/STM32F1xx_HAL_Driver/Src/stm32f1xx_hal_pcd.c ****       if((USBx_DEVICE->DSTS & USB_OTG_DSTS_SUSPSTS) == USB_OTG_DSTS_SUSPSTS)
 448:Drivers/STM32F1xx_HAL_Driver/Src/stm32f1xx_hal_pcd.c ****       {
 449:Drivers/STM32F1xx_HAL_Driver/Src/stm32f1xx_hal_pcd.c ****         
 450:Drivers/STM32F1xx_HAL_Driver/Src/stm32f1xx_hal_pcd.c ****         HAL_PCD_SuspendCallback(hpcd);
 451:Drivers/STM32F1xx_HAL_Driver/Src/stm32f1xx_hal_pcd.c ****       }
 452:Drivers/STM32F1xx_HAL_Driver/Src/stm32f1xx_hal_pcd.c ****       __HAL_PCD_CLEAR_FLAG(hpcd, USB_OTG_GINTSTS_USBSUSP);
 453:Drivers/STM32F1xx_HAL_Driver/Src/stm32f1xx_hal_pcd.c ****     }
 454:Drivers/STM32F1xx_HAL_Driver/Src/stm32f1xx_hal_pcd.c **** 
 455:Drivers/STM32F1xx_HAL_Driver/Src/stm32f1xx_hal_pcd.c ****     /* Handle Reset Interrupt */
 456:Drivers/STM32F1xx_HAL_Driver/Src/stm32f1xx_hal_pcd.c ****     if(__HAL_PCD_GET_FLAG(hpcd, USB_OTG_GINTSTS_USBRST))
 457:Drivers/STM32F1xx_HAL_Driver/Src/stm32f1xx_hal_pcd.c ****     {
 458:Drivers/STM32F1xx_HAL_Driver/Src/stm32f1xx_hal_pcd.c ****       USBx_DEVICE->DCTL &= ~USB_OTG_DCTL_RWUSIG; 
 459:Drivers/STM32F1xx_HAL_Driver/Src/stm32f1xx_hal_pcd.c ****       USB_FlushTxFifo(hpcd->Instance ,  0x10U);
 460:Drivers/STM32F1xx_HAL_Driver/Src/stm32f1xx_hal_pcd.c ****       
 461:Drivers/STM32F1xx_HAL_Driver/Src/stm32f1xx_hal_pcd.c ****       for (index = 0U; index < hpcd->Init.dev_endpoints ; index++)
 462:Drivers/STM32F1xx_HAL_Driver/Src/stm32f1xx_hal_pcd.c ****       {
 463:Drivers/STM32F1xx_HAL_Driver/Src/stm32f1xx_hal_pcd.c ****         USBx_INEP(index)->DIEPINT = 0xFFU;
 464:Drivers/STM32F1xx_HAL_Driver/Src/stm32f1xx_hal_pcd.c ****         USBx_OUTEP(index)->DOEPINT = 0xFFU;
 465:Drivers/STM32F1xx_HAL_Driver/Src/stm32f1xx_hal_pcd.c ****       }
 466:Drivers/STM32F1xx_HAL_Driver/Src/stm32f1xx_hal_pcd.c ****       USBx_DEVICE->DAINT = 0xFFFFFFFFU;
 467:Drivers/STM32F1xx_HAL_Driver/Src/stm32f1xx_hal_pcd.c ****       USBx_DEVICE->DAINTMSK |= 0x10001U;
 468:Drivers/STM32F1xx_HAL_Driver/Src/stm32f1xx_hal_pcd.c ****       
 469:Drivers/STM32F1xx_HAL_Driver/Src/stm32f1xx_hal_pcd.c ****       USBx_DEVICE->DOEPMSK |= (USB_OTG_DOEPMSK_STUPM | USB_OTG_DOEPMSK_XFRCM | USB_OTG_DOEPMSK_EPDM
 470:Drivers/STM32F1xx_HAL_Driver/Src/stm32f1xx_hal_pcd.c ****       USBx_DEVICE->DIEPMSK |= (USB_OTG_DIEPMSK_TOM | USB_OTG_DIEPMSK_XFRCM | USB_OTG_DIEPMSK_EPDM);
ARM GAS  /var/folders/rf/wfq6hz5s56g3yh4wqgd7820c0000gn/T//cc4VRrEg.s 			page 19


 471:Drivers/STM32F1xx_HAL_Driver/Src/stm32f1xx_hal_pcd.c ****       
 472:Drivers/STM32F1xx_HAL_Driver/Src/stm32f1xx_hal_pcd.c ****       /* Set Default Address to 0 */
 473:Drivers/STM32F1xx_HAL_Driver/Src/stm32f1xx_hal_pcd.c ****       USBx_DEVICE->DCFG &= ~USB_OTG_DCFG_DAD;
 474:Drivers/STM32F1xx_HAL_Driver/Src/stm32f1xx_hal_pcd.c ****       
 475:Drivers/STM32F1xx_HAL_Driver/Src/stm32f1xx_hal_pcd.c ****       /* setup EP0 to receive SETUP packets */
 476:Drivers/STM32F1xx_HAL_Driver/Src/stm32f1xx_hal_pcd.c ****       USB_EP0_OutStart(hpcd->Instance, (uint8_t *)hpcd->Setup);
 477:Drivers/STM32F1xx_HAL_Driver/Src/stm32f1xx_hal_pcd.c ****       
 478:Drivers/STM32F1xx_HAL_Driver/Src/stm32f1xx_hal_pcd.c ****       __HAL_PCD_CLEAR_FLAG(hpcd, USB_OTG_GINTSTS_USBRST);
 479:Drivers/STM32F1xx_HAL_Driver/Src/stm32f1xx_hal_pcd.c ****     }
 480:Drivers/STM32F1xx_HAL_Driver/Src/stm32f1xx_hal_pcd.c ****     
 481:Drivers/STM32F1xx_HAL_Driver/Src/stm32f1xx_hal_pcd.c ****     /* Handle Enumeration done Interrupt */
 482:Drivers/STM32F1xx_HAL_Driver/Src/stm32f1xx_hal_pcd.c ****     if(__HAL_PCD_GET_FLAG(hpcd, USB_OTG_GINTSTS_ENUMDNE))
 483:Drivers/STM32F1xx_HAL_Driver/Src/stm32f1xx_hal_pcd.c ****     {
 484:Drivers/STM32F1xx_HAL_Driver/Src/stm32f1xx_hal_pcd.c ****       USB_ActivateSetup(hpcd->Instance);
 485:Drivers/STM32F1xx_HAL_Driver/Src/stm32f1xx_hal_pcd.c ****       hpcd->Instance->GUSBCFG &= ~USB_OTG_GUSBCFG_TRDT;
 486:Drivers/STM32F1xx_HAL_Driver/Src/stm32f1xx_hal_pcd.c ****       
 487:Drivers/STM32F1xx_HAL_Driver/Src/stm32f1xx_hal_pcd.c ****       hpcd->Init.speed            = USB_OTG_SPEED_FULL;
 488:Drivers/STM32F1xx_HAL_Driver/Src/stm32f1xx_hal_pcd.c ****       hpcd->Init.ep0_mps          = USB_OTG_FS_MAX_PACKET_SIZE ;
 489:Drivers/STM32F1xx_HAL_Driver/Src/stm32f1xx_hal_pcd.c ****       hpcd->Instance->GUSBCFG |= (uint32_t)((USBD_FS_TRDT_VALUE << 10U) & USB_OTG_GUSBCFG_TRDT);
 490:Drivers/STM32F1xx_HAL_Driver/Src/stm32f1xx_hal_pcd.c ****       
 491:Drivers/STM32F1xx_HAL_Driver/Src/stm32f1xx_hal_pcd.c ****       HAL_PCD_ResetCallback(hpcd);
 492:Drivers/STM32F1xx_HAL_Driver/Src/stm32f1xx_hal_pcd.c ****       
 493:Drivers/STM32F1xx_HAL_Driver/Src/stm32f1xx_hal_pcd.c ****       __HAL_PCD_CLEAR_FLAG(hpcd, USB_OTG_GINTSTS_ENUMDNE);
 494:Drivers/STM32F1xx_HAL_Driver/Src/stm32f1xx_hal_pcd.c ****     }
 495:Drivers/STM32F1xx_HAL_Driver/Src/stm32f1xx_hal_pcd.c **** 
 496:Drivers/STM32F1xx_HAL_Driver/Src/stm32f1xx_hal_pcd.c ****     /* Handle RxQLevel Interrupt */
 497:Drivers/STM32F1xx_HAL_Driver/Src/stm32f1xx_hal_pcd.c ****     if(__HAL_PCD_GET_FLAG(hpcd, USB_OTG_GINTSTS_RXFLVL))
 498:Drivers/STM32F1xx_HAL_Driver/Src/stm32f1xx_hal_pcd.c ****     {
 499:Drivers/STM32F1xx_HAL_Driver/Src/stm32f1xx_hal_pcd.c ****       USB_MASK_INTERRUPT(hpcd->Instance, USB_OTG_GINTSTS_RXFLVL);
 500:Drivers/STM32F1xx_HAL_Driver/Src/stm32f1xx_hal_pcd.c ****       temp = USBx->GRXSTSP;
 501:Drivers/STM32F1xx_HAL_Driver/Src/stm32f1xx_hal_pcd.c ****       ep = &hpcd->OUT_ep[temp & USB_OTG_GRXSTSP_EPNUM];
 502:Drivers/STM32F1xx_HAL_Driver/Src/stm32f1xx_hal_pcd.c ****       
 503:Drivers/STM32F1xx_HAL_Driver/Src/stm32f1xx_hal_pcd.c ****       if(((temp & USB_OTG_GRXSTSP_PKTSTS) >> 17U) ==  STS_DATA_UPDT)
 504:Drivers/STM32F1xx_HAL_Driver/Src/stm32f1xx_hal_pcd.c ****       {
 505:Drivers/STM32F1xx_HAL_Driver/Src/stm32f1xx_hal_pcd.c ****         if((temp & USB_OTG_GRXSTSP_BCNT) != 0U)
 506:Drivers/STM32F1xx_HAL_Driver/Src/stm32f1xx_hal_pcd.c ****         {
 507:Drivers/STM32F1xx_HAL_Driver/Src/stm32f1xx_hal_pcd.c ****           USB_ReadPacket(USBx, ep->xfer_buff, (temp & USB_OTG_GRXSTSP_BCNT) >> 4U);
 508:Drivers/STM32F1xx_HAL_Driver/Src/stm32f1xx_hal_pcd.c ****           ep->xfer_buff += (temp & USB_OTG_GRXSTSP_BCNT) >> 4U;
 509:Drivers/STM32F1xx_HAL_Driver/Src/stm32f1xx_hal_pcd.c ****           ep->xfer_count += (temp & USB_OTG_GRXSTSP_BCNT) >> 4U;
 510:Drivers/STM32F1xx_HAL_Driver/Src/stm32f1xx_hal_pcd.c ****         }
 511:Drivers/STM32F1xx_HAL_Driver/Src/stm32f1xx_hal_pcd.c ****       }
 512:Drivers/STM32F1xx_HAL_Driver/Src/stm32f1xx_hal_pcd.c ****       else if (((temp & USB_OTG_GRXSTSP_PKTSTS) >> 17U) ==  STS_SETUP_UPDT)
 513:Drivers/STM32F1xx_HAL_Driver/Src/stm32f1xx_hal_pcd.c ****       {
 514:Drivers/STM32F1xx_HAL_Driver/Src/stm32f1xx_hal_pcd.c ****         USB_ReadPacket(USBx, (uint8_t *)hpcd->Setup, 8U);
 515:Drivers/STM32F1xx_HAL_Driver/Src/stm32f1xx_hal_pcd.c ****         ep->xfer_count += (temp & USB_OTG_GRXSTSP_BCNT) >> 4U;
 516:Drivers/STM32F1xx_HAL_Driver/Src/stm32f1xx_hal_pcd.c ****       }
 517:Drivers/STM32F1xx_HAL_Driver/Src/stm32f1xx_hal_pcd.c ****       USB_UNMASK_INTERRUPT(hpcd->Instance, USB_OTG_GINTSTS_RXFLVL);
 518:Drivers/STM32F1xx_HAL_Driver/Src/stm32f1xx_hal_pcd.c ****     }
 519:Drivers/STM32F1xx_HAL_Driver/Src/stm32f1xx_hal_pcd.c ****     
 520:Drivers/STM32F1xx_HAL_Driver/Src/stm32f1xx_hal_pcd.c ****     /* Handle SOF Interrupt */
 521:Drivers/STM32F1xx_HAL_Driver/Src/stm32f1xx_hal_pcd.c ****     if(__HAL_PCD_GET_FLAG(hpcd, USB_OTG_GINTSTS_SOF))
 522:Drivers/STM32F1xx_HAL_Driver/Src/stm32f1xx_hal_pcd.c ****     {
 523:Drivers/STM32F1xx_HAL_Driver/Src/stm32f1xx_hal_pcd.c ****       HAL_PCD_SOFCallback(hpcd);
 524:Drivers/STM32F1xx_HAL_Driver/Src/stm32f1xx_hal_pcd.c ****       __HAL_PCD_CLEAR_FLAG(hpcd, USB_OTG_GINTSTS_SOF);
 525:Drivers/STM32F1xx_HAL_Driver/Src/stm32f1xx_hal_pcd.c ****     }
 526:Drivers/STM32F1xx_HAL_Driver/Src/stm32f1xx_hal_pcd.c ****     
 527:Drivers/STM32F1xx_HAL_Driver/Src/stm32f1xx_hal_pcd.c ****     /* Handle Incomplete ISO IN Interrupt */
ARM GAS  /var/folders/rf/wfq6hz5s56g3yh4wqgd7820c0000gn/T//cc4VRrEg.s 			page 20


 528:Drivers/STM32F1xx_HAL_Driver/Src/stm32f1xx_hal_pcd.c ****     if(__HAL_PCD_GET_FLAG(hpcd, USB_OTG_GINTSTS_IISOIXFR))
 529:Drivers/STM32F1xx_HAL_Driver/Src/stm32f1xx_hal_pcd.c ****     {
 530:Drivers/STM32F1xx_HAL_Driver/Src/stm32f1xx_hal_pcd.c ****       HAL_PCD_ISOINIncompleteCallback(hpcd, epnum);
 531:Drivers/STM32F1xx_HAL_Driver/Src/stm32f1xx_hal_pcd.c ****       __HAL_PCD_CLEAR_FLAG(hpcd, USB_OTG_GINTSTS_IISOIXFR);
 532:Drivers/STM32F1xx_HAL_Driver/Src/stm32f1xx_hal_pcd.c ****     }
 533:Drivers/STM32F1xx_HAL_Driver/Src/stm32f1xx_hal_pcd.c ****     
 534:Drivers/STM32F1xx_HAL_Driver/Src/stm32f1xx_hal_pcd.c ****     /* Handle Incomplete ISO OUT Interrupt */
 535:Drivers/STM32F1xx_HAL_Driver/Src/stm32f1xx_hal_pcd.c ****     if(__HAL_PCD_GET_FLAG(hpcd, USB_OTG_GINTSTS_PXFR_INCOMPISOOUT))
 536:Drivers/STM32F1xx_HAL_Driver/Src/stm32f1xx_hal_pcd.c ****     {
 537:Drivers/STM32F1xx_HAL_Driver/Src/stm32f1xx_hal_pcd.c ****       HAL_PCD_ISOOUTIncompleteCallback(hpcd, epnum);
 538:Drivers/STM32F1xx_HAL_Driver/Src/stm32f1xx_hal_pcd.c ****       __HAL_PCD_CLEAR_FLAG(hpcd, USB_OTG_GINTSTS_PXFR_INCOMPISOOUT);
 539:Drivers/STM32F1xx_HAL_Driver/Src/stm32f1xx_hal_pcd.c ****     }
 540:Drivers/STM32F1xx_HAL_Driver/Src/stm32f1xx_hal_pcd.c ****     
 541:Drivers/STM32F1xx_HAL_Driver/Src/stm32f1xx_hal_pcd.c ****     /* Handle Connection event Interrupt */
 542:Drivers/STM32F1xx_HAL_Driver/Src/stm32f1xx_hal_pcd.c ****     if(__HAL_PCD_GET_FLAG(hpcd, USB_OTG_GINTSTS_SRQINT))
 543:Drivers/STM32F1xx_HAL_Driver/Src/stm32f1xx_hal_pcd.c ****     {
 544:Drivers/STM32F1xx_HAL_Driver/Src/stm32f1xx_hal_pcd.c ****       HAL_PCD_ConnectCallback(hpcd);
 545:Drivers/STM32F1xx_HAL_Driver/Src/stm32f1xx_hal_pcd.c ****       __HAL_PCD_CLEAR_FLAG(hpcd, USB_OTG_GINTSTS_SRQINT);
 546:Drivers/STM32F1xx_HAL_Driver/Src/stm32f1xx_hal_pcd.c ****     }
 547:Drivers/STM32F1xx_HAL_Driver/Src/stm32f1xx_hal_pcd.c ****     
 548:Drivers/STM32F1xx_HAL_Driver/Src/stm32f1xx_hal_pcd.c ****     /* Handle Disconnection event Interrupt */
 549:Drivers/STM32F1xx_HAL_Driver/Src/stm32f1xx_hal_pcd.c ****     if(__HAL_PCD_GET_FLAG(hpcd, USB_OTG_GINTSTS_OTGINT))
 550:Drivers/STM32F1xx_HAL_Driver/Src/stm32f1xx_hal_pcd.c ****     {
 551:Drivers/STM32F1xx_HAL_Driver/Src/stm32f1xx_hal_pcd.c ****       temp = hpcd->Instance->GOTGINT;
 552:Drivers/STM32F1xx_HAL_Driver/Src/stm32f1xx_hal_pcd.c ****       
 553:Drivers/STM32F1xx_HAL_Driver/Src/stm32f1xx_hal_pcd.c ****       if((temp & USB_OTG_GOTGINT_SEDET) == USB_OTG_GOTGINT_SEDET)
 554:Drivers/STM32F1xx_HAL_Driver/Src/stm32f1xx_hal_pcd.c ****       {
 555:Drivers/STM32F1xx_HAL_Driver/Src/stm32f1xx_hal_pcd.c ****         HAL_PCD_DisconnectCallback(hpcd);
 556:Drivers/STM32F1xx_HAL_Driver/Src/stm32f1xx_hal_pcd.c ****       }
 557:Drivers/STM32F1xx_HAL_Driver/Src/stm32f1xx_hal_pcd.c ****       hpcd->Instance->GOTGINT |= temp;
 558:Drivers/STM32F1xx_HAL_Driver/Src/stm32f1xx_hal_pcd.c ****     }
 559:Drivers/STM32F1xx_HAL_Driver/Src/stm32f1xx_hal_pcd.c ****   }
 560:Drivers/STM32F1xx_HAL_Driver/Src/stm32f1xx_hal_pcd.c **** }
 561:Drivers/STM32F1xx_HAL_Driver/Src/stm32f1xx_hal_pcd.c **** #endif /* USB_OTG_FS */
 562:Drivers/STM32F1xx_HAL_Driver/Src/stm32f1xx_hal_pcd.c **** 
 563:Drivers/STM32F1xx_HAL_Driver/Src/stm32f1xx_hal_pcd.c **** #if defined (USB)
 564:Drivers/STM32F1xx_HAL_Driver/Src/stm32f1xx_hal_pcd.c **** /**
 565:Drivers/STM32F1xx_HAL_Driver/Src/stm32f1xx_hal_pcd.c ****   * @brief  This function handles PCD interrupt request.
 566:Drivers/STM32F1xx_HAL_Driver/Src/stm32f1xx_hal_pcd.c ****   * @param  hpcd: PCD handle
 567:Drivers/STM32F1xx_HAL_Driver/Src/stm32f1xx_hal_pcd.c ****   * @retval HAL status
 568:Drivers/STM32F1xx_HAL_Driver/Src/stm32f1xx_hal_pcd.c ****   */
 569:Drivers/STM32F1xx_HAL_Driver/Src/stm32f1xx_hal_pcd.c **** void HAL_PCD_IRQHandler(PCD_HandleTypeDef *hpcd)
 570:Drivers/STM32F1xx_HAL_Driver/Src/stm32f1xx_hal_pcd.c **** { 
 571:Drivers/STM32F1xx_HAL_Driver/Src/stm32f1xx_hal_pcd.c ****   if (__HAL_PCD_GET_FLAG (hpcd, USB_ISTR_CTR))
 572:Drivers/STM32F1xx_HAL_Driver/Src/stm32f1xx_hal_pcd.c ****   {
 573:Drivers/STM32F1xx_HAL_Driver/Src/stm32f1xx_hal_pcd.c ****     /* servicing of the endpoint correct transfer interrupt */
 574:Drivers/STM32F1xx_HAL_Driver/Src/stm32f1xx_hal_pcd.c ****     /* clear of the CTR flag into the sub */
 575:Drivers/STM32F1xx_HAL_Driver/Src/stm32f1xx_hal_pcd.c ****     PCD_EP_ISR_Handler(hpcd);
 576:Drivers/STM32F1xx_HAL_Driver/Src/stm32f1xx_hal_pcd.c ****   }
 577:Drivers/STM32F1xx_HAL_Driver/Src/stm32f1xx_hal_pcd.c **** 
 578:Drivers/STM32F1xx_HAL_Driver/Src/stm32f1xx_hal_pcd.c ****   if (__HAL_PCD_GET_FLAG (hpcd, USB_ISTR_RESET))
 579:Drivers/STM32F1xx_HAL_Driver/Src/stm32f1xx_hal_pcd.c ****   {
 580:Drivers/STM32F1xx_HAL_Driver/Src/stm32f1xx_hal_pcd.c ****     __HAL_PCD_CLEAR_FLAG(hpcd, USB_ISTR_RESET);
 581:Drivers/STM32F1xx_HAL_Driver/Src/stm32f1xx_hal_pcd.c ****     HAL_PCD_ResetCallback(hpcd);
 582:Drivers/STM32F1xx_HAL_Driver/Src/stm32f1xx_hal_pcd.c ****     HAL_PCD_SetAddress(hpcd, 0U);
 583:Drivers/STM32F1xx_HAL_Driver/Src/stm32f1xx_hal_pcd.c ****   }
 584:Drivers/STM32F1xx_HAL_Driver/Src/stm32f1xx_hal_pcd.c **** 
ARM GAS  /var/folders/rf/wfq6hz5s56g3yh4wqgd7820c0000gn/T//cc4VRrEg.s 			page 21


 585:Drivers/STM32F1xx_HAL_Driver/Src/stm32f1xx_hal_pcd.c ****   if (__HAL_PCD_GET_FLAG (hpcd, USB_ISTR_PMAOVR))
 586:Drivers/STM32F1xx_HAL_Driver/Src/stm32f1xx_hal_pcd.c ****   {
 587:Drivers/STM32F1xx_HAL_Driver/Src/stm32f1xx_hal_pcd.c ****     __HAL_PCD_CLEAR_FLAG(hpcd, USB_ISTR_PMAOVR);    
 588:Drivers/STM32F1xx_HAL_Driver/Src/stm32f1xx_hal_pcd.c ****   }
 589:Drivers/STM32F1xx_HAL_Driver/Src/stm32f1xx_hal_pcd.c ****   if (__HAL_PCD_GET_FLAG (hpcd, USB_ISTR_ERR))
 590:Drivers/STM32F1xx_HAL_Driver/Src/stm32f1xx_hal_pcd.c ****   {
 591:Drivers/STM32F1xx_HAL_Driver/Src/stm32f1xx_hal_pcd.c ****     __HAL_PCD_CLEAR_FLAG(hpcd, USB_ISTR_ERR); 
 592:Drivers/STM32F1xx_HAL_Driver/Src/stm32f1xx_hal_pcd.c ****   }
 593:Drivers/STM32F1xx_HAL_Driver/Src/stm32f1xx_hal_pcd.c **** 
 594:Drivers/STM32F1xx_HAL_Driver/Src/stm32f1xx_hal_pcd.c ****   if (__HAL_PCD_GET_FLAG (hpcd, USB_ISTR_WKUP))
 595:Drivers/STM32F1xx_HAL_Driver/Src/stm32f1xx_hal_pcd.c ****   {
 596:Drivers/STM32F1xx_HAL_Driver/Src/stm32f1xx_hal_pcd.c ****     hpcd->Instance->CNTR &= ~(USB_CNTR_LP_MODE);
 597:Drivers/STM32F1xx_HAL_Driver/Src/stm32f1xx_hal_pcd.c ****     hpcd->Instance->CNTR &= ~(USB_CNTR_FSUSP);
 598:Drivers/STM32F1xx_HAL_Driver/Src/stm32f1xx_hal_pcd.c ****     
 599:Drivers/STM32F1xx_HAL_Driver/Src/stm32f1xx_hal_pcd.c ****     HAL_PCD_ResumeCallback(hpcd);
 600:Drivers/STM32F1xx_HAL_Driver/Src/stm32f1xx_hal_pcd.c **** 
 601:Drivers/STM32F1xx_HAL_Driver/Src/stm32f1xx_hal_pcd.c ****     __HAL_PCD_CLEAR_FLAG(hpcd, USB_ISTR_WKUP);     
 602:Drivers/STM32F1xx_HAL_Driver/Src/stm32f1xx_hal_pcd.c ****   }
 603:Drivers/STM32F1xx_HAL_Driver/Src/stm32f1xx_hal_pcd.c **** 
 604:Drivers/STM32F1xx_HAL_Driver/Src/stm32f1xx_hal_pcd.c ****   if (__HAL_PCD_GET_FLAG (hpcd, USB_ISTR_SUSP))
 605:Drivers/STM32F1xx_HAL_Driver/Src/stm32f1xx_hal_pcd.c ****   { 
 606:Drivers/STM32F1xx_HAL_Driver/Src/stm32f1xx_hal_pcd.c ****     /* Force low-power mode in the macrocell */
 607:Drivers/STM32F1xx_HAL_Driver/Src/stm32f1xx_hal_pcd.c ****     hpcd->Instance->CNTR |= USB_CNTR_FSUSP;
 608:Drivers/STM32F1xx_HAL_Driver/Src/stm32f1xx_hal_pcd.c ****     
 609:Drivers/STM32F1xx_HAL_Driver/Src/stm32f1xx_hal_pcd.c ****     /* clear of the ISTR bit must be done after setting of CNTR_FSUSP */
 610:Drivers/STM32F1xx_HAL_Driver/Src/stm32f1xx_hal_pcd.c ****     __HAL_PCD_CLEAR_FLAG(hpcd, USB_ISTR_SUSP);  
 611:Drivers/STM32F1xx_HAL_Driver/Src/stm32f1xx_hal_pcd.c **** 
 612:Drivers/STM32F1xx_HAL_Driver/Src/stm32f1xx_hal_pcd.c ****     hpcd->Instance->CNTR |= USB_CNTR_LP_MODE;
 613:Drivers/STM32F1xx_HAL_Driver/Src/stm32f1xx_hal_pcd.c ****     if (__HAL_PCD_GET_FLAG (hpcd, USB_ISTR_WKUP) == 0U)
 614:Drivers/STM32F1xx_HAL_Driver/Src/stm32f1xx_hal_pcd.c ****     {
 615:Drivers/STM32F1xx_HAL_Driver/Src/stm32f1xx_hal_pcd.c ****       HAL_PCD_SuspendCallback(hpcd);
 616:Drivers/STM32F1xx_HAL_Driver/Src/stm32f1xx_hal_pcd.c ****     }
 617:Drivers/STM32F1xx_HAL_Driver/Src/stm32f1xx_hal_pcd.c ****   }
 618:Drivers/STM32F1xx_HAL_Driver/Src/stm32f1xx_hal_pcd.c **** 
 619:Drivers/STM32F1xx_HAL_Driver/Src/stm32f1xx_hal_pcd.c ****   if (__HAL_PCD_GET_FLAG (hpcd, USB_ISTR_SOF))
 620:Drivers/STM32F1xx_HAL_Driver/Src/stm32f1xx_hal_pcd.c ****   {
 621:Drivers/STM32F1xx_HAL_Driver/Src/stm32f1xx_hal_pcd.c ****     __HAL_PCD_CLEAR_FLAG(hpcd, USB_ISTR_SOF); 
 622:Drivers/STM32F1xx_HAL_Driver/Src/stm32f1xx_hal_pcd.c ****     HAL_PCD_SOFCallback(hpcd);
 623:Drivers/STM32F1xx_HAL_Driver/Src/stm32f1xx_hal_pcd.c ****   }
 624:Drivers/STM32F1xx_HAL_Driver/Src/stm32f1xx_hal_pcd.c **** 
 625:Drivers/STM32F1xx_HAL_Driver/Src/stm32f1xx_hal_pcd.c ****   if (__HAL_PCD_GET_FLAG (hpcd, USB_ISTR_ESOF))
 626:Drivers/STM32F1xx_HAL_Driver/Src/stm32f1xx_hal_pcd.c ****   {
 627:Drivers/STM32F1xx_HAL_Driver/Src/stm32f1xx_hal_pcd.c ****     /* clear ESOF flag in ISTR */
 628:Drivers/STM32F1xx_HAL_Driver/Src/stm32f1xx_hal_pcd.c ****     __HAL_PCD_CLEAR_FLAG(hpcd, USB_ISTR_ESOF); 
 629:Drivers/STM32F1xx_HAL_Driver/Src/stm32f1xx_hal_pcd.c ****   }
 630:Drivers/STM32F1xx_HAL_Driver/Src/stm32f1xx_hal_pcd.c **** }
 631:Drivers/STM32F1xx_HAL_Driver/Src/stm32f1xx_hal_pcd.c **** #endif /* USB */
 632:Drivers/STM32F1xx_HAL_Driver/Src/stm32f1xx_hal_pcd.c **** 
 633:Drivers/STM32F1xx_HAL_Driver/Src/stm32f1xx_hal_pcd.c **** /**
 634:Drivers/STM32F1xx_HAL_Driver/Src/stm32f1xx_hal_pcd.c ****   * @brief  Data out stage callbacks
 635:Drivers/STM32F1xx_HAL_Driver/Src/stm32f1xx_hal_pcd.c ****   * @param  hpcd: PCD handle
 636:Drivers/STM32F1xx_HAL_Driver/Src/stm32f1xx_hal_pcd.c ****   * @param  epnum: endpoint number
 637:Drivers/STM32F1xx_HAL_Driver/Src/stm32f1xx_hal_pcd.c ****   * @retval None
 638:Drivers/STM32F1xx_HAL_Driver/Src/stm32f1xx_hal_pcd.c ****   */
 639:Drivers/STM32F1xx_HAL_Driver/Src/stm32f1xx_hal_pcd.c ****  __weak void HAL_PCD_DataOutStageCallback(PCD_HandleTypeDef *hpcd, uint8_t epnum)
 640:Drivers/STM32F1xx_HAL_Driver/Src/stm32f1xx_hal_pcd.c **** {
 477              		.loc 1 640 1 is_stmt 1 view -0
ARM GAS  /var/folders/rf/wfq6hz5s56g3yh4wqgd7820c0000gn/T//cc4VRrEg.s 			page 22


 478              		.cfi_startproc
 479              		@ args = 0, pretend = 0, frame = 0
 480              		@ frame_needed = 0, uses_anonymous_args = 0
 481              		@ link register save eliminated.
 641:Drivers/STM32F1xx_HAL_Driver/Src/stm32f1xx_hal_pcd.c ****   /* Prevent unused argument(s) compilation warning */
 642:Drivers/STM32F1xx_HAL_Driver/Src/stm32f1xx_hal_pcd.c ****   UNUSED(hpcd);
 482              		.loc 1 642 3 view .LVU129
 643:Drivers/STM32F1xx_HAL_Driver/Src/stm32f1xx_hal_pcd.c ****   UNUSED(epnum);
 483              		.loc 1 643 3 view .LVU130
 644:Drivers/STM32F1xx_HAL_Driver/Src/stm32f1xx_hal_pcd.c ****   /* NOTE : This function should not be modified, when the callback is needed,
 645:Drivers/STM32F1xx_HAL_Driver/Src/stm32f1xx_hal_pcd.c ****             the HAL_PCD_DataOutStageCallback could be implemented in the user file
 646:Drivers/STM32F1xx_HAL_Driver/Src/stm32f1xx_hal_pcd.c ****    */
 647:Drivers/STM32F1xx_HAL_Driver/Src/stm32f1xx_hal_pcd.c **** }
 484              		.loc 1 647 1 is_stmt 0 view .LVU131
 485 0000 7047     		bx	lr
 486              		.cfi_endproc
 487              	.LFE73:
 489              		.section	.text.HAL_PCD_DataInStageCallback,"ax",%progbits
 490              		.align	1
 491              		.weak	HAL_PCD_DataInStageCallback
 492              		.syntax unified
 493              		.thumb
 494              		.thumb_func
 495              		.fpu softvfp
 497              	HAL_PCD_DataInStageCallback:
 498              	.LVL38:
 499              	.LFB74:
 648:Drivers/STM32F1xx_HAL_Driver/Src/stm32f1xx_hal_pcd.c **** 
 649:Drivers/STM32F1xx_HAL_Driver/Src/stm32f1xx_hal_pcd.c **** /**
 650:Drivers/STM32F1xx_HAL_Driver/Src/stm32f1xx_hal_pcd.c ****   * @brief  Data IN stage callbacks
 651:Drivers/STM32F1xx_HAL_Driver/Src/stm32f1xx_hal_pcd.c ****   * @param  hpcd: PCD handle
 652:Drivers/STM32F1xx_HAL_Driver/Src/stm32f1xx_hal_pcd.c ****   * @param  epnum: endpoint number
 653:Drivers/STM32F1xx_HAL_Driver/Src/stm32f1xx_hal_pcd.c ****   * @retval None
 654:Drivers/STM32F1xx_HAL_Driver/Src/stm32f1xx_hal_pcd.c ****   */
 655:Drivers/STM32F1xx_HAL_Driver/Src/stm32f1xx_hal_pcd.c ****  __weak void HAL_PCD_DataInStageCallback(PCD_HandleTypeDef *hpcd, uint8_t epnum)
 656:Drivers/STM32F1xx_HAL_Driver/Src/stm32f1xx_hal_pcd.c **** {
 500              		.loc 1 656 1 is_stmt 1 view -0
 501              		.cfi_startproc
 502              		@ args = 0, pretend = 0, frame = 0
 503              		@ frame_needed = 0, uses_anonymous_args = 0
 504              		@ link register save eliminated.
 657:Drivers/STM32F1xx_HAL_Driver/Src/stm32f1xx_hal_pcd.c ****   /* Prevent unused argument(s) compilation warning */
 658:Drivers/STM32F1xx_HAL_Driver/Src/stm32f1xx_hal_pcd.c ****   UNUSED(hpcd);
 505              		.loc 1 658 3 view .LVU133
 659:Drivers/STM32F1xx_HAL_Driver/Src/stm32f1xx_hal_pcd.c ****   UNUSED(epnum);
 506              		.loc 1 659 3 view .LVU134
 660:Drivers/STM32F1xx_HAL_Driver/Src/stm32f1xx_hal_pcd.c ****   /* NOTE : This function should not be modified, when the callback is needed,
 661:Drivers/STM32F1xx_HAL_Driver/Src/stm32f1xx_hal_pcd.c ****             the HAL_PCD_DataInStageCallback could be implemented in the user file
 662:Drivers/STM32F1xx_HAL_Driver/Src/stm32f1xx_hal_pcd.c ****    */
 663:Drivers/STM32F1xx_HAL_Driver/Src/stm32f1xx_hal_pcd.c **** }
 507              		.loc 1 663 1 is_stmt 0 view .LVU135
 508 0000 7047     		bx	lr
 509              		.cfi_endproc
 510              	.LFE74:
 512              		.section	.text.HAL_PCD_SetupStageCallback,"ax",%progbits
 513              		.align	1
 514              		.weak	HAL_PCD_SetupStageCallback
ARM GAS  /var/folders/rf/wfq6hz5s56g3yh4wqgd7820c0000gn/T//cc4VRrEg.s 			page 23


 515              		.syntax unified
 516              		.thumb
 517              		.thumb_func
 518              		.fpu softvfp
 520              	HAL_PCD_SetupStageCallback:
 521              	.LVL39:
 522              	.LFB75:
 664:Drivers/STM32F1xx_HAL_Driver/Src/stm32f1xx_hal_pcd.c **** /**
 665:Drivers/STM32F1xx_HAL_Driver/Src/stm32f1xx_hal_pcd.c ****   * @brief  Setup stage callback
 666:Drivers/STM32F1xx_HAL_Driver/Src/stm32f1xx_hal_pcd.c ****   * @param  hpcd: PCD handle
 667:Drivers/STM32F1xx_HAL_Driver/Src/stm32f1xx_hal_pcd.c ****   * @retval None
 668:Drivers/STM32F1xx_HAL_Driver/Src/stm32f1xx_hal_pcd.c ****   */
 669:Drivers/STM32F1xx_HAL_Driver/Src/stm32f1xx_hal_pcd.c ****  __weak void HAL_PCD_SetupStageCallback(PCD_HandleTypeDef *hpcd)
 670:Drivers/STM32F1xx_HAL_Driver/Src/stm32f1xx_hal_pcd.c **** {
 523              		.loc 1 670 1 is_stmt 1 view -0
 524              		.cfi_startproc
 525              		@ args = 0, pretend = 0, frame = 0
 526              		@ frame_needed = 0, uses_anonymous_args = 0
 527              		@ link register save eliminated.
 671:Drivers/STM32F1xx_HAL_Driver/Src/stm32f1xx_hal_pcd.c ****   /* Prevent unused argument(s) compilation warning */
 672:Drivers/STM32F1xx_HAL_Driver/Src/stm32f1xx_hal_pcd.c ****   UNUSED(hpcd);
 528              		.loc 1 672 3 view .LVU137
 673:Drivers/STM32F1xx_HAL_Driver/Src/stm32f1xx_hal_pcd.c ****   /* NOTE : This function should not be modified, when the callback is needed,
 674:Drivers/STM32F1xx_HAL_Driver/Src/stm32f1xx_hal_pcd.c ****             the HAL_PCD_SetupStageCallback could be implemented in the user file
 675:Drivers/STM32F1xx_HAL_Driver/Src/stm32f1xx_hal_pcd.c ****    */
 676:Drivers/STM32F1xx_HAL_Driver/Src/stm32f1xx_hal_pcd.c **** }
 529              		.loc 1 676 1 is_stmt 0 view .LVU138
 530 0000 7047     		bx	lr
 531              		.cfi_endproc
 532              	.LFE75:
 534              		.section	.text.HAL_PCD_SOFCallback,"ax",%progbits
 535              		.align	1
 536              		.weak	HAL_PCD_SOFCallback
 537              		.syntax unified
 538              		.thumb
 539              		.thumb_func
 540              		.fpu softvfp
 542              	HAL_PCD_SOFCallback:
 543              	.LVL40:
 544              	.LFB76:
 677:Drivers/STM32F1xx_HAL_Driver/Src/stm32f1xx_hal_pcd.c **** 
 678:Drivers/STM32F1xx_HAL_Driver/Src/stm32f1xx_hal_pcd.c **** /**
 679:Drivers/STM32F1xx_HAL_Driver/Src/stm32f1xx_hal_pcd.c ****   * @brief  USB Start Of Frame callbacks
 680:Drivers/STM32F1xx_HAL_Driver/Src/stm32f1xx_hal_pcd.c ****   * @param  hpcd: PCD handle
 681:Drivers/STM32F1xx_HAL_Driver/Src/stm32f1xx_hal_pcd.c ****   * @retval None
 682:Drivers/STM32F1xx_HAL_Driver/Src/stm32f1xx_hal_pcd.c ****   */
 683:Drivers/STM32F1xx_HAL_Driver/Src/stm32f1xx_hal_pcd.c ****  __weak void HAL_PCD_SOFCallback(PCD_HandleTypeDef *hpcd)
 684:Drivers/STM32F1xx_HAL_Driver/Src/stm32f1xx_hal_pcd.c **** {
 545              		.loc 1 684 1 is_stmt 1 view -0
 546              		.cfi_startproc
 547              		@ args = 0, pretend = 0, frame = 0
 548              		@ frame_needed = 0, uses_anonymous_args = 0
 549              		@ link register save eliminated.
 685:Drivers/STM32F1xx_HAL_Driver/Src/stm32f1xx_hal_pcd.c ****   /* Prevent unused argument(s) compilation warning */
 686:Drivers/STM32F1xx_HAL_Driver/Src/stm32f1xx_hal_pcd.c ****   UNUSED(hpcd);
 550              		.loc 1 686 3 view .LVU140
 687:Drivers/STM32F1xx_HAL_Driver/Src/stm32f1xx_hal_pcd.c ****   /* NOTE : This function should not be modified, when the callback is needed,
ARM GAS  /var/folders/rf/wfq6hz5s56g3yh4wqgd7820c0000gn/T//cc4VRrEg.s 			page 24


 688:Drivers/STM32F1xx_HAL_Driver/Src/stm32f1xx_hal_pcd.c ****             the HAL_PCD_SOFCallback could be implemented in the user file
 689:Drivers/STM32F1xx_HAL_Driver/Src/stm32f1xx_hal_pcd.c ****    */
 690:Drivers/STM32F1xx_HAL_Driver/Src/stm32f1xx_hal_pcd.c **** }
 551              		.loc 1 690 1 is_stmt 0 view .LVU141
 552 0000 7047     		bx	lr
 553              		.cfi_endproc
 554              	.LFE76:
 556              		.section	.text.HAL_PCD_ResetCallback,"ax",%progbits
 557              		.align	1
 558              		.weak	HAL_PCD_ResetCallback
 559              		.syntax unified
 560              		.thumb
 561              		.thumb_func
 562              		.fpu softvfp
 564              	HAL_PCD_ResetCallback:
 565              	.LVL41:
 566              	.LFB77:
 691:Drivers/STM32F1xx_HAL_Driver/Src/stm32f1xx_hal_pcd.c **** 
 692:Drivers/STM32F1xx_HAL_Driver/Src/stm32f1xx_hal_pcd.c **** /**
 693:Drivers/STM32F1xx_HAL_Driver/Src/stm32f1xx_hal_pcd.c ****   * @brief  USB Reset callbacks
 694:Drivers/STM32F1xx_HAL_Driver/Src/stm32f1xx_hal_pcd.c ****   * @param  hpcd: PCD handle
 695:Drivers/STM32F1xx_HAL_Driver/Src/stm32f1xx_hal_pcd.c ****   * @retval None
 696:Drivers/STM32F1xx_HAL_Driver/Src/stm32f1xx_hal_pcd.c ****   */
 697:Drivers/STM32F1xx_HAL_Driver/Src/stm32f1xx_hal_pcd.c ****  __weak void HAL_PCD_ResetCallback(PCD_HandleTypeDef *hpcd)
 698:Drivers/STM32F1xx_HAL_Driver/Src/stm32f1xx_hal_pcd.c **** {
 567              		.loc 1 698 1 is_stmt 1 view -0
 568              		.cfi_startproc
 569              		@ args = 0, pretend = 0, frame = 0
 570              		@ frame_needed = 0, uses_anonymous_args = 0
 571              		@ link register save eliminated.
 699:Drivers/STM32F1xx_HAL_Driver/Src/stm32f1xx_hal_pcd.c ****   /* Prevent unused argument(s) compilation warning */
 700:Drivers/STM32F1xx_HAL_Driver/Src/stm32f1xx_hal_pcd.c ****   UNUSED(hpcd);
 572              		.loc 1 700 3 view .LVU143
 701:Drivers/STM32F1xx_HAL_Driver/Src/stm32f1xx_hal_pcd.c ****   /* NOTE : This function should not be modified, when the callback is needed,
 702:Drivers/STM32F1xx_HAL_Driver/Src/stm32f1xx_hal_pcd.c ****             the HAL_PCD_ResetCallback could be implemented in the user file
 703:Drivers/STM32F1xx_HAL_Driver/Src/stm32f1xx_hal_pcd.c ****    */
 704:Drivers/STM32F1xx_HAL_Driver/Src/stm32f1xx_hal_pcd.c **** }
 573              		.loc 1 704 1 is_stmt 0 view .LVU144
 574 0000 7047     		bx	lr
 575              		.cfi_endproc
 576              	.LFE77:
 578              		.section	.text.HAL_PCD_SuspendCallback,"ax",%progbits
 579              		.align	1
 580              		.weak	HAL_PCD_SuspendCallback
 581              		.syntax unified
 582              		.thumb
 583              		.thumb_func
 584              		.fpu softvfp
 586              	HAL_PCD_SuspendCallback:
 587              	.LVL42:
 588              	.LFB78:
 705:Drivers/STM32F1xx_HAL_Driver/Src/stm32f1xx_hal_pcd.c **** 
 706:Drivers/STM32F1xx_HAL_Driver/Src/stm32f1xx_hal_pcd.c **** /**
 707:Drivers/STM32F1xx_HAL_Driver/Src/stm32f1xx_hal_pcd.c ****   * @brief  Suspend event callbacks
 708:Drivers/STM32F1xx_HAL_Driver/Src/stm32f1xx_hal_pcd.c ****   * @param  hpcd: PCD handle
 709:Drivers/STM32F1xx_HAL_Driver/Src/stm32f1xx_hal_pcd.c ****   * @retval None
 710:Drivers/STM32F1xx_HAL_Driver/Src/stm32f1xx_hal_pcd.c ****   */
ARM GAS  /var/folders/rf/wfq6hz5s56g3yh4wqgd7820c0000gn/T//cc4VRrEg.s 			page 25


 711:Drivers/STM32F1xx_HAL_Driver/Src/stm32f1xx_hal_pcd.c ****  __weak void HAL_PCD_SuspendCallback(PCD_HandleTypeDef *hpcd)
 712:Drivers/STM32F1xx_HAL_Driver/Src/stm32f1xx_hal_pcd.c **** {
 589              		.loc 1 712 1 is_stmt 1 view -0
 590              		.cfi_startproc
 591              		@ args = 0, pretend = 0, frame = 0
 592              		@ frame_needed = 0, uses_anonymous_args = 0
 593              		@ link register save eliminated.
 713:Drivers/STM32F1xx_HAL_Driver/Src/stm32f1xx_hal_pcd.c ****   /* Prevent unused argument(s) compilation warning */
 714:Drivers/STM32F1xx_HAL_Driver/Src/stm32f1xx_hal_pcd.c ****   UNUSED(hpcd);
 594              		.loc 1 714 3 view .LVU146
 715:Drivers/STM32F1xx_HAL_Driver/Src/stm32f1xx_hal_pcd.c ****   /* NOTE : This function should not be modified, when the callback is needed,
 716:Drivers/STM32F1xx_HAL_Driver/Src/stm32f1xx_hal_pcd.c ****             the HAL_PCD_SuspendCallback could be implemented in the user file
 717:Drivers/STM32F1xx_HAL_Driver/Src/stm32f1xx_hal_pcd.c ****    */
 718:Drivers/STM32F1xx_HAL_Driver/Src/stm32f1xx_hal_pcd.c **** }
 595              		.loc 1 718 1 is_stmt 0 view .LVU147
 596 0000 7047     		bx	lr
 597              		.cfi_endproc
 598              	.LFE78:
 600              		.section	.text.HAL_PCD_ResumeCallback,"ax",%progbits
 601              		.align	1
 602              		.weak	HAL_PCD_ResumeCallback
 603              		.syntax unified
 604              		.thumb
 605              		.thumb_func
 606              		.fpu softvfp
 608              	HAL_PCD_ResumeCallback:
 609              	.LVL43:
 610              	.LFB79:
 719:Drivers/STM32F1xx_HAL_Driver/Src/stm32f1xx_hal_pcd.c **** 
 720:Drivers/STM32F1xx_HAL_Driver/Src/stm32f1xx_hal_pcd.c **** /**
 721:Drivers/STM32F1xx_HAL_Driver/Src/stm32f1xx_hal_pcd.c ****   * @brief  Resume event callbacks
 722:Drivers/STM32F1xx_HAL_Driver/Src/stm32f1xx_hal_pcd.c ****   * @param  hpcd: PCD handle
 723:Drivers/STM32F1xx_HAL_Driver/Src/stm32f1xx_hal_pcd.c ****   * @retval None
 724:Drivers/STM32F1xx_HAL_Driver/Src/stm32f1xx_hal_pcd.c ****   */
 725:Drivers/STM32F1xx_HAL_Driver/Src/stm32f1xx_hal_pcd.c ****  __weak void HAL_PCD_ResumeCallback(PCD_HandleTypeDef *hpcd)
 726:Drivers/STM32F1xx_HAL_Driver/Src/stm32f1xx_hal_pcd.c **** {
 611              		.loc 1 726 1 is_stmt 1 view -0
 612              		.cfi_startproc
 613              		@ args = 0, pretend = 0, frame = 0
 614              		@ frame_needed = 0, uses_anonymous_args = 0
 615              		@ link register save eliminated.
 727:Drivers/STM32F1xx_HAL_Driver/Src/stm32f1xx_hal_pcd.c ****   /* Prevent unused argument(s) compilation warning */
 728:Drivers/STM32F1xx_HAL_Driver/Src/stm32f1xx_hal_pcd.c ****   UNUSED(hpcd);
 616              		.loc 1 728 3 view .LVU149
 729:Drivers/STM32F1xx_HAL_Driver/Src/stm32f1xx_hal_pcd.c ****   /* NOTE : This function should not be modified, when the callback is needed,
 730:Drivers/STM32F1xx_HAL_Driver/Src/stm32f1xx_hal_pcd.c ****             the HAL_PCD_ResumeCallback could be implemented in the user file
 731:Drivers/STM32F1xx_HAL_Driver/Src/stm32f1xx_hal_pcd.c ****    */
 732:Drivers/STM32F1xx_HAL_Driver/Src/stm32f1xx_hal_pcd.c **** }
 617              		.loc 1 732 1 is_stmt 0 view .LVU150
 618 0000 7047     		bx	lr
 619              		.cfi_endproc
 620              	.LFE79:
 622              		.section	.text.HAL_PCD_ISOOUTIncompleteCallback,"ax",%progbits
 623              		.align	1
 624              		.weak	HAL_PCD_ISOOUTIncompleteCallback
 625              		.syntax unified
 626              		.thumb
ARM GAS  /var/folders/rf/wfq6hz5s56g3yh4wqgd7820c0000gn/T//cc4VRrEg.s 			page 26


 627              		.thumb_func
 628              		.fpu softvfp
 630              	HAL_PCD_ISOOUTIncompleteCallback:
 631              	.LVL44:
 632              	.LFB80:
 733:Drivers/STM32F1xx_HAL_Driver/Src/stm32f1xx_hal_pcd.c **** 
 734:Drivers/STM32F1xx_HAL_Driver/Src/stm32f1xx_hal_pcd.c **** /**
 735:Drivers/STM32F1xx_HAL_Driver/Src/stm32f1xx_hal_pcd.c ****   * @brief  Incomplete ISO OUT callbacks
 736:Drivers/STM32F1xx_HAL_Driver/Src/stm32f1xx_hal_pcd.c ****   * @param  hpcd: PCD handle
 737:Drivers/STM32F1xx_HAL_Driver/Src/stm32f1xx_hal_pcd.c ****   * @param  epnum: endpoint number
 738:Drivers/STM32F1xx_HAL_Driver/Src/stm32f1xx_hal_pcd.c ****   * @retval None
 739:Drivers/STM32F1xx_HAL_Driver/Src/stm32f1xx_hal_pcd.c ****   */
 740:Drivers/STM32F1xx_HAL_Driver/Src/stm32f1xx_hal_pcd.c ****  __weak void HAL_PCD_ISOOUTIncompleteCallback(PCD_HandleTypeDef *hpcd, uint8_t epnum)
 741:Drivers/STM32F1xx_HAL_Driver/Src/stm32f1xx_hal_pcd.c **** {
 633              		.loc 1 741 1 is_stmt 1 view -0
 634              		.cfi_startproc
 635              		@ args = 0, pretend = 0, frame = 0
 636              		@ frame_needed = 0, uses_anonymous_args = 0
 637              		@ link register save eliminated.
 742:Drivers/STM32F1xx_HAL_Driver/Src/stm32f1xx_hal_pcd.c ****   /* Prevent unused argument(s) compilation warning */
 743:Drivers/STM32F1xx_HAL_Driver/Src/stm32f1xx_hal_pcd.c ****   UNUSED(hpcd);
 638              		.loc 1 743 3 view .LVU152
 744:Drivers/STM32F1xx_HAL_Driver/Src/stm32f1xx_hal_pcd.c ****   UNUSED(epnum);
 639              		.loc 1 744 3 view .LVU153
 745:Drivers/STM32F1xx_HAL_Driver/Src/stm32f1xx_hal_pcd.c ****   /* NOTE : This function should not be modified, when the callback is needed,
 746:Drivers/STM32F1xx_HAL_Driver/Src/stm32f1xx_hal_pcd.c ****             the HAL_PCD_ISOOUTIncompleteCallback could be implemented in the user file
 747:Drivers/STM32F1xx_HAL_Driver/Src/stm32f1xx_hal_pcd.c ****    */
 748:Drivers/STM32F1xx_HAL_Driver/Src/stm32f1xx_hal_pcd.c **** }
 640              		.loc 1 748 1 is_stmt 0 view .LVU154
 641 0000 7047     		bx	lr
 642              		.cfi_endproc
 643              	.LFE80:
 645              		.section	.text.HAL_PCD_ISOINIncompleteCallback,"ax",%progbits
 646              		.align	1
 647              		.weak	HAL_PCD_ISOINIncompleteCallback
 648              		.syntax unified
 649              		.thumb
 650              		.thumb_func
 651              		.fpu softvfp
 653              	HAL_PCD_ISOINIncompleteCallback:
 654              	.LVL45:
 655              	.LFB81:
 749:Drivers/STM32F1xx_HAL_Driver/Src/stm32f1xx_hal_pcd.c **** 
 750:Drivers/STM32F1xx_HAL_Driver/Src/stm32f1xx_hal_pcd.c **** /**
 751:Drivers/STM32F1xx_HAL_Driver/Src/stm32f1xx_hal_pcd.c ****   * @brief  Incomplete ISO IN  callbacks
 752:Drivers/STM32F1xx_HAL_Driver/Src/stm32f1xx_hal_pcd.c ****   * @param  hpcd: PCD handle
 753:Drivers/STM32F1xx_HAL_Driver/Src/stm32f1xx_hal_pcd.c ****   * @param  epnum: endpoint number
 754:Drivers/STM32F1xx_HAL_Driver/Src/stm32f1xx_hal_pcd.c ****   * @retval None
 755:Drivers/STM32F1xx_HAL_Driver/Src/stm32f1xx_hal_pcd.c ****   */
 756:Drivers/STM32F1xx_HAL_Driver/Src/stm32f1xx_hal_pcd.c ****  __weak void HAL_PCD_ISOINIncompleteCallback(PCD_HandleTypeDef *hpcd, uint8_t epnum)
 757:Drivers/STM32F1xx_HAL_Driver/Src/stm32f1xx_hal_pcd.c **** {
 656              		.loc 1 757 1 is_stmt 1 view -0
 657              		.cfi_startproc
 658              		@ args = 0, pretend = 0, frame = 0
 659              		@ frame_needed = 0, uses_anonymous_args = 0
 660              		@ link register save eliminated.
 758:Drivers/STM32F1xx_HAL_Driver/Src/stm32f1xx_hal_pcd.c ****   /* Prevent unused argument(s) compilation warning */
ARM GAS  /var/folders/rf/wfq6hz5s56g3yh4wqgd7820c0000gn/T//cc4VRrEg.s 			page 27


 759:Drivers/STM32F1xx_HAL_Driver/Src/stm32f1xx_hal_pcd.c ****   UNUSED(hpcd);
 661              		.loc 1 759 3 view .LVU156
 760:Drivers/STM32F1xx_HAL_Driver/Src/stm32f1xx_hal_pcd.c ****   UNUSED(epnum);
 662              		.loc 1 760 3 view .LVU157
 761:Drivers/STM32F1xx_HAL_Driver/Src/stm32f1xx_hal_pcd.c ****   /* NOTE : This function should not be modified, when the callback is needed,
 762:Drivers/STM32F1xx_HAL_Driver/Src/stm32f1xx_hal_pcd.c ****             the HAL_PCD_ISOINIncompleteCallback could be implemented in the user file
 763:Drivers/STM32F1xx_HAL_Driver/Src/stm32f1xx_hal_pcd.c ****    */
 764:Drivers/STM32F1xx_HAL_Driver/Src/stm32f1xx_hal_pcd.c **** }
 663              		.loc 1 764 1 is_stmt 0 view .LVU158
 664 0000 7047     		bx	lr
 665              		.cfi_endproc
 666              	.LFE81:
 668              		.section	.text.HAL_PCD_ConnectCallback,"ax",%progbits
 669              		.align	1
 670              		.weak	HAL_PCD_ConnectCallback
 671              		.syntax unified
 672              		.thumb
 673              		.thumb_func
 674              		.fpu softvfp
 676              	HAL_PCD_ConnectCallback:
 677              	.LVL46:
 678              	.LFB82:
 765:Drivers/STM32F1xx_HAL_Driver/Src/stm32f1xx_hal_pcd.c **** 
 766:Drivers/STM32F1xx_HAL_Driver/Src/stm32f1xx_hal_pcd.c **** /**
 767:Drivers/STM32F1xx_HAL_Driver/Src/stm32f1xx_hal_pcd.c ****   * @brief  Connection event callbacks
 768:Drivers/STM32F1xx_HAL_Driver/Src/stm32f1xx_hal_pcd.c ****   * @param  hpcd: PCD handle
 769:Drivers/STM32F1xx_HAL_Driver/Src/stm32f1xx_hal_pcd.c ****   * @retval None
 770:Drivers/STM32F1xx_HAL_Driver/Src/stm32f1xx_hal_pcd.c ****   */
 771:Drivers/STM32F1xx_HAL_Driver/Src/stm32f1xx_hal_pcd.c ****  __weak void HAL_PCD_ConnectCallback(PCD_HandleTypeDef *hpcd)
 772:Drivers/STM32F1xx_HAL_Driver/Src/stm32f1xx_hal_pcd.c **** {
 679              		.loc 1 772 1 is_stmt 1 view -0
 680              		.cfi_startproc
 681              		@ args = 0, pretend = 0, frame = 0
 682              		@ frame_needed = 0, uses_anonymous_args = 0
 683              		@ link register save eliminated.
 773:Drivers/STM32F1xx_HAL_Driver/Src/stm32f1xx_hal_pcd.c ****   /* Prevent unused argument(s) compilation warning */
 774:Drivers/STM32F1xx_HAL_Driver/Src/stm32f1xx_hal_pcd.c ****   UNUSED(hpcd);
 684              		.loc 1 774 3 view .LVU160
 775:Drivers/STM32F1xx_HAL_Driver/Src/stm32f1xx_hal_pcd.c ****   /* NOTE : This function should not be modified, when the callback is needed,
 776:Drivers/STM32F1xx_HAL_Driver/Src/stm32f1xx_hal_pcd.c ****             the HAL_PCD_ConnectCallback could be implemented in the user file
 777:Drivers/STM32F1xx_HAL_Driver/Src/stm32f1xx_hal_pcd.c ****    */
 778:Drivers/STM32F1xx_HAL_Driver/Src/stm32f1xx_hal_pcd.c **** }
 685              		.loc 1 778 1 is_stmt 0 view .LVU161
 686 0000 7047     		bx	lr
 687              		.cfi_endproc
 688              	.LFE82:
 690              		.section	.text.HAL_PCD_DisconnectCallback,"ax",%progbits
 691              		.align	1
 692              		.weak	HAL_PCD_DisconnectCallback
 693              		.syntax unified
 694              		.thumb
 695              		.thumb_func
 696              		.fpu softvfp
 698              	HAL_PCD_DisconnectCallback:
 699              	.LVL47:
 700              	.LFB83:
 779:Drivers/STM32F1xx_HAL_Driver/Src/stm32f1xx_hal_pcd.c **** 
ARM GAS  /var/folders/rf/wfq6hz5s56g3yh4wqgd7820c0000gn/T//cc4VRrEg.s 			page 28


 780:Drivers/STM32F1xx_HAL_Driver/Src/stm32f1xx_hal_pcd.c **** /**
 781:Drivers/STM32F1xx_HAL_Driver/Src/stm32f1xx_hal_pcd.c ****   * @brief  Disconnection event callbacks
 782:Drivers/STM32F1xx_HAL_Driver/Src/stm32f1xx_hal_pcd.c ****   * @param  hpcd: PCD handle
 783:Drivers/STM32F1xx_HAL_Driver/Src/stm32f1xx_hal_pcd.c ****   * @retval None
 784:Drivers/STM32F1xx_HAL_Driver/Src/stm32f1xx_hal_pcd.c ****   */
 785:Drivers/STM32F1xx_HAL_Driver/Src/stm32f1xx_hal_pcd.c ****  __weak void HAL_PCD_DisconnectCallback(PCD_HandleTypeDef *hpcd)
 786:Drivers/STM32F1xx_HAL_Driver/Src/stm32f1xx_hal_pcd.c **** {
 701              		.loc 1 786 1 is_stmt 1 view -0
 702              		.cfi_startproc
 703              		@ args = 0, pretend = 0, frame = 0
 704              		@ frame_needed = 0, uses_anonymous_args = 0
 705              		@ link register save eliminated.
 787:Drivers/STM32F1xx_HAL_Driver/Src/stm32f1xx_hal_pcd.c ****   /* Prevent unused argument(s) compilation warning */
 788:Drivers/STM32F1xx_HAL_Driver/Src/stm32f1xx_hal_pcd.c ****   UNUSED(hpcd);
 706              		.loc 1 788 3 view .LVU163
 789:Drivers/STM32F1xx_HAL_Driver/Src/stm32f1xx_hal_pcd.c ****   /* NOTE : This function should not be modified, when the callback is needed,
 790:Drivers/STM32F1xx_HAL_Driver/Src/stm32f1xx_hal_pcd.c ****             the HAL_PCD_DisconnectCallback could be implemented in the user file
 791:Drivers/STM32F1xx_HAL_Driver/Src/stm32f1xx_hal_pcd.c ****    */
 792:Drivers/STM32F1xx_HAL_Driver/Src/stm32f1xx_hal_pcd.c **** }
 707              		.loc 1 792 1 is_stmt 0 view .LVU164
 708 0000 7047     		bx	lr
 709              		.cfi_endproc
 710              	.LFE83:
 712              		.section	.text.HAL_PCD_DevConnect,"ax",%progbits
 713              		.align	1
 714              		.global	HAL_PCD_DevConnect
 715              		.syntax unified
 716              		.thumb
 717              		.thumb_func
 718              		.fpu softvfp
 720              	HAL_PCD_DevConnect:
 721              	.LVL48:
 722              	.LFB84:
 793:Drivers/STM32F1xx_HAL_Driver/Src/stm32f1xx_hal_pcd.c **** 
 794:Drivers/STM32F1xx_HAL_Driver/Src/stm32f1xx_hal_pcd.c **** /**
 795:Drivers/STM32F1xx_HAL_Driver/Src/stm32f1xx_hal_pcd.c ****   * @}
 796:Drivers/STM32F1xx_HAL_Driver/Src/stm32f1xx_hal_pcd.c ****   */
 797:Drivers/STM32F1xx_HAL_Driver/Src/stm32f1xx_hal_pcd.c **** 
 798:Drivers/STM32F1xx_HAL_Driver/Src/stm32f1xx_hal_pcd.c **** /** @defgroup PCD_Exported_Functions_Group3 Peripheral Control functions
 799:Drivers/STM32F1xx_HAL_Driver/Src/stm32f1xx_hal_pcd.c ****  *  @brief   management functions
 800:Drivers/STM32F1xx_HAL_Driver/Src/stm32f1xx_hal_pcd.c ****  *
 801:Drivers/STM32F1xx_HAL_Driver/Src/stm32f1xx_hal_pcd.c **** @verbatim
 802:Drivers/STM32F1xx_HAL_Driver/Src/stm32f1xx_hal_pcd.c ****  ===============================================================================
 803:Drivers/STM32F1xx_HAL_Driver/Src/stm32f1xx_hal_pcd.c ****                       ##### Peripheral Control functions #####
 804:Drivers/STM32F1xx_HAL_Driver/Src/stm32f1xx_hal_pcd.c ****  ===============================================================================  
 805:Drivers/STM32F1xx_HAL_Driver/Src/stm32f1xx_hal_pcd.c ****     [..]
 806:Drivers/STM32F1xx_HAL_Driver/Src/stm32f1xx_hal_pcd.c ****     This subsection provides a set of functions allowing to control the PCD data 
 807:Drivers/STM32F1xx_HAL_Driver/Src/stm32f1xx_hal_pcd.c ****     transfers.
 808:Drivers/STM32F1xx_HAL_Driver/Src/stm32f1xx_hal_pcd.c **** 
 809:Drivers/STM32F1xx_HAL_Driver/Src/stm32f1xx_hal_pcd.c **** @endverbatim
 810:Drivers/STM32F1xx_HAL_Driver/Src/stm32f1xx_hal_pcd.c ****   * @{
 811:Drivers/STM32F1xx_HAL_Driver/Src/stm32f1xx_hal_pcd.c ****   */
 812:Drivers/STM32F1xx_HAL_Driver/Src/stm32f1xx_hal_pcd.c **** 
 813:Drivers/STM32F1xx_HAL_Driver/Src/stm32f1xx_hal_pcd.c **** /**
 814:Drivers/STM32F1xx_HAL_Driver/Src/stm32f1xx_hal_pcd.c ****   * @brief  Connect the USB device
 815:Drivers/STM32F1xx_HAL_Driver/Src/stm32f1xx_hal_pcd.c ****   * @param  hpcd: PCD handle
 816:Drivers/STM32F1xx_HAL_Driver/Src/stm32f1xx_hal_pcd.c ****   * @retval HAL status
ARM GAS  /var/folders/rf/wfq6hz5s56g3yh4wqgd7820c0000gn/T//cc4VRrEg.s 			page 29


 817:Drivers/STM32F1xx_HAL_Driver/Src/stm32f1xx_hal_pcd.c ****   */
 818:Drivers/STM32F1xx_HAL_Driver/Src/stm32f1xx_hal_pcd.c **** HAL_StatusTypeDef HAL_PCD_DevConnect(PCD_HandleTypeDef *hpcd)
 819:Drivers/STM32F1xx_HAL_Driver/Src/stm32f1xx_hal_pcd.c **** {
 723              		.loc 1 819 1 is_stmt 1 view -0
 724              		.cfi_startproc
 725              		@ args = 0, pretend = 0, frame = 0
 726              		@ frame_needed = 0, uses_anonymous_args = 0
 820:Drivers/STM32F1xx_HAL_Driver/Src/stm32f1xx_hal_pcd.c ****   __HAL_LOCK(hpcd);
 727              		.loc 1 820 3 view .LVU166
 728              		.loc 1 820 3 view .LVU167
 729 0000 90F82834 		ldrb	r3, [r0, #1064]	@ zero_extendqisi2
 730 0004 012B     		cmp	r3, #1
 731 0006 0DD0     		beq	.L50
 819:Drivers/STM32F1xx_HAL_Driver/Src/stm32f1xx_hal_pcd.c ****   __HAL_LOCK(hpcd);
 732              		.loc 1 819 1 is_stmt 0 discriminator 2 view .LVU168
 733 0008 10B5     		push	{r4, lr}
 734              	.LCFI10:
 735              		.cfi_def_cfa_offset 8
 736              		.cfi_offset 4, -8
 737              		.cfi_offset 14, -4
 738 000a 0446     		mov	r4, r0
 739              		.loc 1 820 3 is_stmt 1 discriminator 2 view .LVU169
 740 000c 0121     		movs	r1, #1
 741 000e 80F82814 		strb	r1, [r0, #1064]
 742              		.loc 1 820 3 discriminator 2 view .LVU170
 821:Drivers/STM32F1xx_HAL_Driver/Src/stm32f1xx_hal_pcd.c ****   HAL_PCDEx_SetConnectionState (hpcd, 1);
 743              		.loc 1 821 3 discriminator 2 view .LVU171
 744 0012 FFF7FEFF 		bl	HAL_PCDEx_SetConnectionState
 745              	.LVL49:
 822:Drivers/STM32F1xx_HAL_Driver/Src/stm32f1xx_hal_pcd.c ****   USB_DevConnect(hpcd->Instance);
 746              		.loc 1 822 3 discriminator 2 view .LVU172
 747 0016 2068     		ldr	r0, [r4]
 748 0018 FFF7FEFF 		bl	USB_DevConnect
 749              	.LVL50:
 823:Drivers/STM32F1xx_HAL_Driver/Src/stm32f1xx_hal_pcd.c ****   __HAL_UNLOCK(hpcd);
 750              		.loc 1 823 3 discriminator 2 view .LVU173
 751              		.loc 1 823 3 discriminator 2 view .LVU174
 752 001c 0020     		movs	r0, #0
 753 001e 84F82804 		strb	r0, [r4, #1064]
 754              		.loc 1 823 3 discriminator 2 view .LVU175
 824:Drivers/STM32F1xx_HAL_Driver/Src/stm32f1xx_hal_pcd.c ****   return HAL_OK;
 755              		.loc 1 824 3 discriminator 2 view .LVU176
 825:Drivers/STM32F1xx_HAL_Driver/Src/stm32f1xx_hal_pcd.c **** }
 756              		.loc 1 825 1 is_stmt 0 discriminator 2 view .LVU177
 757 0022 10BD     		pop	{r4, pc}
 758              	.LVL51:
 759              	.L50:
 760              	.LCFI11:
 761              		.cfi_def_cfa_offset 0
 762              		.cfi_restore 4
 763              		.cfi_restore 14
 820:Drivers/STM32F1xx_HAL_Driver/Src/stm32f1xx_hal_pcd.c ****   HAL_PCDEx_SetConnectionState (hpcd, 1);
 764              		.loc 1 820 3 view .LVU178
 765 0024 0220     		movs	r0, #2
 766              	.LVL52:
 767              		.loc 1 825 1 view .LVU179
 768 0026 7047     		bx	lr
ARM GAS  /var/folders/rf/wfq6hz5s56g3yh4wqgd7820c0000gn/T//cc4VRrEg.s 			page 30


 769              		.cfi_endproc
 770              	.LFE84:
 772              		.section	.text.HAL_PCD_DevDisconnect,"ax",%progbits
 773              		.align	1
 774              		.global	HAL_PCD_DevDisconnect
 775              		.syntax unified
 776              		.thumb
 777              		.thumb_func
 778              		.fpu softvfp
 780              	HAL_PCD_DevDisconnect:
 781              	.LVL53:
 782              	.LFB85:
 826:Drivers/STM32F1xx_HAL_Driver/Src/stm32f1xx_hal_pcd.c **** 
 827:Drivers/STM32F1xx_HAL_Driver/Src/stm32f1xx_hal_pcd.c **** /**
 828:Drivers/STM32F1xx_HAL_Driver/Src/stm32f1xx_hal_pcd.c ****   * @brief  Disconnect the USB device
 829:Drivers/STM32F1xx_HAL_Driver/Src/stm32f1xx_hal_pcd.c ****   * @param  hpcd: PCD handle
 830:Drivers/STM32F1xx_HAL_Driver/Src/stm32f1xx_hal_pcd.c ****   * @retval HAL status
 831:Drivers/STM32F1xx_HAL_Driver/Src/stm32f1xx_hal_pcd.c ****   */
 832:Drivers/STM32F1xx_HAL_Driver/Src/stm32f1xx_hal_pcd.c **** HAL_StatusTypeDef HAL_PCD_DevDisconnect(PCD_HandleTypeDef *hpcd)
 833:Drivers/STM32F1xx_HAL_Driver/Src/stm32f1xx_hal_pcd.c **** {
 783              		.loc 1 833 1 is_stmt 1 view -0
 784              		.cfi_startproc
 785              		@ args = 0, pretend = 0, frame = 0
 786              		@ frame_needed = 0, uses_anonymous_args = 0
 834:Drivers/STM32F1xx_HAL_Driver/Src/stm32f1xx_hal_pcd.c ****   __HAL_LOCK(hpcd);
 787              		.loc 1 834 3 view .LVU181
 788              		.loc 1 834 3 view .LVU182
 789 0000 90F82834 		ldrb	r3, [r0, #1064]	@ zero_extendqisi2
 790 0004 012B     		cmp	r3, #1
 791 0006 0ED0     		beq	.L57
 833:Drivers/STM32F1xx_HAL_Driver/Src/stm32f1xx_hal_pcd.c ****   __HAL_LOCK(hpcd);
 792              		.loc 1 833 1 is_stmt 0 discriminator 2 view .LVU183
 793 0008 10B5     		push	{r4, lr}
 794              	.LCFI12:
 795              		.cfi_def_cfa_offset 8
 796              		.cfi_offset 4, -8
 797              		.cfi_offset 14, -4
 798 000a 0446     		mov	r4, r0
 799              		.loc 1 834 3 is_stmt 1 discriminator 2 view .LVU184
 800 000c 0123     		movs	r3, #1
 801 000e 80F82834 		strb	r3, [r0, #1064]
 802              		.loc 1 834 3 discriminator 2 view .LVU185
 835:Drivers/STM32F1xx_HAL_Driver/Src/stm32f1xx_hal_pcd.c ****   HAL_PCDEx_SetConnectionState (hpcd, 0U);
 803              		.loc 1 835 3 discriminator 2 view .LVU186
 804 0012 0021     		movs	r1, #0
 805 0014 FFF7FEFF 		bl	HAL_PCDEx_SetConnectionState
 806              	.LVL54:
 836:Drivers/STM32F1xx_HAL_Driver/Src/stm32f1xx_hal_pcd.c ****   USB_DevDisconnect(hpcd->Instance);
 807              		.loc 1 836 3 discriminator 2 view .LVU187
 808 0018 2068     		ldr	r0, [r4]
 809 001a FFF7FEFF 		bl	USB_DevDisconnect
 810              	.LVL55:
 837:Drivers/STM32F1xx_HAL_Driver/Src/stm32f1xx_hal_pcd.c ****   __HAL_UNLOCK(hpcd);
 811              		.loc 1 837 3 discriminator 2 view .LVU188
 812              		.loc 1 837 3 discriminator 2 view .LVU189
 813 001e 0020     		movs	r0, #0
 814 0020 84F82804 		strb	r0, [r4, #1064]
ARM GAS  /var/folders/rf/wfq6hz5s56g3yh4wqgd7820c0000gn/T//cc4VRrEg.s 			page 31


 815              		.loc 1 837 3 discriminator 2 view .LVU190
 838:Drivers/STM32F1xx_HAL_Driver/Src/stm32f1xx_hal_pcd.c ****   return HAL_OK;
 816              		.loc 1 838 3 discriminator 2 view .LVU191
 839:Drivers/STM32F1xx_HAL_Driver/Src/stm32f1xx_hal_pcd.c **** }
 817              		.loc 1 839 1 is_stmt 0 discriminator 2 view .LVU192
 818 0024 10BD     		pop	{r4, pc}
 819              	.LVL56:
 820              	.L57:
 821              	.LCFI13:
 822              		.cfi_def_cfa_offset 0
 823              		.cfi_restore 4
 824              		.cfi_restore 14
 834:Drivers/STM32F1xx_HAL_Driver/Src/stm32f1xx_hal_pcd.c ****   HAL_PCDEx_SetConnectionState (hpcd, 0U);
 825              		.loc 1 834 3 view .LVU193
 826 0026 0220     		movs	r0, #2
 827              	.LVL57:
 828              		.loc 1 839 1 view .LVU194
 829 0028 7047     		bx	lr
 830              		.cfi_endproc
 831              	.LFE85:
 833              		.section	.text.HAL_PCD_SetAddress,"ax",%progbits
 834              		.align	1
 835              		.global	HAL_PCD_SetAddress
 836              		.syntax unified
 837              		.thumb
 838              		.thumb_func
 839              		.fpu softvfp
 841              	HAL_PCD_SetAddress:
 842              	.LVL58:
 843              	.LFB86:
 840:Drivers/STM32F1xx_HAL_Driver/Src/stm32f1xx_hal_pcd.c **** 
 841:Drivers/STM32F1xx_HAL_Driver/Src/stm32f1xx_hal_pcd.c **** /**
 842:Drivers/STM32F1xx_HAL_Driver/Src/stm32f1xx_hal_pcd.c ****   * @brief  Set the USB Device address
 843:Drivers/STM32F1xx_HAL_Driver/Src/stm32f1xx_hal_pcd.c ****   * @param  hpcd: PCD handle
 844:Drivers/STM32F1xx_HAL_Driver/Src/stm32f1xx_hal_pcd.c ****   * @param  address: new device address
 845:Drivers/STM32F1xx_HAL_Driver/Src/stm32f1xx_hal_pcd.c ****   * @retval HAL status
 846:Drivers/STM32F1xx_HAL_Driver/Src/stm32f1xx_hal_pcd.c ****   */
 847:Drivers/STM32F1xx_HAL_Driver/Src/stm32f1xx_hal_pcd.c **** HAL_StatusTypeDef HAL_PCD_SetAddress(PCD_HandleTypeDef *hpcd, uint8_t address)
 848:Drivers/STM32F1xx_HAL_Driver/Src/stm32f1xx_hal_pcd.c **** {
 844              		.loc 1 848 1 is_stmt 1 view -0
 845              		.cfi_startproc
 846              		@ args = 0, pretend = 0, frame = 0
 847              		@ frame_needed = 0, uses_anonymous_args = 0
 849:Drivers/STM32F1xx_HAL_Driver/Src/stm32f1xx_hal_pcd.c ****   __HAL_LOCK(hpcd);
 848              		.loc 1 849 3 view .LVU196
 849              		.loc 1 849 3 view .LVU197
 850 0000 90F82834 		ldrb	r3, [r0, #1064]	@ zero_extendqisi2
 851 0004 012B     		cmp	r3, #1
 852 0006 0DD0     		beq	.L64
 848:Drivers/STM32F1xx_HAL_Driver/Src/stm32f1xx_hal_pcd.c ****   __HAL_LOCK(hpcd);
 853              		.loc 1 848 1 is_stmt 0 discriminator 2 view .LVU198
 854 0008 10B5     		push	{r4, lr}
 855              	.LCFI14:
 856              		.cfi_def_cfa_offset 8
 857              		.cfi_offset 4, -8
 858              		.cfi_offset 14, -4
 859 000a 0446     		mov	r4, r0
ARM GAS  /var/folders/rf/wfq6hz5s56g3yh4wqgd7820c0000gn/T//cc4VRrEg.s 			page 32


 860              		.loc 1 849 3 is_stmt 1 discriminator 2 view .LVU199
 861 000c 0123     		movs	r3, #1
 862 000e 80F82834 		strb	r3, [r0, #1064]
 863              		.loc 1 849 3 discriminator 2 view .LVU200
 850:Drivers/STM32F1xx_HAL_Driver/Src/stm32f1xx_hal_pcd.c ****   hpcd->USB_Address = address;
 864              		.loc 1 850 3 discriminator 2 view .LVU201
 865              		.loc 1 850 21 is_stmt 0 discriminator 2 view .LVU202
 866 0012 80F82410 		strb	r1, [r0, #36]
 851:Drivers/STM32F1xx_HAL_Driver/Src/stm32f1xx_hal_pcd.c ****   USB_SetDevAddress(hpcd->Instance, address);
 867              		.loc 1 851 3 is_stmt 1 discriminator 2 view .LVU203
 868 0016 0068     		ldr	r0, [r0]
 869              	.LVL59:
 870              		.loc 1 851 3 is_stmt 0 discriminator 2 view .LVU204
 871 0018 FFF7FEFF 		bl	USB_SetDevAddress
 872              	.LVL60:
 852:Drivers/STM32F1xx_HAL_Driver/Src/stm32f1xx_hal_pcd.c ****   __HAL_UNLOCK(hpcd);
 873              		.loc 1 852 3 is_stmt 1 discriminator 2 view .LVU205
 874              		.loc 1 852 3 discriminator 2 view .LVU206
 875 001c 0020     		movs	r0, #0
 876 001e 84F82804 		strb	r0, [r4, #1064]
 877              		.loc 1 852 3 discriminator 2 view .LVU207
 853:Drivers/STM32F1xx_HAL_Driver/Src/stm32f1xx_hal_pcd.c ****   return HAL_OK;
 878              		.loc 1 853 3 discriminator 2 view .LVU208
 854:Drivers/STM32F1xx_HAL_Driver/Src/stm32f1xx_hal_pcd.c **** }
 879              		.loc 1 854 1 is_stmt 0 discriminator 2 view .LVU209
 880 0022 10BD     		pop	{r4, pc}
 881              	.LVL61:
 882              	.L64:
 883              	.LCFI15:
 884              		.cfi_def_cfa_offset 0
 885              		.cfi_restore 4
 886              		.cfi_restore 14
 849:Drivers/STM32F1xx_HAL_Driver/Src/stm32f1xx_hal_pcd.c ****   hpcd->USB_Address = address;
 887              		.loc 1 849 3 view .LVU210
 888 0024 0220     		movs	r0, #2
 889              	.LVL62:
 890              		.loc 1 854 1 view .LVU211
 891 0026 7047     		bx	lr
 892              		.cfi_endproc
 893              	.LFE86:
 895              		.section	.text.HAL_PCD_EP_Open,"ax",%progbits
 896              		.align	1
 897              		.global	HAL_PCD_EP_Open
 898              		.syntax unified
 899              		.thumb
 900              		.thumb_func
 901              		.fpu softvfp
 903              	HAL_PCD_EP_Open:
 904              	.LVL63:
 905              	.LFB87:
 855:Drivers/STM32F1xx_HAL_Driver/Src/stm32f1xx_hal_pcd.c **** /**
 856:Drivers/STM32F1xx_HAL_Driver/Src/stm32f1xx_hal_pcd.c ****   * @brief  Open and configure an endpoint
 857:Drivers/STM32F1xx_HAL_Driver/Src/stm32f1xx_hal_pcd.c ****   * @param  hpcd: PCD handle
 858:Drivers/STM32F1xx_HAL_Driver/Src/stm32f1xx_hal_pcd.c ****   * @param  ep_addr: endpoint address
 859:Drivers/STM32F1xx_HAL_Driver/Src/stm32f1xx_hal_pcd.c ****   * @param  ep_mps: endpoint max packet size
 860:Drivers/STM32F1xx_HAL_Driver/Src/stm32f1xx_hal_pcd.c ****   * @param  ep_type: endpoint type   
 861:Drivers/STM32F1xx_HAL_Driver/Src/stm32f1xx_hal_pcd.c ****   * @retval HAL status
ARM GAS  /var/folders/rf/wfq6hz5s56g3yh4wqgd7820c0000gn/T//cc4VRrEg.s 			page 33


 862:Drivers/STM32F1xx_HAL_Driver/Src/stm32f1xx_hal_pcd.c ****   */
 863:Drivers/STM32F1xx_HAL_Driver/Src/stm32f1xx_hal_pcd.c **** HAL_StatusTypeDef HAL_PCD_EP_Open(PCD_HandleTypeDef *hpcd, uint8_t ep_addr, uint16_t ep_mps, uint8_
 864:Drivers/STM32F1xx_HAL_Driver/Src/stm32f1xx_hal_pcd.c **** {
 906              		.loc 1 864 1 is_stmt 1 view -0
 907              		.cfi_startproc
 908              		@ args = 0, pretend = 0, frame = 0
 909              		@ frame_needed = 0, uses_anonymous_args = 0
 910              		.loc 1 864 1 is_stmt 0 view .LVU213
 911 0000 70B5     		push	{r4, r5, r6, lr}
 912              	.LCFI16:
 913              		.cfi_def_cfa_offset 16
 914              		.cfi_offset 4, -16
 915              		.cfi_offset 5, -12
 916              		.cfi_offset 6, -8
 917              		.cfi_offset 14, -4
 918 0002 0546     		mov	r5, r0
 919 0004 0846     		mov	r0, r1
 920              	.LVL64:
 865:Drivers/STM32F1xx_HAL_Driver/Src/stm32f1xx_hal_pcd.c ****   HAL_StatusTypeDef  ret = HAL_OK;
 921              		.loc 1 865 3 is_stmt 1 view .LVU214
 866:Drivers/STM32F1xx_HAL_Driver/Src/stm32f1xx_hal_pcd.c ****   PCD_EPTypeDef *ep = NULL;
 922              		.loc 1 866 3 view .LVU215
 867:Drivers/STM32F1xx_HAL_Driver/Src/stm32f1xx_hal_pcd.c ****   
 868:Drivers/STM32F1xx_HAL_Driver/Src/stm32f1xx_hal_pcd.c ****   if ((ep_addr & 0x80U) == 0x80U)
 923              		.loc 1 868 3 view .LVU216
 924              		.loc 1 868 25 is_stmt 0 view .LVU217
 925 0006 4EB2     		sxtb	r6, r1
 926              		.loc 1 868 6 view .LVU218
 927 0008 002E     		cmp	r6, #0
 928 000a 1ADB     		blt	.L75
 869:Drivers/STM32F1xx_HAL_Driver/Src/stm32f1xx_hal_pcd.c ****   {
 870:Drivers/STM32F1xx_HAL_Driver/Src/stm32f1xx_hal_pcd.c ****     ep = &hpcd->IN_ep[ep_addr & 0x7FU];
 871:Drivers/STM32F1xx_HAL_Driver/Src/stm32f1xx_hal_pcd.c ****   }
 872:Drivers/STM32F1xx_HAL_Driver/Src/stm32f1xx_hal_pcd.c ****   else
 873:Drivers/STM32F1xx_HAL_Driver/Src/stm32f1xx_hal_pcd.c ****   {
 874:Drivers/STM32F1xx_HAL_Driver/Src/stm32f1xx_hal_pcd.c ****     ep = &hpcd->OUT_ep[ep_addr & 0x7FU];
 929              		.loc 1 874 5 is_stmt 1 view .LVU219
 930              		.loc 1 874 32 is_stmt 0 view .LVU220
 931 000c 01F07F04 		and	r4, r1, #127
 932              		.loc 1 874 8 view .LVU221
 933 0010 6401     		lsls	r4, r4, #5
 934 0012 04F50A74 		add	r4, r4, #552
 935 0016 2919     		adds	r1, r5, r4
 936              	.LVL65:
 937              	.L71:
 875:Drivers/STM32F1xx_HAL_Driver/Src/stm32f1xx_hal_pcd.c ****   }
 876:Drivers/STM32F1xx_HAL_Driver/Src/stm32f1xx_hal_pcd.c ****   ep->num   = ep_addr & 0x7FU;
 938              		.loc 1 876 3 is_stmt 1 view .LVU222
 939              		.loc 1 876 23 is_stmt 0 view .LVU223
 940 0018 00F07F00 		and	r0, r0, #127
 941              		.loc 1 876 13 view .LVU224
 942 001c 0870     		strb	r0, [r1]
 877:Drivers/STM32F1xx_HAL_Driver/Src/stm32f1xx_hal_pcd.c ****   
 878:Drivers/STM32F1xx_HAL_Driver/Src/stm32f1xx_hal_pcd.c ****   ep->is_in = (0x80U & ep_addr) != 0U;
 943              		.loc 1 878 3 is_stmt 1 view .LVU225
 944              		.loc 1 878 33 is_stmt 0 view .LVU226
 945 001e F60F     		lsrs	r6, r6, #31
ARM GAS  /var/folders/rf/wfq6hz5s56g3yh4wqgd7820c0000gn/T//cc4VRrEg.s 			page 34


 946              	.LVL66:
 947              		.loc 1 878 13 view .LVU227
 948 0020 4E70     		strb	r6, [r1, #1]
 879:Drivers/STM32F1xx_HAL_Driver/Src/stm32f1xx_hal_pcd.c ****   ep->maxpacket = ep_mps;
 949              		.loc 1 879 3 is_stmt 1 view .LVU228
 950              		.loc 1 879 17 is_stmt 0 view .LVU229
 951 0022 0A61     		str	r2, [r1, #16]
 880:Drivers/STM32F1xx_HAL_Driver/Src/stm32f1xx_hal_pcd.c ****   ep->type = ep_type;
 952              		.loc 1 880 3 is_stmt 1 view .LVU230
 953              		.loc 1 880 12 is_stmt 0 view .LVU231
 954 0024 CB70     		strb	r3, [r1, #3]
 881:Drivers/STM32F1xx_HAL_Driver/Src/stm32f1xx_hal_pcd.c ****     
 882:Drivers/STM32F1xx_HAL_Driver/Src/stm32f1xx_hal_pcd.c ****   __HAL_LOCK(hpcd);
 955              		.loc 1 882 3 is_stmt 1 view .LVU232
 956              		.loc 1 882 3 view .LVU233
 957 0026 95F82834 		ldrb	r3, [r5, #1064]	@ zero_extendqisi2
 958              	.LVL67:
 959              		.loc 1 882 3 is_stmt 0 view .LVU234
 960 002a 012B     		cmp	r3, #1
 961 002c 0FD0     		beq	.L73
 962              		.loc 1 882 3 is_stmt 1 discriminator 2 view .LVU235
 963 002e 0123     		movs	r3, #1
 964 0030 85F82834 		strb	r3, [r5, #1064]
 965              	.LVL68:
 966              		.loc 1 882 3 discriminator 2 view .LVU236
 883:Drivers/STM32F1xx_HAL_Driver/Src/stm32f1xx_hal_pcd.c ****   USB_ActivateEndpoint(hpcd->Instance , ep);
 967              		.loc 1 883 3 discriminator 2 view .LVU237
 968 0034 2868     		ldr	r0, [r5]
 969 0036 FFF7FEFF 		bl	USB_ActivateEndpoint
 970              	.LVL69:
 884:Drivers/STM32F1xx_HAL_Driver/Src/stm32f1xx_hal_pcd.c ****   __HAL_UNLOCK(hpcd);
 971              		.loc 1 884 3 discriminator 2 view .LVU238
 972              		.loc 1 884 3 discriminator 2 view .LVU239
 973 003a 0020     		movs	r0, #0
 974 003c 85F82804 		strb	r0, [r5, #1064]
 975              		.loc 1 884 3 discriminator 2 view .LVU240
 885:Drivers/STM32F1xx_HAL_Driver/Src/stm32f1xx_hal_pcd.c ****   return ret;
 976              		.loc 1 885 3 discriminator 2 view .LVU241
 977              	.L72:
 886:Drivers/STM32F1xx_HAL_Driver/Src/stm32f1xx_hal_pcd.c **** }
 978              		.loc 1 886 1 is_stmt 0 view .LVU242
 979 0040 70BD     		pop	{r4, r5, r6, pc}
 980              	.LVL70:
 981              	.L75:
 870:Drivers/STM32F1xx_HAL_Driver/Src/stm32f1xx_hal_pcd.c ****   }
 982              		.loc 1 870 5 is_stmt 1 view .LVU243
 870:Drivers/STM32F1xx_HAL_Driver/Src/stm32f1xx_hal_pcd.c ****   }
 983              		.loc 1 870 31 is_stmt 0 view .LVU244
 984 0042 01F07F04 		and	r4, r1, #127
 870:Drivers/STM32F1xx_HAL_Driver/Src/stm32f1xx_hal_pcd.c ****   }
 985              		.loc 1 870 8 view .LVU245
 986 0046 6401     		lsls	r4, r4, #5
 987 0048 2834     		adds	r4, r4, #40
 988 004a 2919     		adds	r1, r5, r4
 989              	.LVL71:
 870:Drivers/STM32F1xx_HAL_Driver/Src/stm32f1xx_hal_pcd.c ****   }
 990              		.loc 1 870 8 view .LVU246
ARM GAS  /var/folders/rf/wfq6hz5s56g3yh4wqgd7820c0000gn/T//cc4VRrEg.s 			page 35


 991 004c E4E7     		b	.L71
 992              	.LVL72:
 993              	.L73:
 882:Drivers/STM32F1xx_HAL_Driver/Src/stm32f1xx_hal_pcd.c ****   USB_ActivateEndpoint(hpcd->Instance , ep);
 994              		.loc 1 882 3 view .LVU247
 995 004e 0220     		movs	r0, #2
 996 0050 F6E7     		b	.L72
 997              		.cfi_endproc
 998              	.LFE87:
 1000              		.section	.text.HAL_PCD_EP_Close,"ax",%progbits
 1001              		.align	1
 1002              		.global	HAL_PCD_EP_Close
 1003              		.syntax unified
 1004              		.thumb
 1005              		.thumb_func
 1006              		.fpu softvfp
 1008              	HAL_PCD_EP_Close:
 1009              	.LVL73:
 1010              	.LFB88:
 887:Drivers/STM32F1xx_HAL_Driver/Src/stm32f1xx_hal_pcd.c **** 
 888:Drivers/STM32F1xx_HAL_Driver/Src/stm32f1xx_hal_pcd.c **** /**
 889:Drivers/STM32F1xx_HAL_Driver/Src/stm32f1xx_hal_pcd.c ****   * @brief  Deactivate an endpoint
 890:Drivers/STM32F1xx_HAL_Driver/Src/stm32f1xx_hal_pcd.c ****   * @param  hpcd: PCD handle
 891:Drivers/STM32F1xx_HAL_Driver/Src/stm32f1xx_hal_pcd.c ****   * @param  ep_addr: endpoint address
 892:Drivers/STM32F1xx_HAL_Driver/Src/stm32f1xx_hal_pcd.c ****   * @retval HAL status
 893:Drivers/STM32F1xx_HAL_Driver/Src/stm32f1xx_hal_pcd.c ****   */
 894:Drivers/STM32F1xx_HAL_Driver/Src/stm32f1xx_hal_pcd.c **** HAL_StatusTypeDef HAL_PCD_EP_Close(PCD_HandleTypeDef *hpcd, uint8_t ep_addr)
 895:Drivers/STM32F1xx_HAL_Driver/Src/stm32f1xx_hal_pcd.c **** {  
 1011              		.loc 1 895 1 is_stmt 1 view -0
 1012              		.cfi_startproc
 1013              		@ args = 0, pretend = 0, frame = 0
 1014              		@ frame_needed = 0, uses_anonymous_args = 0
 1015              		.loc 1 895 1 is_stmt 0 view .LVU249
 1016 0000 10B5     		push	{r4, lr}
 1017              	.LCFI17:
 1018              		.cfi_def_cfa_offset 8
 1019              		.cfi_offset 4, -8
 1020              		.cfi_offset 14, -4
 1021 0002 0446     		mov	r4, r0
 1022 0004 0A46     		mov	r2, r1
 896:Drivers/STM32F1xx_HAL_Driver/Src/stm32f1xx_hal_pcd.c ****   PCD_EPTypeDef *ep = NULL;
 1023              		.loc 1 896 3 is_stmt 1 view .LVU250
 1024              	.LVL74:
 897:Drivers/STM32F1xx_HAL_Driver/Src/stm32f1xx_hal_pcd.c ****   
 898:Drivers/STM32F1xx_HAL_Driver/Src/stm32f1xx_hal_pcd.c ****   if ((ep_addr & 0x80U) == 0x80U)
 1025              		.loc 1 898 3 view .LVU251
 1026              		.loc 1 898 25 is_stmt 0 view .LVU252
 1027 0006 48B2     		sxtb	r0, r1
 1028              	.LVL75:
 1029              		.loc 1 898 6 view .LVU253
 1030 0008 0028     		cmp	r0, #0
 1031 000a 18DB     		blt	.L82
 899:Drivers/STM32F1xx_HAL_Driver/Src/stm32f1xx_hal_pcd.c ****   {
 900:Drivers/STM32F1xx_HAL_Driver/Src/stm32f1xx_hal_pcd.c ****     ep = &hpcd->IN_ep[ep_addr & 0x7FU];
 901:Drivers/STM32F1xx_HAL_Driver/Src/stm32f1xx_hal_pcd.c ****   }
 902:Drivers/STM32F1xx_HAL_Driver/Src/stm32f1xx_hal_pcd.c ****   else
 903:Drivers/STM32F1xx_HAL_Driver/Src/stm32f1xx_hal_pcd.c ****   {
ARM GAS  /var/folders/rf/wfq6hz5s56g3yh4wqgd7820c0000gn/T//cc4VRrEg.s 			page 36


 904:Drivers/STM32F1xx_HAL_Driver/Src/stm32f1xx_hal_pcd.c ****     ep = &hpcd->OUT_ep[ep_addr & 0x7FU];
 1032              		.loc 1 904 5 is_stmt 1 view .LVU254
 1033              		.loc 1 904 32 is_stmt 0 view .LVU255
 1034 000c 01F07F03 		and	r3, r1, #127
 1035              		.loc 1 904 8 view .LVU256
 1036 0010 5B01     		lsls	r3, r3, #5
 1037 0012 03F50A73 		add	r3, r3, #552
 1038 0016 E118     		adds	r1, r4, r3
 1039              	.LVL76:
 1040              	.L78:
 905:Drivers/STM32F1xx_HAL_Driver/Src/stm32f1xx_hal_pcd.c ****   }
 906:Drivers/STM32F1xx_HAL_Driver/Src/stm32f1xx_hal_pcd.c ****   ep->num   = ep_addr & 0x7FU;
 1041              		.loc 1 906 3 is_stmt 1 view .LVU257
 1042              		.loc 1 906 23 is_stmt 0 view .LVU258
 1043 0018 02F07F02 		and	r2, r2, #127
 1044              		.loc 1 906 13 view .LVU259
 1045 001c 0A70     		strb	r2, [r1]
 907:Drivers/STM32F1xx_HAL_Driver/Src/stm32f1xx_hal_pcd.c ****   
 908:Drivers/STM32F1xx_HAL_Driver/Src/stm32f1xx_hal_pcd.c ****   ep->is_in = (0x80U & ep_addr) != 0U;
 1046              		.loc 1 908 3 is_stmt 1 view .LVU260
 1047              		.loc 1 908 33 is_stmt 0 view .LVU261
 1048 001e C00F     		lsrs	r0, r0, #31
 1049              	.LVL77:
 1050              		.loc 1 908 13 view .LVU262
 1051 0020 4870     		strb	r0, [r1, #1]
 909:Drivers/STM32F1xx_HAL_Driver/Src/stm32f1xx_hal_pcd.c ****   
 910:Drivers/STM32F1xx_HAL_Driver/Src/stm32f1xx_hal_pcd.c ****   __HAL_LOCK(hpcd);
 1052              		.loc 1 910 3 is_stmt 1 view .LVU263
 1053              		.loc 1 910 3 view .LVU264
 1054 0022 94F82834 		ldrb	r3, [r4, #1064]	@ zero_extendqisi2
 1055 0026 012B     		cmp	r3, #1
 1056 0028 0FD0     		beq	.L80
 1057              		.loc 1 910 3 discriminator 2 view .LVU265
 1058 002a 0123     		movs	r3, #1
 1059 002c 84F82834 		strb	r3, [r4, #1064]
 1060              		.loc 1 910 3 discriminator 2 view .LVU266
 911:Drivers/STM32F1xx_HAL_Driver/Src/stm32f1xx_hal_pcd.c ****   USB_DeactivateEndpoint(hpcd->Instance , ep);
 1061              		.loc 1 911 3 discriminator 2 view .LVU267
 1062 0030 2068     		ldr	r0, [r4]
 1063 0032 FFF7FEFF 		bl	USB_DeactivateEndpoint
 1064              	.LVL78:
 912:Drivers/STM32F1xx_HAL_Driver/Src/stm32f1xx_hal_pcd.c ****   __HAL_UNLOCK(hpcd);
 1065              		.loc 1 912 3 discriminator 2 view .LVU268
 1066              		.loc 1 912 3 discriminator 2 view .LVU269
 1067 0036 0020     		movs	r0, #0
 1068 0038 84F82804 		strb	r0, [r4, #1064]
 1069              		.loc 1 912 3 discriminator 2 view .LVU270
 913:Drivers/STM32F1xx_HAL_Driver/Src/stm32f1xx_hal_pcd.c ****   return HAL_OK;
 1070              		.loc 1 913 3 discriminator 2 view .LVU271
 1071              	.L79:
 914:Drivers/STM32F1xx_HAL_Driver/Src/stm32f1xx_hal_pcd.c **** }
 1072              		.loc 1 914 1 is_stmt 0 view .LVU272
 1073 003c 10BD     		pop	{r4, pc}
 1074              	.LVL79:
 1075              	.L82:
 900:Drivers/STM32F1xx_HAL_Driver/Src/stm32f1xx_hal_pcd.c ****   }
 1076              		.loc 1 900 5 is_stmt 1 view .LVU273
ARM GAS  /var/folders/rf/wfq6hz5s56g3yh4wqgd7820c0000gn/T//cc4VRrEg.s 			page 37


 900:Drivers/STM32F1xx_HAL_Driver/Src/stm32f1xx_hal_pcd.c ****   }
 1077              		.loc 1 900 31 is_stmt 0 view .LVU274
 1078 003e 01F07F03 		and	r3, r1, #127
 900:Drivers/STM32F1xx_HAL_Driver/Src/stm32f1xx_hal_pcd.c ****   }
 1079              		.loc 1 900 8 view .LVU275
 1080 0042 5B01     		lsls	r3, r3, #5
 1081 0044 2833     		adds	r3, r3, #40
 1082 0046 E118     		adds	r1, r4, r3
 1083              	.LVL80:
 900:Drivers/STM32F1xx_HAL_Driver/Src/stm32f1xx_hal_pcd.c ****   }
 1084              		.loc 1 900 8 view .LVU276
 1085 0048 E6E7     		b	.L78
 1086              	.LVL81:
 1087              	.L80:
 910:Drivers/STM32F1xx_HAL_Driver/Src/stm32f1xx_hal_pcd.c ****   USB_DeactivateEndpoint(hpcd->Instance , ep);
 1088              		.loc 1 910 3 view .LVU277
 1089 004a 0220     		movs	r0, #2
 1090 004c F6E7     		b	.L79
 1091              		.cfi_endproc
 1092              	.LFE88:
 1094              		.section	.text.HAL_PCD_EP_Receive,"ax",%progbits
 1095              		.align	1
 1096              		.global	HAL_PCD_EP_Receive
 1097              		.syntax unified
 1098              		.thumb
 1099              		.thumb_func
 1100              		.fpu softvfp
 1102              	HAL_PCD_EP_Receive:
 1103              	.LVL82:
 1104              	.LFB89:
 915:Drivers/STM32F1xx_HAL_Driver/Src/stm32f1xx_hal_pcd.c **** 
 916:Drivers/STM32F1xx_HAL_Driver/Src/stm32f1xx_hal_pcd.c **** 
 917:Drivers/STM32F1xx_HAL_Driver/Src/stm32f1xx_hal_pcd.c **** /**
 918:Drivers/STM32F1xx_HAL_Driver/Src/stm32f1xx_hal_pcd.c ****   * @brief  Receive an amount of data
 919:Drivers/STM32F1xx_HAL_Driver/Src/stm32f1xx_hal_pcd.c ****   * @param  hpcd: PCD handle
 920:Drivers/STM32F1xx_HAL_Driver/Src/stm32f1xx_hal_pcd.c ****   * @param  ep_addr: endpoint address
 921:Drivers/STM32F1xx_HAL_Driver/Src/stm32f1xx_hal_pcd.c ****   * @param  pBuf: pointer to the reception buffer
 922:Drivers/STM32F1xx_HAL_Driver/Src/stm32f1xx_hal_pcd.c ****   * @param  len: amount of data to be received
 923:Drivers/STM32F1xx_HAL_Driver/Src/stm32f1xx_hal_pcd.c ****   * @retval HAL status
 924:Drivers/STM32F1xx_HAL_Driver/Src/stm32f1xx_hal_pcd.c ****   */
 925:Drivers/STM32F1xx_HAL_Driver/Src/stm32f1xx_hal_pcd.c **** HAL_StatusTypeDef HAL_PCD_EP_Receive(PCD_HandleTypeDef *hpcd, uint8_t ep_addr, uint8_t *pBuf, uint3
 926:Drivers/STM32F1xx_HAL_Driver/Src/stm32f1xx_hal_pcd.c **** {
 1105              		.loc 1 926 1 is_stmt 1 view -0
 1106              		.cfi_startproc
 1107              		@ args = 0, pretend = 0, frame = 0
 1108              		@ frame_needed = 0, uses_anonymous_args = 0
 1109              		.loc 1 926 1 is_stmt 0 view .LVU279
 1110 0000 70B5     		push	{r4, r5, r6, lr}
 1111              	.LCFI18:
 1112              		.cfi_def_cfa_offset 16
 1113              		.cfi_offset 4, -16
 1114              		.cfi_offset 5, -12
 1115              		.cfi_offset 6, -8
 1116              		.cfi_offset 14, -4
 927:Drivers/STM32F1xx_HAL_Driver/Src/stm32f1xx_hal_pcd.c ****   PCD_EPTypeDef *ep = NULL;
 1117              		.loc 1 927 3 is_stmt 1 view .LVU280
 1118              	.LVL83:
ARM GAS  /var/folders/rf/wfq6hz5s56g3yh4wqgd7820c0000gn/T//cc4VRrEg.s 			page 38


 928:Drivers/STM32F1xx_HAL_Driver/Src/stm32f1xx_hal_pcd.c ****   
 929:Drivers/STM32F1xx_HAL_Driver/Src/stm32f1xx_hal_pcd.c ****   ep = &hpcd->OUT_ep[ep_addr & 0x7FU];
 1119              		.loc 1 929 3 view .LVU281
 1120 0002 01F07F04 		and	r4, r1, #127
 1121              		.loc 1 929 6 is_stmt 0 view .LVU282
 1122 0006 6501     		lsls	r5, r4, #5
 1123 0008 05F50A71 		add	r1, r5, #552
 1124              	.LVL84:
 1125              		.loc 1 929 6 view .LVU283
 1126 000c 0144     		add	r1, r1, r0
 1127              	.LVL85:
 930:Drivers/STM32F1xx_HAL_Driver/Src/stm32f1xx_hal_pcd.c ****   
 931:Drivers/STM32F1xx_HAL_Driver/Src/stm32f1xx_hal_pcd.c ****   /*setup and start the Xfer */
 932:Drivers/STM32F1xx_HAL_Driver/Src/stm32f1xx_hal_pcd.c ****   ep->xfer_buff = pBuf;  
 1128              		.loc 1 932 3 is_stmt 1 view .LVU284
 1129              		.loc 1 932 17 is_stmt 0 view .LVU285
 1130 000e 0544     		add	r5, r5, r0
 1131 0010 C5F83C22 		str	r2, [r5, #572]
 933:Drivers/STM32F1xx_HAL_Driver/Src/stm32f1xx_hal_pcd.c ****   ep->xfer_len = len;
 1132              		.loc 1 933 3 is_stmt 1 view .LVU286
 1133              		.loc 1 933 16 is_stmt 0 view .LVU287
 1134 0014 04F11202 		add	r2, r4, #18
 1135              	.LVL86:
 1136              		.loc 1 933 16 view .LVU288
 1137 0018 5601     		lsls	r6, r2, #5
 1138 001a 00EB4212 		add	r2, r0, r2, lsl #5
 1139 001e 8351     		str	r3, [r0, r6]
 1140              	.LVL87:
 934:Drivers/STM32F1xx_HAL_Driver/Src/stm32f1xx_hal_pcd.c ****   ep->xfer_count = 0U;
 1141              		.loc 1 934 3 is_stmt 1 view .LVU289
 1142              		.loc 1 934 18 is_stmt 0 view .LVU290
 1143 0020 0023     		movs	r3, #0
 1144              	.LVL88:
 1145              		.loc 1 934 18 view .LVU291
 1146 0022 5360     		str	r3, [r2, #4]
 935:Drivers/STM32F1xx_HAL_Driver/Src/stm32f1xx_hal_pcd.c ****   ep->is_in = 0U;
 1147              		.loc 1 935 3 is_stmt 1 view .LVU292
 1148              		.loc 1 935 13 is_stmt 0 view .LVU293
 1149 0024 85F82932 		strb	r3, [r5, #553]
 1150              	.LVL89:
 936:Drivers/STM32F1xx_HAL_Driver/Src/stm32f1xx_hal_pcd.c ****   ep->num = ep_addr & 0x7FU;
 1151              		.loc 1 936 3 is_stmt 1 view .LVU294
 1152              		.loc 1 936 11 is_stmt 0 view .LVU295
 1153 0028 85F82842 		strb	r4, [r5, #552]
 937:Drivers/STM32F1xx_HAL_Driver/Src/stm32f1xx_hal_pcd.c **** 
 938:Drivers/STM32F1xx_HAL_Driver/Src/stm32f1xx_hal_pcd.c ****   if ((ep_addr & 0x7FU) == 0U)
 1154              		.loc 1 938 3 is_stmt 1 view .LVU296
 1155              		.loc 1 938 6 is_stmt 0 view .LVU297
 1156 002c 24B9     		cbnz	r4, .L84
 939:Drivers/STM32F1xx_HAL_Driver/Src/stm32f1xx_hal_pcd.c ****   {
 940:Drivers/STM32F1xx_HAL_Driver/Src/stm32f1xx_hal_pcd.c ****     USB_EP0StartXfer(hpcd->Instance , ep);
 1157              		.loc 1 940 5 is_stmt 1 view .LVU298
 1158 002e 0068     		ldr	r0, [r0]
 1159              	.LVL90:
 1160              		.loc 1 940 5 is_stmt 0 view .LVU299
 1161 0030 FFF7FEFF 		bl	USB_EPStartXfer
 1162              	.LVL91:
ARM GAS  /var/folders/rf/wfq6hz5s56g3yh4wqgd7820c0000gn/T//cc4VRrEg.s 			page 39


 1163              	.L85:
 941:Drivers/STM32F1xx_HAL_Driver/Src/stm32f1xx_hal_pcd.c ****   }
 942:Drivers/STM32F1xx_HAL_Driver/Src/stm32f1xx_hal_pcd.c ****   else
 943:Drivers/STM32F1xx_HAL_Driver/Src/stm32f1xx_hal_pcd.c ****   {
 944:Drivers/STM32F1xx_HAL_Driver/Src/stm32f1xx_hal_pcd.c ****     USB_EPStartXfer(hpcd->Instance , ep);
 945:Drivers/STM32F1xx_HAL_Driver/Src/stm32f1xx_hal_pcd.c ****   }
 946:Drivers/STM32F1xx_HAL_Driver/Src/stm32f1xx_hal_pcd.c **** 
 947:Drivers/STM32F1xx_HAL_Driver/Src/stm32f1xx_hal_pcd.c ****   return HAL_OK;
 1164              		.loc 1 947 3 is_stmt 1 view .LVU300
 948:Drivers/STM32F1xx_HAL_Driver/Src/stm32f1xx_hal_pcd.c **** }
 1165              		.loc 1 948 1 is_stmt 0 view .LVU301
 1166 0034 0020     		movs	r0, #0
 1167 0036 70BD     		pop	{r4, r5, r6, pc}
 1168              	.LVL92:
 1169              	.L84:
 944:Drivers/STM32F1xx_HAL_Driver/Src/stm32f1xx_hal_pcd.c ****   }
 1170              		.loc 1 944 5 is_stmt 1 view .LVU302
 1171 0038 0068     		ldr	r0, [r0]
 1172              	.LVL93:
 944:Drivers/STM32F1xx_HAL_Driver/Src/stm32f1xx_hal_pcd.c ****   }
 1173              		.loc 1 944 5 is_stmt 0 view .LVU303
 1174 003a FFF7FEFF 		bl	USB_EPStartXfer
 1175              	.LVL94:
 944:Drivers/STM32F1xx_HAL_Driver/Src/stm32f1xx_hal_pcd.c ****   }
 1176              		.loc 1 944 5 view .LVU304
 1177 003e F9E7     		b	.L85
 1178              		.cfi_endproc
 1179              	.LFE89:
 1181              		.section	.text.HAL_PCD_EP_GetRxCount,"ax",%progbits
 1182              		.align	1
 1183              		.global	HAL_PCD_EP_GetRxCount
 1184              		.syntax unified
 1185              		.thumb
 1186              		.thumb_func
 1187              		.fpu softvfp
 1189              	HAL_PCD_EP_GetRxCount:
 1190              	.LVL95:
 1191              	.LFB90:
 949:Drivers/STM32F1xx_HAL_Driver/Src/stm32f1xx_hal_pcd.c **** 
 950:Drivers/STM32F1xx_HAL_Driver/Src/stm32f1xx_hal_pcd.c **** /**
 951:Drivers/STM32F1xx_HAL_Driver/Src/stm32f1xx_hal_pcd.c ****   * @brief  Get Received Data Size
 952:Drivers/STM32F1xx_HAL_Driver/Src/stm32f1xx_hal_pcd.c ****   * @param  hpcd: PCD handle
 953:Drivers/STM32F1xx_HAL_Driver/Src/stm32f1xx_hal_pcd.c ****   * @param  ep_addr: endpoint address
 954:Drivers/STM32F1xx_HAL_Driver/Src/stm32f1xx_hal_pcd.c ****   * @retval Data Size
 955:Drivers/STM32F1xx_HAL_Driver/Src/stm32f1xx_hal_pcd.c ****   */
 956:Drivers/STM32F1xx_HAL_Driver/Src/stm32f1xx_hal_pcd.c **** uint16_t HAL_PCD_EP_GetRxCount(PCD_HandleTypeDef *hpcd, uint8_t ep_addr)
 957:Drivers/STM32F1xx_HAL_Driver/Src/stm32f1xx_hal_pcd.c **** {
 1192              		.loc 1 957 1 is_stmt 1 view -0
 1193              		.cfi_startproc
 1194              		@ args = 0, pretend = 0, frame = 0
 1195              		@ frame_needed = 0, uses_anonymous_args = 0
 1196              		@ link register save eliminated.
 958:Drivers/STM32F1xx_HAL_Driver/Src/stm32f1xx_hal_pcd.c ****   return hpcd->OUT_ep[ep_addr & 0xF].xfer_count;
 1197              		.loc 1 958 3 view .LVU306
 1198              		.loc 1 958 31 is_stmt 0 view .LVU307
 1199 0000 01F00F01 		and	r1, r1, #15
 1200              	.LVL96:
ARM GAS  /var/folders/rf/wfq6hz5s56g3yh4wqgd7820c0000gn/T//cc4VRrEg.s 			page 40


 1201              		.loc 1 958 37 view .LVU308
 1202 0004 1231     		adds	r1, r1, #18
 1203 0006 00EB4111 		add	r1, r0, r1, lsl #5
 959:Drivers/STM32F1xx_HAL_Driver/Src/stm32f1xx_hal_pcd.c **** }
 1204              		.loc 1 959 1 view .LVU309
 1205 000a 8888     		ldrh	r0, [r1, #4]
 1206              	.LVL97:
 1207              		.loc 1 959 1 view .LVU310
 1208 000c 7047     		bx	lr
 1209              		.cfi_endproc
 1210              	.LFE90:
 1212              		.section	.text.HAL_PCD_EP_Transmit,"ax",%progbits
 1213              		.align	1
 1214              		.global	HAL_PCD_EP_Transmit
 1215              		.syntax unified
 1216              		.thumb
 1217              		.thumb_func
 1218              		.fpu softvfp
 1220              	HAL_PCD_EP_Transmit:
 1221              	.LVL98:
 1222              	.LFB91:
 960:Drivers/STM32F1xx_HAL_Driver/Src/stm32f1xx_hal_pcd.c **** /**
 961:Drivers/STM32F1xx_HAL_Driver/Src/stm32f1xx_hal_pcd.c ****   * @brief  Send an amount of data
 962:Drivers/STM32F1xx_HAL_Driver/Src/stm32f1xx_hal_pcd.c ****   * @param  hpcd: PCD handle
 963:Drivers/STM32F1xx_HAL_Driver/Src/stm32f1xx_hal_pcd.c ****   * @param  ep_addr: endpoint address
 964:Drivers/STM32F1xx_HAL_Driver/Src/stm32f1xx_hal_pcd.c ****   * @param  pBuf: pointer to the transmission buffer
 965:Drivers/STM32F1xx_HAL_Driver/Src/stm32f1xx_hal_pcd.c ****   * @param  len: amount of data to be sent
 966:Drivers/STM32F1xx_HAL_Driver/Src/stm32f1xx_hal_pcd.c ****   * @retval HAL status
 967:Drivers/STM32F1xx_HAL_Driver/Src/stm32f1xx_hal_pcd.c ****   */
 968:Drivers/STM32F1xx_HAL_Driver/Src/stm32f1xx_hal_pcd.c **** HAL_StatusTypeDef HAL_PCD_EP_Transmit(PCD_HandleTypeDef *hpcd, uint8_t ep_addr, uint8_t *pBuf, uint
 969:Drivers/STM32F1xx_HAL_Driver/Src/stm32f1xx_hal_pcd.c **** {
 1223              		.loc 1 969 1 is_stmt 1 view -0
 1224              		.cfi_startproc
 1225              		@ args = 0, pretend = 0, frame = 0
 1226              		@ frame_needed = 0, uses_anonymous_args = 0
 1227              		.loc 1 969 1 is_stmt 0 view .LVU312
 1228 0000 70B5     		push	{r4, r5, r6, lr}
 1229              	.LCFI19:
 1230              		.cfi_def_cfa_offset 16
 1231              		.cfi_offset 4, -16
 1232              		.cfi_offset 5, -12
 1233              		.cfi_offset 6, -8
 1234              		.cfi_offset 14, -4
 970:Drivers/STM32F1xx_HAL_Driver/Src/stm32f1xx_hal_pcd.c ****   PCD_EPTypeDef *ep = NULL;
 1235              		.loc 1 970 3 is_stmt 1 view .LVU313
 1236              	.LVL99:
 971:Drivers/STM32F1xx_HAL_Driver/Src/stm32f1xx_hal_pcd.c ****   
 972:Drivers/STM32F1xx_HAL_Driver/Src/stm32f1xx_hal_pcd.c ****   ep = &hpcd->IN_ep[ep_addr & 0x7FU];
 1237              		.loc 1 972 3 view .LVU314
 1238 0002 01F07F04 		and	r4, r1, #127
 1239              		.loc 1 972 6 is_stmt 0 view .LVU315
 1240 0006 6501     		lsls	r5, r4, #5
 1241 0008 05F12801 		add	r1, r5, #40
 1242              	.LVL100:
 1243              		.loc 1 972 6 view .LVU316
 1244 000c 0144     		add	r1, r1, r0
 1245              	.LVL101:
ARM GAS  /var/folders/rf/wfq6hz5s56g3yh4wqgd7820c0000gn/T//cc4VRrEg.s 			page 41


 973:Drivers/STM32F1xx_HAL_Driver/Src/stm32f1xx_hal_pcd.c ****   
 974:Drivers/STM32F1xx_HAL_Driver/Src/stm32f1xx_hal_pcd.c ****   /*setup and start the Xfer */
 975:Drivers/STM32F1xx_HAL_Driver/Src/stm32f1xx_hal_pcd.c ****   ep->xfer_buff = pBuf;  
 1246              		.loc 1 975 3 is_stmt 1 view .LVU317
 1247              		.loc 1 975 17 is_stmt 0 view .LVU318
 1248 000e 0544     		add	r5, r5, r0
 1249 0010 EA63     		str	r2, [r5, #60]
 976:Drivers/STM32F1xx_HAL_Driver/Src/stm32f1xx_hal_pcd.c ****   ep->xfer_len = len;
 1250              		.loc 1 976 3 is_stmt 1 view .LVU319
 1251              		.loc 1 976 16 is_stmt 0 view .LVU320
 1252 0012 A21C     		adds	r2, r4, #2
 1253              	.LVL102:
 1254              		.loc 1 976 16 view .LVU321
 1255 0014 5601     		lsls	r6, r2, #5
 1256 0016 00EB4212 		add	r2, r0, r2, lsl #5
 1257 001a 8351     		str	r3, [r0, r6]
 1258              	.LVL103:
 977:Drivers/STM32F1xx_HAL_Driver/Src/stm32f1xx_hal_pcd.c ****   ep->xfer_count = 0U;
 1259              		.loc 1 977 3 is_stmt 1 view .LVU322
 1260              		.loc 1 977 18 is_stmt 0 view .LVU323
 1261 001c 0023     		movs	r3, #0
 1262              	.LVL104:
 1263              		.loc 1 977 18 view .LVU324
 1264 001e 5360     		str	r3, [r2, #4]
 978:Drivers/STM32F1xx_HAL_Driver/Src/stm32f1xx_hal_pcd.c ****   ep->is_in = 1U;
 1265              		.loc 1 978 3 is_stmt 1 view .LVU325
 1266              		.loc 1 978 13 is_stmt 0 view .LVU326
 1267 0020 0123     		movs	r3, #1
 1268 0022 85F82930 		strb	r3, [r5, #41]
 1269              	.LVL105:
 979:Drivers/STM32F1xx_HAL_Driver/Src/stm32f1xx_hal_pcd.c ****   ep->num = ep_addr & 0x7FU;
 1270              		.loc 1 979 3 is_stmt 1 view .LVU327
 1271              		.loc 1 979 11 is_stmt 0 view .LVU328
 1272 0026 85F82840 		strb	r4, [r5, #40]
 980:Drivers/STM32F1xx_HAL_Driver/Src/stm32f1xx_hal_pcd.c **** 
 981:Drivers/STM32F1xx_HAL_Driver/Src/stm32f1xx_hal_pcd.c ****   if ((ep_addr & 0x7FU) == 0U)
 1273              		.loc 1 981 3 is_stmt 1 view .LVU329
 1274              		.loc 1 981 6 is_stmt 0 view .LVU330
 1275 002a 24B9     		cbnz	r4, .L89
 982:Drivers/STM32F1xx_HAL_Driver/Src/stm32f1xx_hal_pcd.c ****   {
 983:Drivers/STM32F1xx_HAL_Driver/Src/stm32f1xx_hal_pcd.c ****     USB_EP0StartXfer(hpcd->Instance , ep);
 1276              		.loc 1 983 5 is_stmt 1 view .LVU331
 1277 002c 0068     		ldr	r0, [r0]
 1278              	.LVL106:
 1279              		.loc 1 983 5 is_stmt 0 view .LVU332
 1280 002e FFF7FEFF 		bl	USB_EPStartXfer
 1281              	.LVL107:
 1282              	.L90:
 984:Drivers/STM32F1xx_HAL_Driver/Src/stm32f1xx_hal_pcd.c ****   }
 985:Drivers/STM32F1xx_HAL_Driver/Src/stm32f1xx_hal_pcd.c ****   else
 986:Drivers/STM32F1xx_HAL_Driver/Src/stm32f1xx_hal_pcd.c ****   {
 987:Drivers/STM32F1xx_HAL_Driver/Src/stm32f1xx_hal_pcd.c ****     USB_EPStartXfer(hpcd->Instance , ep);
 988:Drivers/STM32F1xx_HAL_Driver/Src/stm32f1xx_hal_pcd.c ****   }
 989:Drivers/STM32F1xx_HAL_Driver/Src/stm32f1xx_hal_pcd.c **** 
 990:Drivers/STM32F1xx_HAL_Driver/Src/stm32f1xx_hal_pcd.c ****   return HAL_OK;
 1283              		.loc 1 990 3 is_stmt 1 view .LVU333
 991:Drivers/STM32F1xx_HAL_Driver/Src/stm32f1xx_hal_pcd.c **** }
ARM GAS  /var/folders/rf/wfq6hz5s56g3yh4wqgd7820c0000gn/T//cc4VRrEg.s 			page 42


 1284              		.loc 1 991 1 is_stmt 0 view .LVU334
 1285 0032 0020     		movs	r0, #0
 1286 0034 70BD     		pop	{r4, r5, r6, pc}
 1287              	.LVL108:
 1288              	.L89:
 987:Drivers/STM32F1xx_HAL_Driver/Src/stm32f1xx_hal_pcd.c ****   }
 1289              		.loc 1 987 5 is_stmt 1 view .LVU335
 1290 0036 0068     		ldr	r0, [r0]
 1291              	.LVL109:
 987:Drivers/STM32F1xx_HAL_Driver/Src/stm32f1xx_hal_pcd.c ****   }
 1292              		.loc 1 987 5 is_stmt 0 view .LVU336
 1293 0038 FFF7FEFF 		bl	USB_EPStartXfer
 1294              	.LVL110:
 987:Drivers/STM32F1xx_HAL_Driver/Src/stm32f1xx_hal_pcd.c ****   }
 1295              		.loc 1 987 5 view .LVU337
 1296 003c F9E7     		b	.L90
 1297              		.cfi_endproc
 1298              	.LFE91:
 1300              		.section	.text.PCD_EP_ISR_Handler,"ax",%progbits
 1301              		.align	1
 1302              		.syntax unified
 1303              		.thumb
 1304              		.thumb_func
 1305              		.fpu softvfp
 1307              	PCD_EP_ISR_Handler:
 1308              	.LVL111:
 1309              	.LFB98:
 992:Drivers/STM32F1xx_HAL_Driver/Src/stm32f1xx_hal_pcd.c **** 
 993:Drivers/STM32F1xx_HAL_Driver/Src/stm32f1xx_hal_pcd.c **** /**
 994:Drivers/STM32F1xx_HAL_Driver/Src/stm32f1xx_hal_pcd.c ****   * @brief  Set a STALL condition over an endpoint
 995:Drivers/STM32F1xx_HAL_Driver/Src/stm32f1xx_hal_pcd.c ****   * @param  hpcd: PCD handle
 996:Drivers/STM32F1xx_HAL_Driver/Src/stm32f1xx_hal_pcd.c ****   * @param  ep_addr: endpoint address
 997:Drivers/STM32F1xx_HAL_Driver/Src/stm32f1xx_hal_pcd.c ****   * @retval HAL status
 998:Drivers/STM32F1xx_HAL_Driver/Src/stm32f1xx_hal_pcd.c ****   */
 999:Drivers/STM32F1xx_HAL_Driver/Src/stm32f1xx_hal_pcd.c **** HAL_StatusTypeDef HAL_PCD_EP_SetStall(PCD_HandleTypeDef *hpcd, uint8_t ep_addr)
1000:Drivers/STM32F1xx_HAL_Driver/Src/stm32f1xx_hal_pcd.c **** {
1001:Drivers/STM32F1xx_HAL_Driver/Src/stm32f1xx_hal_pcd.c ****   PCD_EPTypeDef *ep = NULL;
1002:Drivers/STM32F1xx_HAL_Driver/Src/stm32f1xx_hal_pcd.c ****   
1003:Drivers/STM32F1xx_HAL_Driver/Src/stm32f1xx_hal_pcd.c ****   if ((0x80U & ep_addr) == 0x80U)
1004:Drivers/STM32F1xx_HAL_Driver/Src/stm32f1xx_hal_pcd.c ****   {
1005:Drivers/STM32F1xx_HAL_Driver/Src/stm32f1xx_hal_pcd.c ****     ep = &hpcd->IN_ep[ep_addr & 0x7FU];
1006:Drivers/STM32F1xx_HAL_Driver/Src/stm32f1xx_hal_pcd.c ****   }
1007:Drivers/STM32F1xx_HAL_Driver/Src/stm32f1xx_hal_pcd.c ****   else
1008:Drivers/STM32F1xx_HAL_Driver/Src/stm32f1xx_hal_pcd.c ****   {
1009:Drivers/STM32F1xx_HAL_Driver/Src/stm32f1xx_hal_pcd.c ****     ep = &hpcd->OUT_ep[ep_addr];
1010:Drivers/STM32F1xx_HAL_Driver/Src/stm32f1xx_hal_pcd.c ****   }
1011:Drivers/STM32F1xx_HAL_Driver/Src/stm32f1xx_hal_pcd.c ****   
1012:Drivers/STM32F1xx_HAL_Driver/Src/stm32f1xx_hal_pcd.c ****   ep->is_stall = 1U;
1013:Drivers/STM32F1xx_HAL_Driver/Src/stm32f1xx_hal_pcd.c ****   ep->num   = ep_addr & 0x7FU;
1014:Drivers/STM32F1xx_HAL_Driver/Src/stm32f1xx_hal_pcd.c ****   ep->is_in = ((ep_addr & 0x80U) == 0x80U);
1015:Drivers/STM32F1xx_HAL_Driver/Src/stm32f1xx_hal_pcd.c ****   
1016:Drivers/STM32F1xx_HAL_Driver/Src/stm32f1xx_hal_pcd.c ****   __HAL_LOCK(hpcd);
1017:Drivers/STM32F1xx_HAL_Driver/Src/stm32f1xx_hal_pcd.c ****   USB_EPSetStall(hpcd->Instance , ep);
1018:Drivers/STM32F1xx_HAL_Driver/Src/stm32f1xx_hal_pcd.c ****   if((ep_addr & 0x7FU) == 0U)
1019:Drivers/STM32F1xx_HAL_Driver/Src/stm32f1xx_hal_pcd.c ****   {
1020:Drivers/STM32F1xx_HAL_Driver/Src/stm32f1xx_hal_pcd.c ****     USB_EP0_OutStart(hpcd->Instance, (uint8_t *)hpcd->Setup);
1021:Drivers/STM32F1xx_HAL_Driver/Src/stm32f1xx_hal_pcd.c ****   }
ARM GAS  /var/folders/rf/wfq6hz5s56g3yh4wqgd7820c0000gn/T//cc4VRrEg.s 			page 43


1022:Drivers/STM32F1xx_HAL_Driver/Src/stm32f1xx_hal_pcd.c ****   __HAL_UNLOCK(hpcd); 
1023:Drivers/STM32F1xx_HAL_Driver/Src/stm32f1xx_hal_pcd.c ****   
1024:Drivers/STM32F1xx_HAL_Driver/Src/stm32f1xx_hal_pcd.c ****   return HAL_OK;
1025:Drivers/STM32F1xx_HAL_Driver/Src/stm32f1xx_hal_pcd.c **** }
1026:Drivers/STM32F1xx_HAL_Driver/Src/stm32f1xx_hal_pcd.c **** 
1027:Drivers/STM32F1xx_HAL_Driver/Src/stm32f1xx_hal_pcd.c **** /**
1028:Drivers/STM32F1xx_HAL_Driver/Src/stm32f1xx_hal_pcd.c ****   * @brief  Clear a STALL condition over in an endpoint
1029:Drivers/STM32F1xx_HAL_Driver/Src/stm32f1xx_hal_pcd.c ****   * @param  hpcd: PCD handle
1030:Drivers/STM32F1xx_HAL_Driver/Src/stm32f1xx_hal_pcd.c ****   * @param  ep_addr: endpoint address
1031:Drivers/STM32F1xx_HAL_Driver/Src/stm32f1xx_hal_pcd.c ****   * @retval HAL status
1032:Drivers/STM32F1xx_HAL_Driver/Src/stm32f1xx_hal_pcd.c ****   */
1033:Drivers/STM32F1xx_HAL_Driver/Src/stm32f1xx_hal_pcd.c **** HAL_StatusTypeDef HAL_PCD_EP_ClrStall(PCD_HandleTypeDef *hpcd, uint8_t ep_addr)
1034:Drivers/STM32F1xx_HAL_Driver/Src/stm32f1xx_hal_pcd.c **** {
1035:Drivers/STM32F1xx_HAL_Driver/Src/stm32f1xx_hal_pcd.c ****   PCD_EPTypeDef *ep = NULL;
1036:Drivers/STM32F1xx_HAL_Driver/Src/stm32f1xx_hal_pcd.c ****   
1037:Drivers/STM32F1xx_HAL_Driver/Src/stm32f1xx_hal_pcd.c ****   if ((0x80U & ep_addr) == 0x80U)
1038:Drivers/STM32F1xx_HAL_Driver/Src/stm32f1xx_hal_pcd.c ****   {
1039:Drivers/STM32F1xx_HAL_Driver/Src/stm32f1xx_hal_pcd.c ****     ep = &hpcd->IN_ep[ep_addr & 0x7FU];
1040:Drivers/STM32F1xx_HAL_Driver/Src/stm32f1xx_hal_pcd.c ****   }
1041:Drivers/STM32F1xx_HAL_Driver/Src/stm32f1xx_hal_pcd.c ****   else
1042:Drivers/STM32F1xx_HAL_Driver/Src/stm32f1xx_hal_pcd.c ****   {
1043:Drivers/STM32F1xx_HAL_Driver/Src/stm32f1xx_hal_pcd.c ****     ep = &hpcd->OUT_ep[ep_addr];
1044:Drivers/STM32F1xx_HAL_Driver/Src/stm32f1xx_hal_pcd.c ****   }
1045:Drivers/STM32F1xx_HAL_Driver/Src/stm32f1xx_hal_pcd.c ****   
1046:Drivers/STM32F1xx_HAL_Driver/Src/stm32f1xx_hal_pcd.c ****   ep->is_stall = 0U;
1047:Drivers/STM32F1xx_HAL_Driver/Src/stm32f1xx_hal_pcd.c ****   ep->num   = ep_addr & 0x7FU;
1048:Drivers/STM32F1xx_HAL_Driver/Src/stm32f1xx_hal_pcd.c ****   ep->is_in = ((ep_addr & 0x80U) == 0x80U);
1049:Drivers/STM32F1xx_HAL_Driver/Src/stm32f1xx_hal_pcd.c ****   
1050:Drivers/STM32F1xx_HAL_Driver/Src/stm32f1xx_hal_pcd.c ****   __HAL_LOCK(hpcd); 
1051:Drivers/STM32F1xx_HAL_Driver/Src/stm32f1xx_hal_pcd.c ****   USB_EPClearStall(hpcd->Instance , ep);
1052:Drivers/STM32F1xx_HAL_Driver/Src/stm32f1xx_hal_pcd.c ****   __HAL_UNLOCK(hpcd); 
1053:Drivers/STM32F1xx_HAL_Driver/Src/stm32f1xx_hal_pcd.c ****   
1054:Drivers/STM32F1xx_HAL_Driver/Src/stm32f1xx_hal_pcd.c ****   return HAL_OK;
1055:Drivers/STM32F1xx_HAL_Driver/Src/stm32f1xx_hal_pcd.c **** }
1056:Drivers/STM32F1xx_HAL_Driver/Src/stm32f1xx_hal_pcd.c **** 
1057:Drivers/STM32F1xx_HAL_Driver/Src/stm32f1xx_hal_pcd.c **** /**
1058:Drivers/STM32F1xx_HAL_Driver/Src/stm32f1xx_hal_pcd.c ****   * @brief  Flush an endpoint
1059:Drivers/STM32F1xx_HAL_Driver/Src/stm32f1xx_hal_pcd.c ****   * @param  hpcd: PCD handle
1060:Drivers/STM32F1xx_HAL_Driver/Src/stm32f1xx_hal_pcd.c ****   * @param  ep_addr: endpoint address
1061:Drivers/STM32F1xx_HAL_Driver/Src/stm32f1xx_hal_pcd.c ****   * @retval HAL status
1062:Drivers/STM32F1xx_HAL_Driver/Src/stm32f1xx_hal_pcd.c ****   */
1063:Drivers/STM32F1xx_HAL_Driver/Src/stm32f1xx_hal_pcd.c **** HAL_StatusTypeDef HAL_PCD_EP_Flush(PCD_HandleTypeDef *hpcd, uint8_t ep_addr)
1064:Drivers/STM32F1xx_HAL_Driver/Src/stm32f1xx_hal_pcd.c **** {
1065:Drivers/STM32F1xx_HAL_Driver/Src/stm32f1xx_hal_pcd.c ****   __HAL_LOCK(hpcd);
1066:Drivers/STM32F1xx_HAL_Driver/Src/stm32f1xx_hal_pcd.c ****   
1067:Drivers/STM32F1xx_HAL_Driver/Src/stm32f1xx_hal_pcd.c ****   if ((ep_addr & 0x80U) == 0x80U)
1068:Drivers/STM32F1xx_HAL_Driver/Src/stm32f1xx_hal_pcd.c ****   {
1069:Drivers/STM32F1xx_HAL_Driver/Src/stm32f1xx_hal_pcd.c ****     USB_FlushTxFifo(hpcd->Instance, ep_addr & 0x7FU);
1070:Drivers/STM32F1xx_HAL_Driver/Src/stm32f1xx_hal_pcd.c ****   }
1071:Drivers/STM32F1xx_HAL_Driver/Src/stm32f1xx_hal_pcd.c ****   else
1072:Drivers/STM32F1xx_HAL_Driver/Src/stm32f1xx_hal_pcd.c ****   {
1073:Drivers/STM32F1xx_HAL_Driver/Src/stm32f1xx_hal_pcd.c ****     USB_FlushRxFifo(hpcd->Instance);
1074:Drivers/STM32F1xx_HAL_Driver/Src/stm32f1xx_hal_pcd.c ****   }
1075:Drivers/STM32F1xx_HAL_Driver/Src/stm32f1xx_hal_pcd.c ****   
1076:Drivers/STM32F1xx_HAL_Driver/Src/stm32f1xx_hal_pcd.c ****   __HAL_UNLOCK(hpcd); 
1077:Drivers/STM32F1xx_HAL_Driver/Src/stm32f1xx_hal_pcd.c ****   
1078:Drivers/STM32F1xx_HAL_Driver/Src/stm32f1xx_hal_pcd.c ****   return HAL_OK;
ARM GAS  /var/folders/rf/wfq6hz5s56g3yh4wqgd7820c0000gn/T//cc4VRrEg.s 			page 44


1079:Drivers/STM32F1xx_HAL_Driver/Src/stm32f1xx_hal_pcd.c **** }
1080:Drivers/STM32F1xx_HAL_Driver/Src/stm32f1xx_hal_pcd.c **** 
1081:Drivers/STM32F1xx_HAL_Driver/Src/stm32f1xx_hal_pcd.c **** /**
1082:Drivers/STM32F1xx_HAL_Driver/Src/stm32f1xx_hal_pcd.c ****   * @brief  HAL_PCD_ActivateRemoteWakeup : active remote wakeup signalling
1083:Drivers/STM32F1xx_HAL_Driver/Src/stm32f1xx_hal_pcd.c ****   * @param  hpcd: PCD handle
1084:Drivers/STM32F1xx_HAL_Driver/Src/stm32f1xx_hal_pcd.c ****   * @retval HAL status
1085:Drivers/STM32F1xx_HAL_Driver/Src/stm32f1xx_hal_pcd.c ****   */
1086:Drivers/STM32F1xx_HAL_Driver/Src/stm32f1xx_hal_pcd.c **** HAL_StatusTypeDef HAL_PCD_ActivateRemoteWakeup(PCD_HandleTypeDef *hpcd)
1087:Drivers/STM32F1xx_HAL_Driver/Src/stm32f1xx_hal_pcd.c **** {
1088:Drivers/STM32F1xx_HAL_Driver/Src/stm32f1xx_hal_pcd.c ****   return(USB_ActivateRemoteWakeup(hpcd->Instance));
1089:Drivers/STM32F1xx_HAL_Driver/Src/stm32f1xx_hal_pcd.c **** }
1090:Drivers/STM32F1xx_HAL_Driver/Src/stm32f1xx_hal_pcd.c **** 
1091:Drivers/STM32F1xx_HAL_Driver/Src/stm32f1xx_hal_pcd.c **** /**
1092:Drivers/STM32F1xx_HAL_Driver/Src/stm32f1xx_hal_pcd.c ****   * @brief  HAL_PCD_DeActivateRemoteWakeup : de-active remote wakeup signalling
1093:Drivers/STM32F1xx_HAL_Driver/Src/stm32f1xx_hal_pcd.c ****   * @param  hpcd: PCD handle
1094:Drivers/STM32F1xx_HAL_Driver/Src/stm32f1xx_hal_pcd.c ****   * @retval HAL status
1095:Drivers/STM32F1xx_HAL_Driver/Src/stm32f1xx_hal_pcd.c ****   */
1096:Drivers/STM32F1xx_HAL_Driver/Src/stm32f1xx_hal_pcd.c **** HAL_StatusTypeDef HAL_PCD_DeActivateRemoteWakeup(PCD_HandleTypeDef *hpcd)
1097:Drivers/STM32F1xx_HAL_Driver/Src/stm32f1xx_hal_pcd.c **** {
1098:Drivers/STM32F1xx_HAL_Driver/Src/stm32f1xx_hal_pcd.c ****   return(USB_DeActivateRemoteWakeup(hpcd->Instance));
1099:Drivers/STM32F1xx_HAL_Driver/Src/stm32f1xx_hal_pcd.c **** }
1100:Drivers/STM32F1xx_HAL_Driver/Src/stm32f1xx_hal_pcd.c **** /**
1101:Drivers/STM32F1xx_HAL_Driver/Src/stm32f1xx_hal_pcd.c ****   * @}
1102:Drivers/STM32F1xx_HAL_Driver/Src/stm32f1xx_hal_pcd.c ****   */
1103:Drivers/STM32F1xx_HAL_Driver/Src/stm32f1xx_hal_pcd.c ****   
1104:Drivers/STM32F1xx_HAL_Driver/Src/stm32f1xx_hal_pcd.c **** /** @defgroup PCD_Exported_Functions_Group4 Peripheral State functions 
1105:Drivers/STM32F1xx_HAL_Driver/Src/stm32f1xx_hal_pcd.c ****  *  @brief   Peripheral State functions
1106:Drivers/STM32F1xx_HAL_Driver/Src/stm32f1xx_hal_pcd.c ****  *
1107:Drivers/STM32F1xx_HAL_Driver/Src/stm32f1xx_hal_pcd.c **** @verbatim
1108:Drivers/STM32F1xx_HAL_Driver/Src/stm32f1xx_hal_pcd.c ****  ===============================================================================
1109:Drivers/STM32F1xx_HAL_Driver/Src/stm32f1xx_hal_pcd.c ****                       ##### Peripheral State functions #####
1110:Drivers/STM32F1xx_HAL_Driver/Src/stm32f1xx_hal_pcd.c ****  ===============================================================================
1111:Drivers/STM32F1xx_HAL_Driver/Src/stm32f1xx_hal_pcd.c ****     [..]
1112:Drivers/STM32F1xx_HAL_Driver/Src/stm32f1xx_hal_pcd.c ****     This subsection permits to get in run-time the status of the peripheral 
1113:Drivers/STM32F1xx_HAL_Driver/Src/stm32f1xx_hal_pcd.c ****     and the data flow.
1114:Drivers/STM32F1xx_HAL_Driver/Src/stm32f1xx_hal_pcd.c **** 
1115:Drivers/STM32F1xx_HAL_Driver/Src/stm32f1xx_hal_pcd.c **** @endverbatim
1116:Drivers/STM32F1xx_HAL_Driver/Src/stm32f1xx_hal_pcd.c ****   * @{
1117:Drivers/STM32F1xx_HAL_Driver/Src/stm32f1xx_hal_pcd.c ****   */
1118:Drivers/STM32F1xx_HAL_Driver/Src/stm32f1xx_hal_pcd.c **** 
1119:Drivers/STM32F1xx_HAL_Driver/Src/stm32f1xx_hal_pcd.c **** /**
1120:Drivers/STM32F1xx_HAL_Driver/Src/stm32f1xx_hal_pcd.c ****   * @brief  Return the PCD state
1121:Drivers/STM32F1xx_HAL_Driver/Src/stm32f1xx_hal_pcd.c ****   * @param  hpcd: PCD handle
1122:Drivers/STM32F1xx_HAL_Driver/Src/stm32f1xx_hal_pcd.c ****   * @retval HAL state
1123:Drivers/STM32F1xx_HAL_Driver/Src/stm32f1xx_hal_pcd.c ****   */
1124:Drivers/STM32F1xx_HAL_Driver/Src/stm32f1xx_hal_pcd.c **** PCD_StateTypeDef HAL_PCD_GetState(PCD_HandleTypeDef *hpcd)
1125:Drivers/STM32F1xx_HAL_Driver/Src/stm32f1xx_hal_pcd.c **** {
1126:Drivers/STM32F1xx_HAL_Driver/Src/stm32f1xx_hal_pcd.c ****   return hpcd->State;
1127:Drivers/STM32F1xx_HAL_Driver/Src/stm32f1xx_hal_pcd.c **** }
1128:Drivers/STM32F1xx_HAL_Driver/Src/stm32f1xx_hal_pcd.c **** 
1129:Drivers/STM32F1xx_HAL_Driver/Src/stm32f1xx_hal_pcd.c **** /**
1130:Drivers/STM32F1xx_HAL_Driver/Src/stm32f1xx_hal_pcd.c ****   * @}
1131:Drivers/STM32F1xx_HAL_Driver/Src/stm32f1xx_hal_pcd.c ****   */
1132:Drivers/STM32F1xx_HAL_Driver/Src/stm32f1xx_hal_pcd.c **** 
1133:Drivers/STM32F1xx_HAL_Driver/Src/stm32f1xx_hal_pcd.c **** /**
1134:Drivers/STM32F1xx_HAL_Driver/Src/stm32f1xx_hal_pcd.c ****   * @}
1135:Drivers/STM32F1xx_HAL_Driver/Src/stm32f1xx_hal_pcd.c ****   */
ARM GAS  /var/folders/rf/wfq6hz5s56g3yh4wqgd7820c0000gn/T//cc4VRrEg.s 			page 45


1136:Drivers/STM32F1xx_HAL_Driver/Src/stm32f1xx_hal_pcd.c **** 
1137:Drivers/STM32F1xx_HAL_Driver/Src/stm32f1xx_hal_pcd.c **** /** @addtogroup PCD_Private_Functions
1138:Drivers/STM32F1xx_HAL_Driver/Src/stm32f1xx_hal_pcd.c ****   * @{
1139:Drivers/STM32F1xx_HAL_Driver/Src/stm32f1xx_hal_pcd.c ****   */
1140:Drivers/STM32F1xx_HAL_Driver/Src/stm32f1xx_hal_pcd.c **** #if defined (USB_OTG_FS)
1141:Drivers/STM32F1xx_HAL_Driver/Src/stm32f1xx_hal_pcd.c **** /**
1142:Drivers/STM32F1xx_HAL_Driver/Src/stm32f1xx_hal_pcd.c ****   * @brief  DCD_WriteEmptyTxFifo
1143:Drivers/STM32F1xx_HAL_Driver/Src/stm32f1xx_hal_pcd.c ****   *         check FIFO for the next packet to be loaded
1144:Drivers/STM32F1xx_HAL_Driver/Src/stm32f1xx_hal_pcd.c ****   * @param  hpcd: PCD handle
1145:Drivers/STM32F1xx_HAL_Driver/Src/stm32f1xx_hal_pcd.c ****   * @param  epnum : endpoint number
1146:Drivers/STM32F1xx_HAL_Driver/Src/stm32f1xx_hal_pcd.c ****   *          This parameter can be a value from 0 to 15  
1147:Drivers/STM32F1xx_HAL_Driver/Src/stm32f1xx_hal_pcd.c ****   * @retval HAL status
1148:Drivers/STM32F1xx_HAL_Driver/Src/stm32f1xx_hal_pcd.c ****   */
1149:Drivers/STM32F1xx_HAL_Driver/Src/stm32f1xx_hal_pcd.c **** static HAL_StatusTypeDef PCD_WriteEmptyTxFifo(PCD_HandleTypeDef *hpcd, uint32_t epnum)
1150:Drivers/STM32F1xx_HAL_Driver/Src/stm32f1xx_hal_pcd.c **** {
1151:Drivers/STM32F1xx_HAL_Driver/Src/stm32f1xx_hal_pcd.c ****   USB_OTG_GlobalTypeDef *USBx = hpcd->Instance;  
1152:Drivers/STM32F1xx_HAL_Driver/Src/stm32f1xx_hal_pcd.c ****   USB_OTG_EPTypeDef *ep = NULL;
1153:Drivers/STM32F1xx_HAL_Driver/Src/stm32f1xx_hal_pcd.c ****   int32_t len = 0;
1154:Drivers/STM32F1xx_HAL_Driver/Src/stm32f1xx_hal_pcd.c ****   uint32_t len32b = 0U;
1155:Drivers/STM32F1xx_HAL_Driver/Src/stm32f1xx_hal_pcd.c ****   uint32_t fifoemptymsk = 0U;
1156:Drivers/STM32F1xx_HAL_Driver/Src/stm32f1xx_hal_pcd.c ****   
1157:Drivers/STM32F1xx_HAL_Driver/Src/stm32f1xx_hal_pcd.c ****   ep = &hpcd->IN_ep[epnum];
1158:Drivers/STM32F1xx_HAL_Driver/Src/stm32f1xx_hal_pcd.c ****   len = ep->xfer_len - ep->xfer_count;
1159:Drivers/STM32F1xx_HAL_Driver/Src/stm32f1xx_hal_pcd.c ****   
1160:Drivers/STM32F1xx_HAL_Driver/Src/stm32f1xx_hal_pcd.c ****   if (len > ep->maxpacket)
1161:Drivers/STM32F1xx_HAL_Driver/Src/stm32f1xx_hal_pcd.c ****   {
1162:Drivers/STM32F1xx_HAL_Driver/Src/stm32f1xx_hal_pcd.c ****     len = ep->maxpacket;
1163:Drivers/STM32F1xx_HAL_Driver/Src/stm32f1xx_hal_pcd.c ****   }
1164:Drivers/STM32F1xx_HAL_Driver/Src/stm32f1xx_hal_pcd.c ****   
1165:Drivers/STM32F1xx_HAL_Driver/Src/stm32f1xx_hal_pcd.c ****   len32b = (len + 3U) / 4U;
1166:Drivers/STM32F1xx_HAL_Driver/Src/stm32f1xx_hal_pcd.c ****   
1167:Drivers/STM32F1xx_HAL_Driver/Src/stm32f1xx_hal_pcd.c ****   while ((USBx_INEP(epnum)->DTXFSTS & USB_OTG_DTXFSTS_INEPTFSAV) > len32b &&
1168:Drivers/STM32F1xx_HAL_Driver/Src/stm32f1xx_hal_pcd.c ****          ep->xfer_count < ep->xfer_len &&
1169:Drivers/STM32F1xx_HAL_Driver/Src/stm32f1xx_hal_pcd.c ****          ep->xfer_len != 0U)
1170:Drivers/STM32F1xx_HAL_Driver/Src/stm32f1xx_hal_pcd.c ****   {
1171:Drivers/STM32F1xx_HAL_Driver/Src/stm32f1xx_hal_pcd.c ****     /* Write the FIFO */
1172:Drivers/STM32F1xx_HAL_Driver/Src/stm32f1xx_hal_pcd.c ****     len = ep->xfer_len - ep->xfer_count;
1173:Drivers/STM32F1xx_HAL_Driver/Src/stm32f1xx_hal_pcd.c ****     
1174:Drivers/STM32F1xx_HAL_Driver/Src/stm32f1xx_hal_pcd.c ****     if ((uint32_t)len > ep->maxpacket)
1175:Drivers/STM32F1xx_HAL_Driver/Src/stm32f1xx_hal_pcd.c ****     {
1176:Drivers/STM32F1xx_HAL_Driver/Src/stm32f1xx_hal_pcd.c ****       len = ep->maxpacket;
1177:Drivers/STM32F1xx_HAL_Driver/Src/stm32f1xx_hal_pcd.c ****     }
1178:Drivers/STM32F1xx_HAL_Driver/Src/stm32f1xx_hal_pcd.c ****     len32b = (len + 3U) / 4U;
1179:Drivers/STM32F1xx_HAL_Driver/Src/stm32f1xx_hal_pcd.c ****     
1180:Drivers/STM32F1xx_HAL_Driver/Src/stm32f1xx_hal_pcd.c ****     USB_WritePacket(USBx, ep->xfer_buff, epnum, len);
1181:Drivers/STM32F1xx_HAL_Driver/Src/stm32f1xx_hal_pcd.c ****     
1182:Drivers/STM32F1xx_HAL_Driver/Src/stm32f1xx_hal_pcd.c ****     ep->xfer_buff  += len;
1183:Drivers/STM32F1xx_HAL_Driver/Src/stm32f1xx_hal_pcd.c ****     ep->xfer_count += len;
1184:Drivers/STM32F1xx_HAL_Driver/Src/stm32f1xx_hal_pcd.c ****   }
1185:Drivers/STM32F1xx_HAL_Driver/Src/stm32f1xx_hal_pcd.c ****   
1186:Drivers/STM32F1xx_HAL_Driver/Src/stm32f1xx_hal_pcd.c ****   if(len <= 0)
1187:Drivers/STM32F1xx_HAL_Driver/Src/stm32f1xx_hal_pcd.c ****   {
1188:Drivers/STM32F1xx_HAL_Driver/Src/stm32f1xx_hal_pcd.c ****     fifoemptymsk = 0x01U << epnum;
1189:Drivers/STM32F1xx_HAL_Driver/Src/stm32f1xx_hal_pcd.c ****     USBx_DEVICE->DIEPEMPMSK &= ~fifoemptymsk;
1190:Drivers/STM32F1xx_HAL_Driver/Src/stm32f1xx_hal_pcd.c ****     
1191:Drivers/STM32F1xx_HAL_Driver/Src/stm32f1xx_hal_pcd.c ****   }
1192:Drivers/STM32F1xx_HAL_Driver/Src/stm32f1xx_hal_pcd.c ****   
ARM GAS  /var/folders/rf/wfq6hz5s56g3yh4wqgd7820c0000gn/T//cc4VRrEg.s 			page 46


1193:Drivers/STM32F1xx_HAL_Driver/Src/stm32f1xx_hal_pcd.c ****   return HAL_OK;
1194:Drivers/STM32F1xx_HAL_Driver/Src/stm32f1xx_hal_pcd.c **** }
1195:Drivers/STM32F1xx_HAL_Driver/Src/stm32f1xx_hal_pcd.c **** #endif /* USB_OTG_FS */
1196:Drivers/STM32F1xx_HAL_Driver/Src/stm32f1xx_hal_pcd.c **** 
1197:Drivers/STM32F1xx_HAL_Driver/Src/stm32f1xx_hal_pcd.c **** #if defined (USB)
1198:Drivers/STM32F1xx_HAL_Driver/Src/stm32f1xx_hal_pcd.c **** /**
1199:Drivers/STM32F1xx_HAL_Driver/Src/stm32f1xx_hal_pcd.c ****   * @brief  This function handles PCD Endpoint interrupt request.
1200:Drivers/STM32F1xx_HAL_Driver/Src/stm32f1xx_hal_pcd.c ****   * @param  hpcd: PCD handle
1201:Drivers/STM32F1xx_HAL_Driver/Src/stm32f1xx_hal_pcd.c ****   * @retval HAL status
1202:Drivers/STM32F1xx_HAL_Driver/Src/stm32f1xx_hal_pcd.c ****   */
1203:Drivers/STM32F1xx_HAL_Driver/Src/stm32f1xx_hal_pcd.c **** static HAL_StatusTypeDef PCD_EP_ISR_Handler(PCD_HandleTypeDef *hpcd)
1204:Drivers/STM32F1xx_HAL_Driver/Src/stm32f1xx_hal_pcd.c **** {
 1310              		.loc 1 1204 1 is_stmt 1 view -0
 1311              		.cfi_startproc
 1312              		@ args = 0, pretend = 0, frame = 8
 1313              		@ frame_needed = 0, uses_anonymous_args = 0
 1314              		.loc 1 1204 1 is_stmt 0 view .LVU339
 1315 0000 70B5     		push	{r4, r5, r6, lr}
 1316              	.LCFI20:
 1317              		.cfi_def_cfa_offset 16
 1318              		.cfi_offset 4, -16
 1319              		.cfi_offset 5, -12
 1320              		.cfi_offset 6, -8
 1321              		.cfi_offset 14, -4
 1322 0002 82B0     		sub	sp, sp, #8
 1323              	.LCFI21:
 1324              		.cfi_def_cfa_offset 24
 1325 0004 0446     		mov	r4, r0
1205:Drivers/STM32F1xx_HAL_Driver/Src/stm32f1xx_hal_pcd.c ****   PCD_EPTypeDef *ep = NULL;
 1326              		.loc 1 1205 3 is_stmt 1 view .LVU340
 1327              	.LVL112:
1206:Drivers/STM32F1xx_HAL_Driver/Src/stm32f1xx_hal_pcd.c ****   uint16_t count = 0;
 1328              		.loc 1 1206 3 view .LVU341
1207:Drivers/STM32F1xx_HAL_Driver/Src/stm32f1xx_hal_pcd.c ****   uint8_t epindex = 0;
 1329              		.loc 1 1207 3 view .LVU342
1208:Drivers/STM32F1xx_HAL_Driver/Src/stm32f1xx_hal_pcd.c ****   __IO uint16_t wIstr = 0;  
 1330              		.loc 1 1208 3 view .LVU343
 1331              		.loc 1 1208 17 is_stmt 0 view .LVU344
 1332 0006 0023     		movs	r3, #0
 1333 0008 ADF80630 		strh	r3, [sp, #6]	@ movhi
1209:Drivers/STM32F1xx_HAL_Driver/Src/stm32f1xx_hal_pcd.c ****   __IO uint16_t wEPVal = 0;
 1334              		.loc 1 1209 3 is_stmt 1 view .LVU345
 1335              		.loc 1 1209 17 is_stmt 0 view .LVU346
 1336 000c ADF80430 		strh	r3, [sp, #4]	@ movhi
1210:Drivers/STM32F1xx_HAL_Driver/Src/stm32f1xx_hal_pcd.c ****   
1211:Drivers/STM32F1xx_HAL_Driver/Src/stm32f1xx_hal_pcd.c ****   /* stay in loop while pending interrupts */
1212:Drivers/STM32F1xx_HAL_Driver/Src/stm32f1xx_hal_pcd.c ****   while (((wIstr = hpcd->Instance->ISTR) & USB_ISTR_CTR) != 0)
 1337              		.loc 1 1212 3 is_stmt 1 view .LVU347
 1338              		.loc 1 1212 9 is_stmt 0 view .LVU348
 1339 0010 99E1     		b	.L93
 1340              	.LVL113:
 1341              	.L121:
1213:Drivers/STM32F1xx_HAL_Driver/Src/stm32f1xx_hal_pcd.c ****   {
1214:Drivers/STM32F1xx_HAL_Driver/Src/stm32f1xx_hal_pcd.c ****     /* extract highest priority endpoint number */
1215:Drivers/STM32F1xx_HAL_Driver/Src/stm32f1xx_hal_pcd.c ****     epindex = (uint8_t)(wIstr & USB_ISTR_EP_ID);
1216:Drivers/STM32F1xx_HAL_Driver/Src/stm32f1xx_hal_pcd.c ****     
1217:Drivers/STM32F1xx_HAL_Driver/Src/stm32f1xx_hal_pcd.c ****     if (epindex == 0)
ARM GAS  /var/folders/rf/wfq6hz5s56g3yh4wqgd7820c0000gn/T//cc4VRrEg.s 			page 47


1218:Drivers/STM32F1xx_HAL_Driver/Src/stm32f1xx_hal_pcd.c ****     {
1219:Drivers/STM32F1xx_HAL_Driver/Src/stm32f1xx_hal_pcd.c ****       /* Decode and service control endpoint interrupt */
1220:Drivers/STM32F1xx_HAL_Driver/Src/stm32f1xx_hal_pcd.c ****       
1221:Drivers/STM32F1xx_HAL_Driver/Src/stm32f1xx_hal_pcd.c ****       /* DIR bit = origin of the interrupt */   
1222:Drivers/STM32F1xx_HAL_Driver/Src/stm32f1xx_hal_pcd.c ****       if ((wIstr & USB_ISTR_DIR) == 0)
1223:Drivers/STM32F1xx_HAL_Driver/Src/stm32f1xx_hal_pcd.c ****       {
1224:Drivers/STM32F1xx_HAL_Driver/Src/stm32f1xx_hal_pcd.c ****         /* DIR = 0 */
1225:Drivers/STM32F1xx_HAL_Driver/Src/stm32f1xx_hal_pcd.c ****         
1226:Drivers/STM32F1xx_HAL_Driver/Src/stm32f1xx_hal_pcd.c ****         /* DIR = 0      => IN  int */
1227:Drivers/STM32F1xx_HAL_Driver/Src/stm32f1xx_hal_pcd.c ****         /* DIR = 0 implies that (EP_CTR_TX = 1) always  */
1228:Drivers/STM32F1xx_HAL_Driver/Src/stm32f1xx_hal_pcd.c ****         PCD_CLEAR_TX_EP_CTR(hpcd->Instance, PCD_ENDP0);
 1342              		.loc 1 1228 9 is_stmt 1 view .LVU349
 1343 0012 0388     		ldrh	r3, [r0]
 1344 0014 9BB2     		uxth	r3, r3
 1345 0016 23F4E143 		bic	r3, r3, #28800
 1346 001a 23F07003 		bic	r3, r3, #112
 1347 001e 9BB2     		uxth	r3, r3
 1348 0020 0380     		strh	r3, [r0]	@ movhi
1229:Drivers/STM32F1xx_HAL_Driver/Src/stm32f1xx_hal_pcd.c ****         ep = &hpcd->IN_ep[0];
 1349              		.loc 1 1229 9 view .LVU350
 1350              	.LVL114:
1230:Drivers/STM32F1xx_HAL_Driver/Src/stm32f1xx_hal_pcd.c ****         
1231:Drivers/STM32F1xx_HAL_Driver/Src/stm32f1xx_hal_pcd.c ****         ep->xfer_count = PCD_GET_EP_TX_CNT(hpcd->Instance, ep->num);
 1351              		.loc 1 1231 9 view .LVU351
 1352              		.loc 1 1231 26 is_stmt 0 view .LVU352
 1353 0022 2268     		ldr	r2, [r4]
 1354 0024 B2F85030 		ldrh	r3, [r2, #80]
 1355 0028 9BB2     		uxth	r3, r3
 1356 002a 94F82810 		ldrb	r1, [r4, #40]	@ zero_extendqisi2
 1357 002e 03EBC103 		add	r3, r3, r1, lsl #3
 1358 0032 0233     		adds	r3, r3, #2
 1359 0034 02EB4303 		add	r3, r2, r3, lsl #1
 1360 0038 D3F80034 		ldr	r3, [r3, #1024]
 1361 003c C3F30903 		ubfx	r3, r3, #0, #10
 1362              		.loc 1 1231 24 view .LVU353
 1363 0040 6364     		str	r3, [r4, #68]
1232:Drivers/STM32F1xx_HAL_Driver/Src/stm32f1xx_hal_pcd.c ****         ep->xfer_buff += ep->xfer_count;
 1364              		.loc 1 1232 9 is_stmt 1 view .LVU354
 1365              		.loc 1 1232 23 is_stmt 0 view .LVU355
 1366 0042 E26B     		ldr	r2, [r4, #60]
 1367 0044 1344     		add	r3, r3, r2
 1368 0046 E363     		str	r3, [r4, #60]
1233:Drivers/STM32F1xx_HAL_Driver/Src/stm32f1xx_hal_pcd.c ****  
1234:Drivers/STM32F1xx_HAL_Driver/Src/stm32f1xx_hal_pcd.c ****         /* TX COMPLETE */
1235:Drivers/STM32F1xx_HAL_Driver/Src/stm32f1xx_hal_pcd.c ****         HAL_PCD_DataInStageCallback(hpcd, 0U);
 1369              		.loc 1 1235 9 is_stmt 1 view .LVU356
 1370 0048 0021     		movs	r1, #0
 1371 004a 2046     		mov	r0, r4
 1372 004c FFF7FEFF 		bl	HAL_PCD_DataInStageCallback
 1373              	.LVL115:
1236:Drivers/STM32F1xx_HAL_Driver/Src/stm32f1xx_hal_pcd.c ****         
1237:Drivers/STM32F1xx_HAL_Driver/Src/stm32f1xx_hal_pcd.c ****         
1238:Drivers/STM32F1xx_HAL_Driver/Src/stm32f1xx_hal_pcd.c ****         if((hpcd->USB_Address > 0U)&& ( ep->xfer_len == 0U))
 1374              		.loc 1 1238 9 view .LVU357
 1375              		.loc 1 1238 17 is_stmt 0 view .LVU358
 1376 0050 94F82430 		ldrb	r3, [r4, #36]	@ zero_extendqisi2
 1377              		.loc 1 1238 11 view .LVU359
ARM GAS  /var/folders/rf/wfq6hz5s56g3yh4wqgd7820c0000gn/T//cc4VRrEg.s 			page 48


 1378 0054 002B     		cmp	r3, #0
 1379 0056 00F07681 		beq	.L93
 1380              		.loc 1 1238 43 discriminator 1 view .LVU360
 1381 005a 236C     		ldr	r3, [r4, #64]
 1382              		.loc 1 1238 36 discriminator 1 view .LVU361
 1383 005c 002B     		cmp	r3, #0
 1384 005e 40F07281 		bne	.L93
1239:Drivers/STM32F1xx_HAL_Driver/Src/stm32f1xx_hal_pcd.c ****         {
1240:Drivers/STM32F1xx_HAL_Driver/Src/stm32f1xx_hal_pcd.c ****           hpcd->Instance->DADDR = (hpcd->USB_Address | USB_DADDR_EF);
 1385              		.loc 1 1240 11 is_stmt 1 view .LVU362
 1386              		.loc 1 1240 40 is_stmt 0 view .LVU363
 1387 0062 94F82430 		ldrb	r3, [r4, #36]	@ zero_extendqisi2
 1388              		.loc 1 1240 15 view .LVU364
 1389 0066 2268     		ldr	r2, [r4]
 1390              		.loc 1 1240 33 view .LVU365
 1391 0068 43F08003 		orr	r3, r3, #128
 1392 006c A2F84C30 		strh	r3, [r2, #76]	@ movhi
1241:Drivers/STM32F1xx_HAL_Driver/Src/stm32f1xx_hal_pcd.c ****           hpcd->USB_Address = 0U;
 1393              		.loc 1 1241 11 is_stmt 1 view .LVU366
 1394              		.loc 1 1241 29 is_stmt 0 view .LVU367
 1395 0070 0023     		movs	r3, #0
 1396 0072 84F82430 		strb	r3, [r4, #36]
 1397 0076 66E1     		b	.L93
 1398              	.LVL116:
 1399              	.L122:
1242:Drivers/STM32F1xx_HAL_Driver/Src/stm32f1xx_hal_pcd.c ****         }
1243:Drivers/STM32F1xx_HAL_Driver/Src/stm32f1xx_hal_pcd.c ****         
1244:Drivers/STM32F1xx_HAL_Driver/Src/stm32f1xx_hal_pcd.c ****       }
1245:Drivers/STM32F1xx_HAL_Driver/Src/stm32f1xx_hal_pcd.c ****       else
1246:Drivers/STM32F1xx_HAL_Driver/Src/stm32f1xx_hal_pcd.c ****       {
1247:Drivers/STM32F1xx_HAL_Driver/Src/stm32f1xx_hal_pcd.c ****         /* DIR = 1 */
1248:Drivers/STM32F1xx_HAL_Driver/Src/stm32f1xx_hal_pcd.c ****         
1249:Drivers/STM32F1xx_HAL_Driver/Src/stm32f1xx_hal_pcd.c ****         /* DIR = 1 & CTR_RX       => SETUP or OUT int */
1250:Drivers/STM32F1xx_HAL_Driver/Src/stm32f1xx_hal_pcd.c ****         /* DIR = 1 & (CTR_TX | CTR_RX) => 2 int pending */
1251:Drivers/STM32F1xx_HAL_Driver/Src/stm32f1xx_hal_pcd.c ****         ep = &hpcd->OUT_ep[0U];
1252:Drivers/STM32F1xx_HAL_Driver/Src/stm32f1xx_hal_pcd.c ****         wEPVal = PCD_GET_ENDPOINT(hpcd->Instance, PCD_ENDP0);
1253:Drivers/STM32F1xx_HAL_Driver/Src/stm32f1xx_hal_pcd.c ****         
1254:Drivers/STM32F1xx_HAL_Driver/Src/stm32f1xx_hal_pcd.c ****         if ((wEPVal & USB_EP_SETUP) != 0U)
1255:Drivers/STM32F1xx_HAL_Driver/Src/stm32f1xx_hal_pcd.c ****         {
1256:Drivers/STM32F1xx_HAL_Driver/Src/stm32f1xx_hal_pcd.c ****           /* Get SETUP Packet*/
1257:Drivers/STM32F1xx_HAL_Driver/Src/stm32f1xx_hal_pcd.c ****           ep->xfer_count = PCD_GET_EP_RX_CNT(hpcd->Instance, ep->num);
 1400              		.loc 1 1257 11 is_stmt 1 view .LVU368
 1401              		.loc 1 1257 28 is_stmt 0 view .LVU369
 1402 0078 B0F85030 		ldrh	r3, [r0, #80]
 1403 007c 9BB2     		uxth	r3, r3
 1404 007e 94F82822 		ldrb	r2, [r4, #552]	@ zero_extendqisi2
 1405 0082 03EBC203 		add	r3, r3, r2, lsl #3
 1406 0086 0633     		adds	r3, r3, #6
 1407 0088 00EB4303 		add	r3, r0, r3, lsl #1
 1408 008c D3F80034 		ldr	r3, [r3, #1024]
 1409 0090 C3F30903 		ubfx	r3, r3, #0, #10
 1410              		.loc 1 1257 26 view .LVU370
 1411 0094 C4F84432 		str	r3, [r4, #580]
1258:Drivers/STM32F1xx_HAL_Driver/Src/stm32f1xx_hal_pcd.c ****           USB_ReadPMA(hpcd->Instance, (uint8_t*)hpcd->Setup ,ep->pmaadress , ep->xfer_count);      
 1412              		.loc 1 1258 11 is_stmt 1 view .LVU371
 1413 0098 B4F82C22 		ldrh	r2, [r4, #556]
 1414 009c 04F22C41 		addw	r1, r4, #1068
ARM GAS  /var/folders/rf/wfq6hz5s56g3yh4wqgd7820c0000gn/T//cc4VRrEg.s 			page 49


 1415 00a0 FFF7FEFF 		bl	USB_ReadPMA
 1416              	.LVL117:
1259:Drivers/STM32F1xx_HAL_Driver/Src/stm32f1xx_hal_pcd.c ****           /* SETUP bit kept frozen while CTR_RX = 1*/ 
1260:Drivers/STM32F1xx_HAL_Driver/Src/stm32f1xx_hal_pcd.c ****           PCD_CLEAR_RX_EP_CTR(hpcd->Instance, PCD_ENDP0); 
 1417              		.loc 1 1260 11 view .LVU372
 1418 00a4 2268     		ldr	r2, [r4]
 1419 00a6 1388     		ldrh	r3, [r2]
 1420 00a8 23F07003 		bic	r3, r3, #112
 1421 00ac 1B05     		lsls	r3, r3, #20
 1422 00ae 1B0D     		lsrs	r3, r3, #20
 1423 00b0 1380     		strh	r3, [r2]	@ movhi
1261:Drivers/STM32F1xx_HAL_Driver/Src/stm32f1xx_hal_pcd.c ****           
1262:Drivers/STM32F1xx_HAL_Driver/Src/stm32f1xx_hal_pcd.c ****           /* Process SETUP Packet*/
1263:Drivers/STM32F1xx_HAL_Driver/Src/stm32f1xx_hal_pcd.c ****           HAL_PCD_SetupStageCallback(hpcd);
 1424              		.loc 1 1263 11 view .LVU373
 1425 00b2 2046     		mov	r0, r4
 1426 00b4 FFF7FEFF 		bl	HAL_PCD_SetupStageCallback
 1427              	.LVL118:
 1428 00b8 45E1     		b	.L93
 1429              	.L123:
1264:Drivers/STM32F1xx_HAL_Driver/Src/stm32f1xx_hal_pcd.c ****         }
1265:Drivers/STM32F1xx_HAL_Driver/Src/stm32f1xx_hal_pcd.c ****         
1266:Drivers/STM32F1xx_HAL_Driver/Src/stm32f1xx_hal_pcd.c ****         else if ((wEPVal & USB_EP_CTR_RX) != 0U)
1267:Drivers/STM32F1xx_HAL_Driver/Src/stm32f1xx_hal_pcd.c ****         {
1268:Drivers/STM32F1xx_HAL_Driver/Src/stm32f1xx_hal_pcd.c ****           PCD_CLEAR_RX_EP_CTR(hpcd->Instance, PCD_ENDP0);
1269:Drivers/STM32F1xx_HAL_Driver/Src/stm32f1xx_hal_pcd.c ****           /* Get Control Data OUT Packet*/
1270:Drivers/STM32F1xx_HAL_Driver/Src/stm32f1xx_hal_pcd.c ****           ep->xfer_count = PCD_GET_EP_RX_CNT(hpcd->Instance, ep->num);
1271:Drivers/STM32F1xx_HAL_Driver/Src/stm32f1xx_hal_pcd.c ****           
1272:Drivers/STM32F1xx_HAL_Driver/Src/stm32f1xx_hal_pcd.c ****           if (ep->xfer_count != 0U)
1273:Drivers/STM32F1xx_HAL_Driver/Src/stm32f1xx_hal_pcd.c ****           {
1274:Drivers/STM32F1xx_HAL_Driver/Src/stm32f1xx_hal_pcd.c ****             USB_ReadPMA(hpcd->Instance, ep->xfer_buff, ep->pmaadress, ep->xfer_count);
 1430              		.loc 1 1274 13 view .LVU374
 1431 00ba B4F82C22 		ldrh	r2, [r4, #556]
 1432 00be D4F83C12 		ldr	r1, [r4, #572]
 1433 00c2 FFF7FEFF 		bl	USB_ReadPMA
 1434              	.LVL119:
1275:Drivers/STM32F1xx_HAL_Driver/Src/stm32f1xx_hal_pcd.c ****             ep->xfer_buff+=ep->xfer_count;
 1435              		.loc 1 1275 13 view .LVU375
 1436              		.loc 1 1275 30 is_stmt 0 view .LVU376
 1437 00c6 D4F84422 		ldr	r2, [r4, #580]
 1438              		.loc 1 1275 26 view .LVU377
 1439 00ca D4F83C32 		ldr	r3, [r4, #572]
 1440 00ce 1344     		add	r3, r3, r2
 1441 00d0 C4F83C32 		str	r3, [r4, #572]
 1442 00d4 76E1     		b	.L98
 1443              	.LVL120:
 1444              	.L99:
 1445              	.LBB2:
 1446              	.LBB3:
1276:Drivers/STM32F1xx_HAL_Driver/Src/stm32f1xx_hal_pcd.c ****           }
1277:Drivers/STM32F1xx_HAL_Driver/Src/stm32f1xx_hal_pcd.c ****           
1278:Drivers/STM32F1xx_HAL_Driver/Src/stm32f1xx_hal_pcd.c ****           /* Process Control Data OUT Packet*/
1279:Drivers/STM32F1xx_HAL_Driver/Src/stm32f1xx_hal_pcd.c ****            HAL_PCD_DataOutStageCallback(hpcd, 0U);
1280:Drivers/STM32F1xx_HAL_Driver/Src/stm32f1xx_hal_pcd.c ****           
1281:Drivers/STM32F1xx_HAL_Driver/Src/stm32f1xx_hal_pcd.c ****           PCD_SET_EP_RX_CNT(hpcd->Instance, PCD_ENDP0, ep->maxpacket);
 1447              		.loc 1 1281 11 is_stmt 1 discriminator 2 view .LVU378
 1448 00d6 C1F34F02 		ubfx	r2, r1, #1, #16
ARM GAS  /var/folders/rf/wfq6hz5s56g3yh4wqgd7820c0000gn/T//cc4VRrEg.s 			page 50


 1449              	.LVL121:
 1450              		.loc 1 1281 11 discriminator 2 view .LVU379
 1451 00da 11F0010F 		tst	r1, #1
 1452 00de 01D0     		beq	.L102
 1453              		.loc 1 1281 11 discriminator 7 view .LVU380
 1454 00e0 0132     		adds	r2, r2, #1
 1455              	.LVL122:
 1456              		.loc 1 1281 11 is_stmt 0 discriminator 7 view .LVU381
 1457 00e2 92B2     		uxth	r2, r2
 1458              	.LVL123:
 1459              	.L102:
 1460              		.loc 1 1281 11 is_stmt 1 discriminator 9 view .LVU382
 1461 00e4 9202     		lsls	r2, r2, #10
 1462              	.LVL124:
 1463              		.loc 1 1281 11 is_stmt 0 discriminator 9 view .LVU383
 1464 00e6 92B2     		uxth	r2, r2
 1465 00e8 C3F80024 		str	r2, [r3, #1024]
 1466 00ec 88E1     		b	.L101
 1467              	.LVL125:
 1468              	.L94:
 1469              		.loc 1 1281 11 discriminator 9 view .LVU384
 1470              	.LBE3:
 1471              	.LBE2:
1282:Drivers/STM32F1xx_HAL_Driver/Src/stm32f1xx_hal_pcd.c ****           PCD_SET_EP_RX_STATUS(hpcd->Instance, PCD_ENDP0, USB_EP_RX_VALID);
1283:Drivers/STM32F1xx_HAL_Driver/Src/stm32f1xx_hal_pcd.c ****         }
1284:Drivers/STM32F1xx_HAL_Driver/Src/stm32f1xx_hal_pcd.c ****       }
1285:Drivers/STM32F1xx_HAL_Driver/Src/stm32f1xx_hal_pcd.c ****     }
1286:Drivers/STM32F1xx_HAL_Driver/Src/stm32f1xx_hal_pcd.c ****     else
1287:Drivers/STM32F1xx_HAL_Driver/Src/stm32f1xx_hal_pcd.c ****     {
1288:Drivers/STM32F1xx_HAL_Driver/Src/stm32f1xx_hal_pcd.c ****       /* Decode and service non control endpoints interrupt  */
1289:Drivers/STM32F1xx_HAL_Driver/Src/stm32f1xx_hal_pcd.c **** 	  
1290:Drivers/STM32F1xx_HAL_Driver/Src/stm32f1xx_hal_pcd.c ****       /* process related endpoint register */
1291:Drivers/STM32F1xx_HAL_Driver/Src/stm32f1xx_hal_pcd.c ****       wEPVal = PCD_GET_ENDPOINT(hpcd->Instance, epindex);
 1472              		.loc 1 1291 7 is_stmt 1 view .LVU385
 1473              		.loc 1 1291 16 is_stmt 0 view .LVU386
 1474 00ee 30F82530 		ldrh	r3, [r0, r5, lsl #2]
 1475 00f2 9BB2     		uxth	r3, r3
 1476              		.loc 1 1291 14 view .LVU387
 1477 00f4 ADF80430 		strh	r3, [sp, #4]	@ movhi
1292:Drivers/STM32F1xx_HAL_Driver/Src/stm32f1xx_hal_pcd.c ****       if ((wEPVal & USB_EP_CTR_RX) != 0U)
 1478              		.loc 1 1292 7 is_stmt 1 view .LVU388
 1479              		.loc 1 1292 36 is_stmt 0 view .LVU389
 1480 00f8 BDF80430 		ldrh	r3, [sp, #4]
 1481              		.loc 1 1292 10 view .LVU390
 1482 00fc 13F4004F 		tst	r3, #32768
 1483 0100 36D1     		bne	.L117
 1484              	.L103:
1293:Drivers/STM32F1xx_HAL_Driver/Src/stm32f1xx_hal_pcd.c ****       {  
1294:Drivers/STM32F1xx_HAL_Driver/Src/stm32f1xx_hal_pcd.c ****         /* clear int flag */
1295:Drivers/STM32F1xx_HAL_Driver/Src/stm32f1xx_hal_pcd.c ****         PCD_CLEAR_RX_EP_CTR(hpcd->Instance, epindex);
1296:Drivers/STM32F1xx_HAL_Driver/Src/stm32f1xx_hal_pcd.c ****         ep = &hpcd->OUT_ep[epindex];
1297:Drivers/STM32F1xx_HAL_Driver/Src/stm32f1xx_hal_pcd.c ****         
1298:Drivers/STM32F1xx_HAL_Driver/Src/stm32f1xx_hal_pcd.c ****         /* OUT double Buffering*/
1299:Drivers/STM32F1xx_HAL_Driver/Src/stm32f1xx_hal_pcd.c ****         if (ep->doublebuffer == 0U)
1300:Drivers/STM32F1xx_HAL_Driver/Src/stm32f1xx_hal_pcd.c ****         {
1301:Drivers/STM32F1xx_HAL_Driver/Src/stm32f1xx_hal_pcd.c ****           count = PCD_GET_EP_RX_CNT(hpcd->Instance, ep->num);
1302:Drivers/STM32F1xx_HAL_Driver/Src/stm32f1xx_hal_pcd.c ****           if (count != 0U)
ARM GAS  /var/folders/rf/wfq6hz5s56g3yh4wqgd7820c0000gn/T//cc4VRrEg.s 			page 51


1303:Drivers/STM32F1xx_HAL_Driver/Src/stm32f1xx_hal_pcd.c ****           {
1304:Drivers/STM32F1xx_HAL_Driver/Src/stm32f1xx_hal_pcd.c ****             USB_ReadPMA(hpcd->Instance, ep->xfer_buff, ep->pmaadress, count);
1305:Drivers/STM32F1xx_HAL_Driver/Src/stm32f1xx_hal_pcd.c ****           }
1306:Drivers/STM32F1xx_HAL_Driver/Src/stm32f1xx_hal_pcd.c ****         }
1307:Drivers/STM32F1xx_HAL_Driver/Src/stm32f1xx_hal_pcd.c ****         else
1308:Drivers/STM32F1xx_HAL_Driver/Src/stm32f1xx_hal_pcd.c ****         {
1309:Drivers/STM32F1xx_HAL_Driver/Src/stm32f1xx_hal_pcd.c ****           if (PCD_GET_ENDPOINT(hpcd->Instance, ep->num) & USB_EP_DTOG_RX)
1310:Drivers/STM32F1xx_HAL_Driver/Src/stm32f1xx_hal_pcd.c ****           {
1311:Drivers/STM32F1xx_HAL_Driver/Src/stm32f1xx_hal_pcd.c ****             /*read from endpoint BUF0Addr buffer*/
1312:Drivers/STM32F1xx_HAL_Driver/Src/stm32f1xx_hal_pcd.c ****             count = PCD_GET_EP_DBUF0_CNT(hpcd->Instance, ep->num);
1313:Drivers/STM32F1xx_HAL_Driver/Src/stm32f1xx_hal_pcd.c ****             if (count != 0U)
1314:Drivers/STM32F1xx_HAL_Driver/Src/stm32f1xx_hal_pcd.c ****             {
1315:Drivers/STM32F1xx_HAL_Driver/Src/stm32f1xx_hal_pcd.c ****               USB_ReadPMA(hpcd->Instance, ep->xfer_buff, ep->pmaaddr0, count);
1316:Drivers/STM32F1xx_HAL_Driver/Src/stm32f1xx_hal_pcd.c ****             }
1317:Drivers/STM32F1xx_HAL_Driver/Src/stm32f1xx_hal_pcd.c ****           }
1318:Drivers/STM32F1xx_HAL_Driver/Src/stm32f1xx_hal_pcd.c ****           else
1319:Drivers/STM32F1xx_HAL_Driver/Src/stm32f1xx_hal_pcd.c ****           {
1320:Drivers/STM32F1xx_HAL_Driver/Src/stm32f1xx_hal_pcd.c ****             /*read from endpoint BUF1Addr buffer*/
1321:Drivers/STM32F1xx_HAL_Driver/Src/stm32f1xx_hal_pcd.c ****             count = PCD_GET_EP_DBUF1_CNT(hpcd->Instance, ep->num);
1322:Drivers/STM32F1xx_HAL_Driver/Src/stm32f1xx_hal_pcd.c ****             if (count != 0U)
1323:Drivers/STM32F1xx_HAL_Driver/Src/stm32f1xx_hal_pcd.c ****             {
1324:Drivers/STM32F1xx_HAL_Driver/Src/stm32f1xx_hal_pcd.c ****               USB_ReadPMA(hpcd->Instance, ep->xfer_buff, ep->pmaaddr1, count);
1325:Drivers/STM32F1xx_HAL_Driver/Src/stm32f1xx_hal_pcd.c ****             }
1326:Drivers/STM32F1xx_HAL_Driver/Src/stm32f1xx_hal_pcd.c ****           }
1327:Drivers/STM32F1xx_HAL_Driver/Src/stm32f1xx_hal_pcd.c ****           PCD_FreeUserBuffer(hpcd->Instance, ep->num, PCD_EP_DBUF_OUT);  
1328:Drivers/STM32F1xx_HAL_Driver/Src/stm32f1xx_hal_pcd.c ****         }
1329:Drivers/STM32F1xx_HAL_Driver/Src/stm32f1xx_hal_pcd.c ****         /*multi-packet on the NON control OUT endpoint*/
1330:Drivers/STM32F1xx_HAL_Driver/Src/stm32f1xx_hal_pcd.c ****         ep->xfer_count+=count;
1331:Drivers/STM32F1xx_HAL_Driver/Src/stm32f1xx_hal_pcd.c ****         ep->xfer_buff+=count;
1332:Drivers/STM32F1xx_HAL_Driver/Src/stm32f1xx_hal_pcd.c ****        
1333:Drivers/STM32F1xx_HAL_Driver/Src/stm32f1xx_hal_pcd.c ****         if ((ep->xfer_len == 0U) || (count < ep->maxpacket))
1334:Drivers/STM32F1xx_HAL_Driver/Src/stm32f1xx_hal_pcd.c ****         {
1335:Drivers/STM32F1xx_HAL_Driver/Src/stm32f1xx_hal_pcd.c ****           /* RX COMPLETE */
1336:Drivers/STM32F1xx_HAL_Driver/Src/stm32f1xx_hal_pcd.c ****           HAL_PCD_DataOutStageCallback(hpcd, ep->num);
1337:Drivers/STM32F1xx_HAL_Driver/Src/stm32f1xx_hal_pcd.c ****         }
1338:Drivers/STM32F1xx_HAL_Driver/Src/stm32f1xx_hal_pcd.c ****         else
1339:Drivers/STM32F1xx_HAL_Driver/Src/stm32f1xx_hal_pcd.c ****         {
1340:Drivers/STM32F1xx_HAL_Driver/Src/stm32f1xx_hal_pcd.c ****           HAL_PCD_EP_Receive(hpcd, ep->num, ep->xfer_buff, ep->xfer_len);
1341:Drivers/STM32F1xx_HAL_Driver/Src/stm32f1xx_hal_pcd.c ****         }
1342:Drivers/STM32F1xx_HAL_Driver/Src/stm32f1xx_hal_pcd.c ****         
1343:Drivers/STM32F1xx_HAL_Driver/Src/stm32f1xx_hal_pcd.c ****       } /* if((wEPVal & EP_CTR_RX) */
1344:Drivers/STM32F1xx_HAL_Driver/Src/stm32f1xx_hal_pcd.c ****       
1345:Drivers/STM32F1xx_HAL_Driver/Src/stm32f1xx_hal_pcd.c ****       if ((wEPVal & USB_EP_CTR_TX) != 0U)
 1485              		.loc 1 1345 7 is_stmt 1 view .LVU391
 1486              		.loc 1 1345 19 is_stmt 0 view .LVU392
 1487 0102 BDF80430 		ldrh	r3, [sp, #4]
 1488              		.loc 1 1345 10 view .LVU393
 1489 0106 13F0800F 		tst	r3, #128
 1490 010a 00F01C81 		beq	.L93
1346:Drivers/STM32F1xx_HAL_Driver/Src/stm32f1xx_hal_pcd.c ****       {
1347:Drivers/STM32F1xx_HAL_Driver/Src/stm32f1xx_hal_pcd.c ****         ep = &hpcd->IN_ep[epindex];
 1491              		.loc 1 1347 9 is_stmt 1 view .LVU394
 1492              	.LVL126:
1348:Drivers/STM32F1xx_HAL_Driver/Src/stm32f1xx_hal_pcd.c ****         
1349:Drivers/STM32F1xx_HAL_Driver/Src/stm32f1xx_hal_pcd.c ****         /* clear int flag */
1350:Drivers/STM32F1xx_HAL_Driver/Src/stm32f1xx_hal_pcd.c ****         PCD_CLEAR_TX_EP_CTR(hpcd->Instance, epindex);
 1493              		.loc 1 1350 9 view .LVU395
ARM GAS  /var/folders/rf/wfq6hz5s56g3yh4wqgd7820c0000gn/T//cc4VRrEg.s 			page 52


 1494 010e 2268     		ldr	r2, [r4]
 1495 0110 32F82530 		ldrh	r3, [r2, r5, lsl #2]
 1496 0114 9BB2     		uxth	r3, r3
 1497 0116 23F4E143 		bic	r3, r3, #28800
 1498 011a 23F07003 		bic	r3, r3, #112
 1499 011e 9BB2     		uxth	r3, r3
 1500 0120 22F82530 		strh	r3, [r2, r5, lsl #2]	@ movhi
1351:Drivers/STM32F1xx_HAL_Driver/Src/stm32f1xx_hal_pcd.c ****         
1352:Drivers/STM32F1xx_HAL_Driver/Src/stm32f1xx_hal_pcd.c ****         /* IN double Buffering*/
1353:Drivers/STM32F1xx_HAL_Driver/Src/stm32f1xx_hal_pcd.c ****         if (ep->doublebuffer == 0U)
 1501              		.loc 1 1353 9 view .LVU396
 1502              		.loc 1 1353 15 is_stmt 0 view .LVU397
 1503 0124 04EB4513 		add	r3, r4, r5, lsl #5
 1504 0128 93F83230 		ldrb	r3, [r3, #50]	@ zero_extendqisi2
 1505              		.loc 1 1353 12 view .LVU398
 1506 012c 002B     		cmp	r3, #0
 1507 012e 40F0B980 		bne	.L110
1354:Drivers/STM32F1xx_HAL_Driver/Src/stm32f1xx_hal_pcd.c ****         {
1355:Drivers/STM32F1xx_HAL_Driver/Src/stm32f1xx_hal_pcd.c ****           ep->xfer_count = PCD_GET_EP_TX_CNT(hpcd->Instance, ep->num);
 1508              		.loc 1 1355 11 is_stmt 1 view .LVU399
 1509              		.loc 1 1355 28 is_stmt 0 view .LVU400
 1510 0132 2068     		ldr	r0, [r4]
 1511 0134 B0F85030 		ldrh	r3, [r0, #80]
 1512 0138 9BB2     		uxth	r3, r3
 1513 013a 04EB4512 		add	r2, r4, r5, lsl #5
 1514 013e 92F82820 		ldrb	r2, [r2, #40]	@ zero_extendqisi2
 1515 0142 03EBC203 		add	r3, r3, r2, lsl #3
 1516 0146 0233     		adds	r3, r3, #2
 1517 0148 00EB4303 		add	r3, r0, r3, lsl #1
 1518 014c D3F80034 		ldr	r3, [r3, #1024]
 1519 0150 C3F30903 		ubfx	r3, r3, #0, #10
 1520              		.loc 1 1355 26 view .LVU401
 1521 0154 AA1C     		adds	r2, r5, #2
 1522 0156 04EB4212 		add	r2, r4, r2, lsl #5
 1523 015a 5360     		str	r3, [r2, #4]
1356:Drivers/STM32F1xx_HAL_Driver/Src/stm32f1xx_hal_pcd.c ****           if (ep->xfer_count != 0U)
 1524              		.loc 1 1356 11 is_stmt 1 view .LVU402
 1525              		.loc 1 1356 14 is_stmt 0 view .LVU403
 1526 015c 002B     		cmp	r3, #0
 1527 015e 00F0D080 		beq	.L111
1357:Drivers/STM32F1xx_HAL_Driver/Src/stm32f1xx_hal_pcd.c ****           {
1358:Drivers/STM32F1xx_HAL_Driver/Src/stm32f1xx_hal_pcd.c ****             USB_WritePMA(hpcd->Instance, ep->xfer_buff, ep->pmaadress, ep->xfer_count);
 1528              		.loc 1 1358 13 is_stmt 1 view .LVU404
 1529 0162 04EB4511 		add	r1, r4, r5, lsl #5
 1530 0166 8A8D     		ldrh	r2, [r1, #44]
 1531 0168 C96B     		ldr	r1, [r1, #60]
 1532 016a FFF7FEFF 		bl	USB_WritePMA
 1533              	.LVL127:
 1534 016e C8E0     		b	.L111
 1535              	.LVL128:
 1536              	.L117:
1295:Drivers/STM32F1xx_HAL_Driver/Src/stm32f1xx_hal_pcd.c ****         ep = &hpcd->OUT_ep[epindex];
 1537              		.loc 1 1295 9 view .LVU405
 1538 0170 30F82530 		ldrh	r3, [r0, r5, lsl #2]
 1539 0174 23F07003 		bic	r3, r3, #112
 1540 0178 1B05     		lsls	r3, r3, #20
 1541 017a 1B0D     		lsrs	r3, r3, #20
ARM GAS  /var/folders/rf/wfq6hz5s56g3yh4wqgd7820c0000gn/T//cc4VRrEg.s 			page 53


 1542 017c 20F82530 		strh	r3, [r0, r5, lsl #2]	@ movhi
1296:Drivers/STM32F1xx_HAL_Driver/Src/stm32f1xx_hal_pcd.c ****         
 1543              		.loc 1 1296 9 view .LVU406
 1544              	.LVL129:
1299:Drivers/STM32F1xx_HAL_Driver/Src/stm32f1xx_hal_pcd.c ****         {
 1545              		.loc 1 1299 9 view .LVU407
1299:Drivers/STM32F1xx_HAL_Driver/Src/stm32f1xx_hal_pcd.c ****         {
 1546              		.loc 1 1299 15 is_stmt 0 view .LVU408
 1547 0180 04EB4513 		add	r3, r4, r5, lsl #5
 1548 0184 93F83232 		ldrb	r3, [r3, #562]	@ zero_extendqisi2
1299:Drivers/STM32F1xx_HAL_Driver/Src/stm32f1xx_hal_pcd.c ****         {
 1549              		.loc 1 1299 12 view .LVU409
 1550 0188 DBB9     		cbnz	r3, .L104
1301:Drivers/STM32F1xx_HAL_Driver/Src/stm32f1xx_hal_pcd.c ****           if (count != 0U)
 1551              		.loc 1 1301 11 is_stmt 1 view .LVU410
1301:Drivers/STM32F1xx_HAL_Driver/Src/stm32f1xx_hal_pcd.c ****           if (count != 0U)
 1552              		.loc 1 1301 19 is_stmt 0 view .LVU411
 1553 018a 2068     		ldr	r0, [r4]
 1554 018c B0F85030 		ldrh	r3, [r0, #80]
 1555 0190 9BB2     		uxth	r3, r3
 1556 0192 04EB4512 		add	r2, r4, r5, lsl #5
 1557 0196 92F82822 		ldrb	r2, [r2, #552]	@ zero_extendqisi2
 1558 019a 03EBC203 		add	r3, r3, r2, lsl #3
 1559 019e 0633     		adds	r3, r3, #6
 1560 01a0 00EB4303 		add	r3, r0, r3, lsl #1
 1561 01a4 B3F80064 		ldrh	r6, [r3, #1024]
1301:Drivers/STM32F1xx_HAL_Driver/Src/stm32f1xx_hal_pcd.c ****           if (count != 0U)
 1562              		.loc 1 1301 17 view .LVU412
 1563 01a8 C6F30906 		ubfx	r6, r6, #0, #10
 1564              	.LVL130:
1302:Drivers/STM32F1xx_HAL_Driver/Src/stm32f1xx_hal_pcd.c ****           {
 1565              		.loc 1 1302 11 is_stmt 1 view .LVU413
1302:Drivers/STM32F1xx_HAL_Driver/Src/stm32f1xx_hal_pcd.c ****           {
 1566              		.loc 1 1302 14 is_stmt 0 view .LVU414
 1567 01ac 8EB3     		cbz	r6, .L105
1304:Drivers/STM32F1xx_HAL_Driver/Src/stm32f1xx_hal_pcd.c ****           }
 1568              		.loc 1 1304 13 is_stmt 1 view .LVU415
 1569 01ae 04EB4511 		add	r1, r4, r5, lsl #5
 1570 01b2 3346     		mov	r3, r6
 1571 01b4 B1F82C22 		ldrh	r2, [r1, #556]
 1572 01b8 D1F83C12 		ldr	r1, [r1, #572]
 1573 01bc FFF7FEFF 		bl	USB_ReadPMA
 1574              	.LVL131:
 1575 01c0 27E0     		b	.L105
 1576              	.LVL132:
 1577              	.L104:
1309:Drivers/STM32F1xx_HAL_Driver/Src/stm32f1xx_hal_pcd.c ****           {
 1578              		.loc 1 1309 11 view .LVU416
1309:Drivers/STM32F1xx_HAL_Driver/Src/stm32f1xx_hal_pcd.c ****           {
 1579              		.loc 1 1309 15 is_stmt 0 view .LVU417
 1580 01c2 2068     		ldr	r0, [r4]
 1581 01c4 04EB4513 		add	r3, r4, r5, lsl #5
 1582 01c8 93F82822 		ldrb	r2, [r3, #552]	@ zero_extendqisi2
 1583 01cc 30F82230 		ldrh	r3, [r0, r2, lsl #2]
1309:Drivers/STM32F1xx_HAL_Driver/Src/stm32f1xx_hal_pcd.c ****           {
 1584              		.loc 1 1309 14 view .LVU418
 1585 01d0 13F4804F 		tst	r3, #16384
ARM GAS  /var/folders/rf/wfq6hz5s56g3yh4wqgd7820c0000gn/T//cc4VRrEg.s 			page 54


 1586 01d4 46D0     		beq	.L106
1312:Drivers/STM32F1xx_HAL_Driver/Src/stm32f1xx_hal_pcd.c ****             if (count != 0U)
 1587              		.loc 1 1312 13 is_stmt 1 view .LVU419
1312:Drivers/STM32F1xx_HAL_Driver/Src/stm32f1xx_hal_pcd.c ****             if (count != 0U)
 1588              		.loc 1 1312 21 is_stmt 0 view .LVU420
 1589 01d6 B0F85030 		ldrh	r3, [r0, #80]
 1590 01da 9BB2     		uxth	r3, r3
 1591 01dc 03EBC203 		add	r3, r3, r2, lsl #3
 1592 01e0 0233     		adds	r3, r3, #2
 1593 01e2 00EB4303 		add	r3, r0, r3, lsl #1
 1594 01e6 B3F80064 		ldrh	r6, [r3, #1024]
1312:Drivers/STM32F1xx_HAL_Driver/Src/stm32f1xx_hal_pcd.c ****             if (count != 0U)
 1595              		.loc 1 1312 19 view .LVU421
 1596 01ea C6F30906 		ubfx	r6, r6, #0, #10
 1597              	.LVL133:
1313:Drivers/STM32F1xx_HAL_Driver/Src/stm32f1xx_hal_pcd.c ****             {
 1598              		.loc 1 1313 13 is_stmt 1 view .LVU422
1313:Drivers/STM32F1xx_HAL_Driver/Src/stm32f1xx_hal_pcd.c ****             {
 1599              		.loc 1 1313 16 is_stmt 0 view .LVU423
 1600 01ee 7EBB     		cbnz	r6, .L118
 1601              	.L107:
1327:Drivers/STM32F1xx_HAL_Driver/Src/stm32f1xx_hal_pcd.c ****         }
 1602              		.loc 1 1327 11 is_stmt 1 discriminator 1 view .LVU424
1327:Drivers/STM32F1xx_HAL_Driver/Src/stm32f1xx_hal_pcd.c ****         }
 1603              		.loc 1 1327 11 discriminator 1 view .LVU425
 1604 01f0 2268     		ldr	r2, [r4]
 1605 01f2 04EB4513 		add	r3, r4, r5, lsl #5
 1606 01f6 93F82812 		ldrb	r1, [r3, #552]	@ zero_extendqisi2
 1607 01fa 32F82130 		ldrh	r3, [r2, r1, lsl #2]
 1608 01fe 23F0F003 		bic	r3, r3, #240
 1609 0202 1B05     		lsls	r3, r3, #20
 1610 0204 1B0D     		lsrs	r3, r3, #20
 1611 0206 43F40043 		orr	r3, r3, #32768
 1612 020a 43F0C003 		orr	r3, r3, #192
 1613 020e 22F82130 		strh	r3, [r2, r1, lsl #2]	@ movhi
 1614              	.L105:
1327:Drivers/STM32F1xx_HAL_Driver/Src/stm32f1xx_hal_pcd.c ****         }
 1615              		.loc 1 1327 71 discriminator 6 view .LVU426
1330:Drivers/STM32F1xx_HAL_Driver/Src/stm32f1xx_hal_pcd.c ****         ep->xfer_buff+=count;
 1616              		.loc 1 1330 9 discriminator 6 view .LVU427
1330:Drivers/STM32F1xx_HAL_Driver/Src/stm32f1xx_hal_pcd.c ****         ep->xfer_buff+=count;
 1617              		.loc 1 1330 23 is_stmt 0 discriminator 6 view .LVU428
 1618 0212 05F11203 		add	r3, r5, #18
 1619 0216 5901     		lsls	r1, r3, #5
 1620 0218 04EB4313 		add	r3, r4, r3, lsl #5
 1621 021c 5A68     		ldr	r2, [r3, #4]
 1622 021e 3244     		add	r2, r2, r6
 1623 0220 5A60     		str	r2, [r3, #4]
1331:Drivers/STM32F1xx_HAL_Driver/Src/stm32f1xx_hal_pcd.c ****        
 1624              		.loc 1 1331 9 is_stmt 1 discriminator 6 view .LVU429
1331:Drivers/STM32F1xx_HAL_Driver/Src/stm32f1xx_hal_pcd.c ****        
 1625              		.loc 1 1331 22 is_stmt 0 discriminator 6 view .LVU430
 1626 0222 04EB4513 		add	r3, r4, r5, lsl #5
 1627 0226 D3F83C22 		ldr	r2, [r3, #572]
 1628 022a 3244     		add	r2, r2, r6
 1629 022c C3F83C22 		str	r2, [r3, #572]
1333:Drivers/STM32F1xx_HAL_Driver/Src/stm32f1xx_hal_pcd.c ****         {
ARM GAS  /var/folders/rf/wfq6hz5s56g3yh4wqgd7820c0000gn/T//cc4VRrEg.s 			page 55


 1630              		.loc 1 1333 9 is_stmt 1 discriminator 6 view .LVU431
1333:Drivers/STM32F1xx_HAL_Driver/Src/stm32f1xx_hal_pcd.c ****         {
 1631              		.loc 1 1333 16 is_stmt 0 discriminator 6 view .LVU432
 1632 0230 6358     		ldr	r3, [r4, r1]
1333:Drivers/STM32F1xx_HAL_Driver/Src/stm32f1xx_hal_pcd.c ****         {
 1633              		.loc 1 1333 12 discriminator 6 view .LVU433
 1634 0232 2BB1     		cbz	r3, .L108
1333:Drivers/STM32F1xx_HAL_Driver/Src/stm32f1xx_hal_pcd.c ****         {
 1635              		.loc 1 1333 48 discriminator 1 view .LVU434
 1636 0234 04EB4511 		add	r1, r4, r5, lsl #5
 1637 0238 D1F83812 		ldr	r1, [r1, #568]
1333:Drivers/STM32F1xx_HAL_Driver/Src/stm32f1xx_hal_pcd.c ****         {
 1638              		.loc 1 1333 34 discriminator 1 view .LVU435
 1639 023c 8E42     		cmp	r6, r1
 1640 023e 29D2     		bcs	.L109
 1641              	.L108:
1336:Drivers/STM32F1xx_HAL_Driver/Src/stm32f1xx_hal_pcd.c ****         }
 1642              		.loc 1 1336 11 is_stmt 1 view .LVU436
 1643 0240 04EB4513 		add	r3, r4, r5, lsl #5
 1644 0244 93F82812 		ldrb	r1, [r3, #552]	@ zero_extendqisi2
 1645 0248 2046     		mov	r0, r4
 1646 024a FFF7FEFF 		bl	HAL_PCD_DataOutStageCallback
 1647              	.LVL134:
 1648 024e 58E7     		b	.L103
 1649              	.L118:
1315:Drivers/STM32F1xx_HAL_Driver/Src/stm32f1xx_hal_pcd.c ****             }
 1650              		.loc 1 1315 15 view .LVU437
 1651 0250 04EB4511 		add	r1, r4, r5, lsl #5
 1652 0254 3346     		mov	r3, r6
 1653 0256 B1F82E22 		ldrh	r2, [r1, #558]
 1654 025a D1F83C12 		ldr	r1, [r1, #572]
 1655 025e FFF7FEFF 		bl	USB_ReadPMA
 1656              	.LVL135:
 1657 0262 C5E7     		b	.L107
 1658              	.LVL136:
 1659              	.L106:
1321:Drivers/STM32F1xx_HAL_Driver/Src/stm32f1xx_hal_pcd.c ****             if (count != 0U)
 1660              		.loc 1 1321 13 view .LVU438
1321:Drivers/STM32F1xx_HAL_Driver/Src/stm32f1xx_hal_pcd.c ****             if (count != 0U)
 1661              		.loc 1 1321 21 is_stmt 0 view .LVU439
 1662 0264 B0F85030 		ldrh	r3, [r0, #80]
 1663 0268 9BB2     		uxth	r3, r3
 1664 026a 03EBC203 		add	r3, r3, r2, lsl #3
 1665 026e 0633     		adds	r3, r3, #6
 1666 0270 00EB4303 		add	r3, r0, r3, lsl #1
 1667 0274 B3F80064 		ldrh	r6, [r3, #1024]
1321:Drivers/STM32F1xx_HAL_Driver/Src/stm32f1xx_hal_pcd.c ****             if (count != 0U)
 1668              		.loc 1 1321 19 view .LVU440
 1669 0278 C6F30906 		ubfx	r6, r6, #0, #10
 1670              	.LVL137:
1322:Drivers/STM32F1xx_HAL_Driver/Src/stm32f1xx_hal_pcd.c ****             {
 1671              		.loc 1 1322 13 is_stmt 1 view .LVU441
1322:Drivers/STM32F1xx_HAL_Driver/Src/stm32f1xx_hal_pcd.c ****             {
 1672              		.loc 1 1322 16 is_stmt 0 view .LVU442
 1673 027c 002E     		cmp	r6, #0
 1674 027e B7D0     		beq	.L107
1324:Drivers/STM32F1xx_HAL_Driver/Src/stm32f1xx_hal_pcd.c ****             }
ARM GAS  /var/folders/rf/wfq6hz5s56g3yh4wqgd7820c0000gn/T//cc4VRrEg.s 			page 56


 1675              		.loc 1 1324 15 is_stmt 1 view .LVU443
 1676 0280 04EB4511 		add	r1, r4, r5, lsl #5
 1677 0284 3346     		mov	r3, r6
 1678 0286 B1F83022 		ldrh	r2, [r1, #560]
 1679 028a D1F83C12 		ldr	r1, [r1, #572]
 1680 028e FFF7FEFF 		bl	USB_ReadPMA
 1681              	.LVL138:
 1682 0292 ADE7     		b	.L107
 1683              	.L109:
1340:Drivers/STM32F1xx_HAL_Driver/Src/stm32f1xx_hal_pcd.c ****         }
 1684              		.loc 1 1340 11 view .LVU444
 1685 0294 04EB4511 		add	r1, r4, r5, lsl #5
 1686 0298 91F82812 		ldrb	r1, [r1, #552]	@ zero_extendqisi2
 1687 029c 2046     		mov	r0, r4
 1688 029e FFF7FEFF 		bl	HAL_PCD_EP_Receive
 1689              	.LVL139:
 1690 02a2 2EE7     		b	.L103
 1691              	.LVL140:
 1692              	.L110:
1359:Drivers/STM32F1xx_HAL_Driver/Src/stm32f1xx_hal_pcd.c ****           }
1360:Drivers/STM32F1xx_HAL_Driver/Src/stm32f1xx_hal_pcd.c ****         }
1361:Drivers/STM32F1xx_HAL_Driver/Src/stm32f1xx_hal_pcd.c ****         else
1362:Drivers/STM32F1xx_HAL_Driver/Src/stm32f1xx_hal_pcd.c ****         {
1363:Drivers/STM32F1xx_HAL_Driver/Src/stm32f1xx_hal_pcd.c ****           if (PCD_GET_ENDPOINT(hpcd->Instance, ep->num) & USB_EP_DTOG_TX)
 1693              		.loc 1 1363 11 view .LVU445
 1694              		.loc 1 1363 15 is_stmt 0 view .LVU446
 1695 02a4 2068     		ldr	r0, [r4]
 1696 02a6 04EB4513 		add	r3, r4, r5, lsl #5
 1697 02aa 93F82820 		ldrb	r2, [r3, #40]	@ zero_extendqisi2
 1698 02ae 30F82230 		ldrh	r3, [r0, r2, lsl #2]
 1699              		.loc 1 1363 14 view .LVU447
 1700 02b2 13F0400F 		tst	r3, #64
 1701 02b6 00F0B980 		beq	.L112
1364:Drivers/STM32F1xx_HAL_Driver/Src/stm32f1xx_hal_pcd.c ****           {
1365:Drivers/STM32F1xx_HAL_Driver/Src/stm32f1xx_hal_pcd.c ****             /*read from endpoint BUF0Addr buffer*/
1366:Drivers/STM32F1xx_HAL_Driver/Src/stm32f1xx_hal_pcd.c ****             ep->xfer_count = PCD_GET_EP_DBUF0_CNT(hpcd->Instance, ep->num);
 1702              		.loc 1 1366 13 is_stmt 1 view .LVU448
 1703              		.loc 1 1366 30 is_stmt 0 view .LVU449
 1704 02ba B0F85030 		ldrh	r3, [r0, #80]
 1705 02be 9BB2     		uxth	r3, r3
 1706 02c0 03EBC203 		add	r3, r3, r2, lsl #3
 1707 02c4 0233     		adds	r3, r3, #2
 1708 02c6 00EB4303 		add	r3, r0, r3, lsl #1
 1709 02ca D3F80034 		ldr	r3, [r3, #1024]
 1710 02ce C3F30903 		ubfx	r3, r3, #0, #10
 1711              		.loc 1 1366 28 view .LVU450
 1712 02d2 AA1C     		adds	r2, r5, #2
 1713 02d4 04EB4212 		add	r2, r4, r2, lsl #5
 1714 02d8 5360     		str	r3, [r2, #4]
1367:Drivers/STM32F1xx_HAL_Driver/Src/stm32f1xx_hal_pcd.c ****             if (ep->xfer_count != 0U)
 1715              		.loc 1 1367 13 is_stmt 1 view .LVU451
 1716              		.loc 1 1367 16 is_stmt 0 view .LVU452
 1717 02da 002B     		cmp	r3, #0
 1718 02dc 40F09F80 		bne	.L119
 1719              	.L113:
1368:Drivers/STM32F1xx_HAL_Driver/Src/stm32f1xx_hal_pcd.c ****             {
1369:Drivers/STM32F1xx_HAL_Driver/Src/stm32f1xx_hal_pcd.c ****               USB_WritePMA(hpcd->Instance, ep->xfer_buff, ep->pmaaddr0, ep->xfer_count);
ARM GAS  /var/folders/rf/wfq6hz5s56g3yh4wqgd7820c0000gn/T//cc4VRrEg.s 			page 57


1370:Drivers/STM32F1xx_HAL_Driver/Src/stm32f1xx_hal_pcd.c ****             }
1371:Drivers/STM32F1xx_HAL_Driver/Src/stm32f1xx_hal_pcd.c ****           }
1372:Drivers/STM32F1xx_HAL_Driver/Src/stm32f1xx_hal_pcd.c ****           else
1373:Drivers/STM32F1xx_HAL_Driver/Src/stm32f1xx_hal_pcd.c ****           {
1374:Drivers/STM32F1xx_HAL_Driver/Src/stm32f1xx_hal_pcd.c ****             /*read from endpoint BUF1Addr buffer*/
1375:Drivers/STM32F1xx_HAL_Driver/Src/stm32f1xx_hal_pcd.c ****             ep->xfer_count = PCD_GET_EP_DBUF1_CNT(hpcd->Instance, ep->num);
1376:Drivers/STM32F1xx_HAL_Driver/Src/stm32f1xx_hal_pcd.c ****             if (ep->xfer_count != 0U)
1377:Drivers/STM32F1xx_HAL_Driver/Src/stm32f1xx_hal_pcd.c ****             {
1378:Drivers/STM32F1xx_HAL_Driver/Src/stm32f1xx_hal_pcd.c ****               USB_WritePMA(hpcd->Instance, ep->xfer_buff, ep->pmaaddr1, ep->xfer_count);
1379:Drivers/STM32F1xx_HAL_Driver/Src/stm32f1xx_hal_pcd.c ****             }
1380:Drivers/STM32F1xx_HAL_Driver/Src/stm32f1xx_hal_pcd.c ****           }
1381:Drivers/STM32F1xx_HAL_Driver/Src/stm32f1xx_hal_pcd.c ****           PCD_FreeUserBuffer(hpcd->Instance, ep->num, PCD_EP_DBUF_IN);  
 1720              		.loc 1 1381 11 is_stmt 1 discriminator 4 view .LVU453
 1721              		.loc 1 1381 11 discriminator 4 view .LVU454
 1722              		.loc 1 1381 11 discriminator 4 view .LVU455
 1723 02e0 2268     		ldr	r2, [r4]
 1724 02e2 04EB4513 		add	r3, r4, r5, lsl #5
 1725 02e6 93F82810 		ldrb	r1, [r3, #40]	@ zero_extendqisi2
 1726 02ea 32F82130 		ldrh	r3, [r2, r1, lsl #2]
 1727 02ee 23F0F003 		bic	r3, r3, #240
 1728 02f2 1B05     		lsls	r3, r3, #20
 1729 02f4 1B0D     		lsrs	r3, r3, #20
 1730 02f6 43F44043 		orr	r3, r3, #49152
 1731 02fa 43F08003 		orr	r3, r3, #128
 1732 02fe 22F82130 		strh	r3, [r2, r1, lsl #2]	@ movhi
 1733              	.L111:
 1734              		.loc 1 1381 70 discriminator 6 view .LVU456
1382:Drivers/STM32F1xx_HAL_Driver/Src/stm32f1xx_hal_pcd.c ****         }
1383:Drivers/STM32F1xx_HAL_Driver/Src/stm32f1xx_hal_pcd.c ****         /*multi-packet on the NON control IN endpoint*/
1384:Drivers/STM32F1xx_HAL_Driver/Src/stm32f1xx_hal_pcd.c ****         ep->xfer_count = PCD_GET_EP_TX_CNT(hpcd->Instance, ep->num);
 1735              		.loc 1 1384 9 discriminator 6 view .LVU457
 1736              		.loc 1 1384 26 is_stmt 0 discriminator 6 view .LVU458
 1737 0302 2268     		ldr	r2, [r4]
 1738 0304 B2F85030 		ldrh	r3, [r2, #80]
 1739 0308 9BB2     		uxth	r3, r3
 1740 030a 04EB4511 		add	r1, r4, r5, lsl #5
 1741 030e 91F82800 		ldrb	r0, [r1, #40]	@ zero_extendqisi2
 1742 0312 03EBC003 		add	r3, r3, r0, lsl #3
 1743 0316 0233     		adds	r3, r3, #2
 1744 0318 02EB4303 		add	r3, r2, r3, lsl #1
 1745 031c D3F80024 		ldr	r2, [r3, #1024]
 1746 0320 C2F30902 		ubfx	r2, r2, #0, #10
 1747              		.loc 1 1384 24 discriminator 6 view .LVU459
 1748 0324 AB1C     		adds	r3, r5, #2
 1749 0326 5801     		lsls	r0, r3, #5
 1750 0328 04EB4313 		add	r3, r4, r3, lsl #5
 1751 032c 5A60     		str	r2, [r3, #4]
1385:Drivers/STM32F1xx_HAL_Driver/Src/stm32f1xx_hal_pcd.c ****         ep->xfer_buff+=ep->xfer_count;
 1752              		.loc 1 1385 9 is_stmt 1 discriminator 6 view .LVU460
 1753              		.loc 1 1385 22 is_stmt 0 discriminator 6 view .LVU461
 1754 032e CB6B     		ldr	r3, [r1, #60]
 1755 0330 1A44     		add	r2, r2, r3
 1756 0332 CA63     		str	r2, [r1, #60]
1386:Drivers/STM32F1xx_HAL_Driver/Src/stm32f1xx_hal_pcd.c ****        
1387:Drivers/STM32F1xx_HAL_Driver/Src/stm32f1xx_hal_pcd.c ****         /* Zero Length Packet? */
1388:Drivers/STM32F1xx_HAL_Driver/Src/stm32f1xx_hal_pcd.c ****         if (ep->xfer_len == 0U)
 1757              		.loc 1 1388 9 is_stmt 1 discriminator 6 view .LVU462
ARM GAS  /var/folders/rf/wfq6hz5s56g3yh4wqgd7820c0000gn/T//cc4VRrEg.s 			page 58


 1758              		.loc 1 1388 15 is_stmt 0 discriminator 6 view .LVU463
 1759 0334 2358     		ldr	r3, [r4, r0]
 1760              		.loc 1 1388 12 discriminator 6 view .LVU464
 1761 0336 002B     		cmp	r3, #0
 1762 0338 40F09280 		bne	.L114
1389:Drivers/STM32F1xx_HAL_Driver/Src/stm32f1xx_hal_pcd.c ****         {
1390:Drivers/STM32F1xx_HAL_Driver/Src/stm32f1xx_hal_pcd.c ****           /* TX COMPLETE */
1391:Drivers/STM32F1xx_HAL_Driver/Src/stm32f1xx_hal_pcd.c ****           HAL_PCD_DataInStageCallback(hpcd, ep->num);
 1763              		.loc 1 1391 11 is_stmt 1 view .LVU465
 1764 033c 91F82810 		ldrb	r1, [r1, #40]	@ zero_extendqisi2
 1765 0340 2046     		mov	r0, r4
 1766 0342 FFF7FEFF 		bl	HAL_PCD_DataInStageCallback
 1767              	.LVL141:
 1768              	.L93:
1212:Drivers/STM32F1xx_HAL_Driver/Src/stm32f1xx_hal_pcd.c ****   {
 1769              		.loc 1 1212 9 view .LVU466
1212:Drivers/STM32F1xx_HAL_Driver/Src/stm32f1xx_hal_pcd.c ****   {
 1770              		.loc 1 1212 24 is_stmt 0 view .LVU467
 1771 0346 2068     		ldr	r0, [r4]
1212:Drivers/STM32F1xx_HAL_Driver/Src/stm32f1xx_hal_pcd.c ****   {
 1772              		.loc 1 1212 34 view .LVU468
 1773 0348 B0F84430 		ldrh	r3, [r0, #68]
 1774 034c 9BB2     		uxth	r3, r3
1212:Drivers/STM32F1xx_HAL_Driver/Src/stm32f1xx_hal_pcd.c ****   {
 1775              		.loc 1 1212 18 view .LVU469
 1776 034e ADF80630 		strh	r3, [sp, #6]	@ movhi
1212:Drivers/STM32F1xx_HAL_Driver/Src/stm32f1xx_hal_pcd.c ****   {
 1777              		.loc 1 1212 9 view .LVU470
 1778 0352 13F4004F 		tst	r3, #32768
 1779 0356 00F08B80 		beq	.L120
1215:Drivers/STM32F1xx_HAL_Driver/Src/stm32f1xx_hal_pcd.c ****     
 1780              		.loc 1 1215 5 is_stmt 1 view .LVU471
1215:Drivers/STM32F1xx_HAL_Driver/Src/stm32f1xx_hal_pcd.c ****     
 1781              		.loc 1 1215 15 is_stmt 0 view .LVU472
 1782 035a BDF80650 		ldrh	r5, [sp, #6]
 1783              	.LVL142:
1217:Drivers/STM32F1xx_HAL_Driver/Src/stm32f1xx_hal_pcd.c ****     {
 1784              		.loc 1 1217 5 is_stmt 1 view .LVU473
1217:Drivers/STM32F1xx_HAL_Driver/Src/stm32f1xx_hal_pcd.c ****     {
 1785              		.loc 1 1217 8 is_stmt 0 view .LVU474
 1786 035e 15F00F05 		ands	r5, r5, #15
 1787              	.LVL143:
1217:Drivers/STM32F1xx_HAL_Driver/Src/stm32f1xx_hal_pcd.c ****     {
 1788              		.loc 1 1217 8 view .LVU475
 1789 0362 7FF4C4AE 		bne	.L94
1222:Drivers/STM32F1xx_HAL_Driver/Src/stm32f1xx_hal_pcd.c ****       {
 1790              		.loc 1 1222 7 is_stmt 1 view .LVU476
1222:Drivers/STM32F1xx_HAL_Driver/Src/stm32f1xx_hal_pcd.c ****       {
 1791              		.loc 1 1222 18 is_stmt 0 view .LVU477
 1792 0366 BDF80630 		ldrh	r3, [sp, #6]
1222:Drivers/STM32F1xx_HAL_Driver/Src/stm32f1xx_hal_pcd.c ****       {
 1793              		.loc 1 1222 10 view .LVU478
 1794 036a 13F0100F 		tst	r3, #16
 1795 036e 3FF450AE 		beq	.L121
1251:Drivers/STM32F1xx_HAL_Driver/Src/stm32f1xx_hal_pcd.c ****         wEPVal = PCD_GET_ENDPOINT(hpcd->Instance, PCD_ENDP0);
 1796              		.loc 1 1251 9 is_stmt 1 view .LVU479
 1797              	.LVL144:
ARM GAS  /var/folders/rf/wfq6hz5s56g3yh4wqgd7820c0000gn/T//cc4VRrEg.s 			page 59


1252:Drivers/STM32F1xx_HAL_Driver/Src/stm32f1xx_hal_pcd.c ****         
 1798              		.loc 1 1252 9 view .LVU480
1252:Drivers/STM32F1xx_HAL_Driver/Src/stm32f1xx_hal_pcd.c ****         
 1799              		.loc 1 1252 18 is_stmt 0 view .LVU481
 1800 0372 0388     		ldrh	r3, [r0]
 1801 0374 9BB2     		uxth	r3, r3
1252:Drivers/STM32F1xx_HAL_Driver/Src/stm32f1xx_hal_pcd.c ****         
 1802              		.loc 1 1252 16 view .LVU482
 1803 0376 ADF80430 		strh	r3, [sp, #4]	@ movhi
1254:Drivers/STM32F1xx_HAL_Driver/Src/stm32f1xx_hal_pcd.c ****         {
 1804              		.loc 1 1254 9 is_stmt 1 view .LVU483
1254:Drivers/STM32F1xx_HAL_Driver/Src/stm32f1xx_hal_pcd.c ****         {
 1805              		.loc 1 1254 21 is_stmt 0 view .LVU484
 1806 037a BDF80430 		ldrh	r3, [sp, #4]
1254:Drivers/STM32F1xx_HAL_Driver/Src/stm32f1xx_hal_pcd.c ****         {
 1807              		.loc 1 1254 12 view .LVU485
 1808 037e 13F4006F 		tst	r3, #2048
 1809 0382 7FF479AE 		bne	.L122
1266:Drivers/STM32F1xx_HAL_Driver/Src/stm32f1xx_hal_pcd.c ****         {
 1810              		.loc 1 1266 14 is_stmt 1 view .LVU486
1266:Drivers/STM32F1xx_HAL_Driver/Src/stm32f1xx_hal_pcd.c ****         {
 1811              		.loc 1 1266 43 is_stmt 0 view .LVU487
 1812 0386 BDF80430 		ldrh	r3, [sp, #4]
1266:Drivers/STM32F1xx_HAL_Driver/Src/stm32f1xx_hal_pcd.c ****         {
 1813              		.loc 1 1266 17 view .LVU488
 1814 038a 13F4004F 		tst	r3, #32768
 1815 038e DAD0     		beq	.L93
1268:Drivers/STM32F1xx_HAL_Driver/Src/stm32f1xx_hal_pcd.c ****           /* Get Control Data OUT Packet*/
 1816              		.loc 1 1268 11 is_stmt 1 view .LVU489
 1817 0390 0388     		ldrh	r3, [r0]
 1818 0392 23F07003 		bic	r3, r3, #112
 1819 0396 1B05     		lsls	r3, r3, #20
 1820 0398 1B0D     		lsrs	r3, r3, #20
 1821 039a 0380     		strh	r3, [r0]	@ movhi
1270:Drivers/STM32F1xx_HAL_Driver/Src/stm32f1xx_hal_pcd.c ****           
 1822              		.loc 1 1270 11 view .LVU490
1270:Drivers/STM32F1xx_HAL_Driver/Src/stm32f1xx_hal_pcd.c ****           
 1823              		.loc 1 1270 28 is_stmt 0 view .LVU491
 1824 039c 2068     		ldr	r0, [r4]
 1825 039e B0F85030 		ldrh	r3, [r0, #80]
 1826 03a2 9BB2     		uxth	r3, r3
 1827 03a4 94F82822 		ldrb	r2, [r4, #552]	@ zero_extendqisi2
 1828 03a8 03EBC203 		add	r3, r3, r2, lsl #3
 1829 03ac 0633     		adds	r3, r3, #6
 1830 03ae 00EB4303 		add	r3, r0, r3, lsl #1
 1831 03b2 D3F80034 		ldr	r3, [r3, #1024]
 1832 03b6 C3F30903 		ubfx	r3, r3, #0, #10
1270:Drivers/STM32F1xx_HAL_Driver/Src/stm32f1xx_hal_pcd.c ****           
 1833              		.loc 1 1270 26 view .LVU492
 1834 03ba C4F84432 		str	r3, [r4, #580]
1272:Drivers/STM32F1xx_HAL_Driver/Src/stm32f1xx_hal_pcd.c ****           {
 1835              		.loc 1 1272 11 is_stmt 1 view .LVU493
1272:Drivers/STM32F1xx_HAL_Driver/Src/stm32f1xx_hal_pcd.c ****           {
 1836              		.loc 1 1272 14 is_stmt 0 view .LVU494
 1837 03be 002B     		cmp	r3, #0
 1838 03c0 7FF47BAE 		bne	.L123
 1839              	.L98:
ARM GAS  /var/folders/rf/wfq6hz5s56g3yh4wqgd7820c0000gn/T//cc4VRrEg.s 			page 60


1279:Drivers/STM32F1xx_HAL_Driver/Src/stm32f1xx_hal_pcd.c ****           
 1840              		.loc 1 1279 12 is_stmt 1 view .LVU495
 1841 03c4 0021     		movs	r1, #0
 1842 03c6 2046     		mov	r0, r4
 1843 03c8 FFF7FEFF 		bl	HAL_PCD_DataOutStageCallback
 1844              	.LVL145:
 1845              	.LBB5:
1281:Drivers/STM32F1xx_HAL_Driver/Src/stm32f1xx_hal_pcd.c ****           PCD_SET_EP_RX_STATUS(hpcd->Instance, PCD_ENDP0, USB_EP_RX_VALID);
 1846              		.loc 1 1281 11 view .LVU496
 1847 03cc 2268     		ldr	r2, [r4]
 1848 03ce B2F85030 		ldrh	r3, [r2, #80]
 1849 03d2 9BB2     		uxth	r3, r3
 1850 03d4 0633     		adds	r3, r3, #6
 1851 03d6 02EB4303 		add	r3, r2, r3, lsl #1
 1852              	.LVL146:
 1853              	.LBB4:
1281:Drivers/STM32F1xx_HAL_Driver/Src/stm32f1xx_hal_pcd.c ****           PCD_SET_EP_RX_STATUS(hpcd->Instance, PCD_ENDP0, USB_EP_RX_VALID);
 1854              		.loc 1 1281 11 view .LVU497
1281:Drivers/STM32F1xx_HAL_Driver/Src/stm32f1xx_hal_pcd.c ****           PCD_SET_EP_RX_STATUS(hpcd->Instance, PCD_ENDP0, USB_EP_RX_VALID);
 1855              		.loc 1 1281 11 view .LVU498
 1856 03da D4F83812 		ldr	r1, [r4, #568]
 1857 03de 3E29     		cmp	r1, #62
 1858 03e0 7FF679AE 		bls	.L99
1281:Drivers/STM32F1xx_HAL_Driver/Src/stm32f1xx_hal_pcd.c ****           PCD_SET_EP_RX_STATUS(hpcd->Instance, PCD_ENDP0, USB_EP_RX_VALID);
 1859              		.loc 1 1281 11 discriminator 1 view .LVU499
 1860 03e4 C1F34F12 		ubfx	r2, r1, #5, #16
 1861              	.LVL147:
1281:Drivers/STM32F1xx_HAL_Driver/Src/stm32f1xx_hal_pcd.c ****           PCD_SET_EP_RX_STATUS(hpcd->Instance, PCD_ENDP0, USB_EP_RX_VALID);
 1862              		.loc 1 1281 11 discriminator 1 view .LVU500
 1863 03e8 11F01F0F 		tst	r1, #31
 1864 03ec 01D1     		bne	.L100
1281:Drivers/STM32F1xx_HAL_Driver/Src/stm32f1xx_hal_pcd.c ****           PCD_SET_EP_RX_STATUS(hpcd->Instance, PCD_ENDP0, USB_EP_RX_VALID);
 1865              		.loc 1 1281 11 discriminator 3 view .LVU501
 1866 03ee 013A     		subs	r2, r2, #1
 1867              	.LVL148:
1281:Drivers/STM32F1xx_HAL_Driver/Src/stm32f1xx_hal_pcd.c ****           PCD_SET_EP_RX_STATUS(hpcd->Instance, PCD_ENDP0, USB_EP_RX_VALID);
 1868              		.loc 1 1281 11 is_stmt 0 discriminator 3 view .LVU502
 1869 03f0 92B2     		uxth	r2, r2
 1870              	.LVL149:
 1871              	.L100:
1281:Drivers/STM32F1xx_HAL_Driver/Src/stm32f1xx_hal_pcd.c ****           PCD_SET_EP_RX_STATUS(hpcd->Instance, PCD_ENDP0, USB_EP_RX_VALID);
 1872              		.loc 1 1281 11 is_stmt 1 discriminator 5 view .LVU503
 1873 03f2 6FEAC262 		mvn	r2, r2, lsl #27
 1874              	.LVL150:
1281:Drivers/STM32F1xx_HAL_Driver/Src/stm32f1xx_hal_pcd.c ****           PCD_SET_EP_RX_STATUS(hpcd->Instance, PCD_ENDP0, USB_EP_RX_VALID);
 1875              		.loc 1 1281 11 is_stmt 0 discriminator 5 view .LVU504
 1876 03f6 6FEA5242 		mvn	r2, r2, lsr #17
 1877 03fa 92B2     		uxth	r2, r2
 1878 03fc C3F80024 		str	r2, [r3, #1024]
1281:Drivers/STM32F1xx_HAL_Driver/Src/stm32f1xx_hal_pcd.c ****           PCD_SET_EP_RX_STATUS(hpcd->Instance, PCD_ENDP0, USB_EP_RX_VALID);
 1879              		.loc 1 1281 11 is_stmt 1 discriminator 5 view .LVU505
 1880              	.L101:
1281:Drivers/STM32F1xx_HAL_Driver/Src/stm32f1xx_hal_pcd.c ****           PCD_SET_EP_RX_STATUS(hpcd->Instance, PCD_ENDP0, USB_EP_RX_VALID);
 1881              		.loc 1 1281 11 discriminator 10 view .LVU506
 1882              	.LBE4:
1281:Drivers/STM32F1xx_HAL_Driver/Src/stm32f1xx_hal_pcd.c ****           PCD_SET_EP_RX_STATUS(hpcd->Instance, PCD_ENDP0, USB_EP_RX_VALID);
 1883              		.loc 1 1281 11 discriminator 10 view .LVU507
ARM GAS  /var/folders/rf/wfq6hz5s56g3yh4wqgd7820c0000gn/T//cc4VRrEg.s 			page 61


 1884              	.LBE5:
1281:Drivers/STM32F1xx_HAL_Driver/Src/stm32f1xx_hal_pcd.c ****           PCD_SET_EP_RX_STATUS(hpcd->Instance, PCD_ENDP0, USB_EP_RX_VALID);
 1885              		.loc 1 1281 70 discriminator 10 view .LVU508
 1886              	.LBB6:
1282:Drivers/STM32F1xx_HAL_Driver/Src/stm32f1xx_hal_pcd.c ****         }
 1887              		.loc 1 1282 11 discriminator 10 view .LVU509
1282:Drivers/STM32F1xx_HAL_Driver/Src/stm32f1xx_hal_pcd.c ****         }
 1888              		.loc 1 1282 11 discriminator 10 view .LVU510
 1889 0400 2268     		ldr	r2, [r4]
 1890 0402 1388     		ldrh	r3, [r2]
 1891              	.LVL151:
1282:Drivers/STM32F1xx_HAL_Driver/Src/stm32f1xx_hal_pcd.c ****         }
 1892              		.loc 1 1282 11 is_stmt 0 discriminator 10 view .LVU511
 1893 0404 9BB2     		uxth	r3, r3
 1894 0406 23F48043 		bic	r3, r3, #16384
 1895 040a 23F07003 		bic	r3, r3, #112
 1896              	.LVL152:
1282:Drivers/STM32F1xx_HAL_Driver/Src/stm32f1xx_hal_pcd.c ****         }
 1897              		.loc 1 1282 11 is_stmt 1 discriminator 10 view .LVU512
1282:Drivers/STM32F1xx_HAL_Driver/Src/stm32f1xx_hal_pcd.c ****         }
 1898              		.loc 1 1282 11 discriminator 10 view .LVU513
1282:Drivers/STM32F1xx_HAL_Driver/Src/stm32f1xx_hal_pcd.c ****         }
 1899              		.loc 1 1282 11 discriminator 10 view .LVU514
1282:Drivers/STM32F1xx_HAL_Driver/Src/stm32f1xx_hal_pcd.c ****         }
 1900              		.loc 1 1282 11 discriminator 10 view .LVU515
 1901 040e 83F44053 		eor	r3, r3, #12288
 1902              	.LVL153:
1282:Drivers/STM32F1xx_HAL_Driver/Src/stm32f1xx_hal_pcd.c ****         }
 1903              		.loc 1 1282 11 discriminator 10 view .LVU516
 1904 0412 43F40043 		orr	r3, r3, #32768
 1905              	.LVL154:
1282:Drivers/STM32F1xx_HAL_Driver/Src/stm32f1xx_hal_pcd.c ****         }
 1906              		.loc 1 1282 11 is_stmt 0 discriminator 10 view .LVU517
 1907 0416 43F08003 		orr	r3, r3, #128
 1908 041a 1380     		strh	r3, [r2]	@ movhi
 1909 041c 93E7     		b	.L93
 1910              	.LVL155:
 1911              	.L119:
1282:Drivers/STM32F1xx_HAL_Driver/Src/stm32f1xx_hal_pcd.c ****         }
 1912              		.loc 1 1282 11 discriminator 10 view .LVU518
 1913              	.LBE6:
1369:Drivers/STM32F1xx_HAL_Driver/Src/stm32f1xx_hal_pcd.c ****             }
 1914              		.loc 1 1369 15 is_stmt 1 view .LVU519
 1915 041e 04EB4511 		add	r1, r4, r5, lsl #5
 1916 0422 CA8D     		ldrh	r2, [r1, #46]
 1917 0424 C96B     		ldr	r1, [r1, #60]
 1918 0426 FFF7FEFF 		bl	USB_WritePMA
 1919              	.LVL156:
 1920 042a 59E7     		b	.L113
 1921              	.L112:
1375:Drivers/STM32F1xx_HAL_Driver/Src/stm32f1xx_hal_pcd.c ****             if (ep->xfer_count != 0U)
 1922              		.loc 1 1375 13 view .LVU520
1375:Drivers/STM32F1xx_HAL_Driver/Src/stm32f1xx_hal_pcd.c ****             if (ep->xfer_count != 0U)
 1923              		.loc 1 1375 30 is_stmt 0 view .LVU521
 1924 042c B0F85030 		ldrh	r3, [r0, #80]
 1925 0430 9BB2     		uxth	r3, r3
 1926 0432 03EBC203 		add	r3, r3, r2, lsl #3
ARM GAS  /var/folders/rf/wfq6hz5s56g3yh4wqgd7820c0000gn/T//cc4VRrEg.s 			page 62


 1927 0436 0633     		adds	r3, r3, #6
 1928 0438 00EB4303 		add	r3, r0, r3, lsl #1
 1929 043c D3F80034 		ldr	r3, [r3, #1024]
 1930 0440 C3F30903 		ubfx	r3, r3, #0, #10
1375:Drivers/STM32F1xx_HAL_Driver/Src/stm32f1xx_hal_pcd.c ****             if (ep->xfer_count != 0U)
 1931              		.loc 1 1375 28 view .LVU522
 1932 0444 AA1C     		adds	r2, r5, #2
 1933 0446 04EB4212 		add	r2, r4, r2, lsl #5
 1934 044a 5360     		str	r3, [r2, #4]
1376:Drivers/STM32F1xx_HAL_Driver/Src/stm32f1xx_hal_pcd.c ****             {
 1935              		.loc 1 1376 13 is_stmt 1 view .LVU523
1376:Drivers/STM32F1xx_HAL_Driver/Src/stm32f1xx_hal_pcd.c ****             {
 1936              		.loc 1 1376 16 is_stmt 0 view .LVU524
 1937 044c 002B     		cmp	r3, #0
 1938 044e 3FF447AF 		beq	.L113
1378:Drivers/STM32F1xx_HAL_Driver/Src/stm32f1xx_hal_pcd.c ****             }
 1939              		.loc 1 1378 15 is_stmt 1 view .LVU525
 1940 0452 04EB4511 		add	r1, r4, r5, lsl #5
 1941 0456 0A8E     		ldrh	r2, [r1, #48]
 1942 0458 C96B     		ldr	r1, [r1, #60]
 1943 045a FFF7FEFF 		bl	USB_WritePMA
 1944              	.LVL157:
 1945 045e 3FE7     		b	.L113
 1946              	.L114:
1392:Drivers/STM32F1xx_HAL_Driver/Src/stm32f1xx_hal_pcd.c ****         }
1393:Drivers/STM32F1xx_HAL_Driver/Src/stm32f1xx_hal_pcd.c ****         else
1394:Drivers/STM32F1xx_HAL_Driver/Src/stm32f1xx_hal_pcd.c ****         {
1395:Drivers/STM32F1xx_HAL_Driver/Src/stm32f1xx_hal_pcd.c ****           HAL_PCD_EP_Transmit(hpcd, ep->num, ep->xfer_buff, ep->xfer_len);
 1947              		.loc 1 1395 11 view .LVU526
 1948 0460 04EB4515 		add	r5, r4, r5, lsl #5
 1949              	.LVL158:
 1950              		.loc 1 1395 11 is_stmt 0 view .LVU527
 1951 0464 95F82810 		ldrb	r1, [r5, #40]	@ zero_extendqisi2
 1952 0468 2046     		mov	r0, r4
 1953 046a FFF7FEFF 		bl	HAL_PCD_EP_Transmit
 1954              	.LVL159:
 1955 046e 6AE7     		b	.L93
 1956              	.L120:
1396:Drivers/STM32F1xx_HAL_Driver/Src/stm32f1xx_hal_pcd.c ****         }
1397:Drivers/STM32F1xx_HAL_Driver/Src/stm32f1xx_hal_pcd.c ****       } 
1398:Drivers/STM32F1xx_HAL_Driver/Src/stm32f1xx_hal_pcd.c ****     }
1399:Drivers/STM32F1xx_HAL_Driver/Src/stm32f1xx_hal_pcd.c ****   }
1400:Drivers/STM32F1xx_HAL_Driver/Src/stm32f1xx_hal_pcd.c ****   return HAL_OK;
 1957              		.loc 1 1400 3 is_stmt 1 view .LVU528
1401:Drivers/STM32F1xx_HAL_Driver/Src/stm32f1xx_hal_pcd.c **** }
 1958              		.loc 1 1401 1 is_stmt 0 view .LVU529
 1959 0470 0020     		movs	r0, #0
 1960 0472 02B0     		add	sp, sp, #8
 1961              	.LCFI22:
 1962              		.cfi_def_cfa_offset 16
 1963              		@ sp needed
 1964 0474 70BD     		pop	{r4, r5, r6, pc}
 1965              		.loc 1 1401 1 view .LVU530
 1966              		.cfi_endproc
 1967              	.LFE98:
 1969              		.section	.text.HAL_PCD_IRQHandler,"ax",%progbits
 1970              		.align	1
ARM GAS  /var/folders/rf/wfq6hz5s56g3yh4wqgd7820c0000gn/T//cc4VRrEg.s 			page 63


 1971              		.global	HAL_PCD_IRQHandler
 1972              		.syntax unified
 1973              		.thumb
 1974              		.thumb_func
 1975              		.fpu softvfp
 1977              	HAL_PCD_IRQHandler:
 1978              	.LVL160:
 1979              	.LFB72:
 570:Drivers/STM32F1xx_HAL_Driver/Src/stm32f1xx_hal_pcd.c ****   if (__HAL_PCD_GET_FLAG (hpcd, USB_ISTR_CTR))
 1980              		.loc 1 570 1 is_stmt 1 view -0
 1981              		.cfi_startproc
 1982              		@ args = 0, pretend = 0, frame = 0
 1983              		@ frame_needed = 0, uses_anonymous_args = 0
 570:Drivers/STM32F1xx_HAL_Driver/Src/stm32f1xx_hal_pcd.c ****   if (__HAL_PCD_GET_FLAG (hpcd, USB_ISTR_CTR))
 1984              		.loc 1 570 1 is_stmt 0 view .LVU532
 1985 0000 10B5     		push	{r4, lr}
 1986              	.LCFI23:
 1987              		.cfi_def_cfa_offset 8
 1988              		.cfi_offset 4, -8
 1989              		.cfi_offset 14, -4
 1990 0002 0446     		mov	r4, r0
 571:Drivers/STM32F1xx_HAL_Driver/Src/stm32f1xx_hal_pcd.c ****   {
 1991              		.loc 1 571 3 is_stmt 1 view .LVU533
 571:Drivers/STM32F1xx_HAL_Driver/Src/stm32f1xx_hal_pcd.c ****   {
 1992              		.loc 1 571 7 is_stmt 0 view .LVU534
 1993 0004 0068     		ldr	r0, [r0]
 1994              	.LVL161:
 571:Drivers/STM32F1xx_HAL_Driver/Src/stm32f1xx_hal_pcd.c ****   {
 1995              		.loc 1 571 7 view .LVU535
 1996 0006 FFF7FEFF 		bl	USB_ReadInterrupts
 1997              	.LVL162:
 571:Drivers/STM32F1xx_HAL_Driver/Src/stm32f1xx_hal_pcd.c ****   {
 1998              		.loc 1 571 6 view .LVU536
 1999 000a 10F4004F 		tst	r0, #32768
 2000 000e 45D1     		bne	.L134
 2001              	.L125:
 578:Drivers/STM32F1xx_HAL_Driver/Src/stm32f1xx_hal_pcd.c ****   {
 2002              		.loc 1 578 3 is_stmt 1 view .LVU537
 578:Drivers/STM32F1xx_HAL_Driver/Src/stm32f1xx_hal_pcd.c ****   {
 2003              		.loc 1 578 7 is_stmt 0 view .LVU538
 2004 0010 2068     		ldr	r0, [r4]
 2005 0012 FFF7FEFF 		bl	USB_ReadInterrupts
 2006              	.LVL163:
 578:Drivers/STM32F1xx_HAL_Driver/Src/stm32f1xx_hal_pcd.c ****   {
 2007              		.loc 1 578 6 view .LVU539
 2008 0016 10F4806F 		tst	r0, #1024
 2009 001a 43D1     		bne	.L135
 2010              	.L126:
 585:Drivers/STM32F1xx_HAL_Driver/Src/stm32f1xx_hal_pcd.c ****   {
 2011              		.loc 1 585 3 is_stmt 1 view .LVU540
 585:Drivers/STM32F1xx_HAL_Driver/Src/stm32f1xx_hal_pcd.c ****   {
 2012              		.loc 1 585 7 is_stmt 0 view .LVU541
 2013 001c 2068     		ldr	r0, [r4]
 2014 001e FFF7FEFF 		bl	USB_ReadInterrupts
 2015              	.LVL164:
 585:Drivers/STM32F1xx_HAL_Driver/Src/stm32f1xx_hal_pcd.c ****   {
 2016              		.loc 1 585 6 view .LVU542
ARM GAS  /var/folders/rf/wfq6hz5s56g3yh4wqgd7820c0000gn/T//cc4VRrEg.s 			page 64


 2017 0022 10F4804F 		tst	r0, #16384
 2018 0026 08D0     		beq	.L127
 587:Drivers/STM32F1xx_HAL_Driver/Src/stm32f1xx_hal_pcd.c ****   }
 2019              		.loc 1 587 5 is_stmt 1 view .LVU543
 2020 0028 2268     		ldr	r2, [r4]
 2021 002a B2F84430 		ldrh	r3, [r2, #68]
 2022 002e 9BB2     		uxth	r3, r3
 2023 0030 23F48043 		bic	r3, r3, #16384
 2024 0034 9BB2     		uxth	r3, r3
 2025 0036 A2F84430 		strh	r3, [r2, #68]	@ movhi
 2026              	.L127:
 589:Drivers/STM32F1xx_HAL_Driver/Src/stm32f1xx_hal_pcd.c ****   {
 2027              		.loc 1 589 3 view .LVU544
 589:Drivers/STM32F1xx_HAL_Driver/Src/stm32f1xx_hal_pcd.c ****   {
 2028              		.loc 1 589 7 is_stmt 0 view .LVU545
 2029 003a 2068     		ldr	r0, [r4]
 2030 003c FFF7FEFF 		bl	USB_ReadInterrupts
 2031              	.LVL165:
 589:Drivers/STM32F1xx_HAL_Driver/Src/stm32f1xx_hal_pcd.c ****   {
 2032              		.loc 1 589 6 view .LVU546
 2033 0040 10F4005F 		tst	r0, #8192
 2034 0044 08D0     		beq	.L128
 591:Drivers/STM32F1xx_HAL_Driver/Src/stm32f1xx_hal_pcd.c ****   }
 2035              		.loc 1 591 5 is_stmt 1 view .LVU547
 2036 0046 2268     		ldr	r2, [r4]
 2037 0048 B2F84430 		ldrh	r3, [r2, #68]
 2038 004c 9BB2     		uxth	r3, r3
 2039 004e 23F40053 		bic	r3, r3, #8192
 2040 0052 9BB2     		uxth	r3, r3
 2041 0054 A2F84430 		strh	r3, [r2, #68]	@ movhi
 2042              	.L128:
 594:Drivers/STM32F1xx_HAL_Driver/Src/stm32f1xx_hal_pcd.c ****   {
 2043              		.loc 1 594 3 view .LVU548
 594:Drivers/STM32F1xx_HAL_Driver/Src/stm32f1xx_hal_pcd.c ****   {
 2044              		.loc 1 594 7 is_stmt 0 view .LVU549
 2045 0058 2068     		ldr	r0, [r4]
 2046 005a FFF7FEFF 		bl	USB_ReadInterrupts
 2047              	.LVL166:
 594:Drivers/STM32F1xx_HAL_Driver/Src/stm32f1xx_hal_pcd.c ****   {
 2048              		.loc 1 594 6 view .LVU550
 2049 005e 10F4805F 		tst	r0, #4096
 2050 0062 30D1     		bne	.L136
 2051              	.L129:
 604:Drivers/STM32F1xx_HAL_Driver/Src/stm32f1xx_hal_pcd.c ****   { 
 2052              		.loc 1 604 3 is_stmt 1 view .LVU551
 604:Drivers/STM32F1xx_HAL_Driver/Src/stm32f1xx_hal_pcd.c ****   { 
 2053              		.loc 1 604 7 is_stmt 0 view .LVU552
 2054 0064 2068     		ldr	r0, [r4]
 2055 0066 FFF7FEFF 		bl	USB_ReadInterrupts
 2056              	.LVL167:
 604:Drivers/STM32F1xx_HAL_Driver/Src/stm32f1xx_hal_pcd.c ****   { 
 2057              		.loc 1 604 6 view .LVU553
 2058 006a 10F4006F 		tst	r0, #2048
 2059 006e 49D1     		bne	.L137
 2060              	.L130:
 619:Drivers/STM32F1xx_HAL_Driver/Src/stm32f1xx_hal_pcd.c ****   {
 2061              		.loc 1 619 3 is_stmt 1 view .LVU554
ARM GAS  /var/folders/rf/wfq6hz5s56g3yh4wqgd7820c0000gn/T//cc4VRrEg.s 			page 65


 619:Drivers/STM32F1xx_HAL_Driver/Src/stm32f1xx_hal_pcd.c ****   {
 2062              		.loc 1 619 7 is_stmt 0 view .LVU555
 2063 0070 2068     		ldr	r0, [r4]
 2064 0072 FFF7FEFF 		bl	USB_ReadInterrupts
 2065              	.LVL168:
 619:Drivers/STM32F1xx_HAL_Driver/Src/stm32f1xx_hal_pcd.c ****   {
 2066              		.loc 1 619 6 view .LVU556
 2067 0076 10F4007F 		tst	r0, #512
 2068 007a 66D1     		bne	.L138
 2069              	.L131:
 625:Drivers/STM32F1xx_HAL_Driver/Src/stm32f1xx_hal_pcd.c ****   {
 2070              		.loc 1 625 3 is_stmt 1 view .LVU557
 625:Drivers/STM32F1xx_HAL_Driver/Src/stm32f1xx_hal_pcd.c ****   {
 2071              		.loc 1 625 7 is_stmt 0 view .LVU558
 2072 007c 2068     		ldr	r0, [r4]
 2073 007e FFF7FEFF 		bl	USB_ReadInterrupts
 2074              	.LVL169:
 625:Drivers/STM32F1xx_HAL_Driver/Src/stm32f1xx_hal_pcd.c ****   {
 2075              		.loc 1 625 6 view .LVU559
 2076 0082 10F4807F 		tst	r0, #256
 2077 0086 08D0     		beq	.L124
 628:Drivers/STM32F1xx_HAL_Driver/Src/stm32f1xx_hal_pcd.c ****   }
 2078              		.loc 1 628 5 is_stmt 1 view .LVU560
 2079 0088 2268     		ldr	r2, [r4]
 2080 008a B2F84430 		ldrh	r3, [r2, #68]
 2081 008e 9BB2     		uxth	r3, r3
 2082 0090 23F48073 		bic	r3, r3, #256
 2083 0094 9BB2     		uxth	r3, r3
 2084 0096 A2F84430 		strh	r3, [r2, #68]	@ movhi
 2085              	.L124:
 630:Drivers/STM32F1xx_HAL_Driver/Src/stm32f1xx_hal_pcd.c **** #endif /* USB */
 2086              		.loc 1 630 1 is_stmt 0 view .LVU561
 2087 009a 10BD     		pop	{r4, pc}
 2088              	.LVL170:
 2089              	.L134:
 575:Drivers/STM32F1xx_HAL_Driver/Src/stm32f1xx_hal_pcd.c ****   }
 2090              		.loc 1 575 5 is_stmt 1 view .LVU562
 2091 009c 2046     		mov	r0, r4
 2092 009e FFF7FEFF 		bl	PCD_EP_ISR_Handler
 2093              	.LVL171:
 2094 00a2 B5E7     		b	.L125
 2095              	.L135:
 580:Drivers/STM32F1xx_HAL_Driver/Src/stm32f1xx_hal_pcd.c ****     HAL_PCD_ResetCallback(hpcd);
 2096              		.loc 1 580 5 view .LVU563
 2097 00a4 2268     		ldr	r2, [r4]
 2098 00a6 B2F84430 		ldrh	r3, [r2, #68]
 2099 00aa 9BB2     		uxth	r3, r3
 2100 00ac 23F48063 		bic	r3, r3, #1024
 2101 00b0 9BB2     		uxth	r3, r3
 2102 00b2 A2F84430 		strh	r3, [r2, #68]	@ movhi
 581:Drivers/STM32F1xx_HAL_Driver/Src/stm32f1xx_hal_pcd.c ****     HAL_PCD_SetAddress(hpcd, 0U);
 2103              		.loc 1 581 5 view .LVU564
 2104 00b6 2046     		mov	r0, r4
 2105 00b8 FFF7FEFF 		bl	HAL_PCD_ResetCallback
 2106              	.LVL172:
 582:Drivers/STM32F1xx_HAL_Driver/Src/stm32f1xx_hal_pcd.c ****   }
 2107              		.loc 1 582 5 view .LVU565
ARM GAS  /var/folders/rf/wfq6hz5s56g3yh4wqgd7820c0000gn/T//cc4VRrEg.s 			page 66


 2108 00bc 0021     		movs	r1, #0
 2109 00be 2046     		mov	r0, r4
 2110 00c0 FFF7FEFF 		bl	HAL_PCD_SetAddress
 2111              	.LVL173:
 2112 00c4 AAE7     		b	.L126
 2113              	.L136:
 596:Drivers/STM32F1xx_HAL_Driver/Src/stm32f1xx_hal_pcd.c ****     hpcd->Instance->CNTR &= ~(USB_CNTR_FSUSP);
 2114              		.loc 1 596 5 view .LVU566
 596:Drivers/STM32F1xx_HAL_Driver/Src/stm32f1xx_hal_pcd.c ****     hpcd->Instance->CNTR &= ~(USB_CNTR_FSUSP);
 2115              		.loc 1 596 9 is_stmt 0 view .LVU567
 2116 00c6 2268     		ldr	r2, [r4]
 596:Drivers/STM32F1xx_HAL_Driver/Src/stm32f1xx_hal_pcd.c ****     hpcd->Instance->CNTR &= ~(USB_CNTR_FSUSP);
 2117              		.loc 1 596 26 view .LVU568
 2118 00c8 B2F84030 		ldrh	r3, [r2, #64]
 2119 00cc 9BB2     		uxth	r3, r3
 2120 00ce 23F00403 		bic	r3, r3, #4
 2121 00d2 9BB2     		uxth	r3, r3
 2122 00d4 A2F84030 		strh	r3, [r2, #64]	@ movhi
 597:Drivers/STM32F1xx_HAL_Driver/Src/stm32f1xx_hal_pcd.c ****     
 2123              		.loc 1 597 5 is_stmt 1 view .LVU569
 597:Drivers/STM32F1xx_HAL_Driver/Src/stm32f1xx_hal_pcd.c ****     
 2124              		.loc 1 597 9 is_stmt 0 view .LVU570
 2125 00d8 2268     		ldr	r2, [r4]
 597:Drivers/STM32F1xx_HAL_Driver/Src/stm32f1xx_hal_pcd.c ****     
 2126              		.loc 1 597 26 view .LVU571
 2127 00da B2F84030 		ldrh	r3, [r2, #64]
 2128 00de 9BB2     		uxth	r3, r3
 2129 00e0 23F00803 		bic	r3, r3, #8
 2130 00e4 9BB2     		uxth	r3, r3
 2131 00e6 A2F84030 		strh	r3, [r2, #64]	@ movhi
 599:Drivers/STM32F1xx_HAL_Driver/Src/stm32f1xx_hal_pcd.c **** 
 2132              		.loc 1 599 5 is_stmt 1 view .LVU572
 2133 00ea 2046     		mov	r0, r4
 2134 00ec FFF7FEFF 		bl	HAL_PCD_ResumeCallback
 2135              	.LVL174:
 601:Drivers/STM32F1xx_HAL_Driver/Src/stm32f1xx_hal_pcd.c ****   }
 2136              		.loc 1 601 5 view .LVU573
 2137 00f0 2268     		ldr	r2, [r4]
 2138 00f2 B2F84430 		ldrh	r3, [r2, #68]
 2139 00f6 9BB2     		uxth	r3, r3
 2140 00f8 23F48053 		bic	r3, r3, #4096
 2141 00fc 9BB2     		uxth	r3, r3
 2142 00fe A2F84430 		strh	r3, [r2, #68]	@ movhi
 2143 0102 AFE7     		b	.L129
 2144              	.L137:
 607:Drivers/STM32F1xx_HAL_Driver/Src/stm32f1xx_hal_pcd.c ****     
 2145              		.loc 1 607 5 view .LVU574
 607:Drivers/STM32F1xx_HAL_Driver/Src/stm32f1xx_hal_pcd.c ****     
 2146              		.loc 1 607 9 is_stmt 0 view .LVU575
 2147 0104 2268     		ldr	r2, [r4]
 607:Drivers/STM32F1xx_HAL_Driver/Src/stm32f1xx_hal_pcd.c ****     
 2148              		.loc 1 607 26 view .LVU576
 2149 0106 B2F84030 		ldrh	r3, [r2, #64]
 2150 010a 9BB2     		uxth	r3, r3
 2151 010c 43F00803 		orr	r3, r3, #8
 2152 0110 A2F84030 		strh	r3, [r2, #64]	@ movhi
 610:Drivers/STM32F1xx_HAL_Driver/Src/stm32f1xx_hal_pcd.c **** 
ARM GAS  /var/folders/rf/wfq6hz5s56g3yh4wqgd7820c0000gn/T//cc4VRrEg.s 			page 67


 2153              		.loc 1 610 5 is_stmt 1 view .LVU577
 2154 0114 2268     		ldr	r2, [r4]
 2155 0116 B2F84430 		ldrh	r3, [r2, #68]
 2156 011a 9BB2     		uxth	r3, r3
 2157 011c 23F40063 		bic	r3, r3, #2048
 2158 0120 9BB2     		uxth	r3, r3
 2159 0122 A2F84430 		strh	r3, [r2, #68]	@ movhi
 612:Drivers/STM32F1xx_HAL_Driver/Src/stm32f1xx_hal_pcd.c ****     if (__HAL_PCD_GET_FLAG (hpcd, USB_ISTR_WKUP) == 0U)
 2160              		.loc 1 612 5 view .LVU578
 612:Drivers/STM32F1xx_HAL_Driver/Src/stm32f1xx_hal_pcd.c ****     if (__HAL_PCD_GET_FLAG (hpcd, USB_ISTR_WKUP) == 0U)
 2161              		.loc 1 612 9 is_stmt 0 view .LVU579
 2162 0126 2268     		ldr	r2, [r4]
 612:Drivers/STM32F1xx_HAL_Driver/Src/stm32f1xx_hal_pcd.c ****     if (__HAL_PCD_GET_FLAG (hpcd, USB_ISTR_WKUP) == 0U)
 2163              		.loc 1 612 26 view .LVU580
 2164 0128 B2F84030 		ldrh	r3, [r2, #64]
 2165 012c 9BB2     		uxth	r3, r3
 2166 012e 43F00403 		orr	r3, r3, #4
 2167 0132 A2F84030 		strh	r3, [r2, #64]	@ movhi
 613:Drivers/STM32F1xx_HAL_Driver/Src/stm32f1xx_hal_pcd.c ****     {
 2168              		.loc 1 613 5 is_stmt 1 view .LVU581
 613:Drivers/STM32F1xx_HAL_Driver/Src/stm32f1xx_hal_pcd.c ****     {
 2169              		.loc 1 613 9 is_stmt 0 view .LVU582
 2170 0136 2068     		ldr	r0, [r4]
 2171 0138 FFF7FEFF 		bl	USB_ReadInterrupts
 2172              	.LVL175:
 613:Drivers/STM32F1xx_HAL_Driver/Src/stm32f1xx_hal_pcd.c ****     {
 2173              		.loc 1 613 8 view .LVU583
 2174 013c 10F4805F 		tst	r0, #4096
 2175 0140 96D1     		bne	.L130
 615:Drivers/STM32F1xx_HAL_Driver/Src/stm32f1xx_hal_pcd.c ****     }
 2176              		.loc 1 615 7 is_stmt 1 view .LVU584
 2177 0142 2046     		mov	r0, r4
 2178 0144 FFF7FEFF 		bl	HAL_PCD_SuspendCallback
 2179              	.LVL176:
 2180 0148 92E7     		b	.L130
 2181              	.L138:
 621:Drivers/STM32F1xx_HAL_Driver/Src/stm32f1xx_hal_pcd.c ****     HAL_PCD_SOFCallback(hpcd);
 2182              		.loc 1 621 5 view .LVU585
 2183 014a 2268     		ldr	r2, [r4]
 2184 014c B2F84430 		ldrh	r3, [r2, #68]
 2185 0150 9BB2     		uxth	r3, r3
 2186 0152 23F40073 		bic	r3, r3, #512
 2187 0156 9BB2     		uxth	r3, r3
 2188 0158 A2F84430 		strh	r3, [r2, #68]	@ movhi
 622:Drivers/STM32F1xx_HAL_Driver/Src/stm32f1xx_hal_pcd.c ****   }
 2189              		.loc 1 622 5 view .LVU586
 2190 015c 2046     		mov	r0, r4
 2191 015e FFF7FEFF 		bl	HAL_PCD_SOFCallback
 2192              	.LVL177:
 2193 0162 8BE7     		b	.L131
 2194              		.cfi_endproc
 2195              	.LFE72:
 2197              		.section	.text.HAL_PCD_EP_SetStall,"ax",%progbits
 2198              		.align	1
 2199              		.global	HAL_PCD_EP_SetStall
 2200              		.syntax unified
 2201              		.thumb
ARM GAS  /var/folders/rf/wfq6hz5s56g3yh4wqgd7820c0000gn/T//cc4VRrEg.s 			page 68


 2202              		.thumb_func
 2203              		.fpu softvfp
 2205              	HAL_PCD_EP_SetStall:
 2206              	.LVL178:
 2207              	.LFB92:
1000:Drivers/STM32F1xx_HAL_Driver/Src/stm32f1xx_hal_pcd.c ****   PCD_EPTypeDef *ep = NULL;
 2208              		.loc 1 1000 1 view -0
 2209              		.cfi_startproc
 2210              		@ args = 0, pretend = 0, frame = 0
 2211              		@ frame_needed = 0, uses_anonymous_args = 0
1000:Drivers/STM32F1xx_HAL_Driver/Src/stm32f1xx_hal_pcd.c ****   PCD_EPTypeDef *ep = NULL;
 2212              		.loc 1 1000 1 is_stmt 0 view .LVU588
 2213 0000 38B5     		push	{r3, r4, r5, lr}
 2214              	.LCFI24:
 2215              		.cfi_def_cfa_offset 16
 2216              		.cfi_offset 3, -16
 2217              		.cfi_offset 4, -12
 2218              		.cfi_offset 5, -8
 2219              		.cfi_offset 14, -4
 2220 0002 0446     		mov	r4, r0
 2221 0004 0A46     		mov	r2, r1
1001:Drivers/STM32F1xx_HAL_Driver/Src/stm32f1xx_hal_pcd.c ****   
 2222              		.loc 1 1001 3 is_stmt 1 view .LVU589
 2223              	.LVL179:
1003:Drivers/STM32F1xx_HAL_Driver/Src/stm32f1xx_hal_pcd.c ****   {
 2224              		.loc 1 1003 3 view .LVU590
1003:Drivers/STM32F1xx_HAL_Driver/Src/stm32f1xx_hal_pcd.c ****   {
 2225              		.loc 1 1003 25 is_stmt 0 view .LVU591
 2226 0006 48B2     		sxtb	r0, r1
 2227              	.LVL180:
1003:Drivers/STM32F1xx_HAL_Driver/Src/stm32f1xx_hal_pcd.c ****   {
 2228              		.loc 1 1003 6 view .LVU592
 2229 0008 0028     		cmp	r0, #0
 2230 000a 19DB     		blt	.L146
1009:Drivers/STM32F1xx_HAL_Driver/Src/stm32f1xx_hal_pcd.c ****   }
 2231              		.loc 1 1009 5 is_stmt 1 view .LVU593
1009:Drivers/STM32F1xx_HAL_Driver/Src/stm32f1xx_hal_pcd.c ****   }
 2232              		.loc 1 1009 8 is_stmt 0 view .LVU594
 2233 000c 4B01     		lsls	r3, r1, #5
 2234 000e 03F50A73 		add	r3, r3, #552
 2235 0012 E118     		adds	r1, r4, r3
 2236              	.LVL181:
 2237              	.L141:
1012:Drivers/STM32F1xx_HAL_Driver/Src/stm32f1xx_hal_pcd.c ****   ep->num   = ep_addr & 0x7FU;
 2238              		.loc 1 1012 3 is_stmt 1 view .LVU595
1012:Drivers/STM32F1xx_HAL_Driver/Src/stm32f1xx_hal_pcd.c ****   ep->num   = ep_addr & 0x7FU;
 2239              		.loc 1 1012 16 is_stmt 0 view .LVU596
 2240 0014 0123     		movs	r3, #1
 2241 0016 8B70     		strb	r3, [r1, #2]
1013:Drivers/STM32F1xx_HAL_Driver/Src/stm32f1xx_hal_pcd.c ****   ep->is_in = ((ep_addr & 0x80U) == 0x80U);
 2242              		.loc 1 1013 3 is_stmt 1 view .LVU597
1013:Drivers/STM32F1xx_HAL_Driver/Src/stm32f1xx_hal_pcd.c ****   ep->is_in = ((ep_addr & 0x80U) == 0x80U);
 2243              		.loc 1 1013 23 is_stmt 0 view .LVU598
 2244 0018 02F07F05 		and	r5, r2, #127
1013:Drivers/STM32F1xx_HAL_Driver/Src/stm32f1xx_hal_pcd.c ****   ep->is_in = ((ep_addr & 0x80U) == 0x80U);
 2245              		.loc 1 1013 13 view .LVU599
 2246 001c 0D70     		strb	r5, [r1]
ARM GAS  /var/folders/rf/wfq6hz5s56g3yh4wqgd7820c0000gn/T//cc4VRrEg.s 			page 69


1014:Drivers/STM32F1xx_HAL_Driver/Src/stm32f1xx_hal_pcd.c ****   
 2247              		.loc 1 1014 3 is_stmt 1 view .LVU600
1014:Drivers/STM32F1xx_HAL_Driver/Src/stm32f1xx_hal_pcd.c ****   
 2248              		.loc 1 1014 34 is_stmt 0 view .LVU601
 2249 001e C00F     		lsrs	r0, r0, #31
 2250              	.LVL182:
1014:Drivers/STM32F1xx_HAL_Driver/Src/stm32f1xx_hal_pcd.c ****   
 2251              		.loc 1 1014 13 view .LVU602
 2252 0020 4870     		strb	r0, [r1, #1]
