ARM GAS  /var/folders/rf/wfq6hz5s56g3yh4wqgd7820c0000gn/T//ccshrSpG.s 			page 1


   1              		.cpu cortex-m3
   2              		.eabi_attribute 20, 1
   3              		.eabi_attribute 21, 1
   4              		.eabi_attribute 23, 3
   5              		.eabi_attribute 24, 1
   6              		.eabi_attribute 25, 1
   7              		.eabi_attribute 26, 1
   8              		.eabi_attribute 30, 1
   9              		.eabi_attribute 34, 1
  10              		.eabi_attribute 18, 4
  11              		.file	"usbd_conf.c"
  12              		.text
  13              	.Ltext0:
  14              		.cfi_sections	.debug_frame
  15              		.section	.text.HAL_PCD_MspInit,"ax",%progbits
  16              		.align	1
  17              		.global	HAL_PCD_MspInit
  18              		.arch armv7-m
  19              		.syntax unified
  20              		.thumb
  21              		.thumb_func
  22              		.fpu softvfp
  24              	HAL_PCD_MspInit:
  25              	.LVL0:
  26              	.LFB66:
  27              		.file 1 "Src/usbd_conf.c"
   1:Src/usbd_conf.c **** /**
   2:Src/usbd_conf.c ****   ******************************************************************************
   3:Src/usbd_conf.c ****   * @file           : usbd_conf.c
   4:Src/usbd_conf.c ****   * @version        : v2.0_Cube
   5:Src/usbd_conf.c ****   * @brief          : This file implements the board support package for the USB device library
   6:Src/usbd_conf.c ****   ******************************************************************************
   7:Src/usbd_conf.c ****   * This notice applies to any and all portions of this file
   8:Src/usbd_conf.c ****   * that are not between comment pairs USER CODE BEGIN and
   9:Src/usbd_conf.c ****   * USER CODE END. Other portions of this file, whether 
  10:Src/usbd_conf.c ****   * inserted by the user or by software development tools
  11:Src/usbd_conf.c ****   * are owned by their respective copyright owners.
  12:Src/usbd_conf.c ****   *
  13:Src/usbd_conf.c ****   * Copyright (c) 2020 STMicroelectronics International N.V. 
  14:Src/usbd_conf.c ****   * All rights reserved.
  15:Src/usbd_conf.c ****   *
  16:Src/usbd_conf.c ****   * Redistribution and use in source and binary forms, with or without 
  17:Src/usbd_conf.c ****   * modification, are permitted, provided that the following conditions are met:
  18:Src/usbd_conf.c ****   *
  19:Src/usbd_conf.c ****   * 1. Redistribution of source code must retain the above copyright notice, 
  20:Src/usbd_conf.c ****   *    this list of conditions and the following disclaimer.
  21:Src/usbd_conf.c ****   * 2. Redistributions in binary form must reproduce the above copyright notice,
  22:Src/usbd_conf.c ****   *    this list of conditions and the following disclaimer in the documentation
  23:Src/usbd_conf.c ****   *    and/or other materials provided with the distribution.
  24:Src/usbd_conf.c ****   * 3. Neither the name of STMicroelectronics nor the names of other 
  25:Src/usbd_conf.c ****   *    contributors to this software may be used to endorse or promote products 
  26:Src/usbd_conf.c ****   *    derived from this software without specific written permission.
  27:Src/usbd_conf.c ****   * 4. This software, including modifications and/or derivative works of this 
  28:Src/usbd_conf.c ****   *    software, must execute solely and exclusively on microcontroller or
  29:Src/usbd_conf.c ****   *    microprocessor devices manufactured by or for STMicroelectronics.
  30:Src/usbd_conf.c ****   * 5. Redistribution and use of this software other than as permitted under 
  31:Src/usbd_conf.c ****   *    this license is void and will automatically terminate your rights under 
ARM GAS  /var/folders/rf/wfq6hz5s56g3yh4wqgd7820c0000gn/T//ccshrSpG.s 			page 2


  32:Src/usbd_conf.c ****   *    this license. 
  33:Src/usbd_conf.c ****   *
  34:Src/usbd_conf.c ****   * THIS SOFTWARE IS PROVIDED BY STMICROELECTRONICS AND CONTRIBUTORS "AS IS" 
  35:Src/usbd_conf.c ****   * AND ANY EXPRESS, IMPLIED OR STATUTORY WARRANTIES, INCLUDING, BUT NOT 
  36:Src/usbd_conf.c ****   * LIMITED TO, THE IMPLIED WARRANTIES OF MERCHANTABILITY, FITNESS FOR A 
  37:Src/usbd_conf.c ****   * PARTICULAR PURPOSE AND NON-INFRINGEMENT OF THIRD PARTY INTELLECTUAL PROPERTY
  38:Src/usbd_conf.c ****   * RIGHTS ARE DISCLAIMED TO THE FULLEST EXTENT PERMITTED BY LAW. IN NO EVENT 
  39:Src/usbd_conf.c ****   * SHALL STMICROELECTRONICS OR CONTRIBUTORS BE LIABLE FOR ANY DIRECT, INDIRECT,
  40:Src/usbd_conf.c ****   * INCIDENTAL, SPECIAL, EXEMPLARY, OR CONSEQUENTIAL DAMAGES (INCLUDING, BUT NOT
  41:Src/usbd_conf.c ****   * LIMITED TO, PROCUREMENT OF SUBSTITUTE GOODS OR SERVICES; LOSS OF USE, DATA, 
  42:Src/usbd_conf.c ****   * OR PROFITS; OR BUSINESS INTERRUPTION) HOWEVER CAUSED AND ON ANY THEORY OF 
  43:Src/usbd_conf.c ****   * LIABILITY, WHETHER IN CONTRACT, STRICT LIABILITY, OR TORT (INCLUDING 
  44:Src/usbd_conf.c ****   * NEGLIGENCE OR OTHERWISE) ARISING IN ANY WAY OUT OF THE USE OF THIS SOFTWARE,
  45:Src/usbd_conf.c ****   * EVEN IF ADVISED OF THE POSSIBILITY OF SUCH DAMAGE.
  46:Src/usbd_conf.c ****   *
  47:Src/usbd_conf.c ****   ******************************************************************************
  48:Src/usbd_conf.c ****   */
  49:Src/usbd_conf.c **** 
  50:Src/usbd_conf.c **** /* Includes ------------------------------------------------------------------*/
  51:Src/usbd_conf.c **** #include "stm32f1xx.h"
  52:Src/usbd_conf.c **** #include "stm32f1xx_hal.h"
  53:Src/usbd_conf.c **** #include "usbd_def.h"
  54:Src/usbd_conf.c **** #include "usbd_core.h"
  55:Src/usbd_conf.c **** #include "usbd_cdc.h"
  56:Src/usbd_conf.c **** 
  57:Src/usbd_conf.c **** /* USER CODE BEGIN Includes */
  58:Src/usbd_conf.c **** 
  59:Src/usbd_conf.c **** /* USER CODE END Includes */
  60:Src/usbd_conf.c **** 
  61:Src/usbd_conf.c **** /* Private typedef -----------------------------------------------------------*/
  62:Src/usbd_conf.c **** /* Private define ------------------------------------------------------------*/
  63:Src/usbd_conf.c **** /* Private macro -------------------------------------------------------------*/
  64:Src/usbd_conf.c **** 
  65:Src/usbd_conf.c **** /* USER CODE BEGIN PV */
  66:Src/usbd_conf.c **** /* Private variables ---------------------------------------------------------*/
  67:Src/usbd_conf.c **** 
  68:Src/usbd_conf.c **** /* USER CODE END PV */
  69:Src/usbd_conf.c **** 
  70:Src/usbd_conf.c ****                 PCD_HandleTypeDef hpcd_USB_FS;
  71:Src/usbd_conf.c **** void _Error_Handler(char * file, int line);
  72:Src/usbd_conf.c **** 
  73:Src/usbd_conf.c **** /* USER CODE BEGIN 0 */
  74:Src/usbd_conf.c **** 
  75:Src/usbd_conf.c **** /* USER CODE END 0 */
  76:Src/usbd_conf.c **** 
  77:Src/usbd_conf.c **** /* USER CODE BEGIN PFP */
  78:Src/usbd_conf.c **** /* Private function prototypes -----------------------------------------------*/
  79:Src/usbd_conf.c **** 
  80:Src/usbd_conf.c **** /* USER CODE END PFP */
  81:Src/usbd_conf.c **** 
  82:Src/usbd_conf.c **** /* Private functions ---------------------------------------------------------*/
  83:Src/usbd_conf.c **** 
  84:Src/usbd_conf.c **** /* USER CODE BEGIN 1 */
  85:Src/usbd_conf.c **** 
  86:Src/usbd_conf.c **** /* USER CODE END 1 */
  87:Src/usbd_conf.c **** 
  88:Src/usbd_conf.c **** void HAL_PCDEx_SetConnectionState(PCD_HandleTypeDef *hpcd, uint8_t state);
ARM GAS  /var/folders/rf/wfq6hz5s56g3yh4wqgd7820c0000gn/T//ccshrSpG.s 			page 3


  89:Src/usbd_conf.c **** 
  90:Src/usbd_conf.c **** /*******************************************************************************
  91:Src/usbd_conf.c ****                        LL Driver Callbacks (PCD -> USB Device Library)
  92:Src/usbd_conf.c **** *******************************************************************************/
  93:Src/usbd_conf.c **** /* MSP Init */
  94:Src/usbd_conf.c **** 
  95:Src/usbd_conf.c **** void HAL_PCD_MspInit(PCD_HandleTypeDef* pcdHandle)
  96:Src/usbd_conf.c **** {
  28              		.loc 1 96 1 view -0
  29              		.cfi_startproc
  30              		@ args = 0, pretend = 0, frame = 8
  31              		@ frame_needed = 0, uses_anonymous_args = 0
  97:Src/usbd_conf.c ****   if(pcdHandle->Instance==USB)
  32              		.loc 1 97 3 view .LVU1
  33              		.loc 1 97 15 is_stmt 0 view .LVU2
  34 0000 0268     		ldr	r2, [r0]
  35              		.loc 1 97 5 view .LVU3
  36 0002 0E4B     		ldr	r3, .L8
  37 0004 9A42     		cmp	r2, r3
  38 0006 00D0     		beq	.L7
  39 0008 7047     		bx	lr
  40              	.L7:
  96:Src/usbd_conf.c ****   if(pcdHandle->Instance==USB)
  41              		.loc 1 96 1 view .LVU4
  42 000a 00B5     		push	{lr}
  43              	.LCFI0:
  44              		.cfi_def_cfa_offset 4
  45              		.cfi_offset 14, -4
  46 000c 83B0     		sub	sp, sp, #12
  47              	.LCFI1:
  48              		.cfi_def_cfa_offset 16
  98:Src/usbd_conf.c ****   {
  99:Src/usbd_conf.c ****   /* USER CODE BEGIN USB_MspInit 0 */
 100:Src/usbd_conf.c **** 
 101:Src/usbd_conf.c ****   /* USER CODE END USB_MspInit 0 */
 102:Src/usbd_conf.c ****     /* Peripheral clock enable */
 103:Src/usbd_conf.c ****     __HAL_RCC_USB_CLK_ENABLE();
  49              		.loc 1 103 5 is_stmt 1 view .LVU5
  50              	.LBB2:
  51              		.loc 1 103 5 view .LVU6
  52              		.loc 1 103 5 view .LVU7
  53 000e 03F5DA33 		add	r3, r3, #111616
  54 0012 DA69     		ldr	r2, [r3, #28]
  55 0014 42F40002 		orr	r2, r2, #8388608
  56 0018 DA61     		str	r2, [r3, #28]
  57              		.loc 1 103 5 view .LVU8
  58 001a DB69     		ldr	r3, [r3, #28]
  59 001c 03F40003 		and	r3, r3, #8388608
  60 0020 0193     		str	r3, [sp, #4]
  61              		.loc 1 103 5 view .LVU9
  62 0022 019B     		ldr	r3, [sp, #4]
  63              	.LBE2:
  64              		.loc 1 103 5 view .LVU10
 104:Src/usbd_conf.c **** 
 105:Src/usbd_conf.c ****     /* Peripheral interrupt init */
 106:Src/usbd_conf.c ****     HAL_NVIC_SetPriority(USB_LP_CAN1_RX0_IRQn, 0, 0);
  65              		.loc 1 106 5 view .LVU11
ARM GAS  /var/folders/rf/wfq6hz5s56g3yh4wqgd7820c0000gn/T//ccshrSpG.s 			page 4


  66 0024 0022     		movs	r2, #0
  67 0026 1146     		mov	r1, r2
  68 0028 1420     		movs	r0, #20
  69              	.LVL1:
  70              		.loc 1 106 5 is_stmt 0 view .LVU12
  71 002a FFF7FEFF 		bl	HAL_NVIC_SetPriority
  72              	.LVL2:
 107:Src/usbd_conf.c ****     HAL_NVIC_EnableIRQ(USB_LP_CAN1_RX0_IRQn);
  73              		.loc 1 107 5 is_stmt 1 view .LVU13
  74 002e 1420     		movs	r0, #20
  75 0030 FFF7FEFF 		bl	HAL_NVIC_EnableIRQ
  76              	.LVL3:
 108:Src/usbd_conf.c ****   /* USER CODE BEGIN USB_MspInit 1 */
 109:Src/usbd_conf.c **** 
 110:Src/usbd_conf.c ****   /* USER CODE END USB_MspInit 1 */
 111:Src/usbd_conf.c ****   }
 112:Src/usbd_conf.c **** }
  77              		.loc 1 112 1 is_stmt 0 view .LVU14
  78 0034 03B0     		add	sp, sp, #12
  79              	.LCFI2:
  80              		.cfi_def_cfa_offset 4
  81              		@ sp needed
  82 0036 5DF804FB 		ldr	pc, [sp], #4
  83              	.L9:
  84 003a 00BF     		.align	2
  85              	.L8:
  86 003c 005C0040 		.word	1073765376
  87              		.cfi_endproc
  88              	.LFE66:
  90              		.section	.text.HAL_PCD_MspDeInit,"ax",%progbits
  91              		.align	1
  92              		.global	HAL_PCD_MspDeInit
  93              		.syntax unified
  94              		.thumb
  95              		.thumb_func
  96              		.fpu softvfp
  98              	HAL_PCD_MspDeInit:
  99              	.LVL4:
 100              	.LFB67:
 113:Src/usbd_conf.c **** 
 114:Src/usbd_conf.c **** void HAL_PCD_MspDeInit(PCD_HandleTypeDef* pcdHandle)
 115:Src/usbd_conf.c **** {
 101              		.loc 1 115 1 is_stmt 1 view -0
 102              		.cfi_startproc
 103              		@ args = 0, pretend = 0, frame = 0
 104              		@ frame_needed = 0, uses_anonymous_args = 0
 105              		.loc 1 115 1 is_stmt 0 view .LVU16
 106 0000 08B5     		push	{r3, lr}
 107              	.LCFI3:
 108              		.cfi_def_cfa_offset 8
 109              		.cfi_offset 3, -8
 110              		.cfi_offset 14, -4
 116:Src/usbd_conf.c ****   if(pcdHandle->Instance==USB)
 111              		.loc 1 116 3 is_stmt 1 view .LVU17
 112              		.loc 1 116 15 is_stmt 0 view .LVU18
 113 0002 0268     		ldr	r2, [r0]
 114              		.loc 1 116 5 view .LVU19
ARM GAS  /var/folders/rf/wfq6hz5s56g3yh4wqgd7820c0000gn/T//ccshrSpG.s 			page 5


 115 0004 064B     		ldr	r3, .L14
 116 0006 9A42     		cmp	r2, r3
 117 0008 00D0     		beq	.L13
 118              	.LVL5:
 119              	.L10:
 117:Src/usbd_conf.c ****   {
 118:Src/usbd_conf.c ****   /* USER CODE BEGIN USB_MspDeInit 0 */
 119:Src/usbd_conf.c **** 
 120:Src/usbd_conf.c ****   /* USER CODE END USB_MspDeInit 0 */
 121:Src/usbd_conf.c ****     /* Peripheral clock disable */
 122:Src/usbd_conf.c ****     __HAL_RCC_USB_CLK_DISABLE();
 123:Src/usbd_conf.c **** 
 124:Src/usbd_conf.c ****     /* Peripheral interrupt Deinit*/
 125:Src/usbd_conf.c ****     HAL_NVIC_DisableIRQ(USB_LP_CAN1_RX0_IRQn);
 126:Src/usbd_conf.c **** 
 127:Src/usbd_conf.c ****   /* USER CODE BEGIN USB_MspDeInit 1 */
 128:Src/usbd_conf.c **** 
 129:Src/usbd_conf.c ****   /* USER CODE END USB_MspDeInit 1 */
 130:Src/usbd_conf.c ****   }
 131:Src/usbd_conf.c **** }
 120              		.loc 1 131 1 view .LVU20
 121 000a 08BD     		pop	{r3, pc}
 122              	.LVL6:
 123              	.L13:
 122:Src/usbd_conf.c **** 
 124              		.loc 1 122 5 is_stmt 1 view .LVU21
 125 000c 054A     		ldr	r2, .L14+4
 126 000e D369     		ldr	r3, [r2, #28]
 127 0010 23F40003 		bic	r3, r3, #8388608
 128 0014 D361     		str	r3, [r2, #28]
 125:Src/usbd_conf.c **** 
 129              		.loc 1 125 5 view .LVU22
 130 0016 1420     		movs	r0, #20
 131              	.LVL7:
 125:Src/usbd_conf.c **** 
 132              		.loc 1 125 5 is_stmt 0 view .LVU23
 133 0018 FFF7FEFF 		bl	HAL_NVIC_DisableIRQ
 134              	.LVL8:
 135              		.loc 1 131 1 view .LVU24
 136 001c F5E7     		b	.L10
 137              	.L15:
 138 001e 00BF     		.align	2
 139              	.L14:
 140 0020 005C0040 		.word	1073765376
 141 0024 00100240 		.word	1073876992
 142              		.cfi_endproc
 143              	.LFE67:
 145              		.section	.text.HAL_PCD_SetupStageCallback,"ax",%progbits
 146              		.align	1
 147              		.global	HAL_PCD_SetupStageCallback
 148              		.syntax unified
 149              		.thumb
 150              		.thumb_func
 151              		.fpu softvfp
 153              	HAL_PCD_SetupStageCallback:
 154              	.LVL9:
 155              	.LFB68:
ARM GAS  /var/folders/rf/wfq6hz5s56g3yh4wqgd7820c0000gn/T//ccshrSpG.s 			page 6


 132:Src/usbd_conf.c **** 
 133:Src/usbd_conf.c **** /**
 134:Src/usbd_conf.c ****   * @brief  Setup stage callback
 135:Src/usbd_conf.c ****   * @param  hpcd: PCD handle
 136:Src/usbd_conf.c ****   * @retval None
 137:Src/usbd_conf.c ****   */
 138:Src/usbd_conf.c **** void HAL_PCD_SetupStageCallback(PCD_HandleTypeDef *hpcd)
 139:Src/usbd_conf.c **** {
 156              		.loc 1 139 1 is_stmt 1 view -0
 157              		.cfi_startproc
 158              		@ args = 0, pretend = 0, frame = 0
 159              		@ frame_needed = 0, uses_anonymous_args = 0
 160              		.loc 1 139 1 is_stmt 0 view .LVU26
 161 0000 08B5     		push	{r3, lr}
 162              	.LCFI4:
 163              		.cfi_def_cfa_offset 8
 164              		.cfi_offset 3, -8
 165              		.cfi_offset 14, -4
 140:Src/usbd_conf.c ****   USBD_LL_SetupStage((USBD_HandleTypeDef*)hpcd->pData, (uint8_t *)hpcd->Setup);
 166              		.loc 1 140 3 is_stmt 1 view .LVU27
 167 0002 00F22C41 		addw	r1, r0, #1068
 168 0006 D0F85C04 		ldr	r0, [r0, #1116]
 169              	.LVL10:
 170              		.loc 1 140 3 is_stmt 0 view .LVU28
 171 000a FFF7FEFF 		bl	USBD_LL_SetupStage
 172              	.LVL11:
 141:Src/usbd_conf.c **** }
 173              		.loc 1 141 1 view .LVU29
 174 000e 08BD     		pop	{r3, pc}
 175              		.cfi_endproc
 176              	.LFE68:
 178              		.section	.text.HAL_PCD_DataOutStageCallback,"ax",%progbits
 179              		.align	1
 180              		.global	HAL_PCD_DataOutStageCallback
 181              		.syntax unified
 182              		.thumb
 183              		.thumb_func
 184              		.fpu softvfp
 186              	HAL_PCD_DataOutStageCallback:
 187              	.LVL12:
 188              	.LFB69:
 142:Src/usbd_conf.c **** 
 143:Src/usbd_conf.c **** /**
 144:Src/usbd_conf.c ****   * @brief  Data Out stage callback.
 145:Src/usbd_conf.c ****   * @param  hpcd: PCD handle
 146:Src/usbd_conf.c ****   * @param  epnum: Endpoint number
 147:Src/usbd_conf.c ****   * @retval None
 148:Src/usbd_conf.c ****   */
 149:Src/usbd_conf.c **** void HAL_PCD_DataOutStageCallback(PCD_HandleTypeDef *hpcd, uint8_t epnum)
 150:Src/usbd_conf.c **** {
 189              		.loc 1 150 1 is_stmt 1 view -0
 190              		.cfi_startproc
 191              		@ args = 0, pretend = 0, frame = 0
 192              		@ frame_needed = 0, uses_anonymous_args = 0
 193              		.loc 1 150 1 is_stmt 0 view .LVU31
 194 0000 08B5     		push	{r3, lr}
 195              	.LCFI5:
ARM GAS  /var/folders/rf/wfq6hz5s56g3yh4wqgd7820c0000gn/T//ccshrSpG.s 			page 7


 196              		.cfi_def_cfa_offset 8
 197              		.cfi_offset 3, -8
 198              		.cfi_offset 14, -4
 151:Src/usbd_conf.c ****   USBD_LL_DataOutStage((USBD_HandleTypeDef*)hpcd->pData, epnum, hpcd->OUT_ep[epnum].xfer_buff);
 199              		.loc 1 151 3 is_stmt 1 view .LVU32
 200 0002 00EB4113 		add	r3, r0, r1, lsl #5
 201 0006 D3F83C22 		ldr	r2, [r3, #572]
 202 000a D0F85C04 		ldr	r0, [r0, #1116]
 203              	.LVL13:
 204              		.loc 1 151 3 is_stmt 0 view .LVU33
 205 000e FFF7FEFF 		bl	USBD_LL_DataOutStage
 206              	.LVL14:
 152:Src/usbd_conf.c **** }
 207              		.loc 1 152 1 view .LVU34
 208 0012 08BD     		pop	{r3, pc}
 209              		.cfi_endproc
 210              	.LFE69:
 212              		.section	.text.HAL_PCD_DataInStageCallback,"ax",%progbits
 213              		.align	1
 214              		.global	HAL_PCD_DataInStageCallback
 215              		.syntax unified
 216              		.thumb
 217              		.thumb_func
 218              		.fpu softvfp
 220              	HAL_PCD_DataInStageCallback:
 221              	.LVL15:
 222              	.LFB70:
 153:Src/usbd_conf.c **** 
 154:Src/usbd_conf.c **** /**
 155:Src/usbd_conf.c ****   * @brief  Data In stage callback.
 156:Src/usbd_conf.c ****   * @param  hpcd: PCD handle
 157:Src/usbd_conf.c ****   * @param  epnum: Endpoint number
 158:Src/usbd_conf.c ****   * @retval None
 159:Src/usbd_conf.c ****   */
 160:Src/usbd_conf.c **** void HAL_PCD_DataInStageCallback(PCD_HandleTypeDef *hpcd, uint8_t epnum)
 161:Src/usbd_conf.c **** {
 223              		.loc 1 161 1 is_stmt 1 view -0
 224              		.cfi_startproc
 225              		@ args = 0, pretend = 0, frame = 0
 226              		@ frame_needed = 0, uses_anonymous_args = 0
 227              		.loc 1 161 1 is_stmt 0 view .LVU36
 228 0000 08B5     		push	{r3, lr}
 229              	.LCFI6:
 230              		.cfi_def_cfa_offset 8
 231              		.cfi_offset 3, -8
 232              		.cfi_offset 14, -4
 162:Src/usbd_conf.c ****   USBD_LL_DataInStage((USBD_HandleTypeDef*)hpcd->pData, epnum, hpcd->IN_ep[epnum].xfer_buff);
 233              		.loc 1 162 3 is_stmt 1 view .LVU37
 234 0002 00EB4113 		add	r3, r0, r1, lsl #5
 235 0006 DA6B     		ldr	r2, [r3, #60]
 236 0008 D0F85C04 		ldr	r0, [r0, #1116]
 237              	.LVL16:
 238              		.loc 1 162 3 is_stmt 0 view .LVU38
 239 000c FFF7FEFF 		bl	USBD_LL_DataInStage
 240              	.LVL17:
 163:Src/usbd_conf.c **** }
 241              		.loc 1 163 1 view .LVU39
ARM GAS  /var/folders/rf/wfq6hz5s56g3yh4wqgd7820c0000gn/T//ccshrSpG.s 			page 8


 242 0010 08BD     		pop	{r3, pc}
 243              		.cfi_endproc
 244              	.LFE70:
 246              		.section	.text.HAL_PCD_SOFCallback,"ax",%progbits
 247              		.align	1
 248              		.global	HAL_PCD_SOFCallback
 249              		.syntax unified
 250              		.thumb
 251              		.thumb_func
 252              		.fpu softvfp
 254              	HAL_PCD_SOFCallback:
 255              	.LVL18:
 256              	.LFB71:
 164:Src/usbd_conf.c **** 
 165:Src/usbd_conf.c **** /**
 166:Src/usbd_conf.c ****   * @brief  SOF callback.
 167:Src/usbd_conf.c ****   * @param  hpcd: PCD handle
 168:Src/usbd_conf.c ****   * @retval None
 169:Src/usbd_conf.c ****   */
 170:Src/usbd_conf.c **** void HAL_PCD_SOFCallback(PCD_HandleTypeDef *hpcd)
 171:Src/usbd_conf.c **** {
 257              		.loc 1 171 1 is_stmt 1 view -0
 258              		.cfi_startproc
 259              		@ args = 0, pretend = 0, frame = 0
 260              		@ frame_needed = 0, uses_anonymous_args = 0
 261              		.loc 1 171 1 is_stmt 0 view .LVU41
 262 0000 08B5     		push	{r3, lr}
 263              	.LCFI7:
 264              		.cfi_def_cfa_offset 8
 265              		.cfi_offset 3, -8
 266              		.cfi_offset 14, -4
 172:Src/usbd_conf.c ****   USBD_LL_SOF((USBD_HandleTypeDef*)hpcd->pData);
 267              		.loc 1 172 3 is_stmt 1 view .LVU42
 268 0002 D0F85C04 		ldr	r0, [r0, #1116]
 269              	.LVL19:
 270              		.loc 1 172 3 is_stmt 0 view .LVU43
 271 0006 FFF7FEFF 		bl	USBD_LL_SOF
 272              	.LVL20:
 173:Src/usbd_conf.c **** }
 273              		.loc 1 173 1 view .LVU44
 274 000a 08BD     		pop	{r3, pc}
 275              		.cfi_endproc
 276              	.LFE71:
 278              		.section	.text.HAL_PCD_ResetCallback,"ax",%progbits
 279              		.align	1
 280              		.global	HAL_PCD_ResetCallback
 281              		.syntax unified
 282              		.thumb
 283              		.thumb_func
 284              		.fpu softvfp
 286              	HAL_PCD_ResetCallback:
 287              	.LVL21:
 288              	.LFB72:
 174:Src/usbd_conf.c **** 
 175:Src/usbd_conf.c **** /**
 176:Src/usbd_conf.c ****   * @brief  Reset callback.
 177:Src/usbd_conf.c ****   * @param  hpcd: PCD handle
ARM GAS  /var/folders/rf/wfq6hz5s56g3yh4wqgd7820c0000gn/T//ccshrSpG.s 			page 9


 178:Src/usbd_conf.c ****   * @retval None
 179:Src/usbd_conf.c ****   */
 180:Src/usbd_conf.c **** void HAL_PCD_ResetCallback(PCD_HandleTypeDef *hpcd)
 181:Src/usbd_conf.c **** { 
 289              		.loc 1 181 1 is_stmt 1 view -0
 290              		.cfi_startproc
 291              		@ args = 0, pretend = 0, frame = 0
 292              		@ frame_needed = 0, uses_anonymous_args = 0
 293              		.loc 1 181 1 is_stmt 0 view .LVU46
 294 0000 10B5     		push	{r4, lr}
 295              	.LCFI8:
 296              		.cfi_def_cfa_offset 8
 297              		.cfi_offset 4, -8
 298              		.cfi_offset 14, -4
 299 0002 0446     		mov	r4, r0
 182:Src/usbd_conf.c ****   USBD_SpeedTypeDef speed = USBD_SPEED_FULL;
 300              		.loc 1 182 3 is_stmt 1 view .LVU47
 301              	.LVL22:
 183:Src/usbd_conf.c **** 
 184:Src/usbd_conf.c ****   /* Set USB current speed. */
 185:Src/usbd_conf.c ****   switch (hpcd->Init.speed)
 302              		.loc 1 185 3 view .LVU48
 186:Src/usbd_conf.c ****   {
 187:Src/usbd_conf.c ****   case PCD_SPEED_FULL:
 188:Src/usbd_conf.c ****     speed = USBD_SPEED_FULL;
 189:Src/usbd_conf.c ****     break;
 190:Src/usbd_conf.c **** 	
 191:Src/usbd_conf.c ****   default:
 192:Src/usbd_conf.c ****     speed = USBD_SPEED_FULL;
 193:Src/usbd_conf.c ****     break;    
 194:Src/usbd_conf.c ****   }
 195:Src/usbd_conf.c ****   USBD_LL_SetSpeed((USBD_HandleTypeDef*)hpcd->pData, speed);
 303              		.loc 1 195 3 view .LVU49
 304 0004 0121     		movs	r1, #1
 305 0006 D0F85C04 		ldr	r0, [r0, #1116]
 306              	.LVL23:
 307              		.loc 1 195 3 is_stmt 0 view .LVU50
 308 000a FFF7FEFF 		bl	USBD_LL_SetSpeed
 309              	.LVL24:
 196:Src/usbd_conf.c ****   
 197:Src/usbd_conf.c ****   /* Reset Device. */
 198:Src/usbd_conf.c ****   USBD_LL_Reset((USBD_HandleTypeDef*)hpcd->pData);
 310              		.loc 1 198 3 is_stmt 1 view .LVU51
 311 000e D4F85C04 		ldr	r0, [r4, #1116]
 312 0012 FFF7FEFF 		bl	USBD_LL_Reset
 313              	.LVL25:
 199:Src/usbd_conf.c **** }
 314              		.loc 1 199 1 is_stmt 0 view .LVU52
 315 0016 10BD     		pop	{r4, pc}
 316              		.loc 1 199 1 view .LVU53
 317              		.cfi_endproc
 318              	.LFE72:
 320              		.section	.text.HAL_PCD_SuspendCallback,"ax",%progbits
 321              		.align	1
 322              		.global	HAL_PCD_SuspendCallback
 323              		.syntax unified
 324              		.thumb
ARM GAS  /var/folders/rf/wfq6hz5s56g3yh4wqgd7820c0000gn/T//ccshrSpG.s 			page 10


 325              		.thumb_func
 326              		.fpu softvfp
 328              	HAL_PCD_SuspendCallback:
 329              	.LVL26:
 330              	.LFB73:
 200:Src/usbd_conf.c **** 
 201:Src/usbd_conf.c **** /**
 202:Src/usbd_conf.c ****   * @brief  Suspend callback.
 203:Src/usbd_conf.c ****   * When Low power mode is enabled the debug cannot be used (IAR, Keil doesn't support it)
 204:Src/usbd_conf.c ****   * @param  hpcd: PCD handle
 205:Src/usbd_conf.c ****   * @retval None
 206:Src/usbd_conf.c ****   */
 207:Src/usbd_conf.c **** void HAL_PCD_SuspendCallback(PCD_HandleTypeDef *hpcd)
 208:Src/usbd_conf.c **** {
 331              		.loc 1 208 1 is_stmt 1 view -0
 332              		.cfi_startproc
 333              		@ args = 0, pretend = 0, frame = 0
 334              		@ frame_needed = 0, uses_anonymous_args = 0
 335              		.loc 1 208 1 is_stmt 0 view .LVU55
 336 0000 10B5     		push	{r4, lr}
 337              	.LCFI9:
 338              		.cfi_def_cfa_offset 8
 339              		.cfi_offset 4, -8
 340              		.cfi_offset 14, -4
 341 0002 0446     		mov	r4, r0
 209:Src/usbd_conf.c ****   /* Inform USB library that core enters in suspend Mode. */
 210:Src/usbd_conf.c ****   USBD_LL_Suspend((USBD_HandleTypeDef*)hpcd->pData);
 342              		.loc 1 210 3 is_stmt 1 view .LVU56
 343 0004 D0F85C04 		ldr	r0, [r0, #1116]
 344              	.LVL27:
 345              		.loc 1 210 3 is_stmt 0 view .LVU57
 346 0008 FFF7FEFF 		bl	USBD_LL_Suspend
 347              	.LVL28:
 211:Src/usbd_conf.c ****   /* Enter in STOP mode. */
 212:Src/usbd_conf.c ****   /* USER CODE BEGIN 2 */
 213:Src/usbd_conf.c ****   if (hpcd->Init.low_power_enable)
 348              		.loc 1 213 3 is_stmt 1 view .LVU58
 349              		.loc 1 213 17 is_stmt 0 view .LVU59
 350 000c A369     		ldr	r3, [r4, #24]
 351              		.loc 1 213 6 view .LVU60
 352 000e 23B1     		cbz	r3, .L26
 214:Src/usbd_conf.c ****   {
 215:Src/usbd_conf.c ****     /* Set SLEEPDEEP bit and SleepOnExit of Cortex System Control Register. */
 216:Src/usbd_conf.c ****     SCB->SCR |= (uint32_t)((uint32_t)(SCB_SCR_SLEEPDEEP_Msk | SCB_SCR_SLEEPONEXIT_Msk));
 353              		.loc 1 216 5 is_stmt 1 view .LVU61
 354              		.loc 1 216 14 is_stmt 0 view .LVU62
 355 0010 024A     		ldr	r2, .L29
 356 0012 1369     		ldr	r3, [r2, #16]
 357 0014 43F00603 		orr	r3, r3, #6
 358 0018 1361     		str	r3, [r2, #16]
 359              	.L26:
 217:Src/usbd_conf.c ****   }
 218:Src/usbd_conf.c ****   /* USER CODE END 2 */
 219:Src/usbd_conf.c **** }
 360              		.loc 1 219 1 view .LVU63
 361 001a 10BD     		pop	{r4, pc}
 362              	.LVL29:
ARM GAS  /var/folders/rf/wfq6hz5s56g3yh4wqgd7820c0000gn/T//ccshrSpG.s 			page 11


 363              	.L30:
 364              		.loc 1 219 1 view .LVU64
 365              		.align	2
 366              	.L29:
 367 001c 00ED00E0 		.word	-536810240
 368              		.cfi_endproc
 369              	.LFE73:
 371              		.section	.text.HAL_PCD_ResumeCallback,"ax",%progbits
 372              		.align	1
 373              		.global	HAL_PCD_ResumeCallback
 374              		.syntax unified
 375              		.thumb
 376              		.thumb_func
 377              		.fpu softvfp
 379              	HAL_PCD_ResumeCallback:
 380              	.LVL30:
 381              	.LFB74:
 220:Src/usbd_conf.c **** 
 221:Src/usbd_conf.c **** /**
 222:Src/usbd_conf.c ****   * @brief  Resume callback.
 223:Src/usbd_conf.c ****   * When Low power mode is enabled the debug cannot be used (IAR, Keil doesn't support it)
 224:Src/usbd_conf.c ****   * @param  hpcd: PCD handle
 225:Src/usbd_conf.c ****   * @retval None
 226:Src/usbd_conf.c ****   */
 227:Src/usbd_conf.c **** void HAL_PCD_ResumeCallback(PCD_HandleTypeDef *hpcd)
 228:Src/usbd_conf.c **** {
 382              		.loc 1 228 1 is_stmt 1 view -0
 383              		.cfi_startproc
 384              		@ args = 0, pretend = 0, frame = 0
 385              		@ frame_needed = 0, uses_anonymous_args = 0
 386              		.loc 1 228 1 is_stmt 0 view .LVU66
 387 0000 08B5     		push	{r3, lr}
 388              	.LCFI10:
 389              		.cfi_def_cfa_offset 8
 390              		.cfi_offset 3, -8
 391              		.cfi_offset 14, -4
 229:Src/usbd_conf.c ****   /* USER CODE BEGIN 3 */
 230:Src/usbd_conf.c **** 
 231:Src/usbd_conf.c ****   /* USER CODE END 3 */
 232:Src/usbd_conf.c ****   USBD_LL_Resume((USBD_HandleTypeDef*)hpcd->pData);
 392              		.loc 1 232 3 is_stmt 1 view .LVU67
 393 0002 D0F85C04 		ldr	r0, [r0, #1116]
 394              	.LVL31:
 395              		.loc 1 232 3 is_stmt 0 view .LVU68
 396 0006 FFF7FEFF 		bl	USBD_LL_Resume
 397              	.LVL32:
 233:Src/usbd_conf.c **** }
 398              		.loc 1 233 1 view .LVU69
 399 000a 08BD     		pop	{r3, pc}
 400              		.cfi_endproc
 401              	.LFE74:
 403              		.section	.text.HAL_PCD_ISOOUTIncompleteCallback,"ax",%progbits
 404              		.align	1
 405              		.global	HAL_PCD_ISOOUTIncompleteCallback
 406              		.syntax unified
 407              		.thumb
 408              		.thumb_func
ARM GAS  /var/folders/rf/wfq6hz5s56g3yh4wqgd7820c0000gn/T//ccshrSpG.s 			page 12


 409              		.fpu softvfp
 411              	HAL_PCD_ISOOUTIncompleteCallback:
 412              	.LVL33:
 413              	.LFB75:
 234:Src/usbd_conf.c **** 
 235:Src/usbd_conf.c **** /**
 236:Src/usbd_conf.c ****   * @brief  ISOOUTIncomplete callback.
 237:Src/usbd_conf.c ****   * @param  hpcd: PCD handle
 238:Src/usbd_conf.c ****   * @param  epnum: Endpoint number
 239:Src/usbd_conf.c ****   * @retval None
 240:Src/usbd_conf.c ****   */
 241:Src/usbd_conf.c **** void HAL_PCD_ISOOUTIncompleteCallback(PCD_HandleTypeDef *hpcd, uint8_t epnum)
 242:Src/usbd_conf.c **** {
 414              		.loc 1 242 1 is_stmt 1 view -0
 415              		.cfi_startproc
 416              		@ args = 0, pretend = 0, frame = 0
 417              		@ frame_needed = 0, uses_anonymous_args = 0
 418              		.loc 1 242 1 is_stmt 0 view .LVU71
 419 0000 08B5     		push	{r3, lr}
 420              	.LCFI11:
 421              		.cfi_def_cfa_offset 8
 422              		.cfi_offset 3, -8
 423              		.cfi_offset 14, -4
 243:Src/usbd_conf.c ****   USBD_LL_IsoOUTIncomplete((USBD_HandleTypeDef*)hpcd->pData, epnum);
 424              		.loc 1 243 3 is_stmt 1 view .LVU72
 425 0002 D0F85C04 		ldr	r0, [r0, #1116]
 426              	.LVL34:
 427              		.loc 1 243 3 is_stmt 0 view .LVU73
 428 0006 FFF7FEFF 		bl	USBD_LL_IsoOUTIncomplete
 429              	.LVL35:
 244:Src/usbd_conf.c **** }
 430              		.loc 1 244 1 view .LVU74
 431 000a 08BD     		pop	{r3, pc}
 432              		.cfi_endproc
 433              	.LFE75:
 435              		.section	.text.HAL_PCD_ISOINIncompleteCallback,"ax",%progbits
 436              		.align	1
 437              		.global	HAL_PCD_ISOINIncompleteCallback
 438              		.syntax unified
 439              		.thumb
 440              		.thumb_func
 441              		.fpu softvfp
 443              	HAL_PCD_ISOINIncompleteCallback:
 444              	.LVL36:
 445              	.LFB76:
 245:Src/usbd_conf.c **** 
 246:Src/usbd_conf.c **** /**
 247:Src/usbd_conf.c ****   * @brief  ISOINIncomplete callback.
 248:Src/usbd_conf.c ****   * @param  hpcd: PCD handle
 249:Src/usbd_conf.c ****   * @param  epnum: Endpoint number
 250:Src/usbd_conf.c ****   * @retval None
 251:Src/usbd_conf.c ****   */
 252:Src/usbd_conf.c **** void HAL_PCD_ISOINIncompleteCallback(PCD_HandleTypeDef *hpcd, uint8_t epnum)
 253:Src/usbd_conf.c **** {
 446              		.loc 1 253 1 is_stmt 1 view -0
 447              		.cfi_startproc
 448              		@ args = 0, pretend = 0, frame = 0
ARM GAS  /var/folders/rf/wfq6hz5s56g3yh4wqgd7820c0000gn/T//ccshrSpG.s 			page 13


 449              		@ frame_needed = 0, uses_anonymous_args = 0
 450              		.loc 1 253 1 is_stmt 0 view .LVU76
 451 0000 08B5     		push	{r3, lr}
 452              	.LCFI12:
 453              		.cfi_def_cfa_offset 8
 454              		.cfi_offset 3, -8
 455              		.cfi_offset 14, -4
 254:Src/usbd_conf.c ****   USBD_LL_IsoINIncomplete((USBD_HandleTypeDef*)hpcd->pData, epnum);
 456              		.loc 1 254 3 is_stmt 1 view .LVU77
 457 0002 D0F85C04 		ldr	r0, [r0, #1116]
 458              	.LVL37:
 459              		.loc 1 254 3 is_stmt 0 view .LVU78
 460 0006 FFF7FEFF 		bl	USBD_LL_IsoINIncomplete
 461              	.LVL38:
 255:Src/usbd_conf.c **** }
 462              		.loc 1 255 1 view .LVU79
 463 000a 08BD     		pop	{r3, pc}
 464              		.cfi_endproc
 465              	.LFE76:
 467              		.section	.text.HAL_PCD_ConnectCallback,"ax",%progbits
 468              		.align	1
 469              		.global	HAL_PCD_ConnectCallback
 470              		.syntax unified
 471              		.thumb
 472              		.thumb_func
 473              		.fpu softvfp
 475              	HAL_PCD_ConnectCallback:
 476              	.LVL39:
 477              	.LFB77:
 256:Src/usbd_conf.c **** 
 257:Src/usbd_conf.c **** /**
 258:Src/usbd_conf.c ****   * @brief  Connect callback.
 259:Src/usbd_conf.c ****   * @param  hpcd: PCD handle
 260:Src/usbd_conf.c ****   * @retval None
 261:Src/usbd_conf.c ****   */
 262:Src/usbd_conf.c **** void HAL_PCD_ConnectCallback(PCD_HandleTypeDef *hpcd)
 263:Src/usbd_conf.c **** {
 478              		.loc 1 263 1 is_stmt 1 view -0
 479              		.cfi_startproc
 480              		@ args = 0, pretend = 0, frame = 0
 481              		@ frame_needed = 0, uses_anonymous_args = 0
 482              		.loc 1 263 1 is_stmt 0 view .LVU81
 483 0000 08B5     		push	{r3, lr}
 484              	.LCFI13:
 485              		.cfi_def_cfa_offset 8
 486              		.cfi_offset 3, -8
 487              		.cfi_offset 14, -4
 264:Src/usbd_conf.c ****   USBD_LL_DevConnected((USBD_HandleTypeDef*)hpcd->pData);
 488              		.loc 1 264 3 is_stmt 1 view .LVU82
 489 0002 D0F85C04 		ldr	r0, [r0, #1116]
 490              	.LVL40:
 491              		.loc 1 264 3 is_stmt 0 view .LVU83
 492 0006 FFF7FEFF 		bl	USBD_LL_DevConnected
 493              	.LVL41:
 265:Src/usbd_conf.c **** }
 494              		.loc 1 265 1 view .LVU84
 495 000a 08BD     		pop	{r3, pc}
ARM GAS  /var/folders/rf/wfq6hz5s56g3yh4wqgd7820c0000gn/T//ccshrSpG.s 			page 14


 496              		.cfi_endproc
 497              	.LFE77:
 499              		.section	.text.HAL_PCD_DisconnectCallback,"ax",%progbits
 500              		.align	1
 501              		.global	HAL_PCD_DisconnectCallback
 502              		.syntax unified
 503              		.thumb
 504              		.thumb_func
 505              		.fpu softvfp
 507              	HAL_PCD_DisconnectCallback:
 508              	.LVL42:
 509              	.LFB78:
 266:Src/usbd_conf.c **** 
 267:Src/usbd_conf.c **** /**
 268:Src/usbd_conf.c ****   * @brief  Disconnect callback.
 269:Src/usbd_conf.c ****   * @param  hpcd: PCD handle
 270:Src/usbd_conf.c ****   * @retval None
 271:Src/usbd_conf.c ****   */
 272:Src/usbd_conf.c **** void HAL_PCD_DisconnectCallback(PCD_HandleTypeDef *hpcd)
 273:Src/usbd_conf.c **** {
 510              		.loc 1 273 1 is_stmt 1 view -0
 511              		.cfi_startproc
 512              		@ args = 0, pretend = 0, frame = 0
 513              		@ frame_needed = 0, uses_anonymous_args = 0
 514              		.loc 1 273 1 is_stmt 0 view .LVU86
 515 0000 08B5     		push	{r3, lr}
 516              	.LCFI14:
 517              		.cfi_def_cfa_offset 8
 518              		.cfi_offset 3, -8
 519              		.cfi_offset 14, -4
 274:Src/usbd_conf.c ****   USBD_LL_DevDisconnected((USBD_HandleTypeDef*)hpcd->pData);
 520              		.loc 1 274 3 is_stmt 1 view .LVU87
 521 0002 D0F85C04 		ldr	r0, [r0, #1116]
 522              	.LVL43:
 523              		.loc 1 274 3 is_stmt 0 view .LVU88
 524 0006 FFF7FEFF 		bl	USBD_LL_DevDisconnected
 525              	.LVL44:
 275:Src/usbd_conf.c **** }
 526              		.loc 1 275 1 view .LVU89
 527 000a 08BD     		pop	{r3, pc}
 528              		.cfi_endproc
 529              	.LFE78:
 531              		.section	.rodata.USBD_LL_Init.str1.4,"aMS",%progbits,1
 532              		.align	2
 533              	.LC0:
 534 0000 5372632F 		.ascii	"Src/usbd_conf.c\000"
 534      75736264 
 534      5F636F6E 
 534      662E6300 
 535              		.section	.text.USBD_LL_Init,"ax",%progbits
 536              		.align	1
 537              		.global	USBD_LL_Init
 538              		.syntax unified
 539              		.thumb
 540              		.thumb_func
 541              		.fpu softvfp
 543              	USBD_LL_Init:
ARM GAS  /var/folders/rf/wfq6hz5s56g3yh4wqgd7820c0000gn/T//ccshrSpG.s 			page 15


 544              	.LVL45:
 545              	.LFB79:
 276:Src/usbd_conf.c **** 
 277:Src/usbd_conf.c **** /*******************************************************************************
 278:Src/usbd_conf.c ****                        LL Driver Interface (USB Device Library --> PCD)
 279:Src/usbd_conf.c **** *******************************************************************************/
 280:Src/usbd_conf.c **** 
 281:Src/usbd_conf.c **** /**
 282:Src/usbd_conf.c ****   * @brief  Initializes the low level portion of the device driver.
 283:Src/usbd_conf.c ****   * @param  pdev: Device handle
 284:Src/usbd_conf.c ****   * @retval USBD status
 285:Src/usbd_conf.c ****   */
 286:Src/usbd_conf.c **** USBD_StatusTypeDef USBD_LL_Init(USBD_HandleTypeDef *pdev)
 287:Src/usbd_conf.c **** {
 546              		.loc 1 287 1 is_stmt 1 view -0
 547              		.cfi_startproc
 548              		@ args = 0, pretend = 0, frame = 0
 549              		@ frame_needed = 0, uses_anonymous_args = 0
 550              		.loc 1 287 1 is_stmt 0 view .LVU91
 551 0000 10B5     		push	{r4, lr}
 552              	.LCFI15:
 553              		.cfi_def_cfa_offset 8
 554              		.cfi_offset 4, -8
 555              		.cfi_offset 14, -4
 556 0002 0446     		mov	r4, r0
 288:Src/usbd_conf.c ****   /* Init USB Ip. */
 289:Src/usbd_conf.c ****   /* Link the driver to the stack. */
 290:Src/usbd_conf.c ****   hpcd_USB_FS.pData = pdev;
 557              		.loc 1 290 3 is_stmt 1 view .LVU92
 558              		.loc 1 290 21 is_stmt 0 view .LVU93
 559 0004 2048     		ldr	r0, .L45
 560              	.LVL46:
 561              		.loc 1 290 21 view .LVU94
 562 0006 C0F85C44 		str	r4, [r0, #1116]
 291:Src/usbd_conf.c ****   pdev->pData = &hpcd_USB_FS;
 563              		.loc 1 291 3 is_stmt 1 view .LVU95
 564              		.loc 1 291 15 is_stmt 0 view .LVU96
 565 000a C4F82002 		str	r0, [r4, #544]
 292:Src/usbd_conf.c **** 
 293:Src/usbd_conf.c ****   hpcd_USB_FS.Instance = USB;
 566              		.loc 1 293 3 is_stmt 1 view .LVU97
 567              		.loc 1 293 24 is_stmt 0 view .LVU98
 568 000e 1F4B     		ldr	r3, .L45+4
 569 0010 0360     		str	r3, [r0]
 294:Src/usbd_conf.c ****   hpcd_USB_FS.Init.dev_endpoints = 8;
 570              		.loc 1 294 3 is_stmt 1 view .LVU99
 571              		.loc 1 294 34 is_stmt 0 view .LVU100
 572 0012 0823     		movs	r3, #8
 573 0014 4360     		str	r3, [r0, #4]
 295:Src/usbd_conf.c ****   hpcd_USB_FS.Init.speed = PCD_SPEED_FULL;
 574              		.loc 1 295 3 is_stmt 1 view .LVU101
 575              		.loc 1 295 26 is_stmt 0 view .LVU102
 576 0016 0223     		movs	r3, #2
 577 0018 8360     		str	r3, [r0, #8]
 296:Src/usbd_conf.c ****   hpcd_USB_FS.Init.ep0_mps = DEP0CTL_MPS_8;
 578              		.loc 1 296 3 is_stmt 1 view .LVU103
 579              		.loc 1 296 28 is_stmt 0 view .LVU104
ARM GAS  /var/folders/rf/wfq6hz5s56g3yh4wqgd7820c0000gn/T//ccshrSpG.s 			page 16


 580 001a 0323     		movs	r3, #3
 581 001c C360     		str	r3, [r0, #12]
 297:Src/usbd_conf.c ****   hpcd_USB_FS.Init.low_power_enable = DISABLE;
 582              		.loc 1 297 3 is_stmt 1 view .LVU105
 583              		.loc 1 297 37 is_stmt 0 view .LVU106
 584 001e 0023     		movs	r3, #0
 585 0020 8361     		str	r3, [r0, #24]
 298:Src/usbd_conf.c ****   hpcd_USB_FS.Init.lpm_enable = DISABLE;
 586              		.loc 1 298 3 is_stmt 1 view .LVU107
 587              		.loc 1 298 31 is_stmt 0 view .LVU108
 588 0022 C361     		str	r3, [r0, #28]
 299:Src/usbd_conf.c ****   hpcd_USB_FS.Init.battery_charging_enable = DISABLE;
 589              		.loc 1 299 3 is_stmt 1 view .LVU109
 590              		.loc 1 299 44 is_stmt 0 view .LVU110
 591 0024 0362     		str	r3, [r0, #32]
 300:Src/usbd_conf.c ****   if (HAL_PCD_Init(&hpcd_USB_FS) != HAL_OK)
 592              		.loc 1 300 3 is_stmt 1 view .LVU111
 593              		.loc 1 300 7 is_stmt 0 view .LVU112
 594 0026 FFF7FEFF 		bl	HAL_PCD_Init
 595              	.LVL47:
 596              		.loc 1 300 6 view .LVU113
 597 002a 30BB     		cbnz	r0, .L44
 598              	.L42:
 301:Src/usbd_conf.c ****   {
 302:Src/usbd_conf.c ****     _Error_Handler(__FILE__, __LINE__);
 303:Src/usbd_conf.c ****   }
 304:Src/usbd_conf.c **** 
 305:Src/usbd_conf.c ****   HAL_PCDEx_PMAConfig((PCD_HandleTypeDef*)pdev->pData , 0x00 , PCD_SNG_BUF, 0x18);
 599              		.loc 1 305 3 is_stmt 1 view .LVU114
 600 002c 1823     		movs	r3, #24
 601 002e 0022     		movs	r2, #0
 602 0030 1146     		mov	r1, r2
 603 0032 D4F82002 		ldr	r0, [r4, #544]
 604 0036 FFF7FEFF 		bl	HAL_PCDEx_PMAConfig
 605              	.LVL48:
 306:Src/usbd_conf.c ****   HAL_PCDEx_PMAConfig((PCD_HandleTypeDef*)pdev->pData , 0x80 , PCD_SNG_BUF, 0x58);
 606              		.loc 1 306 3 view .LVU115
 607 003a 5823     		movs	r3, #88
 608 003c 0022     		movs	r2, #0
 609 003e 8021     		movs	r1, #128
 610 0040 D4F82002 		ldr	r0, [r4, #544]
 611 0044 FFF7FEFF 		bl	HAL_PCDEx_PMAConfig
 612              	.LVL49:
 307:Src/usbd_conf.c ****   HAL_PCDEx_PMAConfig((PCD_HandleTypeDef*)pdev->pData , 0x81 , PCD_SNG_BUF, 0xC0);
 613              		.loc 1 307 3 view .LVU116
 614 0048 C023     		movs	r3, #192
 615 004a 0022     		movs	r2, #0
 616 004c 8121     		movs	r1, #129
 617 004e D4F82002 		ldr	r0, [r4, #544]
 618 0052 FFF7FEFF 		bl	HAL_PCDEx_PMAConfig
 619              	.LVL50:
 308:Src/usbd_conf.c ****   HAL_PCDEx_PMAConfig((PCD_HandleTypeDef*)pdev->pData , 0x01 , PCD_SNG_BUF, 0x110);
 620              		.loc 1 308 3 view .LVU117
 621 0056 4FF48873 		mov	r3, #272
 622 005a 0022     		movs	r2, #0
 623 005c 0121     		movs	r1, #1
 624 005e D4F82002 		ldr	r0, [r4, #544]
ARM GAS  /var/folders/rf/wfq6hz5s56g3yh4wqgd7820c0000gn/T//ccshrSpG.s 			page 17


 625 0062 FFF7FEFF 		bl	HAL_PCDEx_PMAConfig
 626              	.LVL51:
 309:Src/usbd_conf.c ****   HAL_PCDEx_PMAConfig((PCD_HandleTypeDef*)pdev->pData , 0x82 , PCD_SNG_BUF, 0x100);
 627              		.loc 1 309 3 view .LVU118
 628 0066 4FF48073 		mov	r3, #256
 629 006a 0022     		movs	r2, #0
 630 006c 8221     		movs	r1, #130
 631 006e D4F82002 		ldr	r0, [r4, #544]
 632 0072 FFF7FEFF 		bl	HAL_PCDEx_PMAConfig
 633              	.LVL52:
 310:Src/usbd_conf.c ****   return USBD_OK;
 634              		.loc 1 310 3 view .LVU119
 311:Src/usbd_conf.c **** }
 635              		.loc 1 311 1 is_stmt 0 view .LVU120
 636 0076 0020     		movs	r0, #0
 637 0078 10BD     		pop	{r4, pc}
 638              	.LVL53:
 639              	.L44:
 302:Src/usbd_conf.c ****   }
 640              		.loc 1 302 5 is_stmt 1 view .LVU121
 641 007a 4FF49771 		mov	r1, #302
 642 007e 0448     		ldr	r0, .L45+8
 643 0080 FFF7FEFF 		bl	_Error_Handler
 644              	.LVL54:
 645 0084 D2E7     		b	.L42
 646              	.L46:
 647 0086 00BF     		.align	2
 648              	.L45:
 649 0088 00000000 		.word	hpcd_USB_FS
 650 008c 005C0040 		.word	1073765376
 651 0090 00000000 		.word	.LC0
 652              		.cfi_endproc
 653              	.LFE79:
 655              		.section	.text.USBD_LL_DeInit,"ax",%progbits
 656              		.align	1
 657              		.global	USBD_LL_DeInit
 658              		.syntax unified
 659              		.thumb
 660              		.thumb_func
 661              		.fpu softvfp
 663              	USBD_LL_DeInit:
 664              	.LVL55:
 665              	.LFB80:
 312:Src/usbd_conf.c **** 
 313:Src/usbd_conf.c **** /**
 314:Src/usbd_conf.c ****   * @brief  De-Initializes the low level portion of the device driver.
 315:Src/usbd_conf.c ****   * @param  pdev: Device handle
 316:Src/usbd_conf.c ****   * @retval USBD status
 317:Src/usbd_conf.c ****   */
 318:Src/usbd_conf.c **** USBD_StatusTypeDef USBD_LL_DeInit(USBD_HandleTypeDef *pdev)
 319:Src/usbd_conf.c **** {
 666              		.loc 1 319 1 view -0
 667              		.cfi_startproc
 668              		@ args = 0, pretend = 0, frame = 0
 669              		@ frame_needed = 0, uses_anonymous_args = 0
 670              		.loc 1 319 1 is_stmt 0 view .LVU123
 671 0000 08B5     		push	{r3, lr}
ARM GAS  /var/folders/rf/wfq6hz5s56g3yh4wqgd7820c0000gn/T//ccshrSpG.s 			page 18


 672              	.LCFI16:
 673              		.cfi_def_cfa_offset 8
 674              		.cfi_offset 3, -8
 675              		.cfi_offset 14, -4
 320:Src/usbd_conf.c ****   HAL_StatusTypeDef hal_status = HAL_OK;
 676              		.loc 1 320 3 is_stmt 1 view .LVU124
 677              	.LVL56:
 321:Src/usbd_conf.c ****   USBD_StatusTypeDef usb_status = USBD_OK;
 678              		.loc 1 321 3 view .LVU125
 322:Src/usbd_conf.c **** 
 323:Src/usbd_conf.c ****   hal_status = HAL_PCD_DeInit(pdev->pData);
 679              		.loc 1 323 3 view .LVU126
 680              		.loc 1 323 16 is_stmt 0 view .LVU127
 681 0002 D0F82002 		ldr	r0, [r0, #544]
 682              	.LVL57:
 683              		.loc 1 323 16 view .LVU128
 684 0006 FFF7FEFF 		bl	HAL_PCD_DeInit
 685              	.LVL58:
 324:Src/usbd_conf.c **** 
 325:Src/usbd_conf.c ****   switch (hal_status) {
 686              		.loc 1 325 3 is_stmt 1 view .LVU129
 687 000a 0228     		cmp	r0, #2
 688 000c 05D8     		bhi	.L52
 689 000e DFE800F0 		tbb	[pc, r0]
 690              	.L50:
 691 0012 05       		.byte	(.L48-.L50)/2
 692 0013 04       		.byte	(.L52-.L50)/2
 693 0014 02       		.byte	(.L49-.L50)/2
 694 0015 00       		.p2align 1
 695              	.L49:
 326:Src/usbd_conf.c ****     case HAL_OK :
 327:Src/usbd_conf.c ****       usb_status = USBD_OK;
 328:Src/usbd_conf.c ****     break;
 329:Src/usbd_conf.c ****     case HAL_ERROR :
 330:Src/usbd_conf.c ****       usb_status = USBD_FAIL;
 331:Src/usbd_conf.c ****     break;
 332:Src/usbd_conf.c ****     case HAL_BUSY :
 333:Src/usbd_conf.c ****       usb_status = USBD_BUSY;
 696              		.loc 1 333 7 view .LVU130
 697              	.LVL59:
 334:Src/usbd_conf.c ****     break;
 698              		.loc 1 334 5 view .LVU131
 333:Src/usbd_conf.c ****     break;
 699              		.loc 1 333 18 is_stmt 0 view .LVU132
 700 0016 0120     		movs	r0, #1
 701              	.LVL60:
 702              		.loc 1 334 5 view .LVU133
 703 0018 00E0     		b	.L48
 704              	.LVL61:
 705              	.L52:
 330:Src/usbd_conf.c ****     break;
 706              		.loc 1 330 18 view .LVU134
 707 001a 0220     		movs	r0, #2
 708              	.LVL62:
 709              	.L48:
 335:Src/usbd_conf.c ****     case HAL_TIMEOUT :
 336:Src/usbd_conf.c ****       usb_status = USBD_FAIL;
ARM GAS  /var/folders/rf/wfq6hz5s56g3yh4wqgd7820c0000gn/T//ccshrSpG.s 			page 19


 337:Src/usbd_conf.c ****     break;
 338:Src/usbd_conf.c ****     default :
 339:Src/usbd_conf.c ****       usb_status = USBD_FAIL;
 340:Src/usbd_conf.c ****     break;
 341:Src/usbd_conf.c ****   }
 342:Src/usbd_conf.c ****   return usb_status; 
 710              		.loc 1 342 3 is_stmt 1 view .LVU135
 343:Src/usbd_conf.c **** }
 711              		.loc 1 343 1 is_stmt 0 view .LVU136
 712 001c 08BD     		pop	{r3, pc}
 713              		.cfi_endproc
 714              	.LFE80:
 716              		.section	.text.USBD_LL_Start,"ax",%progbits
 717              		.align	1
 718              		.global	USBD_LL_Start
 719              		.syntax unified
 720              		.thumb
 721              		.thumb_func
 722              		.fpu softvfp
 724              	USBD_LL_Start:
 725              	.LVL63:
 726              	.LFB81:
 344:Src/usbd_conf.c **** 
 345:Src/usbd_conf.c **** /**
 346:Src/usbd_conf.c ****   * @brief  Starts the low level portion of the device driver.
 347:Src/usbd_conf.c ****   * @param  pdev: Device handle
 348:Src/usbd_conf.c ****   * @retval USBD status
 349:Src/usbd_conf.c ****   */
 350:Src/usbd_conf.c **** USBD_StatusTypeDef USBD_LL_Start(USBD_HandleTypeDef *pdev)
 351:Src/usbd_conf.c **** {
 727              		.loc 1 351 1 is_stmt 1 view -0
 728              		.cfi_startproc
 729              		@ args = 0, pretend = 0, frame = 0
 730              		@ frame_needed = 0, uses_anonymous_args = 0
 731              		.loc 1 351 1 is_stmt 0 view .LVU138
 732 0000 08B5     		push	{r3, lr}
 733              	.LCFI17:
 734              		.cfi_def_cfa_offset 8
 735              		.cfi_offset 3, -8
 736              		.cfi_offset 14, -4
 352:Src/usbd_conf.c ****   HAL_StatusTypeDef hal_status = HAL_OK;
 737              		.loc 1 352 3 is_stmt 1 view .LVU139
 738              	.LVL64:
 353:Src/usbd_conf.c ****   USBD_StatusTypeDef usb_status = USBD_OK;
 739              		.loc 1 353 3 view .LVU140
 354:Src/usbd_conf.c ****  
 355:Src/usbd_conf.c ****   hal_status = HAL_PCD_Start(pdev->pData);
 740              		.loc 1 355 3 view .LVU141
 741              		.loc 1 355 16 is_stmt 0 view .LVU142
 742 0002 D0F82002 		ldr	r0, [r0, #544]
 743              	.LVL65:
 744              		.loc 1 355 16 view .LVU143
 745 0006 FFF7FEFF 		bl	HAL_PCD_Start
 746              	.LVL66:
 356:Src/usbd_conf.c ****      
 357:Src/usbd_conf.c ****   switch (hal_status) {
 747              		.loc 1 357 3 is_stmt 1 view .LVU144
ARM GAS  /var/folders/rf/wfq6hz5s56g3yh4wqgd7820c0000gn/T//ccshrSpG.s 			page 20


 748 000a 0228     		cmp	r0, #2
 749 000c 05D8     		bhi	.L59
 750 000e DFE800F0 		tbb	[pc, r0]
 751              	.L57:
 752 0012 05       		.byte	(.L55-.L57)/2
 753 0013 04       		.byte	(.L59-.L57)/2
 754 0014 02       		.byte	(.L56-.L57)/2
 755 0015 00       		.p2align 1
 756              	.L56:
 358:Src/usbd_conf.c ****     case HAL_OK :
 359:Src/usbd_conf.c ****       usb_status = USBD_OK;
 360:Src/usbd_conf.c ****     break;
 361:Src/usbd_conf.c ****     case HAL_ERROR :
 362:Src/usbd_conf.c ****       usb_status = USBD_FAIL;
 363:Src/usbd_conf.c ****     break;
 364:Src/usbd_conf.c ****     case HAL_BUSY :
 365:Src/usbd_conf.c ****       usb_status = USBD_BUSY;
 757              		.loc 1 365 7 view .LVU145
 758              	.LVL67:
 366:Src/usbd_conf.c ****     break;
 759              		.loc 1 366 5 view .LVU146
 365:Src/usbd_conf.c ****     break;
 760              		.loc 1 365 18 is_stmt 0 view .LVU147
 761 0016 0120     		movs	r0, #1
 762              	.LVL68:
 763              		.loc 1 366 5 view .LVU148
 764 0018 00E0     		b	.L55
 765              	.LVL69:
 766              	.L59:
 362:Src/usbd_conf.c ****     break;
 767              		.loc 1 362 18 view .LVU149
 768 001a 0220     		movs	r0, #2
 769              	.LVL70:
 770              	.L55:
 367:Src/usbd_conf.c ****     case HAL_TIMEOUT :
 368:Src/usbd_conf.c ****       usb_status = USBD_FAIL;
 369:Src/usbd_conf.c ****     break;
 370:Src/usbd_conf.c ****     default :
 371:Src/usbd_conf.c ****       usb_status = USBD_FAIL;
 372:Src/usbd_conf.c ****     break;
 373:Src/usbd_conf.c ****   }
 374:Src/usbd_conf.c ****   return usb_status;
 771              		.loc 1 374 3 is_stmt 1 view .LVU150
 375:Src/usbd_conf.c **** }
 772              		.loc 1 375 1 is_stmt 0 view .LVU151
 773 001c 08BD     		pop	{r3, pc}
 774              		.cfi_endproc
 775              	.LFE81:
 777              		.section	.text.USBD_LL_Stop,"ax",%progbits
 778              		.align	1
 779              		.global	USBD_LL_Stop
 780              		.syntax unified
 781              		.thumb
 782              		.thumb_func
 783              		.fpu softvfp
 785              	USBD_LL_Stop:
 786              	.LVL71:
ARM GAS  /var/folders/rf/wfq6hz5s56g3yh4wqgd7820c0000gn/T//ccshrSpG.s 			page 21


 787              	.LFB82:
 376:Src/usbd_conf.c **** 
 377:Src/usbd_conf.c **** /**
 378:Src/usbd_conf.c ****   * @brief  Stops the low level portion of the device driver.
 379:Src/usbd_conf.c ****   * @param  pdev: Device handle
 380:Src/usbd_conf.c ****   * @retval USBD status
 381:Src/usbd_conf.c ****   */
 382:Src/usbd_conf.c **** USBD_StatusTypeDef USBD_LL_Stop(USBD_HandleTypeDef *pdev)
 383:Src/usbd_conf.c **** {
 788              		.loc 1 383 1 is_stmt 1 view -0
 789              		.cfi_startproc
 790              		@ args = 0, pretend = 0, frame = 0
 791              		@ frame_needed = 0, uses_anonymous_args = 0
 792              		.loc 1 383 1 is_stmt 0 view .LVU153
 793 0000 08B5     		push	{r3, lr}
 794              	.LCFI18:
 795              		.cfi_def_cfa_offset 8
 796              		.cfi_offset 3, -8
 797              		.cfi_offset 14, -4
 384:Src/usbd_conf.c ****   HAL_StatusTypeDef hal_status = HAL_OK;
 798              		.loc 1 384 3 is_stmt 1 view .LVU154
 799              	.LVL72:
 385:Src/usbd_conf.c ****   USBD_StatusTypeDef usb_status = USBD_OK;
 800              		.loc 1 385 3 view .LVU155
 386:Src/usbd_conf.c **** 
 387:Src/usbd_conf.c ****   hal_status = HAL_PCD_Stop(pdev->pData);
 801              		.loc 1 387 3 view .LVU156
 802              		.loc 1 387 16 is_stmt 0 view .LVU157
 803 0002 D0F82002 		ldr	r0, [r0, #544]
 804              	.LVL73:
 805              		.loc 1 387 16 view .LVU158
 806 0006 FFF7FEFF 		bl	HAL_PCD_Stop
 807              	.LVL74:
 388:Src/usbd_conf.c **** 
 389:Src/usbd_conf.c ****   switch (hal_status) {
 808              		.loc 1 389 3 is_stmt 1 view .LVU159
 809 000a 0228     		cmp	r0, #2
 810 000c 05D8     		bhi	.L66
 811 000e DFE800F0 		tbb	[pc, r0]
 812              	.L64:
 813 0012 05       		.byte	(.L62-.L64)/2
 814 0013 04       		.byte	(.L66-.L64)/2
 815 0014 02       		.byte	(.L63-.L64)/2
 816 0015 00       		.p2align 1
 817              	.L63:
 390:Src/usbd_conf.c ****     case HAL_OK :
 391:Src/usbd_conf.c ****       usb_status = USBD_OK;
 392:Src/usbd_conf.c ****     break;
 393:Src/usbd_conf.c ****     case HAL_ERROR :
 394:Src/usbd_conf.c ****       usb_status = USBD_FAIL;
 395:Src/usbd_conf.c ****     break;
 396:Src/usbd_conf.c ****     case HAL_BUSY :
 397:Src/usbd_conf.c ****       usb_status = USBD_BUSY;
 818              		.loc 1 397 7 view .LVU160
 819              	.LVL75:
 398:Src/usbd_conf.c ****     break;
 820              		.loc 1 398 5 view .LVU161
ARM GAS  /var/folders/rf/wfq6hz5s56g3yh4wqgd7820c0000gn/T//ccshrSpG.s 			page 22


 397:Src/usbd_conf.c ****     break;
 821              		.loc 1 397 18 is_stmt 0 view .LVU162
 822 0016 0120     		movs	r0, #1
 823              	.LVL76:
 824              		.loc 1 398 5 view .LVU163
 825 0018 00E0     		b	.L62
 826              	.LVL77:
 827              	.L66:
 394:Src/usbd_conf.c ****     break;
 828              		.loc 1 394 18 view .LVU164
 829 001a 0220     		movs	r0, #2
 830              	.LVL78:
 831              	.L62:
 399:Src/usbd_conf.c ****     case HAL_TIMEOUT :
 400:Src/usbd_conf.c ****       usb_status = USBD_FAIL;
 401:Src/usbd_conf.c ****     break;
 402:Src/usbd_conf.c ****     default :
 403:Src/usbd_conf.c ****       usb_status = USBD_FAIL;
 404:Src/usbd_conf.c ****     break;
 405:Src/usbd_conf.c ****   }
 406:Src/usbd_conf.c ****   return usb_status;
 832              		.loc 1 406 3 is_stmt 1 view .LVU165
 407:Src/usbd_conf.c **** }
 833              		.loc 1 407 1 is_stmt 0 view .LVU166
 834 001c 08BD     		pop	{r3, pc}
 835              		.cfi_endproc
 836              	.LFE82:
 838              		.section	.text.USBD_LL_OpenEP,"ax",%progbits
 839              		.align	1
 840              		.global	USBD_LL_OpenEP
 841              		.syntax unified
 842              		.thumb
 843              		.thumb_func
 844              		.fpu softvfp
 846              	USBD_LL_OpenEP:
 847              	.LVL79:
 848              	.LFB83:
 408:Src/usbd_conf.c **** 
 409:Src/usbd_conf.c **** /**
 410:Src/usbd_conf.c ****   * @brief  Opens an endpoint of the low level driver.
 411:Src/usbd_conf.c ****   * @param  pdev: Device handle
 412:Src/usbd_conf.c ****   * @param  ep_addr: Endpoint number
 413:Src/usbd_conf.c ****   * @param  ep_type: Endpoint type
 414:Src/usbd_conf.c ****   * @param  ep_mps: Endpoint max packet size
 415:Src/usbd_conf.c ****   * @retval USBD status
 416:Src/usbd_conf.c ****   */
 417:Src/usbd_conf.c **** USBD_StatusTypeDef USBD_LL_OpenEP(USBD_HandleTypeDef *pdev, uint8_t ep_addr, uint8_t ep_type, uint1
 418:Src/usbd_conf.c **** {
 849              		.loc 1 418 1 is_stmt 1 view -0
 850              		.cfi_startproc
 851              		@ args = 0, pretend = 0, frame = 0
 852              		@ frame_needed = 0, uses_anonymous_args = 0
 853              		.loc 1 418 1 is_stmt 0 view .LVU168
 854 0000 10B5     		push	{r4, lr}
 855              	.LCFI19:
 856              		.cfi_def_cfa_offset 8
 857              		.cfi_offset 4, -8
ARM GAS  /var/folders/rf/wfq6hz5s56g3yh4wqgd7820c0000gn/T//ccshrSpG.s 			page 23


 858              		.cfi_offset 14, -4
 859 0002 1446     		mov	r4, r2
 860 0004 1A46     		mov	r2, r3
 861              	.LVL80:
 419:Src/usbd_conf.c ****   HAL_StatusTypeDef hal_status = HAL_OK;
 862              		.loc 1 419 3 is_stmt 1 view .LVU169
 420:Src/usbd_conf.c ****   USBD_StatusTypeDef usb_status = USBD_OK;
 863              		.loc 1 420 3 view .LVU170
 421:Src/usbd_conf.c **** 
 422:Src/usbd_conf.c ****   hal_status = HAL_PCD_EP_Open(pdev->pData, ep_addr, ep_mps, ep_type);
 864              		.loc 1 422 3 view .LVU171
 865              		.loc 1 422 16 is_stmt 0 view .LVU172
 866 0006 2346     		mov	r3, r4
 867              	.LVL81:
 868              		.loc 1 422 16 view .LVU173
 869 0008 D0F82002 		ldr	r0, [r0, #544]
 870              	.LVL82:
 871              		.loc 1 422 16 view .LVU174
 872 000c FFF7FEFF 		bl	HAL_PCD_EP_Open
 873              	.LVL83:
 423:Src/usbd_conf.c **** 
 424:Src/usbd_conf.c ****   switch (hal_status) {
 874              		.loc 1 424 3 is_stmt 1 view .LVU175
 875 0010 0228     		cmp	r0, #2
 876 0012 05D8     		bhi	.L73
 877 0014 DFE800F0 		tbb	[pc, r0]
 878              	.L71:
 879 0018 05       		.byte	(.L69-.L71)/2
 880 0019 04       		.byte	(.L73-.L71)/2
 881 001a 02       		.byte	(.L70-.L71)/2
 882 001b 00       		.p2align 1
 883              	.L70:
 425:Src/usbd_conf.c ****     case HAL_OK :
 426:Src/usbd_conf.c ****       usb_status = USBD_OK;
 427:Src/usbd_conf.c ****     break;
 428:Src/usbd_conf.c ****     case HAL_ERROR :
 429:Src/usbd_conf.c ****       usb_status = USBD_FAIL;
 430:Src/usbd_conf.c ****     break;
 431:Src/usbd_conf.c ****     case HAL_BUSY :
 432:Src/usbd_conf.c ****       usb_status = USBD_BUSY;
 884              		.loc 1 432 7 view .LVU176
 885              	.LVL84:
 433:Src/usbd_conf.c ****     break;
 886              		.loc 1 433 5 view .LVU177
 432:Src/usbd_conf.c ****     break;
 887              		.loc 1 432 18 is_stmt 0 view .LVU178
 888 001c 0120     		movs	r0, #1
 889              	.LVL85:
 890              		.loc 1 433 5 view .LVU179
 891 001e 00E0     		b	.L69
 892              	.LVL86:
 893              	.L73:
 429:Src/usbd_conf.c ****     break;
 894              		.loc 1 429 18 view .LVU180
 895 0020 0220     		movs	r0, #2
 896              	.LVL87:
 897              	.L69:
ARM GAS  /var/folders/rf/wfq6hz5s56g3yh4wqgd7820c0000gn/T//ccshrSpG.s 			page 24


 434:Src/usbd_conf.c ****     case HAL_TIMEOUT :
 435:Src/usbd_conf.c ****       usb_status = USBD_FAIL;
 436:Src/usbd_conf.c ****     break;
 437:Src/usbd_conf.c ****     default :
 438:Src/usbd_conf.c ****       usb_status = USBD_FAIL;
 439:Src/usbd_conf.c ****     break;
 440:Src/usbd_conf.c ****   }
 441:Src/usbd_conf.c ****   return usb_status;
 898              		.loc 1 441 3 is_stmt 1 view .LVU181
 442:Src/usbd_conf.c **** }
 899              		.loc 1 442 1 is_stmt 0 view .LVU182
 900 0022 10BD     		pop	{r4, pc}
 901              		.cfi_endproc
 902              	.LFE83:
 904              		.section	.text.USBD_LL_CloseEP,"ax",%progbits
 905              		.align	1
 906              		.global	USBD_LL_CloseEP
 907              		.syntax unified
 908              		.thumb
 909              		.thumb_func
 910              		.fpu softvfp
 912              	USBD_LL_CloseEP:
 913              	.LVL88:
 914              	.LFB84:
 443:Src/usbd_conf.c **** 
 444:Src/usbd_conf.c **** /**
 445:Src/usbd_conf.c ****   * @brief  Closes an endpoint of the low level driver.
 446:Src/usbd_conf.c ****   * @param  pdev: Device handle
 447:Src/usbd_conf.c ****   * @param  ep_addr: Endpoint number
 448:Src/usbd_conf.c ****   * @retval USBD status
 449:Src/usbd_conf.c ****   */
 450:Src/usbd_conf.c **** USBD_StatusTypeDef USBD_LL_CloseEP(USBD_HandleTypeDef *pdev, uint8_t ep_addr)
 451:Src/usbd_conf.c **** {
 915              		.loc 1 451 1 is_stmt 1 view -0
 916              		.cfi_startproc
 917              		@ args = 0, pretend = 0, frame = 0
 918              		@ frame_needed = 0, uses_anonymous_args = 0
 919              		.loc 1 451 1 is_stmt 0 view .LVU184
 920 0000 08B5     		push	{r3, lr}
 921              	.LCFI20:
 922              		.cfi_def_cfa_offset 8
 923              		.cfi_offset 3, -8
 924              		.cfi_offset 14, -4
 452:Src/usbd_conf.c ****   HAL_StatusTypeDef hal_status = HAL_OK;
 925              		.loc 1 452 3 is_stmt 1 view .LVU185
 926              	.LVL89:
 453:Src/usbd_conf.c ****   USBD_StatusTypeDef usb_status = USBD_OK;
 927              		.loc 1 453 3 view .LVU186
 454:Src/usbd_conf.c ****   
 455:Src/usbd_conf.c ****   hal_status = HAL_PCD_EP_Close(pdev->pData, ep_addr);
 928              		.loc 1 455 3 view .LVU187
 929              		.loc 1 455 16 is_stmt 0 view .LVU188
 930 0002 D0F82002 		ldr	r0, [r0, #544]
 931              	.LVL90:
 932              		.loc 1 455 16 view .LVU189
 933 0006 FFF7FEFF 		bl	HAL_PCD_EP_Close
 934              	.LVL91:
ARM GAS  /var/folders/rf/wfq6hz5s56g3yh4wqgd7820c0000gn/T//ccshrSpG.s 			page 25


 456:Src/usbd_conf.c ****       
 457:Src/usbd_conf.c ****   switch (hal_status) {
 935              		.loc 1 457 3 is_stmt 1 view .LVU190
 936 000a 0228     		cmp	r0, #2
 937 000c 05D8     		bhi	.L80
 938 000e DFE800F0 		tbb	[pc, r0]
 939              	.L78:
 940 0012 05       		.byte	(.L76-.L78)/2
 941 0013 04       		.byte	(.L80-.L78)/2
 942 0014 02       		.byte	(.L77-.L78)/2
 943 0015 00       		.p2align 1
 944              	.L77:
 458:Src/usbd_conf.c ****     case HAL_OK :
 459:Src/usbd_conf.c ****       usb_status = USBD_OK;
 460:Src/usbd_conf.c ****     break;
 461:Src/usbd_conf.c ****     case HAL_ERROR :
 462:Src/usbd_conf.c ****       usb_status = USBD_FAIL;
 463:Src/usbd_conf.c ****     break;
 464:Src/usbd_conf.c ****     case HAL_BUSY :
 465:Src/usbd_conf.c ****       usb_status = USBD_BUSY;
 945              		.loc 1 465 7 view .LVU191
 946              	.LVL92:
 466:Src/usbd_conf.c ****     break;
 947              		.loc 1 466 5 view .LVU192
 465:Src/usbd_conf.c ****     break;
 948              		.loc 1 465 18 is_stmt 0 view .LVU193
 949 0016 0120     		movs	r0, #1
 950              	.LVL93:
 951              		.loc 1 466 5 view .LVU194
 952 0018 00E0     		b	.L76
 953              	.LVL94:
 954              	.L80:
 462:Src/usbd_conf.c ****     break;
 955              		.loc 1 462 18 view .LVU195
 956 001a 0220     		movs	r0, #2
 957              	.LVL95:
 958              	.L76:
 467:Src/usbd_conf.c ****     case HAL_TIMEOUT :
 468:Src/usbd_conf.c ****       usb_status = USBD_FAIL;
 469:Src/usbd_conf.c ****     break;
 470:Src/usbd_conf.c ****     default :
 471:Src/usbd_conf.c ****       usb_status = USBD_FAIL;
 472:Src/usbd_conf.c ****     break;
 473:Src/usbd_conf.c ****   }
 474:Src/usbd_conf.c ****   return usb_status;  
 959              		.loc 1 474 3 is_stmt 1 view .LVU196
 475:Src/usbd_conf.c **** }
 960              		.loc 1 475 1 is_stmt 0 view .LVU197
 961 001c 08BD     		pop	{r3, pc}
 962              		.cfi_endproc
 963              	.LFE84:
 965              		.section	.text.USBD_LL_FlushEP,"ax",%progbits
 966              		.align	1
 967              		.global	USBD_LL_FlushEP
 968              		.syntax unified
 969              		.thumb
 970              		.thumb_func
ARM GAS  /var/folders/rf/wfq6hz5s56g3yh4wqgd7820c0000gn/T//ccshrSpG.s 			page 26


 971              		.fpu softvfp
 973              	USBD_LL_FlushEP:
 974              	.LVL96:
 975              	.LFB85:
 476:Src/usbd_conf.c **** 
 477:Src/usbd_conf.c **** /**
 478:Src/usbd_conf.c ****   * @brief  Flushes an endpoint of the Low Level Driver.
 479:Src/usbd_conf.c ****   * @param  pdev: Device handle
 480:Src/usbd_conf.c ****   * @param  ep_addr: Endpoint number
 481:Src/usbd_conf.c ****   * @retval USBD status
 482:Src/usbd_conf.c ****   */
 483:Src/usbd_conf.c **** USBD_StatusTypeDef USBD_LL_FlushEP(USBD_HandleTypeDef *pdev, uint8_t ep_addr)
 484:Src/usbd_conf.c **** {
 976              		.loc 1 484 1 is_stmt 1 view -0
 977              		.cfi_startproc
 978              		@ args = 0, pretend = 0, frame = 0
 979              		@ frame_needed = 0, uses_anonymous_args = 0
 980              		.loc 1 484 1 is_stmt 0 view .LVU199
 981 0000 08B5     		push	{r3, lr}
 982              	.LCFI21:
 983              		.cfi_def_cfa_offset 8
 984              		.cfi_offset 3, -8
 985              		.cfi_offset 14, -4
 485:Src/usbd_conf.c ****   HAL_StatusTypeDef hal_status = HAL_OK;
 986              		.loc 1 485 3 is_stmt 1 view .LVU200
 987              	.LVL97:
 486:Src/usbd_conf.c ****   USBD_StatusTypeDef usb_status = USBD_OK;
 988              		.loc 1 486 3 view .LVU201
 487:Src/usbd_conf.c ****   
 488:Src/usbd_conf.c ****   hal_status = HAL_PCD_EP_Flush(pdev->pData, ep_addr);
 989              		.loc 1 488 3 view .LVU202
 990              		.loc 1 488 16 is_stmt 0 view .LVU203
 991 0002 D0F82002 		ldr	r0, [r0, #544]
 992              	.LVL98:
 993              		.loc 1 488 16 view .LVU204
 994 0006 FFF7FEFF 		bl	HAL_PCD_EP_Flush
 995              	.LVL99:
 489:Src/usbd_conf.c ****       
 490:Src/usbd_conf.c ****   switch (hal_status) {
 996              		.loc 1 490 3 is_stmt 1 view .LVU205
 997 000a 0228     		cmp	r0, #2
 998 000c 05D8     		bhi	.L87
 999 000e DFE800F0 		tbb	[pc, r0]
 1000              	.L85:
 1001 0012 05       		.byte	(.L83-.L85)/2
 1002 0013 04       		.byte	(.L87-.L85)/2
 1003 0014 02       		.byte	(.L84-.L85)/2
 1004 0015 00       		.p2align 1
 1005              	.L84:
 491:Src/usbd_conf.c ****     case HAL_OK :
 492:Src/usbd_conf.c ****       usb_status = USBD_OK;
 493:Src/usbd_conf.c ****     break;
 494:Src/usbd_conf.c ****     case HAL_ERROR :
 495:Src/usbd_conf.c ****       usb_status = USBD_FAIL;
 496:Src/usbd_conf.c ****     break;
 497:Src/usbd_conf.c ****     case HAL_BUSY :
 498:Src/usbd_conf.c ****       usb_status = USBD_BUSY;
ARM GAS  /var/folders/rf/wfq6hz5s56g3yh4wqgd7820c0000gn/T//ccshrSpG.s 			page 27


 1006              		.loc 1 498 7 view .LVU206
 1007              	.LVL100:
 499:Src/usbd_conf.c ****     break;
 1008              		.loc 1 499 5 view .LVU207
 498:Src/usbd_conf.c ****     break;
 1009              		.loc 1 498 18 is_stmt 0 view .LVU208
 1010 0016 0120     		movs	r0, #1
 1011              	.LVL101:
 1012              		.loc 1 499 5 view .LVU209
 1013 0018 00E0     		b	.L83
 1014              	.LVL102:
 1015              	.L87:
 495:Src/usbd_conf.c ****     break;
 1016              		.loc 1 495 18 view .LVU210
 1017 001a 0220     		movs	r0, #2
 1018              	.LVL103:
 1019              	.L83:
 500:Src/usbd_conf.c ****     case HAL_TIMEOUT :
 501:Src/usbd_conf.c ****       usb_status = USBD_FAIL;
 502:Src/usbd_conf.c ****     break;
 503:Src/usbd_conf.c ****     default :
 504:Src/usbd_conf.c ****       usb_status = USBD_FAIL;
 505:Src/usbd_conf.c ****     break;
 506:Src/usbd_conf.c ****   }
 507:Src/usbd_conf.c ****   return usb_status;  
 1020              		.loc 1 507 3 is_stmt 1 view .LVU211
 508:Src/usbd_conf.c **** }
 1021              		.loc 1 508 1 is_stmt 0 view .LVU212
 1022 001c 08BD     		pop	{r3, pc}
 1023              		.cfi_endproc
 1024              	.LFE85:
 1026              		.section	.text.USBD_LL_StallEP,"ax",%progbits
 1027              		.align	1
 1028              		.global	USBD_LL_StallEP
 1029              		.syntax unified
 1030              		.thumb
 1031              		.thumb_func
 1032              		.fpu softvfp
 1034              	USBD_LL_StallEP:
 1035              	.LVL104:
 1036              	.LFB86:
 509:Src/usbd_conf.c **** 
 510:Src/usbd_conf.c **** /**
 511:Src/usbd_conf.c ****   * @brief  Sets a Stall condition on an endpoint of the Low Level Driver.
 512:Src/usbd_conf.c ****   * @param  pdev: Device handle
 513:Src/usbd_conf.c ****   * @param  ep_addr: Endpoint number
 514:Src/usbd_conf.c ****   * @retval USBD status
 515:Src/usbd_conf.c ****   */
 516:Src/usbd_conf.c **** USBD_StatusTypeDef USBD_LL_StallEP(USBD_HandleTypeDef *pdev, uint8_t ep_addr)
 517:Src/usbd_conf.c **** {
 1037              		.loc 1 517 1 is_stmt 1 view -0
 1038              		.cfi_startproc
 1039              		@ args = 0, pretend = 0, frame = 0
 1040              		@ frame_needed = 0, uses_anonymous_args = 0
 1041              		.loc 1 517 1 is_stmt 0 view .LVU214
 1042 0000 08B5     		push	{r3, lr}
 1043              	.LCFI22:
ARM GAS  /var/folders/rf/wfq6hz5s56g3yh4wqgd7820c0000gn/T//ccshrSpG.s 			page 28


 1044              		.cfi_def_cfa_offset 8
 1045              		.cfi_offset 3, -8
 1046              		.cfi_offset 14, -4
 518:Src/usbd_conf.c ****   HAL_StatusTypeDef hal_status = HAL_OK;
 1047              		.loc 1 518 3 is_stmt 1 view .LVU215
 1048              	.LVL105:
 519:Src/usbd_conf.c ****   USBD_StatusTypeDef usb_status = USBD_OK;
 1049              		.loc 1 519 3 view .LVU216
 520:Src/usbd_conf.c ****   
 521:Src/usbd_conf.c ****   hal_status = HAL_PCD_EP_SetStall(pdev->pData, ep_addr);
 1050              		.loc 1 521 3 view .LVU217
 1051              		.loc 1 521 16 is_stmt 0 view .LVU218
 1052 0002 D0F82002 		ldr	r0, [r0, #544]
 1053              	.LVL106:
 1054              		.loc 1 521 16 view .LVU219
 1055 0006 FFF7FEFF 		bl	HAL_PCD_EP_SetStall
 1056              	.LVL107:
 522:Src/usbd_conf.c **** 
 523:Src/usbd_conf.c ****   switch (hal_status) {
 1057              		.loc 1 523 3 is_stmt 1 view .LVU220
 1058 000a 0228     		cmp	r0, #2
 1059 000c 05D8     		bhi	.L94
 1060 000e DFE800F0 		tbb	[pc, r0]
 1061              	.L92:
 1062 0012 05       		.byte	(.L90-.L92)/2
 1063 0013 04       		.byte	(.L94-.L92)/2
 1064 0014 02       		.byte	(.L91-.L92)/2
 1065 0015 00       		.p2align 1
 1066              	.L91:
 524:Src/usbd_conf.c ****     case HAL_OK :
 525:Src/usbd_conf.c ****       usb_status = USBD_OK;
 526:Src/usbd_conf.c ****     break;
 527:Src/usbd_conf.c ****     case HAL_ERROR :
 528:Src/usbd_conf.c ****       usb_status = USBD_FAIL;
 529:Src/usbd_conf.c ****     break;
 530:Src/usbd_conf.c ****     case HAL_BUSY :
 531:Src/usbd_conf.c ****       usb_status = USBD_BUSY;
 1067              		.loc 1 531 7 view .LVU221
 1068              	.LVL108:
 532:Src/usbd_conf.c ****     break;
 1069              		.loc 1 532 5 view .LVU222
 531:Src/usbd_conf.c ****     break;
 1070              		.loc 1 531 18 is_stmt 0 view .LVU223
 1071 0016 0120     		movs	r0, #1
 1072              	.LVL109:
 1073              		.loc 1 532 5 view .LVU224
 1074 0018 00E0     		b	.L90
 1075              	.LVL110:
 1076              	.L94:
 528:Src/usbd_conf.c ****     break;
 1077              		.loc 1 528 18 view .LVU225
 1078 001a 0220     		movs	r0, #2
 1079              	.LVL111:
 1080              	.L90:
 533:Src/usbd_conf.c ****     case HAL_TIMEOUT :
 534:Src/usbd_conf.c ****       usb_status = USBD_FAIL;
 535:Src/usbd_conf.c ****     break;
ARM GAS  /var/folders/rf/wfq6hz5s56g3yh4wqgd7820c0000gn/T//ccshrSpG.s 			page 29


 536:Src/usbd_conf.c ****     default :
 537:Src/usbd_conf.c ****       usb_status = USBD_FAIL;
 538:Src/usbd_conf.c ****     break;
 539:Src/usbd_conf.c ****   }
 540:Src/usbd_conf.c ****   return usb_status;  
 1081              		.loc 1 540 3 is_stmt 1 view .LVU226
 541:Src/usbd_conf.c **** }
 1082              		.loc 1 541 1 is_stmt 0 view .LVU227
 1083 001c 08BD     		pop	{r3, pc}
 1084              		.cfi_endproc
 1085              	.LFE86:
 1087              		.section	.text.USBD_LL_ClearStallEP,"ax",%progbits
 1088              		.align	1
 1089              		.global	USBD_LL_ClearStallEP
 1090              		.syntax unified
 1091              		.thumb
 1092              		.thumb_func
 1093              		.fpu softvfp
 1095              	USBD_LL_ClearStallEP:
 1096              	.LVL112:
 1097              	.LFB87:
 542:Src/usbd_conf.c **** 
 543:Src/usbd_conf.c **** /**
 544:Src/usbd_conf.c ****   * @brief  Clears a Stall condition on an endpoint of the Low Level Driver.
 545:Src/usbd_conf.c ****   * @param  pdev: Device handle
 546:Src/usbd_conf.c ****   * @param  ep_addr: Endpoint number
 547:Src/usbd_conf.c ****   * @retval USBD status
 548:Src/usbd_conf.c ****   */
 549:Src/usbd_conf.c **** USBD_StatusTypeDef USBD_LL_ClearStallEP(USBD_HandleTypeDef *pdev, uint8_t ep_addr)
 550:Src/usbd_conf.c **** {
 1098              		.loc 1 550 1 is_stmt 1 view -0
 1099              		.cfi_startproc
 1100              		@ args = 0, pretend = 0, frame = 0
 1101              		@ frame_needed = 0, uses_anonymous_args = 0
 1102              		.loc 1 550 1 is_stmt 0 view .LVU229
 1103 0000 08B5     		push	{r3, lr}
 1104              	.LCFI23:
 1105              		.cfi_def_cfa_offset 8
 1106              		.cfi_offset 3, -8
 1107              		.cfi_offset 14, -4
 551:Src/usbd_conf.c ****   HAL_StatusTypeDef hal_status = HAL_OK;
 1108              		.loc 1 551 3 is_stmt 1 view .LVU230
 1109              	.LVL113:
 552:Src/usbd_conf.c ****   USBD_StatusTypeDef usb_status = USBD_OK;
 1110              		.loc 1 552 3 view .LVU231
 553:Src/usbd_conf.c ****   
 554:Src/usbd_conf.c ****   hal_status = HAL_PCD_EP_ClrStall(pdev->pData, ep_addr);  
 1111              		.loc 1 554 3 view .LVU232
 1112              		.loc 1 554 16 is_stmt 0 view .LVU233
 1113 0002 D0F82002 		ldr	r0, [r0, #544]
 1114              	.LVL114:
 1115              		.loc 1 554 16 view .LVU234
 1116 0006 FFF7FEFF 		bl	HAL_PCD_EP_ClrStall
 1117              	.LVL115:
 555:Src/usbd_conf.c ****      
 556:Src/usbd_conf.c ****   switch (hal_status) {
 1118              		.loc 1 556 3 is_stmt 1 view .LVU235
ARM GAS  /var/folders/rf/wfq6hz5s56g3yh4wqgd7820c0000gn/T//ccshrSpG.s 			page 30


 1119 000a 0228     		cmp	r0, #2
 1120 000c 05D8     		bhi	.L101
 1121 000e DFE800F0 		tbb	[pc, r0]
 1122              	.L99:
 1123 0012 05       		.byte	(.L97-.L99)/2
 1124 0013 04       		.byte	(.L101-.L99)/2
 1125 0014 02       		.byte	(.L98-.L99)/2
 1126 0015 00       		.p2align 1
 1127              	.L98:
 557:Src/usbd_conf.c ****     case HAL_OK :
 558:Src/usbd_conf.c ****       usb_status = USBD_OK;
 559:Src/usbd_conf.c ****     break;
 560:Src/usbd_conf.c ****     case HAL_ERROR :
 561:Src/usbd_conf.c ****       usb_status = USBD_FAIL;
 562:Src/usbd_conf.c ****     break;
 563:Src/usbd_conf.c ****     case HAL_BUSY :
 564:Src/usbd_conf.c ****       usb_status = USBD_BUSY;
 1128              		.loc 1 564 7 view .LVU236
 1129              	.LVL116:
 565:Src/usbd_conf.c ****     break;
 1130              		.loc 1 565 5 view .LVU237
 564:Src/usbd_conf.c ****     break;
 1131              		.loc 1 564 18 is_stmt 0 view .LVU238
 1132 0016 0120     		movs	r0, #1
 1133              	.LVL117:
 1134              		.loc 1 565 5 view .LVU239
 1135 0018 00E0     		b	.L97
 1136              	.LVL118:
 1137              	.L101:
 561:Src/usbd_conf.c ****     break;
 1138              		.loc 1 561 18 view .LVU240
 1139 001a 0220     		movs	r0, #2
 1140              	.LVL119:
 1141              	.L97:
 566:Src/usbd_conf.c ****     case HAL_TIMEOUT :
 567:Src/usbd_conf.c ****       usb_status = USBD_FAIL;
 568:Src/usbd_conf.c ****     break;
 569:Src/usbd_conf.c ****     default :
 570:Src/usbd_conf.c ****       usb_status = USBD_FAIL;
 571:Src/usbd_conf.c ****     break;
 572:Src/usbd_conf.c ****   }
 573:Src/usbd_conf.c ****   return usb_status; 
 1142              		.loc 1 573 3 is_stmt 1 view .LVU241
 574:Src/usbd_conf.c **** }
 1143              		.loc 1 574 1 is_stmt 0 view .LVU242
 1144 001c 08BD     		pop	{r3, pc}
 1145              		.cfi_endproc
 1146              	.LFE87:
 1148              		.section	.text.USBD_LL_IsStallEP,"ax",%progbits
 1149              		.align	1
 1150              		.global	USBD_LL_IsStallEP
 1151              		.syntax unified
 1152              		.thumb
 1153              		.thumb_func
 1154              		.fpu softvfp
 1156              	USBD_LL_IsStallEP:
 1157              	.LVL120:
ARM GAS  /var/folders/rf/wfq6hz5s56g3yh4wqgd7820c0000gn/T//ccshrSpG.s 			page 31


 1158              	.LFB88:
 575:Src/usbd_conf.c **** 
 576:Src/usbd_conf.c **** /**
 577:Src/usbd_conf.c ****   * @brief  Returns Stall condition.
 578:Src/usbd_conf.c ****   * @param  pdev: Device handle
 579:Src/usbd_conf.c ****   * @param  ep_addr: Endpoint number
 580:Src/usbd_conf.c ****   * @retval Stall (1: Yes, 0: No)
 581:Src/usbd_conf.c ****   */
 582:Src/usbd_conf.c **** uint8_t USBD_LL_IsStallEP(USBD_HandleTypeDef *pdev, uint8_t ep_addr)
 583:Src/usbd_conf.c **** {
 1159              		.loc 1 583 1 is_stmt 1 view -0
 1160              		.cfi_startproc
 1161              		@ args = 0, pretend = 0, frame = 0
 1162              		@ frame_needed = 0, uses_anonymous_args = 0
 1163              		@ link register save eliminated.
 584:Src/usbd_conf.c ****   PCD_HandleTypeDef *hpcd = (PCD_HandleTypeDef*) pdev->pData;
 1164              		.loc 1 584 3 view .LVU244
 1165              		.loc 1 584 22 is_stmt 0 view .LVU245
 1166 0000 D0F82032 		ldr	r3, [r0, #544]
 1167              	.LVL121:
 585:Src/usbd_conf.c ****   
 586:Src/usbd_conf.c ****   if((ep_addr & 0x80) == 0x80)
 1168              		.loc 1 586 3 is_stmt 1 view .LVU246
 1169              		.loc 1 586 5 is_stmt 0 view .LVU247
 1170 0004 11F0800F 		tst	r1, #128
 1171 0008 06D1     		bne	.L106
 587:Src/usbd_conf.c ****   {
 588:Src/usbd_conf.c ****     return hpcd->IN_ep[ep_addr & 0x7F].is_stall; 
 589:Src/usbd_conf.c ****   }
 590:Src/usbd_conf.c ****   else
 591:Src/usbd_conf.c ****   {
 592:Src/usbd_conf.c ****     return hpcd->OUT_ep[ep_addr & 0x7F].is_stall; 
 1172              		.loc 1 592 5 is_stmt 1 view .LVU248
 1173              		.loc 1 592 33 is_stmt 0 view .LVU249
 1174 000a 01F07F01 		and	r1, r1, #127
 1175              	.LVL122:
 1176              		.loc 1 592 40 view .LVU250
 1177 000e 03EB4111 		add	r1, r3, r1, lsl #5
 1178 0012 91F82A02 		ldrb	r0, [r1, #554]	@ zero_extendqisi2
 1179              	.LVL123:
 593:Src/usbd_conf.c ****   }
 594:Src/usbd_conf.c **** }
 1180              		.loc 1 594 1 view .LVU251
 1181 0016 7047     		bx	lr
 1182              	.LVL124:
 1183              	.L106:
 588:Src/usbd_conf.c ****   }
 1184              		.loc 1 588 5 is_stmt 1 view .LVU252
 588:Src/usbd_conf.c ****   }
 1185              		.loc 1 588 32 is_stmt 0 view .LVU253
 1186 0018 01F07F01 		and	r1, r1, #127
 1187              	.LVL125:
 588:Src/usbd_conf.c ****   }
 1188              		.loc 1 588 39 view .LVU254
 1189 001c 03EB4111 		add	r1, r3, r1, lsl #5
 1190 0020 91F82A00 		ldrb	r0, [r1, #42]	@ zero_extendqisi2
 1191              	.LVL126:
ARM GAS  /var/folders/rf/wfq6hz5s56g3yh4wqgd7820c0000gn/T//ccshrSpG.s 			page 32


 588:Src/usbd_conf.c ****   }
 1192              		.loc 1 588 39 view .LVU255
 1193 0024 7047     		bx	lr
 1194              		.cfi_endproc
 1195              	.LFE88:
 1197              		.section	.text.USBD_LL_SetUSBAddress,"ax",%progbits
 1198              		.align	1
 1199              		.global	USBD_LL_SetUSBAddress
 1200              		.syntax unified
 1201              		.thumb
 1202              		.thumb_func
 1203              		.fpu softvfp
 1205              	USBD_LL_SetUSBAddress:
 1206              	.LVL127:
 1207              	.LFB89:
 595:Src/usbd_conf.c **** 
 596:Src/usbd_conf.c **** /**
 597:Src/usbd_conf.c ****   * @brief  Assigns a USB address to the device.
 598:Src/usbd_conf.c ****   * @param  pdev: Device handle
 599:Src/usbd_conf.c ****   * @param  dev_addr: Device address
 600:Src/usbd_conf.c ****   * @retval USBD status
 601:Src/usbd_conf.c ****   */
 602:Src/usbd_conf.c **** USBD_StatusTypeDef USBD_LL_SetUSBAddress(USBD_HandleTypeDef *pdev, uint8_t dev_addr)
 603:Src/usbd_conf.c **** {
 1208              		.loc 1 603 1 is_stmt 1 view -0
 1209              		.cfi_startproc
 1210              		@ args = 0, pretend = 0, frame = 0
 1211              		@ frame_needed = 0, uses_anonymous_args = 0
 1212              		.loc 1 603 1 is_stmt 0 view .LVU257
 1213 0000 08B5     		push	{r3, lr}
 1214              	.LCFI24:
 1215              		.cfi_def_cfa_offset 8
 1216              		.cfi_offset 3, -8
 1217              		.cfi_offset 14, -4
 604:Src/usbd_conf.c ****   HAL_StatusTypeDef hal_status = HAL_OK;
 1218              		.loc 1 604 3 is_stmt 1 view .LVU258
 1219              	.LVL128:
 605:Src/usbd_conf.c ****   USBD_StatusTypeDef usb_status = USBD_OK;
 1220              		.loc 1 605 3 view .LVU259
 606:Src/usbd_conf.c ****   
 607:Src/usbd_conf.c ****   hal_status = HAL_PCD_SetAddress(pdev->pData, dev_addr);
 1221              		.loc 1 607 3 view .LVU260
 1222              		.loc 1 607 16 is_stmt 0 view .LVU261
 1223 0002 D0F82002 		ldr	r0, [r0, #544]
 1224              	.LVL129:
 1225              		.loc 1 607 16 view .LVU262
 1226 0006 FFF7FEFF 		bl	HAL_PCD_SetAddress
 1227              	.LVL130:
 608:Src/usbd_conf.c ****      
 609:Src/usbd_conf.c ****   switch (hal_status) {
 1228              		.loc 1 609 3 is_stmt 1 view .LVU263
 1229 000a 0228     		cmp	r0, #2
 1230 000c 05D8     		bhi	.L112
 1231 000e DFE800F0 		tbb	[pc, r0]
 1232              	.L110:
 1233 0012 05       		.byte	(.L108-.L110)/2
 1234 0013 04       		.byte	(.L112-.L110)/2
ARM GAS  /var/folders/rf/wfq6hz5s56g3yh4wqgd7820c0000gn/T//ccshrSpG.s 			page 33


 1235 0014 02       		.byte	(.L109-.L110)/2
 1236 0015 00       		.p2align 1
 1237              	.L109:
 610:Src/usbd_conf.c ****     case HAL_OK :
 611:Src/usbd_conf.c ****       usb_status = USBD_OK;
 612:Src/usbd_conf.c ****     break;
 613:Src/usbd_conf.c ****     case HAL_ERROR :
 614:Src/usbd_conf.c ****       usb_status = USBD_FAIL;
 615:Src/usbd_conf.c ****     break;
 616:Src/usbd_conf.c ****     case HAL_BUSY :
 617:Src/usbd_conf.c ****       usb_status = USBD_BUSY;
 1238              		.loc 1 617 7 view .LVU264
 1239              	.LVL131:
 618:Src/usbd_conf.c ****     break;
 1240              		.loc 1 618 5 view .LVU265
 617:Src/usbd_conf.c ****     break;
 1241              		.loc 1 617 18 is_stmt 0 view .LVU266
 1242 0016 0120     		movs	r0, #1
 1243              	.LVL132:
 1244              		.loc 1 618 5 view .LVU267
 1245 0018 00E0     		b	.L108
 1246              	.LVL133:
 1247              	.L112:
 614:Src/usbd_conf.c ****     break;
 1248              		.loc 1 614 18 view .LVU268
 1249 001a 0220     		movs	r0, #2
 1250              	.LVL134:
 1251              	.L108:
 619:Src/usbd_conf.c ****     case HAL_TIMEOUT :
 620:Src/usbd_conf.c ****       usb_status = USBD_FAIL;
 621:Src/usbd_conf.c ****     break;
 622:Src/usbd_conf.c ****     default :
 623:Src/usbd_conf.c ****       usb_status = USBD_FAIL;
 624:Src/usbd_conf.c ****     break;
 625:Src/usbd_conf.c ****   }
 626:Src/usbd_conf.c ****   return usb_status;  
 1252              		.loc 1 626 3 is_stmt 1 view .LVU269
 627:Src/usbd_conf.c **** }
 1253              		.loc 1 627 1 is_stmt 0 view .LVU270
 1254 001c 08BD     		pop	{r3, pc}
 1255              		.cfi_endproc
 1256              	.LFE89:
 1258              		.section	.text.USBD_LL_Transmit,"ax",%progbits
 1259              		.align	1
 1260              		.global	USBD_LL_Transmit
 1261              		.syntax unified
 1262              		.thumb
 1263              		.thumb_func
 1264              		.fpu softvfp
 1266              	USBD_LL_Transmit:
 1267              	.LVL135:
 1268              	.LFB90:
 628:Src/usbd_conf.c **** 
 629:Src/usbd_conf.c **** /**
 630:Src/usbd_conf.c ****   * @brief  Transmits data over an endpoint.
 631:Src/usbd_conf.c ****   * @param  pdev: Device handle
 632:Src/usbd_conf.c ****   * @param  ep_addr: Endpoint number
ARM GAS  /var/folders/rf/wfq6hz5s56g3yh4wqgd7820c0000gn/T//ccshrSpG.s 			page 34


 633:Src/usbd_conf.c ****   * @param  pbuf: Pointer to data to be sent
 634:Src/usbd_conf.c ****   * @param  size: Data size    
 635:Src/usbd_conf.c ****   * @retval USBD status
 636:Src/usbd_conf.c ****   */
 637:Src/usbd_conf.c **** USBD_StatusTypeDef USBD_LL_Transmit(USBD_HandleTypeDef *pdev, uint8_t ep_addr, uint8_t *pbuf, uint1
 638:Src/usbd_conf.c **** {
 1269              		.loc 1 638 1 is_stmt 1 view -0
 1270              		.cfi_startproc
 1271              		@ args = 0, pretend = 0, frame = 0
 1272              		@ frame_needed = 0, uses_anonymous_args = 0
 1273              		.loc 1 638 1 is_stmt 0 view .LVU272
 1274 0000 08B5     		push	{r3, lr}
 1275              	.LCFI25:
 1276              		.cfi_def_cfa_offset 8
 1277              		.cfi_offset 3, -8
 1278              		.cfi_offset 14, -4
 639:Src/usbd_conf.c ****   HAL_StatusTypeDef hal_status = HAL_OK;
 1279              		.loc 1 639 3 is_stmt 1 view .LVU273
 1280              	.LVL136:
 640:Src/usbd_conf.c ****   USBD_StatusTypeDef usb_status = USBD_OK;
 1281              		.loc 1 640 3 view .LVU274
 641:Src/usbd_conf.c **** 
 642:Src/usbd_conf.c ****   hal_status = HAL_PCD_EP_Transmit(pdev->pData, ep_addr, pbuf, size);
 1282              		.loc 1 642 3 view .LVU275
 1283              		.loc 1 642 16 is_stmt 0 view .LVU276
 1284 0002 D0F82002 		ldr	r0, [r0, #544]
 1285              	.LVL137:
 1286              		.loc 1 642 16 view .LVU277
 1287 0006 FFF7FEFF 		bl	HAL_PCD_EP_Transmit
 1288              	.LVL138:
 643:Src/usbd_conf.c ****      
 644:Src/usbd_conf.c ****   switch (hal_status) {
 1289              		.loc 1 644 3 is_stmt 1 view .LVU278
 1290 000a 0228     		cmp	r0, #2
 1291 000c 05D8     		bhi	.L119
 1292 000e DFE800F0 		tbb	[pc, r0]
 1293              	.L117:
 1294 0012 05       		.byte	(.L115-.L117)/2
 1295 0013 04       		.byte	(.L119-.L117)/2
 1296 0014 02       		.byte	(.L116-.L117)/2
 1297 0015 00       		.p2align 1
 1298              	.L116:
 645:Src/usbd_conf.c ****     case HAL_OK :
 646:Src/usbd_conf.c ****       usb_status = USBD_OK;
 647:Src/usbd_conf.c ****     break;
 648:Src/usbd_conf.c ****     case HAL_ERROR :
 649:Src/usbd_conf.c ****       usb_status = USBD_FAIL;
 650:Src/usbd_conf.c ****     break;
 651:Src/usbd_conf.c ****     case HAL_BUSY :
 652:Src/usbd_conf.c ****       usb_status = USBD_BUSY;
 1299              		.loc 1 652 7 view .LVU279
 1300              	.LVL139:
 653:Src/usbd_conf.c ****     break;
 1301              		.loc 1 653 5 view .LVU280
 652:Src/usbd_conf.c ****     break;
 1302              		.loc 1 652 18 is_stmt 0 view .LVU281
 1303 0016 0120     		movs	r0, #1
ARM GAS  /var/folders/rf/wfq6hz5s56g3yh4wqgd7820c0000gn/T//ccshrSpG.s 			page 35


 1304              	.LVL140:
 1305              		.loc 1 653 5 view .LVU282
 1306 0018 00E0     		b	.L115
 1307              	.LVL141:
 1308              	.L119:
 649:Src/usbd_conf.c ****     break;
 1309              		.loc 1 649 18 view .LVU283
 1310 001a 0220     		movs	r0, #2
 1311              	.LVL142:
 1312              	.L115:
 654:Src/usbd_conf.c ****     case HAL_TIMEOUT :
 655:Src/usbd_conf.c ****       usb_status = USBD_FAIL;
 656:Src/usbd_conf.c ****     break;
 657:Src/usbd_conf.c ****     default :
 658:Src/usbd_conf.c ****       usb_status = USBD_FAIL;
 659:Src/usbd_conf.c ****     break;
 660:Src/usbd_conf.c ****   }
 661:Src/usbd_conf.c ****   return usb_status;    
 1313              		.loc 1 661 3 is_stmt 1 view .LVU284
 662:Src/usbd_conf.c **** }
 1314              		.loc 1 662 1 is_stmt 0 view .LVU285
 1315 001c 08BD     		pop	{r3, pc}
 1316              		.cfi_endproc
 1317              	.LFE90:
 1319              		.section	.text.USBD_LL_PrepareReceive,"ax",%progbits
 1320              		.align	1
 1321              		.global	USBD_LL_PrepareReceive
 1322              		.syntax unified
 1323              		.thumb
 1324              		.thumb_func
 1325              		.fpu softvfp
 1327              	USBD_LL_PrepareReceive:
 1328              	.LVL143:
 1329              	.LFB91:
 663:Src/usbd_conf.c **** 
 664:Src/usbd_conf.c **** /**
 665:Src/usbd_conf.c ****   * @brief  Prepares an endpoint for reception.
 666:Src/usbd_conf.c ****   * @param  pdev: Device handle
 667:Src/usbd_conf.c ****   * @param  ep_addr: Endpoint number
 668:Src/usbd_conf.c ****   * @param  pbuf: Pointer to data to be received
 669:Src/usbd_conf.c ****   * @param  size: Data size
 670:Src/usbd_conf.c ****   * @retval USBD status
 671:Src/usbd_conf.c ****   */
 672:Src/usbd_conf.c **** USBD_StatusTypeDef USBD_LL_PrepareReceive(USBD_HandleTypeDef *pdev, uint8_t ep_addr, uint8_t *pbuf,
 673:Src/usbd_conf.c **** {
 1330              		.loc 1 673 1 is_stmt 1 view -0
 1331              		.cfi_startproc
 1332              		@ args = 0, pretend = 0, frame = 0
 1333              		@ frame_needed = 0, uses_anonymous_args = 0
 1334              		.loc 1 673 1 is_stmt 0 view .LVU287
 1335 0000 08B5     		push	{r3, lr}
 1336              	.LCFI26:
 1337              		.cfi_def_cfa_offset 8
 1338              		.cfi_offset 3, -8
 1339              		.cfi_offset 14, -4
 674:Src/usbd_conf.c ****   HAL_StatusTypeDef hal_status = HAL_OK;
 1340              		.loc 1 674 3 is_stmt 1 view .LVU288
ARM GAS  /var/folders/rf/wfq6hz5s56g3yh4wqgd7820c0000gn/T//ccshrSpG.s 			page 36


 1341              	.LVL144:
 675:Src/usbd_conf.c ****   USBD_StatusTypeDef usb_status = USBD_OK;
 1342              		.loc 1 675 3 view .LVU289
 676:Src/usbd_conf.c **** 
 677:Src/usbd_conf.c ****   hal_status = HAL_PCD_EP_Receive(pdev->pData, ep_addr, pbuf, size);
 1343              		.loc 1 677 3 view .LVU290
 1344              		.loc 1 677 16 is_stmt 0 view .LVU291
 1345 0002 D0F82002 		ldr	r0, [r0, #544]
 1346              	.LVL145:
 1347              		.loc 1 677 16 view .LVU292
 1348 0006 FFF7FEFF 		bl	HAL_PCD_EP_Receive
 1349              	.LVL146:
 678:Src/usbd_conf.c ****      
 679:Src/usbd_conf.c ****   switch (hal_status) {
 1350              		.loc 1 679 3 is_stmt 1 view .LVU293
 1351 000a 0228     		cmp	r0, #2
 1352 000c 05D8     		bhi	.L126
 1353 000e DFE800F0 		tbb	[pc, r0]
 1354              	.L124:
 1355 0012 05       		.byte	(.L122-.L124)/2
 1356 0013 04       		.byte	(.L126-.L124)/2
 1357 0014 02       		.byte	(.L123-.L124)/2
 1358 0015 00       		.p2align 1
 1359              	.L123:
 680:Src/usbd_conf.c ****     case HAL_OK :
 681:Src/usbd_conf.c ****       usb_status = USBD_OK;
 682:Src/usbd_conf.c ****     break;
 683:Src/usbd_conf.c ****     case HAL_ERROR :
 684:Src/usbd_conf.c ****       usb_status = USBD_FAIL;
 685:Src/usbd_conf.c ****     break;
 686:Src/usbd_conf.c ****     case HAL_BUSY :
 687:Src/usbd_conf.c ****       usb_status = USBD_BUSY;
 1360              		.loc 1 687 7 view .LVU294
 1361              	.LVL147:
 688:Src/usbd_conf.c ****     break;
 1362              		.loc 1 688 5 view .LVU295
 687:Src/usbd_conf.c ****     break;
 1363              		.loc 1 687 18 is_stmt 0 view .LVU296
 1364 0016 0120     		movs	r0, #1
 1365              	.LVL148:
 1366              		.loc 1 688 5 view .LVU297
 1367 0018 00E0     		b	.L122
 1368              	.LVL149:
 1369              	.L126:
 684:Src/usbd_conf.c ****     break;
 1370              		.loc 1 684 18 view .LVU298
 1371 001a 0220     		movs	r0, #2
 1372              	.LVL150:
 1373              	.L122:
 689:Src/usbd_conf.c ****     case HAL_TIMEOUT :
 690:Src/usbd_conf.c ****       usb_status = USBD_FAIL;
 691:Src/usbd_conf.c ****     break;
 692:Src/usbd_conf.c ****     default :
 693:Src/usbd_conf.c ****       usb_status = USBD_FAIL;
 694:Src/usbd_conf.c ****     break;
 695:Src/usbd_conf.c ****   }
 696:Src/usbd_conf.c ****   return usb_status; 
ARM GAS  /var/folders/rf/wfq6hz5s56g3yh4wqgd7820c0000gn/T//ccshrSpG.s 			page 37


 1374              		.loc 1 696 3 is_stmt 1 view .LVU299
 697:Src/usbd_conf.c **** }
 1375              		.loc 1 697 1 is_stmt 0 view .LVU300
 1376 001c 08BD     		pop	{r3, pc}
 1377              		.cfi_endproc
 1378              	.LFE91:
 1380              		.section	.text.USBD_LL_GetRxDataSize,"ax",%progbits
 1381              		.align	1
 1382              		.global	USBD_LL_GetRxDataSize
 1383              		.syntax unified
 1384              		.thumb
 1385              		.thumb_func
 1386              		.fpu softvfp
 1388              	USBD_LL_GetRxDataSize:
 1389              	.LVL151:
 1390              	.LFB92:
 698:Src/usbd_conf.c **** 
 699:Src/usbd_conf.c **** /**
 700:Src/usbd_conf.c ****   * @brief  Returns the last transfered packet size.
 701:Src/usbd_conf.c ****   * @param  pdev: Device handle
 702:Src/usbd_conf.c ****   * @param  ep_addr: Endpoint number
 703:Src/usbd_conf.c ****   * @retval Recived Data Size
 704:Src/usbd_conf.c ****   */
 705:Src/usbd_conf.c **** uint32_t USBD_LL_GetRxDataSize(USBD_HandleTypeDef *pdev, uint8_t ep_addr)
 706:Src/usbd_conf.c **** {
 1391              		.loc 1 706 1 is_stmt 1 view -0
 1392              		.cfi_startproc
 1393              		@ args = 0, pretend = 0, frame = 0
 1394              		@ frame_needed = 0, uses_anonymous_args = 0
 1395              		.loc 1 706 1 is_stmt 0 view .LVU302
 1396 0000 08B5     		push	{r3, lr}
 1397              	.LCFI27:
 1398              		.cfi_def_cfa_offset 8
 1399              		.cfi_offset 3, -8
 1400              		.cfi_offset 14, -4
 707:Src/usbd_conf.c ****   return HAL_PCD_EP_GetRxCount((PCD_HandleTypeDef*) pdev->pData, ep_addr);
 1401              		.loc 1 707 3 is_stmt 1 view .LVU303
 1402              		.loc 1 707 10 is_stmt 0 view .LVU304
 1403 0002 D0F82002 		ldr	r0, [r0, #544]
 1404              	.LVL152:
 1405              		.loc 1 707 10 view .LVU305
 1406 0006 FFF7FEFF 		bl	HAL_PCD_EP_GetRxCount
 1407              	.LVL153:
 708:Src/usbd_conf.c **** }
 1408              		.loc 1 708 1 view .LVU306
 1409 000a 08BD     		pop	{r3, pc}
 1410              		.cfi_endproc
 1411              	.LFE92:
 1413              		.section	.text.USBD_LL_Delay,"ax",%progbits
 1414              		.align	1
 1415              		.global	USBD_LL_Delay
 1416              		.syntax unified
 1417              		.thumb
 1418              		.thumb_func
 1419              		.fpu softvfp
 1421              	USBD_LL_Delay:
 1422              	.LVL154:
ARM GAS  /var/folders/rf/wfq6hz5s56g3yh4wqgd7820c0000gn/T//ccshrSpG.s 			page 38


 1423              	.LFB93:
 709:Src/usbd_conf.c **** 
 710:Src/usbd_conf.c **** /**
 711:Src/usbd_conf.c ****   * @brief  Delays routine for the USB device library.
 712:Src/usbd_conf.c ****   * @param  Delay: Delay in ms
 713:Src/usbd_conf.c ****   * @retval None
 714:Src/usbd_conf.c ****   */
 715:Src/usbd_conf.c **** void USBD_LL_Delay(uint32_t Delay)
 716:Src/usbd_conf.c **** {
 1424              		.loc 1 716 1 is_stmt 1 view -0
 1425              		.cfi_startproc
 1426              		@ args = 0, pretend = 0, frame = 0
 1427              		@ frame_needed = 0, uses_anonymous_args = 0
 1428              		.loc 1 716 1 is_stmt 0 view .LVU308
 1429 0000 08B5     		push	{r3, lr}
 1430              	.LCFI28:
 1431              		.cfi_def_cfa_offset 8
 1432              		.cfi_offset 3, -8
 1433              		.cfi_offset 14, -4
 717:Src/usbd_conf.c ****   HAL_Delay(Delay);
 1434              		.loc 1 717 3 is_stmt 1 view .LVU309
 1435 0002 FFF7FEFF 		bl	HAL_Delay
 1436              	.LVL155:
 718:Src/usbd_conf.c **** }
 1437              		.loc 1 718 1 is_stmt 0 view .LVU310
 1438 0006 08BD     		pop	{r3, pc}
 1439              		.cfi_endproc
 1440              	.LFE93:
 1442              		.section	.text.USBD_static_malloc,"ax",%progbits
 1443              		.align	1
 1444              		.global	USBD_static_malloc
 1445              		.syntax unified
 1446              		.thumb
 1447              		.thumb_func
 1448              		.fpu softvfp
 1450              	USBD_static_malloc:
 1451              	.LVL156:
 1452              	.LFB94:
 719:Src/usbd_conf.c **** 
 720:Src/usbd_conf.c **** /**
 721:Src/usbd_conf.c ****   * @brief  Static single allocation.
 722:Src/usbd_conf.c ****   * @param  size: Size of allocated memory
 723:Src/usbd_conf.c ****   * @retval None
 724:Src/usbd_conf.c ****   */
 725:Src/usbd_conf.c **** void *USBD_static_malloc(uint32_t size)
 726:Src/usbd_conf.c **** {
 1453              		.loc 1 726 1 is_stmt 1 view -0
 1454              		.cfi_startproc
 1455              		@ args = 0, pretend = 0, frame = 0
 1456              		@ frame_needed = 0, uses_anonymous_args = 0
 1457              		@ link register save eliminated.
 727:Src/usbd_conf.c ****   static uint32_t mem[(sizeof(USBD_CDC_HandleTypeDef)/4)+1];/* On 32-bit boundary */
 1458              		.loc 1 727 3 view .LVU312
 728:Src/usbd_conf.c ****   return mem;
 1459              		.loc 1 728 3 view .LVU313
 729:Src/usbd_conf.c **** }
 1460              		.loc 1 729 1 is_stmt 0 view .LVU314
ARM GAS  /var/folders/rf/wfq6hz5s56g3yh4wqgd7820c0000gn/T//ccshrSpG.s 			page 39


 1461 0000 0048     		ldr	r0, .L133
 1462              	.LVL157:
 1463              		.loc 1 729 1 view .LVU315
 1464 0002 7047     		bx	lr
 1465              	.L134:
 1466              		.align	2
 1467              	.L133:
 1468 0004 00000000 		.word	.LANCHOR0
 1469              		.cfi_endproc
 1470              	.LFE94:
 1472              		.section	.text.USBD_static_free,"ax",%progbits
 1473              		.align	1
 1474              		.global	USBD_static_free
 1475              		.syntax unified
 1476              		.thumb
 1477              		.thumb_func
 1478              		.fpu softvfp
 1480              	USBD_static_free:
 1481              	.LVL158:
 1482              	.LFB95:
 730:Src/usbd_conf.c **** 
 731:Src/usbd_conf.c **** /**
 732:Src/usbd_conf.c ****   * @brief  Dummy memory free
 733:Src/usbd_conf.c ****   * @param  p: Pointer to allocated  memory address
 734:Src/usbd_conf.c ****   * @retval None
 735:Src/usbd_conf.c ****   */
 736:Src/usbd_conf.c **** void USBD_static_free(void *p)
 737:Src/usbd_conf.c **** {
 1483              		.loc 1 737 1 is_stmt 1 view -0
 1484              		.cfi_startproc
 1485              		@ args = 0, pretend = 0, frame = 0
 1486              		@ frame_needed = 0, uses_anonymous_args = 0
 1487              		@ link register save eliminated.
 738:Src/usbd_conf.c **** 
 739:Src/usbd_conf.c **** }
 1488              		.loc 1 739 1 view .LVU317
 1489 0000 7047     		bx	lr
 1490              		.cfi_endproc
 1491              	.LFE95:
 1493              		.section	.text.HAL_PCDEx_SetConnectionState,"ax",%progbits
 1494              		.align	1
 1495              		.global	HAL_PCDEx_SetConnectionState
 1496              		.syntax unified
 1497              		.thumb
 1498              		.thumb_func
 1499              		.fpu softvfp
 1501              	HAL_PCDEx_SetConnectionState:
 1502              	.LVL159:
 1503              	.LFB96:
 740:Src/usbd_conf.c **** 
 741:Src/usbd_conf.c **** /**
 742:Src/usbd_conf.c ****   * @brief Software Device Connection
 743:Src/usbd_conf.c ****   * @param hpcd: PCD handle
 744:Src/usbd_conf.c ****   * @param state: Connection state (0: disconnected / 1: connected)
 745:Src/usbd_conf.c ****   * @retval None
 746:Src/usbd_conf.c ****   */
 747:Src/usbd_conf.c **** void HAL_PCDEx_SetConnectionState(PCD_HandleTypeDef *hpcd, uint8_t state)
ARM GAS  /var/folders/rf/wfq6hz5s56g3yh4wqgd7820c0000gn/T//ccshrSpG.s 			page 40


 748:Src/usbd_conf.c **** {
 1504              		.loc 1 748 1 view -0
 1505              		.cfi_startproc
 1506              		@ args = 0, pretend = 0, frame = 0
 1507              		@ frame_needed = 0, uses_anonymous_args = 0
 1508              		@ link register save eliminated.
 749:Src/usbd_conf.c ****   /* USER CODE BEGIN 6 */
 750:Src/usbd_conf.c ****   if (state == 1)
 1509              		.loc 1 750 3 view .LVU319
 751:Src/usbd_conf.c ****   {
 752:Src/usbd_conf.c ****     /* Configure Low connection state. */
 753:Src/usbd_conf.c **** 
 754:Src/usbd_conf.c ****   }
 755:Src/usbd_conf.c ****   else
 756:Src/usbd_conf.c ****   {
 757:Src/usbd_conf.c ****     /* Configure High connection state. */
 758:Src/usbd_conf.c **** 
 759:Src/usbd_conf.c ****   }
 1510              		.loc 1 759 3 view .LVU320
 760:Src/usbd_conf.c ****   /* USER CODE END 6 */
 761:Src/usbd_conf.c **** }
 1511              		.loc 1 761 1 is_stmt 0 view .LVU321
 1512 0000 7047     		bx	lr
 1513              		.cfi_endproc
 1514              	.LFE96:
 1516              		.comm	hpcd_USB_FS,1120,4
 1517              		.section	.bss.mem.7884,"aw",%nobits
 1518              		.align	2
 1519              		.set	.LANCHOR0,. + 0
 1522              	mem.7884:
 1523 0000 00000000 		.space	544
 1523      00000000 
 1523      00000000 
 1523      00000000 
 1523      00000000 
 1524              		.text
 1525              	.Letext0:
 1526              		.file 2 "/usr/local/Cellar/arm-gcc-bin/9-2019-q4-major/arm-none-eabi/include/machine/_default_type
 1527              		.file 3 "/usr/local/Cellar/arm-gcc-bin/9-2019-q4-major/arm-none-eabi/include/sys/_stdint.h"
 1528              		.file 4 "Drivers/CMSIS/Include/core_cm3.h"
 1529              		.file 5 "Drivers/CMSIS/Device/ST/STM32F1xx/Include/system_stm32f1xx.h"
 1530              		.file 6 "Drivers/CMSIS/Device/ST/STM32F1xx/Include/stm32f103xb.h"
 1531              		.file 7 "Drivers/CMSIS/Device/ST/STM32F1xx/Include/stm32f1xx.h"
 1532              		.file 8 "/usr/local/Cellar/arm-gcc-bin/9-2019-q4-major/arm-none-eabi/include/sys/lock.h"
 1533              		.file 9 "/usr/local/Cellar/arm-gcc-bin/9-2019-q4-major/arm-none-eabi/include/sys/_types.h"
 1534              		.file 10 "/usr/local/Cellar/arm-gcc-bin/9-2019-q4-major/lib/gcc/arm-none-eabi/9.2.1/include/stddef
 1535              		.file 11 "/usr/local/Cellar/arm-gcc-bin/9-2019-q4-major/arm-none-eabi/include/sys/reent.h"
 1536              		.file 12 "Drivers/STM32F1xx_HAL_Driver/Inc/stm32f1xx_hal_def.h"
 1537              		.file 13 "Drivers/STM32F1xx_HAL_Driver/Inc/stm32f1xx_ll_usb.h"
 1538              		.file 14 "Drivers/STM32F1xx_HAL_Driver/Inc/stm32f1xx_hal_pcd.h"
 1539              		.file 15 "/usr/local/Cellar/arm-gcc-bin/9-2019-q4-major/arm-none-eabi/include/stdlib.h"
 1540              		.file 16 "Middlewares/ST/STM32_USB_Device_Library/Core/Inc/usbd_def.h"
 1541              		.file 17 "Middlewares/ST/STM32_USB_Device_Library/Class/CDC/Inc/usbd_cdc.h"
 1542              		.file 18 "Drivers/STM32F1xx_HAL_Driver/Inc/stm32f1xx_hal.h"
 1543              		.file 19 "Drivers/STM32F1xx_HAL_Driver/Inc/stm32f1xx_hal_pcd_ex.h"
 1544              		.file 20 "Middlewares/ST/STM32_USB_Device_Library/Core/Inc/usbd_core.h"
 1545              		.file 21 "Drivers/STM32F1xx_HAL_Driver/Inc/stm32f1xx_hal_cortex.h"
ARM GAS  /var/folders/rf/wfq6hz5s56g3yh4wqgd7820c0000gn/T//ccshrSpG.s 			page 41


ARM GAS  /var/folders/rf/wfq6hz5s56g3yh4wqgd7820c0000gn/T//ccshrSpG.s 			page 42

