ARM GAS  /var/folders/rf/wfq6hz5s56g3yh4wqgd7820c0000gn/T//ccMh40b1.s 			page 1


   1              		.cpu cortex-m3
   2              		.eabi_attribute 20, 1
   3              		.eabi_attribute 21, 1
   4              		.eabi_attribute 23, 3
   5              		.eabi_attribute 24, 1
   6              		.eabi_attribute 25, 1
   7              		.eabi_attribute 26, 1
   8              		.eabi_attribute 30, 1
   9              		.eabi_attribute 34, 1
  10              		.eabi_attribute 18, 4
  11              		.file	"usbd_desc.c"
  12              		.text
  13              	.Ltext0:
  14              		.cfi_sections	.debug_frame
  15              		.section	.text.USBD_FS_DeviceDescriptor,"ax",%progbits
  16              		.align	1
  17              		.global	USBD_FS_DeviceDescriptor
  18              		.arch armv7-m
  19              		.syntax unified
  20              		.thumb
  21              		.thumb_func
  22              		.fpu softvfp
  24              	USBD_FS_DeviceDescriptor:
  25              	.LVL0:
  26              	.LFB66:
  27              		.file 1 "Src/usbd_desc.c"
   1:Src/usbd_desc.c **** /**
   2:Src/usbd_desc.c ****   ******************************************************************************
   3:Src/usbd_desc.c ****   * @file           : usbd_desc.c
   4:Src/usbd_desc.c ****   * @version        : v2.0_Cube
   5:Src/usbd_desc.c ****   * @brief          : This file implements the USB device descriptors.
   6:Src/usbd_desc.c ****   ******************************************************************************
   7:Src/usbd_desc.c ****   * This notice applies to any and all portions of this file
   8:Src/usbd_desc.c ****   * that are not between comment pairs USER CODE BEGIN and
   9:Src/usbd_desc.c ****   * USER CODE END. Other portions of this file, whether 
  10:Src/usbd_desc.c ****   * inserted by the user or by software development tools
  11:Src/usbd_desc.c ****   * are owned by their respective copyright owners.
  12:Src/usbd_desc.c ****   *
  13:Src/usbd_desc.c ****   * Copyright (c) 2020 STMicroelectronics International N.V. 
  14:Src/usbd_desc.c ****   * All rights reserved.
  15:Src/usbd_desc.c ****   *
  16:Src/usbd_desc.c ****   * Redistribution and use in source and binary forms, with or without 
  17:Src/usbd_desc.c ****   * modification, are permitted, provided that the following conditions are met:
  18:Src/usbd_desc.c ****   *
  19:Src/usbd_desc.c ****   * 1. Redistribution of source code must retain the above copyright notice, 
  20:Src/usbd_desc.c ****   *    this list of conditions and the following disclaimer.
  21:Src/usbd_desc.c ****   * 2. Redistributions in binary form must reproduce the above copyright notice,
  22:Src/usbd_desc.c ****   *    this list of conditions and the following disclaimer in the documentation
  23:Src/usbd_desc.c ****   *    and/or other materials provided with the distribution.
  24:Src/usbd_desc.c ****   * 3. Neither the name of STMicroelectronics nor the names of other 
  25:Src/usbd_desc.c ****   *    contributors to this software may be used to endorse or promote products 
  26:Src/usbd_desc.c ****   *    derived from this software without specific written permission.
  27:Src/usbd_desc.c ****   * 4. This software, including modifications and/or derivative works of this 
  28:Src/usbd_desc.c ****   *    software, must execute solely and exclusively on microcontroller or
  29:Src/usbd_desc.c ****   *    microprocessor devices manufactured by or for STMicroelectronics.
  30:Src/usbd_desc.c ****   * 5. Redistribution and use of this software other than as permitted under 
  31:Src/usbd_desc.c ****   *    this license is void and will automatically terminate your rights under 
ARM GAS  /var/folders/rf/wfq6hz5s56g3yh4wqgd7820c0000gn/T//ccMh40b1.s 			page 2


  32:Src/usbd_desc.c ****   *    this license. 
  33:Src/usbd_desc.c ****   *
  34:Src/usbd_desc.c ****   * THIS SOFTWARE IS PROVIDED BY STMICROELECTRONICS AND CONTRIBUTORS "AS IS" 
  35:Src/usbd_desc.c ****   * AND ANY EXPRESS, IMPLIED OR STATUTORY WARRANTIES, INCLUDING, BUT NOT 
  36:Src/usbd_desc.c ****   * LIMITED TO, THE IMPLIED WARRANTIES OF MERCHANTABILITY, FITNESS FOR A 
  37:Src/usbd_desc.c ****   * PARTICULAR PURPOSE AND NON-INFRINGEMENT OF THIRD PARTY INTELLECTUAL PROPERTY
  38:Src/usbd_desc.c ****   * RIGHTS ARE DISCLAIMED TO THE FULLEST EXTENT PERMITTED BY LAW. IN NO EVENT 
  39:Src/usbd_desc.c ****   * SHALL STMICROELECTRONICS OR CONTRIBUTORS BE LIABLE FOR ANY DIRECT, INDIRECT,
  40:Src/usbd_desc.c ****   * INCIDENTAL, SPECIAL, EXEMPLARY, OR CONSEQUENTIAL DAMAGES (INCLUDING, BUT NOT
  41:Src/usbd_desc.c ****   * LIMITED TO, PROCUREMENT OF SUBSTITUTE GOODS OR SERVICES; LOSS OF USE, DATA, 
  42:Src/usbd_desc.c ****   * OR PROFITS; OR BUSINESS INTERRUPTION) HOWEVER CAUSED AND ON ANY THEORY OF 
  43:Src/usbd_desc.c ****   * LIABILITY, WHETHER IN CONTRACT, STRICT LIABILITY, OR TORT (INCLUDING 
  44:Src/usbd_desc.c ****   * NEGLIGENCE OR OTHERWISE) ARISING IN ANY WAY OUT OF THE USE OF THIS SOFTWARE,
  45:Src/usbd_desc.c ****   * EVEN IF ADVISED OF THE POSSIBILITY OF SUCH DAMAGE.
  46:Src/usbd_desc.c ****   *
  47:Src/usbd_desc.c ****   ******************************************************************************
  48:Src/usbd_desc.c ****   */
  49:Src/usbd_desc.c **** 
  50:Src/usbd_desc.c **** /* Includes ------------------------------------------------------------------*/
  51:Src/usbd_desc.c **** #include "usbd_core.h"
  52:Src/usbd_desc.c **** #include "usbd_desc.h"
  53:Src/usbd_desc.c **** #include "usbd_conf.h"
  54:Src/usbd_desc.c **** 
  55:Src/usbd_desc.c **** /* USER CODE BEGIN INCLUDE */
  56:Src/usbd_desc.c **** 
  57:Src/usbd_desc.c **** /* USER CODE END INCLUDE */
  58:Src/usbd_desc.c **** 
  59:Src/usbd_desc.c **** /* Private typedef -----------------------------------------------------------*/
  60:Src/usbd_desc.c **** /* Private define ------------------------------------------------------------*/
  61:Src/usbd_desc.c **** /* Private macro -------------------------------------------------------------*/
  62:Src/usbd_desc.c **** 
  63:Src/usbd_desc.c **** /* USER CODE BEGIN PV */
  64:Src/usbd_desc.c **** /* Private variables ---------------------------------------------------------*/
  65:Src/usbd_desc.c **** 
  66:Src/usbd_desc.c **** /* USER CODE END PV */
  67:Src/usbd_desc.c **** 
  68:Src/usbd_desc.c **** /** @addtogroup STM32_USB_OTG_DEVICE_LIBRARY
  69:Src/usbd_desc.c ****   * @{
  70:Src/usbd_desc.c ****   */
  71:Src/usbd_desc.c **** 
  72:Src/usbd_desc.c **** /** @addtogroup USBD_DESC
  73:Src/usbd_desc.c ****   * @{
  74:Src/usbd_desc.c ****   */
  75:Src/usbd_desc.c **** 
  76:Src/usbd_desc.c **** /** @defgroup USBD_DESC_Private_TypesDefinitions USBD_DESC_Private_TypesDefinitions
  77:Src/usbd_desc.c ****   * @brief Private types.
  78:Src/usbd_desc.c ****   * @{
  79:Src/usbd_desc.c ****   */
  80:Src/usbd_desc.c **** 
  81:Src/usbd_desc.c **** /* USER CODE BEGIN PRIVATE_TYPES */
  82:Src/usbd_desc.c **** 
  83:Src/usbd_desc.c **** /* USER CODE END PRIVATE_TYPES */
  84:Src/usbd_desc.c **** 
  85:Src/usbd_desc.c **** /**
  86:Src/usbd_desc.c ****   * @}
  87:Src/usbd_desc.c ****   */
  88:Src/usbd_desc.c **** 
ARM GAS  /var/folders/rf/wfq6hz5s56g3yh4wqgd7820c0000gn/T//ccMh40b1.s 			page 3


  89:Src/usbd_desc.c **** /** @defgroup USBD_DESC_Private_Defines USBD_DESC_Private_Defines
  90:Src/usbd_desc.c ****   * @brief Private defines.
  91:Src/usbd_desc.c ****   * @{
  92:Src/usbd_desc.c ****   */
  93:Src/usbd_desc.c **** 
  94:Src/usbd_desc.c **** #define USBD_VID     1155
  95:Src/usbd_desc.c **** #define USBD_LANGID_STRING     1033
  96:Src/usbd_desc.c **** #define USBD_MANUFACTURER_STRING     "STMicroelectronics"
  97:Src/usbd_desc.c **** #define USBD_PID_FS     22336
  98:Src/usbd_desc.c **** #define USBD_PRODUCT_STRING_FS     "STM32 Virtual ComPort"
  99:Src/usbd_desc.c **** #define USBD_SERIALNUMBER_STRING_FS     "00000000001A"
 100:Src/usbd_desc.c **** #define USBD_CONFIGURATION_STRING_FS     "CDC Config"
 101:Src/usbd_desc.c **** #define USBD_INTERFACE_STRING_FS     "CDC Interface"
 102:Src/usbd_desc.c **** 
 103:Src/usbd_desc.c **** /* USER CODE BEGIN PRIVATE_DEFINES */
 104:Src/usbd_desc.c **** 
 105:Src/usbd_desc.c **** /* USER CODE END PRIVATE_DEFINES */
 106:Src/usbd_desc.c **** 
 107:Src/usbd_desc.c **** /**
 108:Src/usbd_desc.c ****   * @}
 109:Src/usbd_desc.c ****   */
 110:Src/usbd_desc.c **** 
 111:Src/usbd_desc.c **** /* USER CODE BEGIN 0 */
 112:Src/usbd_desc.c **** 
 113:Src/usbd_desc.c **** /* USER CODE END 0 */
 114:Src/usbd_desc.c **** 
 115:Src/usbd_desc.c **** /** @defgroup USBD_DESC_Private_Macros USBD_DESC_Private_Macros
 116:Src/usbd_desc.c ****   * @brief Private macros.
 117:Src/usbd_desc.c ****   * @{
 118:Src/usbd_desc.c ****   */
 119:Src/usbd_desc.c **** 
 120:Src/usbd_desc.c **** /* USER CODE BEGIN PRIVATE_MACRO */
 121:Src/usbd_desc.c **** 
 122:Src/usbd_desc.c **** /* USER CODE END PRIVATE_MACRO */
 123:Src/usbd_desc.c **** 
 124:Src/usbd_desc.c **** /**
 125:Src/usbd_desc.c ****   * @}
 126:Src/usbd_desc.c ****   */
 127:Src/usbd_desc.c **** 
 128:Src/usbd_desc.c **** /** @defgroup USBD_DESC_Private_FunctionPrototypes USBD_DESC_Private_FunctionPrototypes
 129:Src/usbd_desc.c ****   * @brief Private functions declaration.
 130:Src/usbd_desc.c ****   * @{
 131:Src/usbd_desc.c ****   */
 132:Src/usbd_desc.c **** 
 133:Src/usbd_desc.c **** uint8_t * USBD_FS_DeviceDescriptor(USBD_SpeedTypeDef speed, uint16_t *length);
 134:Src/usbd_desc.c **** uint8_t * USBD_FS_LangIDStrDescriptor(USBD_SpeedTypeDef speed, uint16_t *length);
 135:Src/usbd_desc.c **** uint8_t * USBD_FS_ManufacturerStrDescriptor(USBD_SpeedTypeDef speed, uint16_t *length);
 136:Src/usbd_desc.c **** uint8_t * USBD_FS_ProductStrDescriptor(USBD_SpeedTypeDef speed, uint16_t *length);
 137:Src/usbd_desc.c **** uint8_t * USBD_FS_SerialStrDescriptor(USBD_SpeedTypeDef speed, uint16_t *length);
 138:Src/usbd_desc.c **** uint8_t * USBD_FS_ConfigStrDescriptor(USBD_SpeedTypeDef speed, uint16_t *length);
 139:Src/usbd_desc.c **** uint8_t * USBD_FS_InterfaceStrDescriptor(USBD_SpeedTypeDef speed, uint16_t *length);
 140:Src/usbd_desc.c **** 
 141:Src/usbd_desc.c **** #ifdef USB_SUPPORT_USER_STRING_DESC
 142:Src/usbd_desc.c **** uint8_t * USBD_FS_USRStringDesc(USBD_SpeedTypeDef speed, uint8_t idx, uint16_t *length);
 143:Src/usbd_desc.c **** #endif /* USB_SUPPORT_USER_STRING_DESC */
 144:Src/usbd_desc.c **** 
 145:Src/usbd_desc.c **** /**
ARM GAS  /var/folders/rf/wfq6hz5s56g3yh4wqgd7820c0000gn/T//ccMh40b1.s 			page 4


 146:Src/usbd_desc.c ****   * @}
 147:Src/usbd_desc.c ****   */
 148:Src/usbd_desc.c **** 
 149:Src/usbd_desc.c **** /** @defgroup USBD_DESC_Private_Variables USBD_DESC_Private_Variables
 150:Src/usbd_desc.c ****   * @brief Private variables.
 151:Src/usbd_desc.c ****   * @{
 152:Src/usbd_desc.c ****   */
 153:Src/usbd_desc.c **** 
 154:Src/usbd_desc.c **** USBD_DescriptorsTypeDef FS_Desc =
 155:Src/usbd_desc.c **** {
 156:Src/usbd_desc.c ****   USBD_FS_DeviceDescriptor
 157:Src/usbd_desc.c **** , USBD_FS_LangIDStrDescriptor
 158:Src/usbd_desc.c **** , USBD_FS_ManufacturerStrDescriptor
 159:Src/usbd_desc.c **** , USBD_FS_ProductStrDescriptor
 160:Src/usbd_desc.c **** , USBD_FS_SerialStrDescriptor
 161:Src/usbd_desc.c **** , USBD_FS_ConfigStrDescriptor
 162:Src/usbd_desc.c **** , USBD_FS_InterfaceStrDescriptor
 163:Src/usbd_desc.c **** };
 164:Src/usbd_desc.c **** 
 165:Src/usbd_desc.c **** #if defined ( __ICCARM__ ) /* IAR Compiler */
 166:Src/usbd_desc.c ****   #pragma data_alignment=4
 167:Src/usbd_desc.c **** #endif /* defined ( __ICCARM__ ) */
 168:Src/usbd_desc.c **** /** USB standard device descriptor. */
 169:Src/usbd_desc.c **** __ALIGN_BEGIN uint8_t USBD_FS_DeviceDesc[USB_LEN_DEV_DESC] __ALIGN_END =
 170:Src/usbd_desc.c **** {
 171:Src/usbd_desc.c ****   0x12,                       /*bLength */
 172:Src/usbd_desc.c ****   USB_DESC_TYPE_DEVICE,       /*bDescriptorType*/
 173:Src/usbd_desc.c ****   0x00,                       /*bcdUSB */
 174:Src/usbd_desc.c ****   0x02,
 175:Src/usbd_desc.c ****   0x02,                       /*bDeviceClass*/
 176:Src/usbd_desc.c ****   0x02,                       /*bDeviceSubClass*/
 177:Src/usbd_desc.c ****   0x00,                       /*bDeviceProtocol*/
 178:Src/usbd_desc.c ****   USB_MAX_EP0_SIZE,           /*bMaxPacketSize*/
 179:Src/usbd_desc.c ****   LOBYTE(USBD_VID),           /*idVendor*/
 180:Src/usbd_desc.c ****   HIBYTE(USBD_VID),           /*idVendor*/
 181:Src/usbd_desc.c ****   LOBYTE(USBD_PID_FS),        /*idProduct*/
 182:Src/usbd_desc.c ****   HIBYTE(USBD_PID_FS),        /*idProduct*/
 183:Src/usbd_desc.c ****   0x00,                       /*bcdDevice rel. 2.00*/
 184:Src/usbd_desc.c ****   0x02,
 185:Src/usbd_desc.c ****   USBD_IDX_MFC_STR,           /*Index of manufacturer  string*/
 186:Src/usbd_desc.c ****   USBD_IDX_PRODUCT_STR,       /*Index of product string*/
 187:Src/usbd_desc.c ****   USBD_IDX_SERIAL_STR,        /*Index of serial number string*/
 188:Src/usbd_desc.c ****   USBD_MAX_NUM_CONFIGURATION  /*bNumConfigurations*/
 189:Src/usbd_desc.c **** };
 190:Src/usbd_desc.c **** 
 191:Src/usbd_desc.c **** /* USB_DeviceDescriptor */
 192:Src/usbd_desc.c **** 
 193:Src/usbd_desc.c **** /**
 194:Src/usbd_desc.c ****   * @}
 195:Src/usbd_desc.c ****   */
 196:Src/usbd_desc.c **** 
 197:Src/usbd_desc.c **** /** @defgroup USBD_DESC_Private_Variables USBD_DESC_Private_Variables
 198:Src/usbd_desc.c ****   * @brief Private variables.
 199:Src/usbd_desc.c ****   * @{
 200:Src/usbd_desc.c ****   */
 201:Src/usbd_desc.c **** 
 202:Src/usbd_desc.c **** #if defined ( __ICCARM__ ) /* IAR Compiler */
ARM GAS  /var/folders/rf/wfq6hz5s56g3yh4wqgd7820c0000gn/T//ccMh40b1.s 			page 5


 203:Src/usbd_desc.c ****   #pragma data_alignment=4
 204:Src/usbd_desc.c **** #endif /* defined ( __ICCARM__ ) */
 205:Src/usbd_desc.c **** 
 206:Src/usbd_desc.c **** /** USB lang indentifier descriptor. */
 207:Src/usbd_desc.c **** __ALIGN_BEGIN uint8_t USBD_LangIDDesc[USB_LEN_LANGID_STR_DESC] __ALIGN_END =
 208:Src/usbd_desc.c **** {
 209:Src/usbd_desc.c ****      USB_LEN_LANGID_STR_DESC,
 210:Src/usbd_desc.c ****      USB_DESC_TYPE_STRING,
 211:Src/usbd_desc.c ****      LOBYTE(USBD_LANGID_STRING),
 212:Src/usbd_desc.c ****      HIBYTE(USBD_LANGID_STRING)
 213:Src/usbd_desc.c **** };
 214:Src/usbd_desc.c **** 
 215:Src/usbd_desc.c **** #if defined ( __ICCARM__ ) /* IAR Compiler */
 216:Src/usbd_desc.c ****   #pragma data_alignment=4
 217:Src/usbd_desc.c **** #endif /* defined ( __ICCARM__ ) */
 218:Src/usbd_desc.c **** /* Internal string descriptor. */
 219:Src/usbd_desc.c **** __ALIGN_BEGIN uint8_t USBD_StrDesc[USBD_MAX_STR_DESC_SIZ] __ALIGN_END;
 220:Src/usbd_desc.c **** 
 221:Src/usbd_desc.c **** /**
 222:Src/usbd_desc.c ****   * @}
 223:Src/usbd_desc.c ****   */
 224:Src/usbd_desc.c **** 
 225:Src/usbd_desc.c **** /** @defgroup USBD_DESC_Private_Functions USBD_DESC_Private_Functions
 226:Src/usbd_desc.c ****   * @brief Private functions.
 227:Src/usbd_desc.c ****   * @{
 228:Src/usbd_desc.c ****   */
 229:Src/usbd_desc.c **** 
 230:Src/usbd_desc.c **** /**
 231:Src/usbd_desc.c ****   * @brief  Return the device descriptor
 232:Src/usbd_desc.c ****   * @param  speed : Current device speed
 233:Src/usbd_desc.c ****   * @param  length : Pointer to data length variable
 234:Src/usbd_desc.c ****   * @retval Pointer to descriptor buffer
 235:Src/usbd_desc.c ****   */
 236:Src/usbd_desc.c **** uint8_t * USBD_FS_DeviceDescriptor(USBD_SpeedTypeDef speed, uint16_t *length)
 237:Src/usbd_desc.c **** {
  28              		.loc 1 237 1 view -0
  29              		.cfi_startproc
  30              		@ args = 0, pretend = 0, frame = 0
  31              		@ frame_needed = 0, uses_anonymous_args = 0
  32              		@ link register save eliminated.
 238:Src/usbd_desc.c ****   *length = sizeof(USBD_FS_DeviceDesc);
  33              		.loc 1 238 3 view .LVU1
  34              		.loc 1 238 11 is_stmt 0 view .LVU2
  35 0000 1223     		movs	r3, #18
  36 0002 0B80     		strh	r3, [r1]	@ movhi
 239:Src/usbd_desc.c ****   return USBD_FS_DeviceDesc;
  37              		.loc 1 239 3 is_stmt 1 view .LVU3
 240:Src/usbd_desc.c **** }
  38              		.loc 1 240 1 is_stmt 0 view .LVU4
  39 0004 0048     		ldr	r0, .L2
  40              	.LVL1:
  41              		.loc 1 240 1 view .LVU5
  42 0006 7047     		bx	lr
  43              	.L3:
  44              		.align	2
  45              	.L2:
  46 0008 00000000 		.word	.LANCHOR0
ARM GAS  /var/folders/rf/wfq6hz5s56g3yh4wqgd7820c0000gn/T//ccMh40b1.s 			page 6


  47              		.cfi_endproc
  48              	.LFE66:
  50              		.section	.text.USBD_FS_LangIDStrDescriptor,"ax",%progbits
  51              		.align	1
  52              		.global	USBD_FS_LangIDStrDescriptor
  53              		.syntax unified
  54              		.thumb
  55              		.thumb_func
  56              		.fpu softvfp
  58              	USBD_FS_LangIDStrDescriptor:
  59              	.LVL2:
  60              	.LFB67:
 241:Src/usbd_desc.c **** 
 242:Src/usbd_desc.c **** /**
 243:Src/usbd_desc.c ****   * @brief  Return the LangID string descriptor
 244:Src/usbd_desc.c ****   * @param  speed : Current device speed
 245:Src/usbd_desc.c ****   * @param  length : Pointer to data length variable
 246:Src/usbd_desc.c ****   * @retval Pointer to descriptor buffer
 247:Src/usbd_desc.c ****   */
 248:Src/usbd_desc.c **** uint8_t * USBD_FS_LangIDStrDescriptor(USBD_SpeedTypeDef speed, uint16_t *length)
 249:Src/usbd_desc.c **** {
  61              		.loc 1 249 1 is_stmt 1 view -0
  62              		.cfi_startproc
  63              		@ args = 0, pretend = 0, frame = 0
  64              		@ frame_needed = 0, uses_anonymous_args = 0
  65              		@ link register save eliminated.
 250:Src/usbd_desc.c ****   *length = sizeof(USBD_LangIDDesc);
  66              		.loc 1 250 3 view .LVU7
  67              		.loc 1 250 11 is_stmt 0 view .LVU8
  68 0000 0423     		movs	r3, #4
  69 0002 0B80     		strh	r3, [r1]	@ movhi
 251:Src/usbd_desc.c ****   return USBD_LangIDDesc;
  70              		.loc 1 251 3 is_stmt 1 view .LVU9
 252:Src/usbd_desc.c **** }
  71              		.loc 1 252 1 is_stmt 0 view .LVU10
  72 0004 0048     		ldr	r0, .L5
  73              	.LVL3:
  74              		.loc 1 252 1 view .LVU11
  75 0006 7047     		bx	lr
  76              	.L6:
  77              		.align	2
  78              	.L5:
  79 0008 00000000 		.word	.LANCHOR1
  80              		.cfi_endproc
  81              	.LFE67:
  83              		.section	.rodata.USBD_FS_ProductStrDescriptor.str1.4,"aMS",%progbits,1
  84              		.align	2
  85              	.LC0:
  86 0000 53544D33 		.ascii	"STM32 Virtual ComPort\000"
  86      32205669 
  86      72747561 
  86      6C20436F 
  86      6D506F72 
  87              		.section	.text.USBD_FS_ProductStrDescriptor,"ax",%progbits
  88              		.align	1
  89              		.global	USBD_FS_ProductStrDescriptor
  90              		.syntax unified
ARM GAS  /var/folders/rf/wfq6hz5s56g3yh4wqgd7820c0000gn/T//ccMh40b1.s 			page 7


  91              		.thumb
  92              		.thumb_func
  93              		.fpu softvfp
  95              	USBD_FS_ProductStrDescriptor:
  96              	.LVL4:
  97              	.LFB68:
 253:Src/usbd_desc.c **** 
 254:Src/usbd_desc.c **** /**
 255:Src/usbd_desc.c ****   * @brief  Return the product string descriptor
 256:Src/usbd_desc.c ****   * @param  speed : Current device speed
 257:Src/usbd_desc.c ****   * @param  length : Pointer to data length variable
 258:Src/usbd_desc.c ****   * @retval Pointer to descriptor buffer
 259:Src/usbd_desc.c ****   */
 260:Src/usbd_desc.c **** uint8_t * USBD_FS_ProductStrDescriptor(USBD_SpeedTypeDef speed, uint16_t *length)
 261:Src/usbd_desc.c **** {
  98              		.loc 1 261 1 is_stmt 1 view -0
  99              		.cfi_startproc
 100              		@ args = 0, pretend = 0, frame = 0
 101              		@ frame_needed = 0, uses_anonymous_args = 0
 102              		.loc 1 261 1 is_stmt 0 view .LVU13
 103 0000 08B5     		push	{r3, lr}
 104              	.LCFI0:
 105              		.cfi_def_cfa_offset 8
 106              		.cfi_offset 3, -8
 107              		.cfi_offset 14, -4
 108 0002 0A46     		mov	r2, r1
 262:Src/usbd_desc.c ****   if(speed == 0)
 109              		.loc 1 262 3 is_stmt 1 view .LVU14
 110              		.loc 1 262 5 is_stmt 0 view .LVU15
 111 0004 28B9     		cbnz	r0, .L8
 263:Src/usbd_desc.c ****   {
 264:Src/usbd_desc.c ****     USBD_GetString((uint8_t *)USBD_PRODUCT_STRING_FS, USBD_StrDesc, length);
 112              		.loc 1 264 5 is_stmt 1 view .LVU16
 113 0006 0549     		ldr	r1, .L11
 114              	.LVL5:
 115              		.loc 1 264 5 is_stmt 0 view .LVU17
 116 0008 0548     		ldr	r0, .L11+4
 117              	.LVL6:
 118              		.loc 1 264 5 view .LVU18
 119 000a FFF7FEFF 		bl	USBD_GetString
 120              	.LVL7:
 121              	.L9:
 265:Src/usbd_desc.c ****   }
 266:Src/usbd_desc.c ****   else
 267:Src/usbd_desc.c ****   {
 268:Src/usbd_desc.c ****     USBD_GetString((uint8_t *)USBD_PRODUCT_STRING_FS, USBD_StrDesc, length);
 269:Src/usbd_desc.c ****   }
 270:Src/usbd_desc.c ****   return USBD_StrDesc;
 122              		.loc 1 270 3 is_stmt 1 view .LVU19
 271:Src/usbd_desc.c **** }
 123              		.loc 1 271 1 is_stmt 0 view .LVU20
 124 000e 0348     		ldr	r0, .L11
 125 0010 08BD     		pop	{r3, pc}
 126              	.LVL8:
 127              	.L8:
 268:Src/usbd_desc.c ****   }
 128              		.loc 1 268 5 is_stmt 1 view .LVU21
ARM GAS  /var/folders/rf/wfq6hz5s56g3yh4wqgd7820c0000gn/T//ccMh40b1.s 			page 8


 129 0012 0249     		ldr	r1, .L11
 130              	.LVL9:
 268:Src/usbd_desc.c ****   }
 131              		.loc 1 268 5 is_stmt 0 view .LVU22
 132 0014 0248     		ldr	r0, .L11+4
 133              	.LVL10:
 268:Src/usbd_desc.c ****   }
 134              		.loc 1 268 5 view .LVU23
 135 0016 FFF7FEFF 		bl	USBD_GetString
 136              	.LVL11:
 268:Src/usbd_desc.c ****   }
 137              		.loc 1 268 5 view .LVU24
 138 001a F8E7     		b	.L9
 139              	.L12:
 140              		.align	2
 141              	.L11:
 142 001c 00000000 		.word	USBD_StrDesc
 143 0020 00000000 		.word	.LC0
 144              		.cfi_endproc
 145              	.LFE68:
 147              		.section	.rodata.USBD_FS_ManufacturerStrDescriptor.str1.4,"aMS",%progbits,1
 148              		.align	2
 149              	.LC1:
 150 0000 53544D69 		.ascii	"STMicroelectronics\000"
 150      63726F65 
 150      6C656374 
 150      726F6E69 
 150      637300
 151              		.section	.text.USBD_FS_ManufacturerStrDescriptor,"ax",%progbits
 152              		.align	1
 153              		.global	USBD_FS_ManufacturerStrDescriptor
 154              		.syntax unified
 155              		.thumb
 156              		.thumb_func
 157              		.fpu softvfp
 159              	USBD_FS_ManufacturerStrDescriptor:
 160              	.LVL12:
 161              	.LFB69:
 272:Src/usbd_desc.c **** 
 273:Src/usbd_desc.c **** /**
 274:Src/usbd_desc.c ****   * @brief  Return the manufacturer string descriptor
 275:Src/usbd_desc.c ****   * @param  speed : Current device speed
 276:Src/usbd_desc.c ****   * @param  length : Pointer to data length variable
 277:Src/usbd_desc.c ****   * @retval Pointer to descriptor buffer
 278:Src/usbd_desc.c ****   */
 279:Src/usbd_desc.c **** uint8_t * USBD_FS_ManufacturerStrDescriptor(USBD_SpeedTypeDef speed, uint16_t *length)
 280:Src/usbd_desc.c **** {
 162              		.loc 1 280 1 is_stmt 1 view -0
 163              		.cfi_startproc
 164              		@ args = 0, pretend = 0, frame = 0
 165              		@ frame_needed = 0, uses_anonymous_args = 0
 166              		.loc 1 280 1 is_stmt 0 view .LVU26
 167 0000 10B5     		push	{r4, lr}
 168              	.LCFI1:
 169              		.cfi_def_cfa_offset 8
 170              		.cfi_offset 4, -8
 171              		.cfi_offset 14, -4
ARM GAS  /var/folders/rf/wfq6hz5s56g3yh4wqgd7820c0000gn/T//ccMh40b1.s 			page 9


 172 0002 0A46     		mov	r2, r1
 281:Src/usbd_desc.c ****   USBD_GetString((uint8_t *)USBD_MANUFACTURER_STRING, USBD_StrDesc, length);
 173              		.loc 1 281 3 is_stmt 1 view .LVU27
 174 0004 034C     		ldr	r4, .L15
 175 0006 2146     		mov	r1, r4
 176              	.LVL13:
 177              		.loc 1 281 3 is_stmt 0 view .LVU28
 178 0008 0348     		ldr	r0, .L15+4
 179              	.LVL14:
 180              		.loc 1 281 3 view .LVU29
 181 000a FFF7FEFF 		bl	USBD_GetString
 182              	.LVL15:
 282:Src/usbd_desc.c ****   return USBD_StrDesc;
 183              		.loc 1 282 3 is_stmt 1 view .LVU30
 283:Src/usbd_desc.c **** }
 184              		.loc 1 283 1 is_stmt 0 view .LVU31
 185 000e 2046     		mov	r0, r4
 186 0010 10BD     		pop	{r4, pc}
 187              	.L16:
 188 0012 00BF     		.align	2
 189              	.L15:
 190 0014 00000000 		.word	USBD_StrDesc
 191 0018 00000000 		.word	.LC1
 192              		.cfi_endproc
 193              	.LFE69:
 195              		.section	.rodata.USBD_FS_SerialStrDescriptor.str1.4,"aMS",%progbits,1
 196              		.align	2
 197              	.LC2:
 198 0000 30303030 		.ascii	"00000000001A\000"
 198      30303030 
 198      30303141 
 198      00
 199              		.section	.text.USBD_FS_SerialStrDescriptor,"ax",%progbits
 200              		.align	1
 201              		.global	USBD_FS_SerialStrDescriptor
 202              		.syntax unified
 203              		.thumb
 204              		.thumb_func
 205              		.fpu softvfp
 207              	USBD_FS_SerialStrDescriptor:
 208              	.LVL16:
 209              	.LFB70:
 284:Src/usbd_desc.c **** 
 285:Src/usbd_desc.c **** /**
 286:Src/usbd_desc.c ****   * @brief  Return the serial number string descriptor
 287:Src/usbd_desc.c ****   * @param  speed : Current device speed
 288:Src/usbd_desc.c ****   * @param  length : Pointer to data length variable
 289:Src/usbd_desc.c ****   * @retval Pointer to descriptor buffer
 290:Src/usbd_desc.c ****   */
 291:Src/usbd_desc.c **** uint8_t * USBD_FS_SerialStrDescriptor(USBD_SpeedTypeDef speed, uint16_t *length)
 292:Src/usbd_desc.c **** {
 210              		.loc 1 292 1 is_stmt 1 view -0
 211              		.cfi_startproc
 212              		@ args = 0, pretend = 0, frame = 0
 213              		@ frame_needed = 0, uses_anonymous_args = 0
 214              		.loc 1 292 1 is_stmt 0 view .LVU33
 215 0000 08B5     		push	{r3, lr}
ARM GAS  /var/folders/rf/wfq6hz5s56g3yh4wqgd7820c0000gn/T//ccMh40b1.s 			page 10


 216              	.LCFI2:
 217              		.cfi_def_cfa_offset 8
 218              		.cfi_offset 3, -8
 219              		.cfi_offset 14, -4
 220 0002 0A46     		mov	r2, r1
 293:Src/usbd_desc.c ****   if(speed == USBD_SPEED_HIGH)
 221              		.loc 1 293 3 is_stmt 1 view .LVU34
 222              		.loc 1 293 5 is_stmt 0 view .LVU35
 223 0004 28B9     		cbnz	r0, .L18
 294:Src/usbd_desc.c ****   {
 295:Src/usbd_desc.c ****     USBD_GetString((uint8_t *)USBD_SERIALNUMBER_STRING_FS, USBD_StrDesc, length);
 224              		.loc 1 295 5 is_stmt 1 view .LVU36
 225 0006 0549     		ldr	r1, .L21
 226              	.LVL17:
 227              		.loc 1 295 5 is_stmt 0 view .LVU37
 228 0008 0548     		ldr	r0, .L21+4
 229              	.LVL18:
 230              		.loc 1 295 5 view .LVU38
 231 000a FFF7FEFF 		bl	USBD_GetString
 232              	.LVL19:
 233              	.L19:
 296:Src/usbd_desc.c ****   }
 297:Src/usbd_desc.c ****   else
 298:Src/usbd_desc.c ****   {
 299:Src/usbd_desc.c ****     USBD_GetString((uint8_t *)USBD_SERIALNUMBER_STRING_FS, USBD_StrDesc, length);
 300:Src/usbd_desc.c ****   }
 301:Src/usbd_desc.c ****   return USBD_StrDesc;
 234              		.loc 1 301 3 is_stmt 1 view .LVU39
 302:Src/usbd_desc.c **** }
 235              		.loc 1 302 1 is_stmt 0 view .LVU40
 236 000e 0348     		ldr	r0, .L21
 237 0010 08BD     		pop	{r3, pc}
 238              	.LVL20:
 239              	.L18:
 299:Src/usbd_desc.c ****   }
 240              		.loc 1 299 5 is_stmt 1 view .LVU41
 241 0012 0249     		ldr	r1, .L21
 242              	.LVL21:
 299:Src/usbd_desc.c ****   }
 243              		.loc 1 299 5 is_stmt 0 view .LVU42
 244 0014 0248     		ldr	r0, .L21+4
 245              	.LVL22:
 299:Src/usbd_desc.c ****   }
 246              		.loc 1 299 5 view .LVU43
 247 0016 FFF7FEFF 		bl	USBD_GetString
 248              	.LVL23:
 299:Src/usbd_desc.c ****   }
 249              		.loc 1 299 5 view .LVU44
 250 001a F8E7     		b	.L19
 251              	.L22:
 252              		.align	2
 253              	.L21:
 254 001c 00000000 		.word	USBD_StrDesc
 255 0020 00000000 		.word	.LC2
 256              		.cfi_endproc
 257              	.LFE70:
 259              		.section	.rodata.USBD_FS_ConfigStrDescriptor.str1.4,"aMS",%progbits,1
ARM GAS  /var/folders/rf/wfq6hz5s56g3yh4wqgd7820c0000gn/T//ccMh40b1.s 			page 11


 260              		.align	2
 261              	.LC3:
 262 0000 43444320 		.ascii	"CDC Config\000"
 262      436F6E66 
 262      696700
 263              		.section	.text.USBD_FS_ConfigStrDescriptor,"ax",%progbits
 264              		.align	1
 265              		.global	USBD_FS_ConfigStrDescriptor
 266              		.syntax unified
 267              		.thumb
 268              		.thumb_func
 269              		.fpu softvfp
 271              	USBD_FS_ConfigStrDescriptor:
 272              	.LVL24:
 273              	.LFB71:
 303:Src/usbd_desc.c **** 
 304:Src/usbd_desc.c **** /**
 305:Src/usbd_desc.c ****   * @brief  Return the configuration string descriptor
 306:Src/usbd_desc.c ****   * @param  speed : Current device speed
 307:Src/usbd_desc.c ****   * @param  length : Pointer to data length variable
 308:Src/usbd_desc.c ****   * @retval Pointer to descriptor buffer
 309:Src/usbd_desc.c ****   */
 310:Src/usbd_desc.c **** uint8_t * USBD_FS_ConfigStrDescriptor(USBD_SpeedTypeDef speed, uint16_t *length)
 311:Src/usbd_desc.c **** {
 274              		.loc 1 311 1 is_stmt 1 view -0
 275              		.cfi_startproc
 276              		@ args = 0, pretend = 0, frame = 0
 277              		@ frame_needed = 0, uses_anonymous_args = 0
 278              		.loc 1 311 1 is_stmt 0 view .LVU46
 279 0000 08B5     		push	{r3, lr}
 280              	.LCFI3:
 281              		.cfi_def_cfa_offset 8
 282              		.cfi_offset 3, -8
 283              		.cfi_offset 14, -4
 284 0002 0A46     		mov	r2, r1
 312:Src/usbd_desc.c ****   if(speed == USBD_SPEED_HIGH)
 285              		.loc 1 312 3 is_stmt 1 view .LVU47
 286              		.loc 1 312 5 is_stmt 0 view .LVU48
 287 0004 28B9     		cbnz	r0, .L24
 313:Src/usbd_desc.c ****   {
 314:Src/usbd_desc.c ****     USBD_GetString((uint8_t *)USBD_CONFIGURATION_STRING_FS, USBD_StrDesc, length);
 288              		.loc 1 314 5 is_stmt 1 view .LVU49
 289 0006 0549     		ldr	r1, .L27
 290              	.LVL25:
 291              		.loc 1 314 5 is_stmt 0 view .LVU50
 292 0008 0548     		ldr	r0, .L27+4
 293              	.LVL26:
 294              		.loc 1 314 5 view .LVU51
 295 000a FFF7FEFF 		bl	USBD_GetString
 296              	.LVL27:
 297              	.L25:
 315:Src/usbd_desc.c ****   }
 316:Src/usbd_desc.c ****   else
 317:Src/usbd_desc.c ****   {
 318:Src/usbd_desc.c ****     USBD_GetString((uint8_t *)USBD_CONFIGURATION_STRING_FS, USBD_StrDesc, length);
 319:Src/usbd_desc.c ****   }
 320:Src/usbd_desc.c ****   return USBD_StrDesc;
ARM GAS  /var/folders/rf/wfq6hz5s56g3yh4wqgd7820c0000gn/T//ccMh40b1.s 			page 12


 298              		.loc 1 320 3 is_stmt 1 view .LVU52
 321:Src/usbd_desc.c **** }
 299              		.loc 1 321 1 is_stmt 0 view .LVU53
 300 000e 0348     		ldr	r0, .L27
 301 0010 08BD     		pop	{r3, pc}
 302              	.LVL28:
 303              	.L24:
 318:Src/usbd_desc.c ****   }
 304              		.loc 1 318 5 is_stmt 1 view .LVU54
 305 0012 0249     		ldr	r1, .L27
 306              	.LVL29:
 318:Src/usbd_desc.c ****   }
 307              		.loc 1 318 5 is_stmt 0 view .LVU55
 308 0014 0248     		ldr	r0, .L27+4
 309              	.LVL30:
 318:Src/usbd_desc.c ****   }
 310              		.loc 1 318 5 view .LVU56
 311 0016 FFF7FEFF 		bl	USBD_GetString
 312              	.LVL31:
 318:Src/usbd_desc.c ****   }
 313              		.loc 1 318 5 view .LVU57
 314 001a F8E7     		b	.L25
 315              	.L28:
 316              		.align	2
 317              	.L27:
 318 001c 00000000 		.word	USBD_StrDesc
 319 0020 00000000 		.word	.LC3
 320              		.cfi_endproc
 321              	.LFE71:
 323              		.section	.rodata.USBD_FS_InterfaceStrDescriptor.str1.4,"aMS",%progbits,1
 324              		.align	2
 325              	.LC4:
 326 0000 43444320 		.ascii	"CDC Interface\000"
 326      496E7465 
 326      72666163 
 326      6500
 327              		.section	.text.USBD_FS_InterfaceStrDescriptor,"ax",%progbits
 328              		.align	1
 329              		.global	USBD_FS_InterfaceStrDescriptor
 330              		.syntax unified
 331              		.thumb
 332              		.thumb_func
 333              		.fpu softvfp
 335              	USBD_FS_InterfaceStrDescriptor:
 336              	.LVL32:
 337              	.LFB72:
 322:Src/usbd_desc.c **** 
 323:Src/usbd_desc.c **** /**
 324:Src/usbd_desc.c ****   * @brief  Return the interface string descriptor
 325:Src/usbd_desc.c ****   * @param  speed : Current device speed
 326:Src/usbd_desc.c ****   * @param  length : Pointer to data length variable
 327:Src/usbd_desc.c ****   * @retval Pointer to descriptor buffer
 328:Src/usbd_desc.c ****   */
 329:Src/usbd_desc.c **** uint8_t * USBD_FS_InterfaceStrDescriptor(USBD_SpeedTypeDef speed, uint16_t *length)
 330:Src/usbd_desc.c **** {
 338              		.loc 1 330 1 is_stmt 1 view -0
 339              		.cfi_startproc
ARM GAS  /var/folders/rf/wfq6hz5s56g3yh4wqgd7820c0000gn/T//ccMh40b1.s 			page 13


 340              		@ args = 0, pretend = 0, frame = 0
 341              		@ frame_needed = 0, uses_anonymous_args = 0
 342              		.loc 1 330 1 is_stmt 0 view .LVU59
 343 0000 08B5     		push	{r3, lr}
 344              	.LCFI4:
 345              		.cfi_def_cfa_offset 8
 346              		.cfi_offset 3, -8
 347              		.cfi_offset 14, -4
 348 0002 0A46     		mov	r2, r1
 331:Src/usbd_desc.c ****   if(speed == 0)
 349              		.loc 1 331 3 is_stmt 1 view .LVU60
 350              		.loc 1 331 5 is_stmt 0 view .LVU61
 351 0004 28B9     		cbnz	r0, .L30
 332:Src/usbd_desc.c ****   {
 333:Src/usbd_desc.c ****     USBD_GetString((uint8_t *)USBD_INTERFACE_STRING_FS, USBD_StrDesc, length);
 352              		.loc 1 333 5 is_stmt 1 view .LVU62
 353 0006 0549     		ldr	r1, .L33
 354              	.LVL33:
 355              		.loc 1 333 5 is_stmt 0 view .LVU63
 356 0008 0548     		ldr	r0, .L33+4
 357              	.LVL34:
 358              		.loc 1 333 5 view .LVU64
 359 000a FFF7FEFF 		bl	USBD_GetString
 360              	.LVL35:
 361              	.L31:
 334:Src/usbd_desc.c ****   }
 335:Src/usbd_desc.c ****   else
 336:Src/usbd_desc.c ****   {
 337:Src/usbd_desc.c ****     USBD_GetString((uint8_t *)USBD_INTERFACE_STRING_FS, USBD_StrDesc, length);
 338:Src/usbd_desc.c ****   }
 339:Src/usbd_desc.c ****   return USBD_StrDesc;
 362              		.loc 1 339 3 is_stmt 1 view .LVU65
 340:Src/usbd_desc.c **** }
 363              		.loc 1 340 1 is_stmt 0 view .LVU66
 364 000e 0348     		ldr	r0, .L33
 365 0010 08BD     		pop	{r3, pc}
 366              	.LVL36:
 367              	.L30:
 337:Src/usbd_desc.c ****   }
 368              		.loc 1 337 5 is_stmt 1 view .LVU67
 369 0012 0249     		ldr	r1, .L33
 370              	.LVL37:
 337:Src/usbd_desc.c ****   }
 371              		.loc 1 337 5 is_stmt 0 view .LVU68
 372 0014 0248     		ldr	r0, .L33+4
 373              	.LVL38:
 337:Src/usbd_desc.c ****   }
 374              		.loc 1 337 5 view .LVU69
 375 0016 FFF7FEFF 		bl	USBD_GetString
 376              	.LVL39:
 337:Src/usbd_desc.c ****   }
 377              		.loc 1 337 5 view .LVU70
 378 001a F8E7     		b	.L31
 379              	.L34:
 380              		.align	2
 381              	.L33:
 382 001c 00000000 		.word	USBD_StrDesc
ARM GAS  /var/folders/rf/wfq6hz5s56g3yh4wqgd7820c0000gn/T//ccMh40b1.s 			page 14


 383 0020 00000000 		.word	.LC4
 384              		.cfi_endproc
 385              	.LFE72:
 387              		.comm	USBD_StrDesc,512,4
 388              		.global	USBD_LangIDDesc
 389              		.global	USBD_FS_DeviceDesc
 390              		.global	FS_Desc
 391              		.section	.data.FS_Desc,"aw"
 392              		.align	2
 395              	FS_Desc:
 396 0000 00000000 		.word	USBD_FS_DeviceDescriptor
 397 0004 00000000 		.word	USBD_FS_LangIDStrDescriptor
 398 0008 00000000 		.word	USBD_FS_ManufacturerStrDescriptor
 399 000c 00000000 		.word	USBD_FS_ProductStrDescriptor
 400 0010 00000000 		.word	USBD_FS_SerialStrDescriptor
 401 0014 00000000 		.word	USBD_FS_ConfigStrDescriptor
 402 0018 00000000 		.word	USBD_FS_InterfaceStrDescriptor
 403              		.section	.data.USBD_FS_DeviceDesc,"aw"
 404              		.align	2
 405              		.set	.LANCHOR0,. + 0
 408              	USBD_FS_DeviceDesc:
 409 0000 12010002 		.ascii	"\022\001\000\002\002\002\000@\203\004@W\000\002\001"
 409      02020040 
 409      83044057 
 409      000201
 410 000f 020301   		.ascii	"\002\003\001"
 411              		.section	.data.USBD_LangIDDesc,"aw"
 412              		.align	2
 413              		.set	.LANCHOR1,. + 0
 416              	USBD_LangIDDesc:
 417 0000 04030904 		.ascii	"\004\003\011\004"
 418              		.text
 419              	.Letext0:
 420              		.file 2 "/usr/local/Cellar/arm-gcc-bin/9-2019-q4-major/arm-none-eabi/include/machine/_default_type
 421              		.file 3 "/usr/local/Cellar/arm-gcc-bin/9-2019-q4-major/arm-none-eabi/include/sys/lock.h"
 422              		.file 4 "/usr/local/Cellar/arm-gcc-bin/9-2019-q4-major/arm-none-eabi/include/sys/_types.h"
 423              		.file 5 "/usr/local/Cellar/arm-gcc-bin/9-2019-q4-major/lib/gcc/arm-none-eabi/9.2.1/include/stddef.
 424              		.file 6 "/usr/local/Cellar/arm-gcc-bin/9-2019-q4-major/arm-none-eabi/include/sys/reent.h"
 425              		.file 7 "/usr/local/Cellar/arm-gcc-bin/9-2019-q4-major/arm-none-eabi/include/sys/_stdint.h"
 426              		.file 8 "/usr/local/Cellar/arm-gcc-bin/9-2019-q4-major/arm-none-eabi/include/stdlib.h"
 427              		.file 9 "Drivers/CMSIS/Include/core_cm3.h"
 428              		.file 10 "Drivers/CMSIS/Device/ST/STM32F1xx/Include/system_stm32f1xx.h"
 429              		.file 11 "Middlewares/ST/STM32_USB_Device_Library/Core/Inc/usbd_def.h"
 430              		.file 12 "Inc/usbd_desc.h"
 431              		.file 13 "Middlewares/ST/STM32_USB_Device_Library/Core/Inc/usbd_ctlreq.h"
ARM GAS  /var/folders/rf/wfq6hz5s56g3yh4wqgd7820c0000gn/T//ccMh40b1.s 			page 15

