ARM GAS  /var/folders/rf/wfq6hz5s56g3yh4wqgd7820c0000gn/T//ccoNHwng.s 			page 1


   1              		.cpu cortex-m3
   2              		.eabi_attribute 20, 1
   3              		.eabi_attribute 21, 1
   4              		.eabi_attribute 23, 3
   5              		.eabi_attribute 24, 1
   6              		.eabi_attribute 25, 1
   7              		.eabi_attribute 26, 1
   8              		.eabi_attribute 30, 1
   9              		.eabi_attribute 34, 1
  10              		.eabi_attribute 18, 4
  11              		.file	"usbd_ctlreq.c"
  12              		.text
  13              	.Ltext0:
  14              		.cfi_sections	.debug_frame
  15              		.section	.text.USBD_GetLen,"ax",%progbits
  16              		.align	1
  17              		.arch armv7-m
  18              		.syntax unified
  19              		.thumb
  20              		.thumb_func
  21              		.fpu softvfp
  23              	USBD_GetLen:
  24              	.LVL0:
  25              	.LFB79:
  26              		.file 1 "Middlewares/ST/STM32_USB_Device_Library/Core/Src/usbd_ctlreq.c"
   1:Middlewares/ST/STM32_USB_Device_Library/Core/Src/usbd_ctlreq.c **** /**
   2:Middlewares/ST/STM32_USB_Device_Library/Core/Src/usbd_ctlreq.c ****   ******************************************************************************
   3:Middlewares/ST/STM32_USB_Device_Library/Core/Src/usbd_ctlreq.c ****   * @file    usbd_req.c
   4:Middlewares/ST/STM32_USB_Device_Library/Core/Src/usbd_ctlreq.c ****   * @author  MCD Application Team
   5:Middlewares/ST/STM32_USB_Device_Library/Core/Src/usbd_ctlreq.c ****   * @version V2.4.2
   6:Middlewares/ST/STM32_USB_Device_Library/Core/Src/usbd_ctlreq.c ****   * @date    11-December-2015 
   7:Middlewares/ST/STM32_USB_Device_Library/Core/Src/usbd_ctlreq.c ****   * @brief   This file provides the standard USB requests following chapter 9.
   8:Middlewares/ST/STM32_USB_Device_Library/Core/Src/usbd_ctlreq.c ****   ******************************************************************************
   9:Middlewares/ST/STM32_USB_Device_Library/Core/Src/usbd_ctlreq.c ****   * @attention
  10:Middlewares/ST/STM32_USB_Device_Library/Core/Src/usbd_ctlreq.c ****   *
  11:Middlewares/ST/STM32_USB_Device_Library/Core/Src/usbd_ctlreq.c ****   * <h2><center>&copy; COPYRIGHT 2015 STMicroelectronics</center></h2>
  12:Middlewares/ST/STM32_USB_Device_Library/Core/Src/usbd_ctlreq.c ****   *
  13:Middlewares/ST/STM32_USB_Device_Library/Core/Src/usbd_ctlreq.c ****   * Licensed under MCD-ST Liberty SW License Agreement V2, (the "License");
  14:Middlewares/ST/STM32_USB_Device_Library/Core/Src/usbd_ctlreq.c ****   * You may not use this file except in compliance with the License.
  15:Middlewares/ST/STM32_USB_Device_Library/Core/Src/usbd_ctlreq.c ****   * You may obtain a copy of the License at:
  16:Middlewares/ST/STM32_USB_Device_Library/Core/Src/usbd_ctlreq.c ****   *
  17:Middlewares/ST/STM32_USB_Device_Library/Core/Src/usbd_ctlreq.c ****   *        http://www.st.com/software_license_agreement_liberty_v2
  18:Middlewares/ST/STM32_USB_Device_Library/Core/Src/usbd_ctlreq.c ****   *
  19:Middlewares/ST/STM32_USB_Device_Library/Core/Src/usbd_ctlreq.c ****   * Unless required by applicable law or agreed to in writing, software 
  20:Middlewares/ST/STM32_USB_Device_Library/Core/Src/usbd_ctlreq.c ****   * distributed under the License is distributed on an "AS IS" BASIS, 
  21:Middlewares/ST/STM32_USB_Device_Library/Core/Src/usbd_ctlreq.c ****   * WITHOUT WARRANTIES OR CONDITIONS OF ANY KIND, either express or implied.
  22:Middlewares/ST/STM32_USB_Device_Library/Core/Src/usbd_ctlreq.c ****   * See the License for the specific language governing permissions and
  23:Middlewares/ST/STM32_USB_Device_Library/Core/Src/usbd_ctlreq.c ****   * limitations under the License.
  24:Middlewares/ST/STM32_USB_Device_Library/Core/Src/usbd_ctlreq.c ****   *
  25:Middlewares/ST/STM32_USB_Device_Library/Core/Src/usbd_ctlreq.c ****   ******************************************************************************
  26:Middlewares/ST/STM32_USB_Device_Library/Core/Src/usbd_ctlreq.c ****   */ 
  27:Middlewares/ST/STM32_USB_Device_Library/Core/Src/usbd_ctlreq.c **** 
  28:Middlewares/ST/STM32_USB_Device_Library/Core/Src/usbd_ctlreq.c **** /* Includes ------------------------------------------------------------------*/
  29:Middlewares/ST/STM32_USB_Device_Library/Core/Src/usbd_ctlreq.c **** #include "usbd_ctlreq.h"
  30:Middlewares/ST/STM32_USB_Device_Library/Core/Src/usbd_ctlreq.c **** #include "usbd_ioreq.h"
  31:Middlewares/ST/STM32_USB_Device_Library/Core/Src/usbd_ctlreq.c **** 
  32:Middlewares/ST/STM32_USB_Device_Library/Core/Src/usbd_ctlreq.c **** 
ARM GAS  /var/folders/rf/wfq6hz5s56g3yh4wqgd7820c0000gn/T//ccoNHwng.s 			page 2


  33:Middlewares/ST/STM32_USB_Device_Library/Core/Src/usbd_ctlreq.c **** /** @addtogroup STM32_USBD_STATE_DEVICE_LIBRARY
  34:Middlewares/ST/STM32_USB_Device_Library/Core/Src/usbd_ctlreq.c ****   * @{
  35:Middlewares/ST/STM32_USB_Device_Library/Core/Src/usbd_ctlreq.c ****   */
  36:Middlewares/ST/STM32_USB_Device_Library/Core/Src/usbd_ctlreq.c **** 
  37:Middlewares/ST/STM32_USB_Device_Library/Core/Src/usbd_ctlreq.c **** 
  38:Middlewares/ST/STM32_USB_Device_Library/Core/Src/usbd_ctlreq.c **** /** @defgroup USBD_REQ 
  39:Middlewares/ST/STM32_USB_Device_Library/Core/Src/usbd_ctlreq.c ****   * @brief USB standard requests module
  40:Middlewares/ST/STM32_USB_Device_Library/Core/Src/usbd_ctlreq.c ****   * @{
  41:Middlewares/ST/STM32_USB_Device_Library/Core/Src/usbd_ctlreq.c ****   */ 
  42:Middlewares/ST/STM32_USB_Device_Library/Core/Src/usbd_ctlreq.c **** 
  43:Middlewares/ST/STM32_USB_Device_Library/Core/Src/usbd_ctlreq.c **** /** @defgroup USBD_REQ_Private_TypesDefinitions
  44:Middlewares/ST/STM32_USB_Device_Library/Core/Src/usbd_ctlreq.c ****   * @{
  45:Middlewares/ST/STM32_USB_Device_Library/Core/Src/usbd_ctlreq.c ****   */ 
  46:Middlewares/ST/STM32_USB_Device_Library/Core/Src/usbd_ctlreq.c **** /**
  47:Middlewares/ST/STM32_USB_Device_Library/Core/Src/usbd_ctlreq.c ****   * @}
  48:Middlewares/ST/STM32_USB_Device_Library/Core/Src/usbd_ctlreq.c ****   */ 
  49:Middlewares/ST/STM32_USB_Device_Library/Core/Src/usbd_ctlreq.c **** 
  50:Middlewares/ST/STM32_USB_Device_Library/Core/Src/usbd_ctlreq.c **** 
  51:Middlewares/ST/STM32_USB_Device_Library/Core/Src/usbd_ctlreq.c **** /** @defgroup USBD_REQ_Private_Defines
  52:Middlewares/ST/STM32_USB_Device_Library/Core/Src/usbd_ctlreq.c ****   * @{
  53:Middlewares/ST/STM32_USB_Device_Library/Core/Src/usbd_ctlreq.c ****   */ 
  54:Middlewares/ST/STM32_USB_Device_Library/Core/Src/usbd_ctlreq.c **** 
  55:Middlewares/ST/STM32_USB_Device_Library/Core/Src/usbd_ctlreq.c **** /**
  56:Middlewares/ST/STM32_USB_Device_Library/Core/Src/usbd_ctlreq.c ****   * @}
  57:Middlewares/ST/STM32_USB_Device_Library/Core/Src/usbd_ctlreq.c ****   */ 
  58:Middlewares/ST/STM32_USB_Device_Library/Core/Src/usbd_ctlreq.c **** 
  59:Middlewares/ST/STM32_USB_Device_Library/Core/Src/usbd_ctlreq.c **** 
  60:Middlewares/ST/STM32_USB_Device_Library/Core/Src/usbd_ctlreq.c **** /** @defgroup USBD_REQ_Private_Macros
  61:Middlewares/ST/STM32_USB_Device_Library/Core/Src/usbd_ctlreq.c ****   * @{
  62:Middlewares/ST/STM32_USB_Device_Library/Core/Src/usbd_ctlreq.c ****   */ 
  63:Middlewares/ST/STM32_USB_Device_Library/Core/Src/usbd_ctlreq.c **** /**
  64:Middlewares/ST/STM32_USB_Device_Library/Core/Src/usbd_ctlreq.c ****   * @}
  65:Middlewares/ST/STM32_USB_Device_Library/Core/Src/usbd_ctlreq.c ****   */ 
  66:Middlewares/ST/STM32_USB_Device_Library/Core/Src/usbd_ctlreq.c **** 
  67:Middlewares/ST/STM32_USB_Device_Library/Core/Src/usbd_ctlreq.c **** 
  68:Middlewares/ST/STM32_USB_Device_Library/Core/Src/usbd_ctlreq.c **** /** @defgroup USBD_REQ_Private_Variables
  69:Middlewares/ST/STM32_USB_Device_Library/Core/Src/usbd_ctlreq.c ****   * @{
  70:Middlewares/ST/STM32_USB_Device_Library/Core/Src/usbd_ctlreq.c ****   */ 
  71:Middlewares/ST/STM32_USB_Device_Library/Core/Src/usbd_ctlreq.c **** /**
  72:Middlewares/ST/STM32_USB_Device_Library/Core/Src/usbd_ctlreq.c ****   * @}
  73:Middlewares/ST/STM32_USB_Device_Library/Core/Src/usbd_ctlreq.c ****   */ 
  74:Middlewares/ST/STM32_USB_Device_Library/Core/Src/usbd_ctlreq.c **** 
  75:Middlewares/ST/STM32_USB_Device_Library/Core/Src/usbd_ctlreq.c **** 
  76:Middlewares/ST/STM32_USB_Device_Library/Core/Src/usbd_ctlreq.c **** /** @defgroup USBD_REQ_Private_FunctionPrototypes
  77:Middlewares/ST/STM32_USB_Device_Library/Core/Src/usbd_ctlreq.c ****   * @{
  78:Middlewares/ST/STM32_USB_Device_Library/Core/Src/usbd_ctlreq.c ****   */ 
  79:Middlewares/ST/STM32_USB_Device_Library/Core/Src/usbd_ctlreq.c **** static void USBD_GetDescriptor(USBD_HandleTypeDef *pdev , 
  80:Middlewares/ST/STM32_USB_Device_Library/Core/Src/usbd_ctlreq.c ****                                USBD_SetupReqTypedef *req);
  81:Middlewares/ST/STM32_USB_Device_Library/Core/Src/usbd_ctlreq.c **** 
  82:Middlewares/ST/STM32_USB_Device_Library/Core/Src/usbd_ctlreq.c **** static void USBD_SetAddress(USBD_HandleTypeDef *pdev , 
  83:Middlewares/ST/STM32_USB_Device_Library/Core/Src/usbd_ctlreq.c ****                             USBD_SetupReqTypedef *req);
  84:Middlewares/ST/STM32_USB_Device_Library/Core/Src/usbd_ctlreq.c **** 
  85:Middlewares/ST/STM32_USB_Device_Library/Core/Src/usbd_ctlreq.c **** static void USBD_SetConfig(USBD_HandleTypeDef *pdev , 
  86:Middlewares/ST/STM32_USB_Device_Library/Core/Src/usbd_ctlreq.c ****                            USBD_SetupReqTypedef *req);
  87:Middlewares/ST/STM32_USB_Device_Library/Core/Src/usbd_ctlreq.c **** 
  88:Middlewares/ST/STM32_USB_Device_Library/Core/Src/usbd_ctlreq.c **** static void USBD_GetConfig(USBD_HandleTypeDef *pdev , 
  89:Middlewares/ST/STM32_USB_Device_Library/Core/Src/usbd_ctlreq.c ****                            USBD_SetupReqTypedef *req);
ARM GAS  /var/folders/rf/wfq6hz5s56g3yh4wqgd7820c0000gn/T//ccoNHwng.s 			page 3


  90:Middlewares/ST/STM32_USB_Device_Library/Core/Src/usbd_ctlreq.c **** 
  91:Middlewares/ST/STM32_USB_Device_Library/Core/Src/usbd_ctlreq.c **** static void USBD_GetStatus(USBD_HandleTypeDef *pdev , 
  92:Middlewares/ST/STM32_USB_Device_Library/Core/Src/usbd_ctlreq.c ****                            USBD_SetupReqTypedef *req);
  93:Middlewares/ST/STM32_USB_Device_Library/Core/Src/usbd_ctlreq.c **** 
  94:Middlewares/ST/STM32_USB_Device_Library/Core/Src/usbd_ctlreq.c **** static void USBD_SetFeature(USBD_HandleTypeDef *pdev , 
  95:Middlewares/ST/STM32_USB_Device_Library/Core/Src/usbd_ctlreq.c ****                             USBD_SetupReqTypedef *req);
  96:Middlewares/ST/STM32_USB_Device_Library/Core/Src/usbd_ctlreq.c **** 
  97:Middlewares/ST/STM32_USB_Device_Library/Core/Src/usbd_ctlreq.c **** static void USBD_ClrFeature(USBD_HandleTypeDef *pdev , 
  98:Middlewares/ST/STM32_USB_Device_Library/Core/Src/usbd_ctlreq.c ****                             USBD_SetupReqTypedef *req);
  99:Middlewares/ST/STM32_USB_Device_Library/Core/Src/usbd_ctlreq.c **** 
 100:Middlewares/ST/STM32_USB_Device_Library/Core/Src/usbd_ctlreq.c **** static uint8_t USBD_GetLen(uint8_t *buf);
 101:Middlewares/ST/STM32_USB_Device_Library/Core/Src/usbd_ctlreq.c **** 
 102:Middlewares/ST/STM32_USB_Device_Library/Core/Src/usbd_ctlreq.c **** /**
 103:Middlewares/ST/STM32_USB_Device_Library/Core/Src/usbd_ctlreq.c ****   * @}
 104:Middlewares/ST/STM32_USB_Device_Library/Core/Src/usbd_ctlreq.c ****   */ 
 105:Middlewares/ST/STM32_USB_Device_Library/Core/Src/usbd_ctlreq.c **** 
 106:Middlewares/ST/STM32_USB_Device_Library/Core/Src/usbd_ctlreq.c **** 
 107:Middlewares/ST/STM32_USB_Device_Library/Core/Src/usbd_ctlreq.c **** /** @defgroup USBD_REQ_Private_Functions
 108:Middlewares/ST/STM32_USB_Device_Library/Core/Src/usbd_ctlreq.c ****   * @{
 109:Middlewares/ST/STM32_USB_Device_Library/Core/Src/usbd_ctlreq.c ****   */ 
 110:Middlewares/ST/STM32_USB_Device_Library/Core/Src/usbd_ctlreq.c **** 
 111:Middlewares/ST/STM32_USB_Device_Library/Core/Src/usbd_ctlreq.c **** 
 112:Middlewares/ST/STM32_USB_Device_Library/Core/Src/usbd_ctlreq.c **** /**
 113:Middlewares/ST/STM32_USB_Device_Library/Core/Src/usbd_ctlreq.c **** * @brief  USBD_StdDevReq
 114:Middlewares/ST/STM32_USB_Device_Library/Core/Src/usbd_ctlreq.c **** *         Handle standard usb device requests
 115:Middlewares/ST/STM32_USB_Device_Library/Core/Src/usbd_ctlreq.c **** * @param  pdev: device instance
 116:Middlewares/ST/STM32_USB_Device_Library/Core/Src/usbd_ctlreq.c **** * @param  req: usb request
 117:Middlewares/ST/STM32_USB_Device_Library/Core/Src/usbd_ctlreq.c **** * @retval status
 118:Middlewares/ST/STM32_USB_Device_Library/Core/Src/usbd_ctlreq.c **** */
 119:Middlewares/ST/STM32_USB_Device_Library/Core/Src/usbd_ctlreq.c **** USBD_StatusTypeDef  USBD_StdDevReq (USBD_HandleTypeDef *pdev , USBD_SetupReqTypedef  *req)
 120:Middlewares/ST/STM32_USB_Device_Library/Core/Src/usbd_ctlreq.c **** {
 121:Middlewares/ST/STM32_USB_Device_Library/Core/Src/usbd_ctlreq.c ****   USBD_StatusTypeDef ret = USBD_OK;  
 122:Middlewares/ST/STM32_USB_Device_Library/Core/Src/usbd_ctlreq.c ****   
 123:Middlewares/ST/STM32_USB_Device_Library/Core/Src/usbd_ctlreq.c ****   switch (req->bRequest) 
 124:Middlewares/ST/STM32_USB_Device_Library/Core/Src/usbd_ctlreq.c ****   {
 125:Middlewares/ST/STM32_USB_Device_Library/Core/Src/usbd_ctlreq.c ****   case USB_REQ_GET_DESCRIPTOR: 
 126:Middlewares/ST/STM32_USB_Device_Library/Core/Src/usbd_ctlreq.c ****     
 127:Middlewares/ST/STM32_USB_Device_Library/Core/Src/usbd_ctlreq.c ****     USBD_GetDescriptor (pdev, req) ;
 128:Middlewares/ST/STM32_USB_Device_Library/Core/Src/usbd_ctlreq.c ****     break;
 129:Middlewares/ST/STM32_USB_Device_Library/Core/Src/usbd_ctlreq.c ****     
 130:Middlewares/ST/STM32_USB_Device_Library/Core/Src/usbd_ctlreq.c ****   case USB_REQ_SET_ADDRESS:                      
 131:Middlewares/ST/STM32_USB_Device_Library/Core/Src/usbd_ctlreq.c ****     USBD_SetAddress(pdev, req);
 132:Middlewares/ST/STM32_USB_Device_Library/Core/Src/usbd_ctlreq.c ****     break;
 133:Middlewares/ST/STM32_USB_Device_Library/Core/Src/usbd_ctlreq.c ****     
 134:Middlewares/ST/STM32_USB_Device_Library/Core/Src/usbd_ctlreq.c ****   case USB_REQ_SET_CONFIGURATION:                    
 135:Middlewares/ST/STM32_USB_Device_Library/Core/Src/usbd_ctlreq.c ****     USBD_SetConfig (pdev , req);
 136:Middlewares/ST/STM32_USB_Device_Library/Core/Src/usbd_ctlreq.c ****     break;
 137:Middlewares/ST/STM32_USB_Device_Library/Core/Src/usbd_ctlreq.c ****     
 138:Middlewares/ST/STM32_USB_Device_Library/Core/Src/usbd_ctlreq.c ****   case USB_REQ_GET_CONFIGURATION:                 
 139:Middlewares/ST/STM32_USB_Device_Library/Core/Src/usbd_ctlreq.c ****     USBD_GetConfig (pdev , req);
 140:Middlewares/ST/STM32_USB_Device_Library/Core/Src/usbd_ctlreq.c ****     break;
 141:Middlewares/ST/STM32_USB_Device_Library/Core/Src/usbd_ctlreq.c ****     
 142:Middlewares/ST/STM32_USB_Device_Library/Core/Src/usbd_ctlreq.c ****   case USB_REQ_GET_STATUS:                                  
 143:Middlewares/ST/STM32_USB_Device_Library/Core/Src/usbd_ctlreq.c ****     USBD_GetStatus (pdev , req);
 144:Middlewares/ST/STM32_USB_Device_Library/Core/Src/usbd_ctlreq.c ****     break;
 145:Middlewares/ST/STM32_USB_Device_Library/Core/Src/usbd_ctlreq.c ****     
 146:Middlewares/ST/STM32_USB_Device_Library/Core/Src/usbd_ctlreq.c ****     
ARM GAS  /var/folders/rf/wfq6hz5s56g3yh4wqgd7820c0000gn/T//ccoNHwng.s 			page 4


 147:Middlewares/ST/STM32_USB_Device_Library/Core/Src/usbd_ctlreq.c ****   case USB_REQ_SET_FEATURE:   
 148:Middlewares/ST/STM32_USB_Device_Library/Core/Src/usbd_ctlreq.c ****     USBD_SetFeature (pdev , req);    
 149:Middlewares/ST/STM32_USB_Device_Library/Core/Src/usbd_ctlreq.c ****     break;
 150:Middlewares/ST/STM32_USB_Device_Library/Core/Src/usbd_ctlreq.c ****     
 151:Middlewares/ST/STM32_USB_Device_Library/Core/Src/usbd_ctlreq.c ****   case USB_REQ_CLEAR_FEATURE:                                   
 152:Middlewares/ST/STM32_USB_Device_Library/Core/Src/usbd_ctlreq.c ****     USBD_ClrFeature (pdev , req);
 153:Middlewares/ST/STM32_USB_Device_Library/Core/Src/usbd_ctlreq.c ****     break;
 154:Middlewares/ST/STM32_USB_Device_Library/Core/Src/usbd_ctlreq.c ****     
 155:Middlewares/ST/STM32_USB_Device_Library/Core/Src/usbd_ctlreq.c ****   default:  
 156:Middlewares/ST/STM32_USB_Device_Library/Core/Src/usbd_ctlreq.c ****     USBD_CtlError(pdev , req);
 157:Middlewares/ST/STM32_USB_Device_Library/Core/Src/usbd_ctlreq.c ****     break;
 158:Middlewares/ST/STM32_USB_Device_Library/Core/Src/usbd_ctlreq.c ****   }
 159:Middlewares/ST/STM32_USB_Device_Library/Core/Src/usbd_ctlreq.c ****   
 160:Middlewares/ST/STM32_USB_Device_Library/Core/Src/usbd_ctlreq.c ****   return ret;
 161:Middlewares/ST/STM32_USB_Device_Library/Core/Src/usbd_ctlreq.c **** }
 162:Middlewares/ST/STM32_USB_Device_Library/Core/Src/usbd_ctlreq.c **** 
 163:Middlewares/ST/STM32_USB_Device_Library/Core/Src/usbd_ctlreq.c **** /**
 164:Middlewares/ST/STM32_USB_Device_Library/Core/Src/usbd_ctlreq.c **** * @brief  USBD_StdItfReq
 165:Middlewares/ST/STM32_USB_Device_Library/Core/Src/usbd_ctlreq.c **** *         Handle standard usb interface requests
 166:Middlewares/ST/STM32_USB_Device_Library/Core/Src/usbd_ctlreq.c **** * @param  pdev: device instance
 167:Middlewares/ST/STM32_USB_Device_Library/Core/Src/usbd_ctlreq.c **** * @param  req: usb request
 168:Middlewares/ST/STM32_USB_Device_Library/Core/Src/usbd_ctlreq.c **** * @retval status
 169:Middlewares/ST/STM32_USB_Device_Library/Core/Src/usbd_ctlreq.c **** */
 170:Middlewares/ST/STM32_USB_Device_Library/Core/Src/usbd_ctlreq.c **** USBD_StatusTypeDef  USBD_StdItfReq (USBD_HandleTypeDef *pdev , USBD_SetupReqTypedef  *req)
 171:Middlewares/ST/STM32_USB_Device_Library/Core/Src/usbd_ctlreq.c **** {
 172:Middlewares/ST/STM32_USB_Device_Library/Core/Src/usbd_ctlreq.c ****   USBD_StatusTypeDef ret = USBD_OK; 
 173:Middlewares/ST/STM32_USB_Device_Library/Core/Src/usbd_ctlreq.c ****   
 174:Middlewares/ST/STM32_USB_Device_Library/Core/Src/usbd_ctlreq.c ****   switch (pdev->dev_state) 
 175:Middlewares/ST/STM32_USB_Device_Library/Core/Src/usbd_ctlreq.c ****   {
 176:Middlewares/ST/STM32_USB_Device_Library/Core/Src/usbd_ctlreq.c ****   case USBD_STATE_CONFIGURED:
 177:Middlewares/ST/STM32_USB_Device_Library/Core/Src/usbd_ctlreq.c ****     
 178:Middlewares/ST/STM32_USB_Device_Library/Core/Src/usbd_ctlreq.c ****     if (LOBYTE(req->wIndex) <= USBD_MAX_NUM_INTERFACES) 
 179:Middlewares/ST/STM32_USB_Device_Library/Core/Src/usbd_ctlreq.c ****     {
 180:Middlewares/ST/STM32_USB_Device_Library/Core/Src/usbd_ctlreq.c ****       pdev->pClass->Setup (pdev, req); 
 181:Middlewares/ST/STM32_USB_Device_Library/Core/Src/usbd_ctlreq.c ****       
 182:Middlewares/ST/STM32_USB_Device_Library/Core/Src/usbd_ctlreq.c ****       if((req->wLength == 0)&& (ret == USBD_OK))
 183:Middlewares/ST/STM32_USB_Device_Library/Core/Src/usbd_ctlreq.c ****       {
 184:Middlewares/ST/STM32_USB_Device_Library/Core/Src/usbd_ctlreq.c ****          USBD_CtlSendStatus(pdev);
 185:Middlewares/ST/STM32_USB_Device_Library/Core/Src/usbd_ctlreq.c ****       }
 186:Middlewares/ST/STM32_USB_Device_Library/Core/Src/usbd_ctlreq.c ****     } 
 187:Middlewares/ST/STM32_USB_Device_Library/Core/Src/usbd_ctlreq.c ****     else 
 188:Middlewares/ST/STM32_USB_Device_Library/Core/Src/usbd_ctlreq.c ****     {                                               
 189:Middlewares/ST/STM32_USB_Device_Library/Core/Src/usbd_ctlreq.c ****        USBD_CtlError(pdev , req);
 190:Middlewares/ST/STM32_USB_Device_Library/Core/Src/usbd_ctlreq.c ****     }
 191:Middlewares/ST/STM32_USB_Device_Library/Core/Src/usbd_ctlreq.c ****     break;
 192:Middlewares/ST/STM32_USB_Device_Library/Core/Src/usbd_ctlreq.c ****     
 193:Middlewares/ST/STM32_USB_Device_Library/Core/Src/usbd_ctlreq.c ****   default:
 194:Middlewares/ST/STM32_USB_Device_Library/Core/Src/usbd_ctlreq.c ****      USBD_CtlError(pdev , req);
 195:Middlewares/ST/STM32_USB_Device_Library/Core/Src/usbd_ctlreq.c ****     break;
 196:Middlewares/ST/STM32_USB_Device_Library/Core/Src/usbd_ctlreq.c ****   }
 197:Middlewares/ST/STM32_USB_Device_Library/Core/Src/usbd_ctlreq.c ****   return USBD_OK;
 198:Middlewares/ST/STM32_USB_Device_Library/Core/Src/usbd_ctlreq.c **** }
 199:Middlewares/ST/STM32_USB_Device_Library/Core/Src/usbd_ctlreq.c **** 
 200:Middlewares/ST/STM32_USB_Device_Library/Core/Src/usbd_ctlreq.c **** /**
 201:Middlewares/ST/STM32_USB_Device_Library/Core/Src/usbd_ctlreq.c **** * @brief  USBD_StdEPReq
 202:Middlewares/ST/STM32_USB_Device_Library/Core/Src/usbd_ctlreq.c **** *         Handle standard usb endpoint requests
 203:Middlewares/ST/STM32_USB_Device_Library/Core/Src/usbd_ctlreq.c **** * @param  pdev: device instance
ARM GAS  /var/folders/rf/wfq6hz5s56g3yh4wqgd7820c0000gn/T//ccoNHwng.s 			page 5


 204:Middlewares/ST/STM32_USB_Device_Library/Core/Src/usbd_ctlreq.c **** * @param  req: usb request
 205:Middlewares/ST/STM32_USB_Device_Library/Core/Src/usbd_ctlreq.c **** * @retval status
 206:Middlewares/ST/STM32_USB_Device_Library/Core/Src/usbd_ctlreq.c **** */
 207:Middlewares/ST/STM32_USB_Device_Library/Core/Src/usbd_ctlreq.c **** USBD_StatusTypeDef  USBD_StdEPReq (USBD_HandleTypeDef *pdev , USBD_SetupReqTypedef  *req)
 208:Middlewares/ST/STM32_USB_Device_Library/Core/Src/usbd_ctlreq.c **** {
 209:Middlewares/ST/STM32_USB_Device_Library/Core/Src/usbd_ctlreq.c ****   
 210:Middlewares/ST/STM32_USB_Device_Library/Core/Src/usbd_ctlreq.c ****   uint8_t   ep_addr;
 211:Middlewares/ST/STM32_USB_Device_Library/Core/Src/usbd_ctlreq.c ****   USBD_StatusTypeDef ret = USBD_OK; 
 212:Middlewares/ST/STM32_USB_Device_Library/Core/Src/usbd_ctlreq.c ****   USBD_EndpointTypeDef   *pep;
 213:Middlewares/ST/STM32_USB_Device_Library/Core/Src/usbd_ctlreq.c ****   ep_addr  = LOBYTE(req->wIndex);   
 214:Middlewares/ST/STM32_USB_Device_Library/Core/Src/usbd_ctlreq.c ****   
 215:Middlewares/ST/STM32_USB_Device_Library/Core/Src/usbd_ctlreq.c ****   /* Check if it is a class request */
 216:Middlewares/ST/STM32_USB_Device_Library/Core/Src/usbd_ctlreq.c ****   if ((req->bmRequest & 0x60) == 0x20)
 217:Middlewares/ST/STM32_USB_Device_Library/Core/Src/usbd_ctlreq.c ****   {
 218:Middlewares/ST/STM32_USB_Device_Library/Core/Src/usbd_ctlreq.c ****     pdev->pClass->Setup (pdev, req);
 219:Middlewares/ST/STM32_USB_Device_Library/Core/Src/usbd_ctlreq.c ****     
 220:Middlewares/ST/STM32_USB_Device_Library/Core/Src/usbd_ctlreq.c ****     return USBD_OK;
 221:Middlewares/ST/STM32_USB_Device_Library/Core/Src/usbd_ctlreq.c ****   }
 222:Middlewares/ST/STM32_USB_Device_Library/Core/Src/usbd_ctlreq.c ****   
 223:Middlewares/ST/STM32_USB_Device_Library/Core/Src/usbd_ctlreq.c ****   switch (req->bRequest) 
 224:Middlewares/ST/STM32_USB_Device_Library/Core/Src/usbd_ctlreq.c ****   {
 225:Middlewares/ST/STM32_USB_Device_Library/Core/Src/usbd_ctlreq.c ****     
 226:Middlewares/ST/STM32_USB_Device_Library/Core/Src/usbd_ctlreq.c ****   case USB_REQ_SET_FEATURE :
 227:Middlewares/ST/STM32_USB_Device_Library/Core/Src/usbd_ctlreq.c ****     
 228:Middlewares/ST/STM32_USB_Device_Library/Core/Src/usbd_ctlreq.c ****     switch (pdev->dev_state) 
 229:Middlewares/ST/STM32_USB_Device_Library/Core/Src/usbd_ctlreq.c ****     {
 230:Middlewares/ST/STM32_USB_Device_Library/Core/Src/usbd_ctlreq.c ****     case USBD_STATE_ADDRESSED:          
 231:Middlewares/ST/STM32_USB_Device_Library/Core/Src/usbd_ctlreq.c ****       if ((ep_addr != 0x00) && (ep_addr != 0x80)) 
 232:Middlewares/ST/STM32_USB_Device_Library/Core/Src/usbd_ctlreq.c ****       {
 233:Middlewares/ST/STM32_USB_Device_Library/Core/Src/usbd_ctlreq.c ****         USBD_LL_StallEP(pdev , ep_addr);
 234:Middlewares/ST/STM32_USB_Device_Library/Core/Src/usbd_ctlreq.c ****       }
 235:Middlewares/ST/STM32_USB_Device_Library/Core/Src/usbd_ctlreq.c ****       break;	
 236:Middlewares/ST/STM32_USB_Device_Library/Core/Src/usbd_ctlreq.c ****       
 237:Middlewares/ST/STM32_USB_Device_Library/Core/Src/usbd_ctlreq.c ****     case USBD_STATE_CONFIGURED:   
 238:Middlewares/ST/STM32_USB_Device_Library/Core/Src/usbd_ctlreq.c ****       if (req->wValue == USB_FEATURE_EP_HALT)
 239:Middlewares/ST/STM32_USB_Device_Library/Core/Src/usbd_ctlreq.c ****       {
 240:Middlewares/ST/STM32_USB_Device_Library/Core/Src/usbd_ctlreq.c ****         if ((ep_addr != 0x00) && (ep_addr != 0x80)) 
 241:Middlewares/ST/STM32_USB_Device_Library/Core/Src/usbd_ctlreq.c ****         { 
 242:Middlewares/ST/STM32_USB_Device_Library/Core/Src/usbd_ctlreq.c ****           USBD_LL_StallEP(pdev , ep_addr);
 243:Middlewares/ST/STM32_USB_Device_Library/Core/Src/usbd_ctlreq.c ****           
 244:Middlewares/ST/STM32_USB_Device_Library/Core/Src/usbd_ctlreq.c ****         }
 245:Middlewares/ST/STM32_USB_Device_Library/Core/Src/usbd_ctlreq.c ****       }
 246:Middlewares/ST/STM32_USB_Device_Library/Core/Src/usbd_ctlreq.c ****       pdev->pClass->Setup (pdev, req);   
 247:Middlewares/ST/STM32_USB_Device_Library/Core/Src/usbd_ctlreq.c ****       USBD_CtlSendStatus(pdev);
 248:Middlewares/ST/STM32_USB_Device_Library/Core/Src/usbd_ctlreq.c ****       
 249:Middlewares/ST/STM32_USB_Device_Library/Core/Src/usbd_ctlreq.c ****       break;
 250:Middlewares/ST/STM32_USB_Device_Library/Core/Src/usbd_ctlreq.c ****       
 251:Middlewares/ST/STM32_USB_Device_Library/Core/Src/usbd_ctlreq.c ****     default:                         
 252:Middlewares/ST/STM32_USB_Device_Library/Core/Src/usbd_ctlreq.c ****       USBD_CtlError(pdev , req);
 253:Middlewares/ST/STM32_USB_Device_Library/Core/Src/usbd_ctlreq.c ****       break;    
 254:Middlewares/ST/STM32_USB_Device_Library/Core/Src/usbd_ctlreq.c ****     }
 255:Middlewares/ST/STM32_USB_Device_Library/Core/Src/usbd_ctlreq.c ****     break;
 256:Middlewares/ST/STM32_USB_Device_Library/Core/Src/usbd_ctlreq.c ****     
 257:Middlewares/ST/STM32_USB_Device_Library/Core/Src/usbd_ctlreq.c ****   case USB_REQ_CLEAR_FEATURE :
 258:Middlewares/ST/STM32_USB_Device_Library/Core/Src/usbd_ctlreq.c ****     
 259:Middlewares/ST/STM32_USB_Device_Library/Core/Src/usbd_ctlreq.c ****     switch (pdev->dev_state) 
 260:Middlewares/ST/STM32_USB_Device_Library/Core/Src/usbd_ctlreq.c ****     {
ARM GAS  /var/folders/rf/wfq6hz5s56g3yh4wqgd7820c0000gn/T//ccoNHwng.s 			page 6


 261:Middlewares/ST/STM32_USB_Device_Library/Core/Src/usbd_ctlreq.c ****     case USBD_STATE_ADDRESSED:          
 262:Middlewares/ST/STM32_USB_Device_Library/Core/Src/usbd_ctlreq.c ****       if ((ep_addr != 0x00) && (ep_addr != 0x80)) 
 263:Middlewares/ST/STM32_USB_Device_Library/Core/Src/usbd_ctlreq.c ****       {
 264:Middlewares/ST/STM32_USB_Device_Library/Core/Src/usbd_ctlreq.c ****         USBD_LL_StallEP(pdev , ep_addr);
 265:Middlewares/ST/STM32_USB_Device_Library/Core/Src/usbd_ctlreq.c ****       }
 266:Middlewares/ST/STM32_USB_Device_Library/Core/Src/usbd_ctlreq.c ****       break;	
 267:Middlewares/ST/STM32_USB_Device_Library/Core/Src/usbd_ctlreq.c ****       
 268:Middlewares/ST/STM32_USB_Device_Library/Core/Src/usbd_ctlreq.c ****     case USBD_STATE_CONFIGURED:   
 269:Middlewares/ST/STM32_USB_Device_Library/Core/Src/usbd_ctlreq.c ****       if (req->wValue == USB_FEATURE_EP_HALT)
 270:Middlewares/ST/STM32_USB_Device_Library/Core/Src/usbd_ctlreq.c ****       {
 271:Middlewares/ST/STM32_USB_Device_Library/Core/Src/usbd_ctlreq.c ****         if ((ep_addr & 0x7F) != 0x00) 
 272:Middlewares/ST/STM32_USB_Device_Library/Core/Src/usbd_ctlreq.c ****         {        
 273:Middlewares/ST/STM32_USB_Device_Library/Core/Src/usbd_ctlreq.c ****           USBD_LL_ClearStallEP(pdev , ep_addr);
 274:Middlewares/ST/STM32_USB_Device_Library/Core/Src/usbd_ctlreq.c ****           pdev->pClass->Setup (pdev, req);
 275:Middlewares/ST/STM32_USB_Device_Library/Core/Src/usbd_ctlreq.c ****         }
 276:Middlewares/ST/STM32_USB_Device_Library/Core/Src/usbd_ctlreq.c ****         USBD_CtlSendStatus(pdev);
 277:Middlewares/ST/STM32_USB_Device_Library/Core/Src/usbd_ctlreq.c ****       }
 278:Middlewares/ST/STM32_USB_Device_Library/Core/Src/usbd_ctlreq.c ****       break;
 279:Middlewares/ST/STM32_USB_Device_Library/Core/Src/usbd_ctlreq.c ****       
 280:Middlewares/ST/STM32_USB_Device_Library/Core/Src/usbd_ctlreq.c ****     default:                         
 281:Middlewares/ST/STM32_USB_Device_Library/Core/Src/usbd_ctlreq.c ****       USBD_CtlError(pdev , req);
 282:Middlewares/ST/STM32_USB_Device_Library/Core/Src/usbd_ctlreq.c ****       break;    
 283:Middlewares/ST/STM32_USB_Device_Library/Core/Src/usbd_ctlreq.c ****     }
 284:Middlewares/ST/STM32_USB_Device_Library/Core/Src/usbd_ctlreq.c ****     break;
 285:Middlewares/ST/STM32_USB_Device_Library/Core/Src/usbd_ctlreq.c ****     
 286:Middlewares/ST/STM32_USB_Device_Library/Core/Src/usbd_ctlreq.c ****   case USB_REQ_GET_STATUS:                  
 287:Middlewares/ST/STM32_USB_Device_Library/Core/Src/usbd_ctlreq.c ****     switch (pdev->dev_state) 
 288:Middlewares/ST/STM32_USB_Device_Library/Core/Src/usbd_ctlreq.c ****     {
 289:Middlewares/ST/STM32_USB_Device_Library/Core/Src/usbd_ctlreq.c ****     case USBD_STATE_ADDRESSED:          
 290:Middlewares/ST/STM32_USB_Device_Library/Core/Src/usbd_ctlreq.c ****       if ((ep_addr & 0x7F) != 0x00) 
 291:Middlewares/ST/STM32_USB_Device_Library/Core/Src/usbd_ctlreq.c ****       {
 292:Middlewares/ST/STM32_USB_Device_Library/Core/Src/usbd_ctlreq.c ****         USBD_LL_StallEP(pdev , ep_addr);
 293:Middlewares/ST/STM32_USB_Device_Library/Core/Src/usbd_ctlreq.c ****       }
 294:Middlewares/ST/STM32_USB_Device_Library/Core/Src/usbd_ctlreq.c ****       break;	
 295:Middlewares/ST/STM32_USB_Device_Library/Core/Src/usbd_ctlreq.c ****       
 296:Middlewares/ST/STM32_USB_Device_Library/Core/Src/usbd_ctlreq.c ****     case USBD_STATE_CONFIGURED:
 297:Middlewares/ST/STM32_USB_Device_Library/Core/Src/usbd_ctlreq.c ****       pep = ((ep_addr & 0x80) == 0x80) ? &pdev->ep_in[ep_addr & 0x7F]:\
 298:Middlewares/ST/STM32_USB_Device_Library/Core/Src/usbd_ctlreq.c ****                                          &pdev->ep_out[ep_addr & 0x7F];
 299:Middlewares/ST/STM32_USB_Device_Library/Core/Src/usbd_ctlreq.c ****       if(USBD_LL_IsStallEP(pdev, ep_addr))
 300:Middlewares/ST/STM32_USB_Device_Library/Core/Src/usbd_ctlreq.c ****       {
 301:Middlewares/ST/STM32_USB_Device_Library/Core/Src/usbd_ctlreq.c ****         pep->status = 0x0001;     
 302:Middlewares/ST/STM32_USB_Device_Library/Core/Src/usbd_ctlreq.c ****       }
 303:Middlewares/ST/STM32_USB_Device_Library/Core/Src/usbd_ctlreq.c ****       else
 304:Middlewares/ST/STM32_USB_Device_Library/Core/Src/usbd_ctlreq.c ****       {
 305:Middlewares/ST/STM32_USB_Device_Library/Core/Src/usbd_ctlreq.c ****         pep->status = 0x0000;  
 306:Middlewares/ST/STM32_USB_Device_Library/Core/Src/usbd_ctlreq.c ****       }
 307:Middlewares/ST/STM32_USB_Device_Library/Core/Src/usbd_ctlreq.c ****       
 308:Middlewares/ST/STM32_USB_Device_Library/Core/Src/usbd_ctlreq.c ****       USBD_CtlSendData (pdev,
 309:Middlewares/ST/STM32_USB_Device_Library/Core/Src/usbd_ctlreq.c ****                         (uint8_t *)&pep->status,
 310:Middlewares/ST/STM32_USB_Device_Library/Core/Src/usbd_ctlreq.c ****                         2);
 311:Middlewares/ST/STM32_USB_Device_Library/Core/Src/usbd_ctlreq.c ****       break;
 312:Middlewares/ST/STM32_USB_Device_Library/Core/Src/usbd_ctlreq.c ****       
 313:Middlewares/ST/STM32_USB_Device_Library/Core/Src/usbd_ctlreq.c ****     default:                         
 314:Middlewares/ST/STM32_USB_Device_Library/Core/Src/usbd_ctlreq.c ****       USBD_CtlError(pdev , req);
 315:Middlewares/ST/STM32_USB_Device_Library/Core/Src/usbd_ctlreq.c ****       break;
 316:Middlewares/ST/STM32_USB_Device_Library/Core/Src/usbd_ctlreq.c ****     }
 317:Middlewares/ST/STM32_USB_Device_Library/Core/Src/usbd_ctlreq.c ****     break;
ARM GAS  /var/folders/rf/wfq6hz5s56g3yh4wqgd7820c0000gn/T//ccoNHwng.s 			page 7


 318:Middlewares/ST/STM32_USB_Device_Library/Core/Src/usbd_ctlreq.c ****     
 319:Middlewares/ST/STM32_USB_Device_Library/Core/Src/usbd_ctlreq.c ****   default:
 320:Middlewares/ST/STM32_USB_Device_Library/Core/Src/usbd_ctlreq.c ****     break;
 321:Middlewares/ST/STM32_USB_Device_Library/Core/Src/usbd_ctlreq.c ****   }
 322:Middlewares/ST/STM32_USB_Device_Library/Core/Src/usbd_ctlreq.c ****   return ret;
 323:Middlewares/ST/STM32_USB_Device_Library/Core/Src/usbd_ctlreq.c **** }
 324:Middlewares/ST/STM32_USB_Device_Library/Core/Src/usbd_ctlreq.c **** /**
 325:Middlewares/ST/STM32_USB_Device_Library/Core/Src/usbd_ctlreq.c **** * @brief  USBD_GetDescriptor
 326:Middlewares/ST/STM32_USB_Device_Library/Core/Src/usbd_ctlreq.c **** *         Handle Get Descriptor requests
 327:Middlewares/ST/STM32_USB_Device_Library/Core/Src/usbd_ctlreq.c **** * @param  pdev: device instance
 328:Middlewares/ST/STM32_USB_Device_Library/Core/Src/usbd_ctlreq.c **** * @param  req: usb request
 329:Middlewares/ST/STM32_USB_Device_Library/Core/Src/usbd_ctlreq.c **** * @retval status
 330:Middlewares/ST/STM32_USB_Device_Library/Core/Src/usbd_ctlreq.c **** */
 331:Middlewares/ST/STM32_USB_Device_Library/Core/Src/usbd_ctlreq.c **** static void USBD_GetDescriptor(USBD_HandleTypeDef *pdev , 
 332:Middlewares/ST/STM32_USB_Device_Library/Core/Src/usbd_ctlreq.c ****                                USBD_SetupReqTypedef *req)
 333:Middlewares/ST/STM32_USB_Device_Library/Core/Src/usbd_ctlreq.c **** {
 334:Middlewares/ST/STM32_USB_Device_Library/Core/Src/usbd_ctlreq.c ****   uint16_t len;
 335:Middlewares/ST/STM32_USB_Device_Library/Core/Src/usbd_ctlreq.c ****   uint8_t *pbuf;
 336:Middlewares/ST/STM32_USB_Device_Library/Core/Src/usbd_ctlreq.c ****   
 337:Middlewares/ST/STM32_USB_Device_Library/Core/Src/usbd_ctlreq.c ****     
 338:Middlewares/ST/STM32_USB_Device_Library/Core/Src/usbd_ctlreq.c ****   switch (req->wValue >> 8)
 339:Middlewares/ST/STM32_USB_Device_Library/Core/Src/usbd_ctlreq.c ****   { 
 340:Middlewares/ST/STM32_USB_Device_Library/Core/Src/usbd_ctlreq.c **** #if (USBD_LPM_ENABLED == 1)
 341:Middlewares/ST/STM32_USB_Device_Library/Core/Src/usbd_ctlreq.c ****   case USB_DESC_TYPE_BOS:
 342:Middlewares/ST/STM32_USB_Device_Library/Core/Src/usbd_ctlreq.c ****     pbuf = pdev->pDesc->GetBOSDescriptor(pdev->dev_speed, &len);
 343:Middlewares/ST/STM32_USB_Device_Library/Core/Src/usbd_ctlreq.c ****     break;
 344:Middlewares/ST/STM32_USB_Device_Library/Core/Src/usbd_ctlreq.c **** #endif    
 345:Middlewares/ST/STM32_USB_Device_Library/Core/Src/usbd_ctlreq.c ****   case USB_DESC_TYPE_DEVICE:
 346:Middlewares/ST/STM32_USB_Device_Library/Core/Src/usbd_ctlreq.c ****     pbuf = pdev->pDesc->GetDeviceDescriptor(pdev->dev_speed, &len);
 347:Middlewares/ST/STM32_USB_Device_Library/Core/Src/usbd_ctlreq.c ****     break;
 348:Middlewares/ST/STM32_USB_Device_Library/Core/Src/usbd_ctlreq.c ****     
 349:Middlewares/ST/STM32_USB_Device_Library/Core/Src/usbd_ctlreq.c ****   case USB_DESC_TYPE_CONFIGURATION:     
 350:Middlewares/ST/STM32_USB_Device_Library/Core/Src/usbd_ctlreq.c ****     if(pdev->dev_speed == USBD_SPEED_HIGH )   
 351:Middlewares/ST/STM32_USB_Device_Library/Core/Src/usbd_ctlreq.c ****     {
 352:Middlewares/ST/STM32_USB_Device_Library/Core/Src/usbd_ctlreq.c ****       pbuf   = (uint8_t *)pdev->pClass->GetHSConfigDescriptor(&len);
 353:Middlewares/ST/STM32_USB_Device_Library/Core/Src/usbd_ctlreq.c ****       pbuf[1] = USB_DESC_TYPE_CONFIGURATION;
 354:Middlewares/ST/STM32_USB_Device_Library/Core/Src/usbd_ctlreq.c ****     }
 355:Middlewares/ST/STM32_USB_Device_Library/Core/Src/usbd_ctlreq.c ****     else
 356:Middlewares/ST/STM32_USB_Device_Library/Core/Src/usbd_ctlreq.c ****     {
 357:Middlewares/ST/STM32_USB_Device_Library/Core/Src/usbd_ctlreq.c ****       pbuf   = (uint8_t *)pdev->pClass->GetFSConfigDescriptor(&len);
 358:Middlewares/ST/STM32_USB_Device_Library/Core/Src/usbd_ctlreq.c ****       pbuf[1] = USB_DESC_TYPE_CONFIGURATION;
 359:Middlewares/ST/STM32_USB_Device_Library/Core/Src/usbd_ctlreq.c ****     }
 360:Middlewares/ST/STM32_USB_Device_Library/Core/Src/usbd_ctlreq.c ****     break;
 361:Middlewares/ST/STM32_USB_Device_Library/Core/Src/usbd_ctlreq.c ****     
 362:Middlewares/ST/STM32_USB_Device_Library/Core/Src/usbd_ctlreq.c ****   case USB_DESC_TYPE_STRING:
 363:Middlewares/ST/STM32_USB_Device_Library/Core/Src/usbd_ctlreq.c ****     switch ((uint8_t)(req->wValue))
 364:Middlewares/ST/STM32_USB_Device_Library/Core/Src/usbd_ctlreq.c ****     {
 365:Middlewares/ST/STM32_USB_Device_Library/Core/Src/usbd_ctlreq.c ****     case USBD_IDX_LANGID_STR:
 366:Middlewares/ST/STM32_USB_Device_Library/Core/Src/usbd_ctlreq.c ****      pbuf = pdev->pDesc->GetLangIDStrDescriptor(pdev->dev_speed, &len);        
 367:Middlewares/ST/STM32_USB_Device_Library/Core/Src/usbd_ctlreq.c ****       break;
 368:Middlewares/ST/STM32_USB_Device_Library/Core/Src/usbd_ctlreq.c ****       
 369:Middlewares/ST/STM32_USB_Device_Library/Core/Src/usbd_ctlreq.c ****     case USBD_IDX_MFC_STR:
 370:Middlewares/ST/STM32_USB_Device_Library/Core/Src/usbd_ctlreq.c ****       pbuf = pdev->pDesc->GetManufacturerStrDescriptor(pdev->dev_speed, &len);
 371:Middlewares/ST/STM32_USB_Device_Library/Core/Src/usbd_ctlreq.c ****       break;
 372:Middlewares/ST/STM32_USB_Device_Library/Core/Src/usbd_ctlreq.c ****       
 373:Middlewares/ST/STM32_USB_Device_Library/Core/Src/usbd_ctlreq.c ****     case USBD_IDX_PRODUCT_STR:
 374:Middlewares/ST/STM32_USB_Device_Library/Core/Src/usbd_ctlreq.c ****       pbuf = pdev->pDesc->GetProductStrDescriptor(pdev->dev_speed, &len);
ARM GAS  /var/folders/rf/wfq6hz5s56g3yh4wqgd7820c0000gn/T//ccoNHwng.s 			page 8


 375:Middlewares/ST/STM32_USB_Device_Library/Core/Src/usbd_ctlreq.c ****       break;
 376:Middlewares/ST/STM32_USB_Device_Library/Core/Src/usbd_ctlreq.c ****       
 377:Middlewares/ST/STM32_USB_Device_Library/Core/Src/usbd_ctlreq.c ****     case USBD_IDX_SERIAL_STR:
 378:Middlewares/ST/STM32_USB_Device_Library/Core/Src/usbd_ctlreq.c ****       pbuf = pdev->pDesc->GetSerialStrDescriptor(pdev->dev_speed, &len);
 379:Middlewares/ST/STM32_USB_Device_Library/Core/Src/usbd_ctlreq.c ****       break;
 380:Middlewares/ST/STM32_USB_Device_Library/Core/Src/usbd_ctlreq.c ****       
 381:Middlewares/ST/STM32_USB_Device_Library/Core/Src/usbd_ctlreq.c ****     case USBD_IDX_CONFIG_STR:
 382:Middlewares/ST/STM32_USB_Device_Library/Core/Src/usbd_ctlreq.c ****       pbuf = pdev->pDesc->GetConfigurationStrDescriptor(pdev->dev_speed, &len);
 383:Middlewares/ST/STM32_USB_Device_Library/Core/Src/usbd_ctlreq.c ****       break;
 384:Middlewares/ST/STM32_USB_Device_Library/Core/Src/usbd_ctlreq.c ****       
 385:Middlewares/ST/STM32_USB_Device_Library/Core/Src/usbd_ctlreq.c ****     case USBD_IDX_INTERFACE_STR:
 386:Middlewares/ST/STM32_USB_Device_Library/Core/Src/usbd_ctlreq.c ****       pbuf = pdev->pDesc->GetInterfaceStrDescriptor(pdev->dev_speed, &len);
 387:Middlewares/ST/STM32_USB_Device_Library/Core/Src/usbd_ctlreq.c ****       break;
 388:Middlewares/ST/STM32_USB_Device_Library/Core/Src/usbd_ctlreq.c ****       
 389:Middlewares/ST/STM32_USB_Device_Library/Core/Src/usbd_ctlreq.c ****     default:
 390:Middlewares/ST/STM32_USB_Device_Library/Core/Src/usbd_ctlreq.c **** #if (USBD_SUPPORT_USER_STRING == 1)
 391:Middlewares/ST/STM32_USB_Device_Library/Core/Src/usbd_ctlreq.c ****       pbuf = pdev->pClass->GetUsrStrDescriptor(pdev, (req->wValue) , &len);
 392:Middlewares/ST/STM32_USB_Device_Library/Core/Src/usbd_ctlreq.c ****       break;
 393:Middlewares/ST/STM32_USB_Device_Library/Core/Src/usbd_ctlreq.c **** #else      
 394:Middlewares/ST/STM32_USB_Device_Library/Core/Src/usbd_ctlreq.c ****        USBD_CtlError(pdev , req);
 395:Middlewares/ST/STM32_USB_Device_Library/Core/Src/usbd_ctlreq.c ****       return;
 396:Middlewares/ST/STM32_USB_Device_Library/Core/Src/usbd_ctlreq.c **** #endif   
 397:Middlewares/ST/STM32_USB_Device_Library/Core/Src/usbd_ctlreq.c ****     }
 398:Middlewares/ST/STM32_USB_Device_Library/Core/Src/usbd_ctlreq.c ****     break;
 399:Middlewares/ST/STM32_USB_Device_Library/Core/Src/usbd_ctlreq.c ****   case USB_DESC_TYPE_DEVICE_QUALIFIER:                   
 400:Middlewares/ST/STM32_USB_Device_Library/Core/Src/usbd_ctlreq.c **** 
 401:Middlewares/ST/STM32_USB_Device_Library/Core/Src/usbd_ctlreq.c ****     if(pdev->dev_speed == USBD_SPEED_HIGH  )   
 402:Middlewares/ST/STM32_USB_Device_Library/Core/Src/usbd_ctlreq.c ****     {
 403:Middlewares/ST/STM32_USB_Device_Library/Core/Src/usbd_ctlreq.c ****       pbuf   = (uint8_t *)pdev->pClass->GetDeviceQualifierDescriptor(&len);
 404:Middlewares/ST/STM32_USB_Device_Library/Core/Src/usbd_ctlreq.c ****       break;
 405:Middlewares/ST/STM32_USB_Device_Library/Core/Src/usbd_ctlreq.c ****     }
 406:Middlewares/ST/STM32_USB_Device_Library/Core/Src/usbd_ctlreq.c ****     else
 407:Middlewares/ST/STM32_USB_Device_Library/Core/Src/usbd_ctlreq.c ****     {
 408:Middlewares/ST/STM32_USB_Device_Library/Core/Src/usbd_ctlreq.c ****       USBD_CtlError(pdev , req);
 409:Middlewares/ST/STM32_USB_Device_Library/Core/Src/usbd_ctlreq.c ****       return;
 410:Middlewares/ST/STM32_USB_Device_Library/Core/Src/usbd_ctlreq.c ****     } 
 411:Middlewares/ST/STM32_USB_Device_Library/Core/Src/usbd_ctlreq.c **** 
 412:Middlewares/ST/STM32_USB_Device_Library/Core/Src/usbd_ctlreq.c ****   case USB_DESC_TYPE_OTHER_SPEED_CONFIGURATION:
 413:Middlewares/ST/STM32_USB_Device_Library/Core/Src/usbd_ctlreq.c ****     if(pdev->dev_speed == USBD_SPEED_HIGH  )   
 414:Middlewares/ST/STM32_USB_Device_Library/Core/Src/usbd_ctlreq.c ****     {
 415:Middlewares/ST/STM32_USB_Device_Library/Core/Src/usbd_ctlreq.c ****       pbuf   = (uint8_t *)pdev->pClass->GetOtherSpeedConfigDescriptor(&len);
 416:Middlewares/ST/STM32_USB_Device_Library/Core/Src/usbd_ctlreq.c ****       pbuf[1] = USB_DESC_TYPE_OTHER_SPEED_CONFIGURATION;
 417:Middlewares/ST/STM32_USB_Device_Library/Core/Src/usbd_ctlreq.c ****       break; 
 418:Middlewares/ST/STM32_USB_Device_Library/Core/Src/usbd_ctlreq.c ****     }
 419:Middlewares/ST/STM32_USB_Device_Library/Core/Src/usbd_ctlreq.c ****     else
 420:Middlewares/ST/STM32_USB_Device_Library/Core/Src/usbd_ctlreq.c ****     {
 421:Middlewares/ST/STM32_USB_Device_Library/Core/Src/usbd_ctlreq.c ****       USBD_CtlError(pdev , req);
 422:Middlewares/ST/STM32_USB_Device_Library/Core/Src/usbd_ctlreq.c ****       return;
 423:Middlewares/ST/STM32_USB_Device_Library/Core/Src/usbd_ctlreq.c ****     }
 424:Middlewares/ST/STM32_USB_Device_Library/Core/Src/usbd_ctlreq.c **** 
 425:Middlewares/ST/STM32_USB_Device_Library/Core/Src/usbd_ctlreq.c ****   default: 
 426:Middlewares/ST/STM32_USB_Device_Library/Core/Src/usbd_ctlreq.c ****      USBD_CtlError(pdev , req);
 427:Middlewares/ST/STM32_USB_Device_Library/Core/Src/usbd_ctlreq.c ****     return;
 428:Middlewares/ST/STM32_USB_Device_Library/Core/Src/usbd_ctlreq.c ****   }
 429:Middlewares/ST/STM32_USB_Device_Library/Core/Src/usbd_ctlreq.c ****   
 430:Middlewares/ST/STM32_USB_Device_Library/Core/Src/usbd_ctlreq.c ****   if((len != 0)&& (req->wLength != 0))
 431:Middlewares/ST/STM32_USB_Device_Library/Core/Src/usbd_ctlreq.c ****   {
ARM GAS  /var/folders/rf/wfq6hz5s56g3yh4wqgd7820c0000gn/T//ccoNHwng.s 			page 9


 432:Middlewares/ST/STM32_USB_Device_Library/Core/Src/usbd_ctlreq.c ****     
 433:Middlewares/ST/STM32_USB_Device_Library/Core/Src/usbd_ctlreq.c ****     len = MIN(len , req->wLength);
 434:Middlewares/ST/STM32_USB_Device_Library/Core/Src/usbd_ctlreq.c ****     
 435:Middlewares/ST/STM32_USB_Device_Library/Core/Src/usbd_ctlreq.c ****     USBD_CtlSendData (pdev, 
 436:Middlewares/ST/STM32_USB_Device_Library/Core/Src/usbd_ctlreq.c ****                       pbuf,
 437:Middlewares/ST/STM32_USB_Device_Library/Core/Src/usbd_ctlreq.c ****                       len);
 438:Middlewares/ST/STM32_USB_Device_Library/Core/Src/usbd_ctlreq.c ****   }
 439:Middlewares/ST/STM32_USB_Device_Library/Core/Src/usbd_ctlreq.c ****   
 440:Middlewares/ST/STM32_USB_Device_Library/Core/Src/usbd_ctlreq.c **** }
 441:Middlewares/ST/STM32_USB_Device_Library/Core/Src/usbd_ctlreq.c **** 
 442:Middlewares/ST/STM32_USB_Device_Library/Core/Src/usbd_ctlreq.c **** /**
 443:Middlewares/ST/STM32_USB_Device_Library/Core/Src/usbd_ctlreq.c **** * @brief  USBD_SetAddress
 444:Middlewares/ST/STM32_USB_Device_Library/Core/Src/usbd_ctlreq.c **** *         Set device address
 445:Middlewares/ST/STM32_USB_Device_Library/Core/Src/usbd_ctlreq.c **** * @param  pdev: device instance
 446:Middlewares/ST/STM32_USB_Device_Library/Core/Src/usbd_ctlreq.c **** * @param  req: usb request
 447:Middlewares/ST/STM32_USB_Device_Library/Core/Src/usbd_ctlreq.c **** * @retval status
 448:Middlewares/ST/STM32_USB_Device_Library/Core/Src/usbd_ctlreq.c **** */
 449:Middlewares/ST/STM32_USB_Device_Library/Core/Src/usbd_ctlreq.c **** static void USBD_SetAddress(USBD_HandleTypeDef *pdev , 
 450:Middlewares/ST/STM32_USB_Device_Library/Core/Src/usbd_ctlreq.c ****                             USBD_SetupReqTypedef *req)
 451:Middlewares/ST/STM32_USB_Device_Library/Core/Src/usbd_ctlreq.c **** {
 452:Middlewares/ST/STM32_USB_Device_Library/Core/Src/usbd_ctlreq.c ****   uint8_t  dev_addr; 
 453:Middlewares/ST/STM32_USB_Device_Library/Core/Src/usbd_ctlreq.c ****   
 454:Middlewares/ST/STM32_USB_Device_Library/Core/Src/usbd_ctlreq.c ****   if ((req->wIndex == 0) && (req->wLength == 0)) 
 455:Middlewares/ST/STM32_USB_Device_Library/Core/Src/usbd_ctlreq.c ****   {
 456:Middlewares/ST/STM32_USB_Device_Library/Core/Src/usbd_ctlreq.c ****     dev_addr = (uint8_t)(req->wValue) & 0x7F;     
 457:Middlewares/ST/STM32_USB_Device_Library/Core/Src/usbd_ctlreq.c ****     
 458:Middlewares/ST/STM32_USB_Device_Library/Core/Src/usbd_ctlreq.c ****     if (pdev->dev_state == USBD_STATE_CONFIGURED) 
 459:Middlewares/ST/STM32_USB_Device_Library/Core/Src/usbd_ctlreq.c ****     {
 460:Middlewares/ST/STM32_USB_Device_Library/Core/Src/usbd_ctlreq.c ****       USBD_CtlError(pdev , req);
 461:Middlewares/ST/STM32_USB_Device_Library/Core/Src/usbd_ctlreq.c ****     } 
 462:Middlewares/ST/STM32_USB_Device_Library/Core/Src/usbd_ctlreq.c ****     else 
 463:Middlewares/ST/STM32_USB_Device_Library/Core/Src/usbd_ctlreq.c ****     {
 464:Middlewares/ST/STM32_USB_Device_Library/Core/Src/usbd_ctlreq.c ****       pdev->dev_address = dev_addr;
 465:Middlewares/ST/STM32_USB_Device_Library/Core/Src/usbd_ctlreq.c ****       USBD_LL_SetUSBAddress(pdev, dev_addr);               
 466:Middlewares/ST/STM32_USB_Device_Library/Core/Src/usbd_ctlreq.c ****       USBD_CtlSendStatus(pdev);                         
 467:Middlewares/ST/STM32_USB_Device_Library/Core/Src/usbd_ctlreq.c ****       
 468:Middlewares/ST/STM32_USB_Device_Library/Core/Src/usbd_ctlreq.c ****       if (dev_addr != 0) 
 469:Middlewares/ST/STM32_USB_Device_Library/Core/Src/usbd_ctlreq.c ****       {
 470:Middlewares/ST/STM32_USB_Device_Library/Core/Src/usbd_ctlreq.c ****         pdev->dev_state  = USBD_STATE_ADDRESSED;
 471:Middlewares/ST/STM32_USB_Device_Library/Core/Src/usbd_ctlreq.c ****       } 
 472:Middlewares/ST/STM32_USB_Device_Library/Core/Src/usbd_ctlreq.c ****       else 
 473:Middlewares/ST/STM32_USB_Device_Library/Core/Src/usbd_ctlreq.c ****       {
 474:Middlewares/ST/STM32_USB_Device_Library/Core/Src/usbd_ctlreq.c ****         pdev->dev_state  = USBD_STATE_DEFAULT; 
 475:Middlewares/ST/STM32_USB_Device_Library/Core/Src/usbd_ctlreq.c ****       }
 476:Middlewares/ST/STM32_USB_Device_Library/Core/Src/usbd_ctlreq.c ****     }
 477:Middlewares/ST/STM32_USB_Device_Library/Core/Src/usbd_ctlreq.c ****   } 
 478:Middlewares/ST/STM32_USB_Device_Library/Core/Src/usbd_ctlreq.c ****   else 
 479:Middlewares/ST/STM32_USB_Device_Library/Core/Src/usbd_ctlreq.c ****   {
 480:Middlewares/ST/STM32_USB_Device_Library/Core/Src/usbd_ctlreq.c ****      USBD_CtlError(pdev , req);                        
 481:Middlewares/ST/STM32_USB_Device_Library/Core/Src/usbd_ctlreq.c ****   } 
 482:Middlewares/ST/STM32_USB_Device_Library/Core/Src/usbd_ctlreq.c **** }
 483:Middlewares/ST/STM32_USB_Device_Library/Core/Src/usbd_ctlreq.c **** 
 484:Middlewares/ST/STM32_USB_Device_Library/Core/Src/usbd_ctlreq.c **** /**
 485:Middlewares/ST/STM32_USB_Device_Library/Core/Src/usbd_ctlreq.c **** * @brief  USBD_SetConfig
 486:Middlewares/ST/STM32_USB_Device_Library/Core/Src/usbd_ctlreq.c **** *         Handle Set device configuration request
 487:Middlewares/ST/STM32_USB_Device_Library/Core/Src/usbd_ctlreq.c **** * @param  pdev: device instance
 488:Middlewares/ST/STM32_USB_Device_Library/Core/Src/usbd_ctlreq.c **** * @param  req: usb request
ARM GAS  /var/folders/rf/wfq6hz5s56g3yh4wqgd7820c0000gn/T//ccoNHwng.s 			page 10


 489:Middlewares/ST/STM32_USB_Device_Library/Core/Src/usbd_ctlreq.c **** * @retval status
 490:Middlewares/ST/STM32_USB_Device_Library/Core/Src/usbd_ctlreq.c **** */
 491:Middlewares/ST/STM32_USB_Device_Library/Core/Src/usbd_ctlreq.c **** static void USBD_SetConfig(USBD_HandleTypeDef *pdev , 
 492:Middlewares/ST/STM32_USB_Device_Library/Core/Src/usbd_ctlreq.c ****                            USBD_SetupReqTypedef *req)
 493:Middlewares/ST/STM32_USB_Device_Library/Core/Src/usbd_ctlreq.c **** {
 494:Middlewares/ST/STM32_USB_Device_Library/Core/Src/usbd_ctlreq.c ****   
 495:Middlewares/ST/STM32_USB_Device_Library/Core/Src/usbd_ctlreq.c ****   static uint8_t  cfgidx;
 496:Middlewares/ST/STM32_USB_Device_Library/Core/Src/usbd_ctlreq.c ****   
 497:Middlewares/ST/STM32_USB_Device_Library/Core/Src/usbd_ctlreq.c ****   cfgidx = (uint8_t)(req->wValue);                 
 498:Middlewares/ST/STM32_USB_Device_Library/Core/Src/usbd_ctlreq.c ****   
 499:Middlewares/ST/STM32_USB_Device_Library/Core/Src/usbd_ctlreq.c ****   if (cfgidx > USBD_MAX_NUM_CONFIGURATION ) 
 500:Middlewares/ST/STM32_USB_Device_Library/Core/Src/usbd_ctlreq.c ****   {            
 501:Middlewares/ST/STM32_USB_Device_Library/Core/Src/usbd_ctlreq.c ****      USBD_CtlError(pdev , req);                              
 502:Middlewares/ST/STM32_USB_Device_Library/Core/Src/usbd_ctlreq.c ****   } 
 503:Middlewares/ST/STM32_USB_Device_Library/Core/Src/usbd_ctlreq.c ****   else 
 504:Middlewares/ST/STM32_USB_Device_Library/Core/Src/usbd_ctlreq.c ****   {
 505:Middlewares/ST/STM32_USB_Device_Library/Core/Src/usbd_ctlreq.c ****     switch (pdev->dev_state) 
 506:Middlewares/ST/STM32_USB_Device_Library/Core/Src/usbd_ctlreq.c ****     {
 507:Middlewares/ST/STM32_USB_Device_Library/Core/Src/usbd_ctlreq.c ****     case USBD_STATE_ADDRESSED:
 508:Middlewares/ST/STM32_USB_Device_Library/Core/Src/usbd_ctlreq.c ****       if (cfgidx) 
 509:Middlewares/ST/STM32_USB_Device_Library/Core/Src/usbd_ctlreq.c ****       {                                			   							   							   				
 510:Middlewares/ST/STM32_USB_Device_Library/Core/Src/usbd_ctlreq.c ****         pdev->dev_config = cfgidx;
 511:Middlewares/ST/STM32_USB_Device_Library/Core/Src/usbd_ctlreq.c ****         pdev->dev_state = USBD_STATE_CONFIGURED;
 512:Middlewares/ST/STM32_USB_Device_Library/Core/Src/usbd_ctlreq.c ****         if(USBD_SetClassConfig(pdev , cfgidx) == USBD_FAIL)
 513:Middlewares/ST/STM32_USB_Device_Library/Core/Src/usbd_ctlreq.c ****         {
 514:Middlewares/ST/STM32_USB_Device_Library/Core/Src/usbd_ctlreq.c ****           USBD_CtlError(pdev , req);  
 515:Middlewares/ST/STM32_USB_Device_Library/Core/Src/usbd_ctlreq.c ****           return;
 516:Middlewares/ST/STM32_USB_Device_Library/Core/Src/usbd_ctlreq.c ****         }
 517:Middlewares/ST/STM32_USB_Device_Library/Core/Src/usbd_ctlreq.c ****         USBD_CtlSendStatus(pdev);
 518:Middlewares/ST/STM32_USB_Device_Library/Core/Src/usbd_ctlreq.c ****       }
 519:Middlewares/ST/STM32_USB_Device_Library/Core/Src/usbd_ctlreq.c ****       else 
 520:Middlewares/ST/STM32_USB_Device_Library/Core/Src/usbd_ctlreq.c ****       {
 521:Middlewares/ST/STM32_USB_Device_Library/Core/Src/usbd_ctlreq.c ****          USBD_CtlSendStatus(pdev);
 522:Middlewares/ST/STM32_USB_Device_Library/Core/Src/usbd_ctlreq.c ****       }
 523:Middlewares/ST/STM32_USB_Device_Library/Core/Src/usbd_ctlreq.c ****       break;
 524:Middlewares/ST/STM32_USB_Device_Library/Core/Src/usbd_ctlreq.c ****       
 525:Middlewares/ST/STM32_USB_Device_Library/Core/Src/usbd_ctlreq.c ****     case USBD_STATE_CONFIGURED:
 526:Middlewares/ST/STM32_USB_Device_Library/Core/Src/usbd_ctlreq.c ****       if (cfgidx == 0) 
 527:Middlewares/ST/STM32_USB_Device_Library/Core/Src/usbd_ctlreq.c ****       {                           
 528:Middlewares/ST/STM32_USB_Device_Library/Core/Src/usbd_ctlreq.c ****         pdev->dev_state = USBD_STATE_ADDRESSED;
 529:Middlewares/ST/STM32_USB_Device_Library/Core/Src/usbd_ctlreq.c ****         pdev->dev_config = cfgidx;          
 530:Middlewares/ST/STM32_USB_Device_Library/Core/Src/usbd_ctlreq.c ****         USBD_ClrClassConfig(pdev , cfgidx);
 531:Middlewares/ST/STM32_USB_Device_Library/Core/Src/usbd_ctlreq.c ****         USBD_CtlSendStatus(pdev);
 532:Middlewares/ST/STM32_USB_Device_Library/Core/Src/usbd_ctlreq.c ****         
 533:Middlewares/ST/STM32_USB_Device_Library/Core/Src/usbd_ctlreq.c ****       } 
 534:Middlewares/ST/STM32_USB_Device_Library/Core/Src/usbd_ctlreq.c ****       else  if (cfgidx != pdev->dev_config) 
 535:Middlewares/ST/STM32_USB_Device_Library/Core/Src/usbd_ctlreq.c ****       {
 536:Middlewares/ST/STM32_USB_Device_Library/Core/Src/usbd_ctlreq.c ****         /* Clear old configuration */
 537:Middlewares/ST/STM32_USB_Device_Library/Core/Src/usbd_ctlreq.c ****         USBD_ClrClassConfig(pdev , pdev->dev_config);
 538:Middlewares/ST/STM32_USB_Device_Library/Core/Src/usbd_ctlreq.c ****         
 539:Middlewares/ST/STM32_USB_Device_Library/Core/Src/usbd_ctlreq.c ****         /* set new configuration */
 540:Middlewares/ST/STM32_USB_Device_Library/Core/Src/usbd_ctlreq.c ****         pdev->dev_config = cfgidx;
 541:Middlewares/ST/STM32_USB_Device_Library/Core/Src/usbd_ctlreq.c ****         if(USBD_SetClassConfig(pdev , cfgidx) == USBD_FAIL)
 542:Middlewares/ST/STM32_USB_Device_Library/Core/Src/usbd_ctlreq.c ****         {
 543:Middlewares/ST/STM32_USB_Device_Library/Core/Src/usbd_ctlreq.c ****           USBD_CtlError(pdev , req);  
 544:Middlewares/ST/STM32_USB_Device_Library/Core/Src/usbd_ctlreq.c ****           return;
 545:Middlewares/ST/STM32_USB_Device_Library/Core/Src/usbd_ctlreq.c ****         }
ARM GAS  /var/folders/rf/wfq6hz5s56g3yh4wqgd7820c0000gn/T//ccoNHwng.s 			page 11


 546:Middlewares/ST/STM32_USB_Device_Library/Core/Src/usbd_ctlreq.c ****         USBD_CtlSendStatus(pdev);
 547:Middlewares/ST/STM32_USB_Device_Library/Core/Src/usbd_ctlreq.c ****       }
 548:Middlewares/ST/STM32_USB_Device_Library/Core/Src/usbd_ctlreq.c ****       else
 549:Middlewares/ST/STM32_USB_Device_Library/Core/Src/usbd_ctlreq.c ****       {
 550:Middlewares/ST/STM32_USB_Device_Library/Core/Src/usbd_ctlreq.c ****         USBD_CtlSendStatus(pdev);
 551:Middlewares/ST/STM32_USB_Device_Library/Core/Src/usbd_ctlreq.c ****       }
 552:Middlewares/ST/STM32_USB_Device_Library/Core/Src/usbd_ctlreq.c ****       break;
 553:Middlewares/ST/STM32_USB_Device_Library/Core/Src/usbd_ctlreq.c ****       
 554:Middlewares/ST/STM32_USB_Device_Library/Core/Src/usbd_ctlreq.c ****     default:					
 555:Middlewares/ST/STM32_USB_Device_Library/Core/Src/usbd_ctlreq.c ****        USBD_CtlError(pdev , req);                     
 556:Middlewares/ST/STM32_USB_Device_Library/Core/Src/usbd_ctlreq.c ****       break;
 557:Middlewares/ST/STM32_USB_Device_Library/Core/Src/usbd_ctlreq.c ****     }
 558:Middlewares/ST/STM32_USB_Device_Library/Core/Src/usbd_ctlreq.c ****   }
 559:Middlewares/ST/STM32_USB_Device_Library/Core/Src/usbd_ctlreq.c **** }
 560:Middlewares/ST/STM32_USB_Device_Library/Core/Src/usbd_ctlreq.c **** 
 561:Middlewares/ST/STM32_USB_Device_Library/Core/Src/usbd_ctlreq.c **** /**
 562:Middlewares/ST/STM32_USB_Device_Library/Core/Src/usbd_ctlreq.c **** * @brief  USBD_GetConfig
 563:Middlewares/ST/STM32_USB_Device_Library/Core/Src/usbd_ctlreq.c **** *         Handle Get device configuration request
 564:Middlewares/ST/STM32_USB_Device_Library/Core/Src/usbd_ctlreq.c **** * @param  pdev: device instance
 565:Middlewares/ST/STM32_USB_Device_Library/Core/Src/usbd_ctlreq.c **** * @param  req: usb request
 566:Middlewares/ST/STM32_USB_Device_Library/Core/Src/usbd_ctlreq.c **** * @retval status
 567:Middlewares/ST/STM32_USB_Device_Library/Core/Src/usbd_ctlreq.c **** */
 568:Middlewares/ST/STM32_USB_Device_Library/Core/Src/usbd_ctlreq.c **** static void USBD_GetConfig(USBD_HandleTypeDef *pdev , 
 569:Middlewares/ST/STM32_USB_Device_Library/Core/Src/usbd_ctlreq.c ****                            USBD_SetupReqTypedef *req)
 570:Middlewares/ST/STM32_USB_Device_Library/Core/Src/usbd_ctlreq.c **** {
 571:Middlewares/ST/STM32_USB_Device_Library/Core/Src/usbd_ctlreq.c **** 
 572:Middlewares/ST/STM32_USB_Device_Library/Core/Src/usbd_ctlreq.c ****   if (req->wLength != 1) 
 573:Middlewares/ST/STM32_USB_Device_Library/Core/Src/usbd_ctlreq.c ****   {                   
 574:Middlewares/ST/STM32_USB_Device_Library/Core/Src/usbd_ctlreq.c ****      USBD_CtlError(pdev , req);
 575:Middlewares/ST/STM32_USB_Device_Library/Core/Src/usbd_ctlreq.c ****   }
 576:Middlewares/ST/STM32_USB_Device_Library/Core/Src/usbd_ctlreq.c ****   else 
 577:Middlewares/ST/STM32_USB_Device_Library/Core/Src/usbd_ctlreq.c ****   {
 578:Middlewares/ST/STM32_USB_Device_Library/Core/Src/usbd_ctlreq.c ****     switch (pdev->dev_state )  
 579:Middlewares/ST/STM32_USB_Device_Library/Core/Src/usbd_ctlreq.c ****     {
 580:Middlewares/ST/STM32_USB_Device_Library/Core/Src/usbd_ctlreq.c ****     case USBD_STATE_ADDRESSED:                     
 581:Middlewares/ST/STM32_USB_Device_Library/Core/Src/usbd_ctlreq.c ****       pdev->dev_default_config = 0;
 582:Middlewares/ST/STM32_USB_Device_Library/Core/Src/usbd_ctlreq.c ****       USBD_CtlSendData (pdev, 
 583:Middlewares/ST/STM32_USB_Device_Library/Core/Src/usbd_ctlreq.c ****                         (uint8_t *)&pdev->dev_default_config,
 584:Middlewares/ST/STM32_USB_Device_Library/Core/Src/usbd_ctlreq.c ****                         1);
 585:Middlewares/ST/STM32_USB_Device_Library/Core/Src/usbd_ctlreq.c ****       break;
 586:Middlewares/ST/STM32_USB_Device_Library/Core/Src/usbd_ctlreq.c ****       
 587:Middlewares/ST/STM32_USB_Device_Library/Core/Src/usbd_ctlreq.c ****     case USBD_STATE_CONFIGURED:   
 588:Middlewares/ST/STM32_USB_Device_Library/Core/Src/usbd_ctlreq.c ****       
 589:Middlewares/ST/STM32_USB_Device_Library/Core/Src/usbd_ctlreq.c ****       USBD_CtlSendData (pdev, 
 590:Middlewares/ST/STM32_USB_Device_Library/Core/Src/usbd_ctlreq.c ****                         (uint8_t *)&pdev->dev_config,
 591:Middlewares/ST/STM32_USB_Device_Library/Core/Src/usbd_ctlreq.c ****                         1);
 592:Middlewares/ST/STM32_USB_Device_Library/Core/Src/usbd_ctlreq.c ****       break;
 593:Middlewares/ST/STM32_USB_Device_Library/Core/Src/usbd_ctlreq.c ****       
 594:Middlewares/ST/STM32_USB_Device_Library/Core/Src/usbd_ctlreq.c ****     default:
 595:Middlewares/ST/STM32_USB_Device_Library/Core/Src/usbd_ctlreq.c ****        USBD_CtlError(pdev , req);
 596:Middlewares/ST/STM32_USB_Device_Library/Core/Src/usbd_ctlreq.c ****       break;
 597:Middlewares/ST/STM32_USB_Device_Library/Core/Src/usbd_ctlreq.c ****     }
 598:Middlewares/ST/STM32_USB_Device_Library/Core/Src/usbd_ctlreq.c ****   }
 599:Middlewares/ST/STM32_USB_Device_Library/Core/Src/usbd_ctlreq.c **** }
 600:Middlewares/ST/STM32_USB_Device_Library/Core/Src/usbd_ctlreq.c **** 
 601:Middlewares/ST/STM32_USB_Device_Library/Core/Src/usbd_ctlreq.c **** /**
 602:Middlewares/ST/STM32_USB_Device_Library/Core/Src/usbd_ctlreq.c **** * @brief  USBD_GetStatus
ARM GAS  /var/folders/rf/wfq6hz5s56g3yh4wqgd7820c0000gn/T//ccoNHwng.s 			page 12


 603:Middlewares/ST/STM32_USB_Device_Library/Core/Src/usbd_ctlreq.c **** *         Handle Get Status request
 604:Middlewares/ST/STM32_USB_Device_Library/Core/Src/usbd_ctlreq.c **** * @param  pdev: device instance
 605:Middlewares/ST/STM32_USB_Device_Library/Core/Src/usbd_ctlreq.c **** * @param  req: usb request
 606:Middlewares/ST/STM32_USB_Device_Library/Core/Src/usbd_ctlreq.c **** * @retval status
 607:Middlewares/ST/STM32_USB_Device_Library/Core/Src/usbd_ctlreq.c **** */
 608:Middlewares/ST/STM32_USB_Device_Library/Core/Src/usbd_ctlreq.c **** static void USBD_GetStatus(USBD_HandleTypeDef *pdev , 
 609:Middlewares/ST/STM32_USB_Device_Library/Core/Src/usbd_ctlreq.c ****                            USBD_SetupReqTypedef *req)
 610:Middlewares/ST/STM32_USB_Device_Library/Core/Src/usbd_ctlreq.c **** {
 611:Middlewares/ST/STM32_USB_Device_Library/Core/Src/usbd_ctlreq.c ****   
 612:Middlewares/ST/STM32_USB_Device_Library/Core/Src/usbd_ctlreq.c ****     
 613:Middlewares/ST/STM32_USB_Device_Library/Core/Src/usbd_ctlreq.c ****   switch (pdev->dev_state) 
 614:Middlewares/ST/STM32_USB_Device_Library/Core/Src/usbd_ctlreq.c ****   {
 615:Middlewares/ST/STM32_USB_Device_Library/Core/Src/usbd_ctlreq.c ****   case USBD_STATE_ADDRESSED:
 616:Middlewares/ST/STM32_USB_Device_Library/Core/Src/usbd_ctlreq.c ****   case USBD_STATE_CONFIGURED:
 617:Middlewares/ST/STM32_USB_Device_Library/Core/Src/usbd_ctlreq.c ****     
 618:Middlewares/ST/STM32_USB_Device_Library/Core/Src/usbd_ctlreq.c **** #if ( USBD_SELF_POWERED == 1)
 619:Middlewares/ST/STM32_USB_Device_Library/Core/Src/usbd_ctlreq.c ****     pdev->dev_config_status = USB_CONFIG_SELF_POWERED;                                  
 620:Middlewares/ST/STM32_USB_Device_Library/Core/Src/usbd_ctlreq.c **** #else
 621:Middlewares/ST/STM32_USB_Device_Library/Core/Src/usbd_ctlreq.c ****     pdev->dev_config_status = 0;                                   
 622:Middlewares/ST/STM32_USB_Device_Library/Core/Src/usbd_ctlreq.c **** #endif
 623:Middlewares/ST/STM32_USB_Device_Library/Core/Src/usbd_ctlreq.c ****                       
 624:Middlewares/ST/STM32_USB_Device_Library/Core/Src/usbd_ctlreq.c ****     if (pdev->dev_remote_wakeup) 
 625:Middlewares/ST/STM32_USB_Device_Library/Core/Src/usbd_ctlreq.c ****     {
 626:Middlewares/ST/STM32_USB_Device_Library/Core/Src/usbd_ctlreq.c ****        pdev->dev_config_status |= USB_CONFIG_REMOTE_WAKEUP;                                
 627:Middlewares/ST/STM32_USB_Device_Library/Core/Src/usbd_ctlreq.c ****     }
 628:Middlewares/ST/STM32_USB_Device_Library/Core/Src/usbd_ctlreq.c ****     
 629:Middlewares/ST/STM32_USB_Device_Library/Core/Src/usbd_ctlreq.c ****     USBD_CtlSendData (pdev, 
 630:Middlewares/ST/STM32_USB_Device_Library/Core/Src/usbd_ctlreq.c ****                       (uint8_t *)& pdev->dev_config_status,
 631:Middlewares/ST/STM32_USB_Device_Library/Core/Src/usbd_ctlreq.c ****                       2);
 632:Middlewares/ST/STM32_USB_Device_Library/Core/Src/usbd_ctlreq.c ****     break;
 633:Middlewares/ST/STM32_USB_Device_Library/Core/Src/usbd_ctlreq.c ****     
 634:Middlewares/ST/STM32_USB_Device_Library/Core/Src/usbd_ctlreq.c ****   default :
 635:Middlewares/ST/STM32_USB_Device_Library/Core/Src/usbd_ctlreq.c ****     USBD_CtlError(pdev , req);                        
 636:Middlewares/ST/STM32_USB_Device_Library/Core/Src/usbd_ctlreq.c ****     break;
 637:Middlewares/ST/STM32_USB_Device_Library/Core/Src/usbd_ctlreq.c ****   }
 638:Middlewares/ST/STM32_USB_Device_Library/Core/Src/usbd_ctlreq.c **** }
 639:Middlewares/ST/STM32_USB_Device_Library/Core/Src/usbd_ctlreq.c **** 
 640:Middlewares/ST/STM32_USB_Device_Library/Core/Src/usbd_ctlreq.c **** 
 641:Middlewares/ST/STM32_USB_Device_Library/Core/Src/usbd_ctlreq.c **** /**
 642:Middlewares/ST/STM32_USB_Device_Library/Core/Src/usbd_ctlreq.c **** * @brief  USBD_SetFeature
 643:Middlewares/ST/STM32_USB_Device_Library/Core/Src/usbd_ctlreq.c **** *         Handle Set device feature request
 644:Middlewares/ST/STM32_USB_Device_Library/Core/Src/usbd_ctlreq.c **** * @param  pdev: device instance
 645:Middlewares/ST/STM32_USB_Device_Library/Core/Src/usbd_ctlreq.c **** * @param  req: usb request
 646:Middlewares/ST/STM32_USB_Device_Library/Core/Src/usbd_ctlreq.c **** * @retval status
 647:Middlewares/ST/STM32_USB_Device_Library/Core/Src/usbd_ctlreq.c **** */
 648:Middlewares/ST/STM32_USB_Device_Library/Core/Src/usbd_ctlreq.c **** static void USBD_SetFeature(USBD_HandleTypeDef *pdev , 
 649:Middlewares/ST/STM32_USB_Device_Library/Core/Src/usbd_ctlreq.c ****                             USBD_SetupReqTypedef *req)
 650:Middlewares/ST/STM32_USB_Device_Library/Core/Src/usbd_ctlreq.c **** {
 651:Middlewares/ST/STM32_USB_Device_Library/Core/Src/usbd_ctlreq.c **** 
 652:Middlewares/ST/STM32_USB_Device_Library/Core/Src/usbd_ctlreq.c ****   if (req->wValue == USB_FEATURE_REMOTE_WAKEUP)
 653:Middlewares/ST/STM32_USB_Device_Library/Core/Src/usbd_ctlreq.c ****   {
 654:Middlewares/ST/STM32_USB_Device_Library/Core/Src/usbd_ctlreq.c ****     pdev->dev_remote_wakeup = 1;  
 655:Middlewares/ST/STM32_USB_Device_Library/Core/Src/usbd_ctlreq.c ****     pdev->pClass->Setup (pdev, req);   
 656:Middlewares/ST/STM32_USB_Device_Library/Core/Src/usbd_ctlreq.c ****     USBD_CtlSendStatus(pdev);
 657:Middlewares/ST/STM32_USB_Device_Library/Core/Src/usbd_ctlreq.c ****   }
 658:Middlewares/ST/STM32_USB_Device_Library/Core/Src/usbd_ctlreq.c **** 
 659:Middlewares/ST/STM32_USB_Device_Library/Core/Src/usbd_ctlreq.c **** }
ARM GAS  /var/folders/rf/wfq6hz5s56g3yh4wqgd7820c0000gn/T//ccoNHwng.s 			page 13


 660:Middlewares/ST/STM32_USB_Device_Library/Core/Src/usbd_ctlreq.c **** 
 661:Middlewares/ST/STM32_USB_Device_Library/Core/Src/usbd_ctlreq.c **** 
 662:Middlewares/ST/STM32_USB_Device_Library/Core/Src/usbd_ctlreq.c **** /**
 663:Middlewares/ST/STM32_USB_Device_Library/Core/Src/usbd_ctlreq.c **** * @brief  USBD_ClrFeature
 664:Middlewares/ST/STM32_USB_Device_Library/Core/Src/usbd_ctlreq.c **** *         Handle clear device feature request
 665:Middlewares/ST/STM32_USB_Device_Library/Core/Src/usbd_ctlreq.c **** * @param  pdev: device instance
 666:Middlewares/ST/STM32_USB_Device_Library/Core/Src/usbd_ctlreq.c **** * @param  req: usb request
 667:Middlewares/ST/STM32_USB_Device_Library/Core/Src/usbd_ctlreq.c **** * @retval status
 668:Middlewares/ST/STM32_USB_Device_Library/Core/Src/usbd_ctlreq.c **** */
 669:Middlewares/ST/STM32_USB_Device_Library/Core/Src/usbd_ctlreq.c **** static void USBD_ClrFeature(USBD_HandleTypeDef *pdev , 
 670:Middlewares/ST/STM32_USB_Device_Library/Core/Src/usbd_ctlreq.c ****                             USBD_SetupReqTypedef *req)
 671:Middlewares/ST/STM32_USB_Device_Library/Core/Src/usbd_ctlreq.c **** {
 672:Middlewares/ST/STM32_USB_Device_Library/Core/Src/usbd_ctlreq.c ****   switch (pdev->dev_state)
 673:Middlewares/ST/STM32_USB_Device_Library/Core/Src/usbd_ctlreq.c ****   {
 674:Middlewares/ST/STM32_USB_Device_Library/Core/Src/usbd_ctlreq.c ****   case USBD_STATE_ADDRESSED:
 675:Middlewares/ST/STM32_USB_Device_Library/Core/Src/usbd_ctlreq.c ****   case USBD_STATE_CONFIGURED:
 676:Middlewares/ST/STM32_USB_Device_Library/Core/Src/usbd_ctlreq.c ****     if (req->wValue == USB_FEATURE_REMOTE_WAKEUP) 
 677:Middlewares/ST/STM32_USB_Device_Library/Core/Src/usbd_ctlreq.c ****     {
 678:Middlewares/ST/STM32_USB_Device_Library/Core/Src/usbd_ctlreq.c ****       pdev->dev_remote_wakeup = 0; 
 679:Middlewares/ST/STM32_USB_Device_Library/Core/Src/usbd_ctlreq.c ****       pdev->pClass->Setup (pdev, req);   
 680:Middlewares/ST/STM32_USB_Device_Library/Core/Src/usbd_ctlreq.c ****       USBD_CtlSendStatus(pdev);
 681:Middlewares/ST/STM32_USB_Device_Library/Core/Src/usbd_ctlreq.c ****     }
 682:Middlewares/ST/STM32_USB_Device_Library/Core/Src/usbd_ctlreq.c ****     break;
 683:Middlewares/ST/STM32_USB_Device_Library/Core/Src/usbd_ctlreq.c ****     
 684:Middlewares/ST/STM32_USB_Device_Library/Core/Src/usbd_ctlreq.c ****   default :
 685:Middlewares/ST/STM32_USB_Device_Library/Core/Src/usbd_ctlreq.c ****      USBD_CtlError(pdev , req);
 686:Middlewares/ST/STM32_USB_Device_Library/Core/Src/usbd_ctlreq.c ****     break;
 687:Middlewares/ST/STM32_USB_Device_Library/Core/Src/usbd_ctlreq.c ****   }
 688:Middlewares/ST/STM32_USB_Device_Library/Core/Src/usbd_ctlreq.c **** }
 689:Middlewares/ST/STM32_USB_Device_Library/Core/Src/usbd_ctlreq.c **** 
 690:Middlewares/ST/STM32_USB_Device_Library/Core/Src/usbd_ctlreq.c **** /**
 691:Middlewares/ST/STM32_USB_Device_Library/Core/Src/usbd_ctlreq.c **** * @brief  USBD_ParseSetupRequest 
 692:Middlewares/ST/STM32_USB_Device_Library/Core/Src/usbd_ctlreq.c **** *         Copy buffer into setup structure
 693:Middlewares/ST/STM32_USB_Device_Library/Core/Src/usbd_ctlreq.c **** * @param  pdev: device instance
 694:Middlewares/ST/STM32_USB_Device_Library/Core/Src/usbd_ctlreq.c **** * @param  req: usb request
 695:Middlewares/ST/STM32_USB_Device_Library/Core/Src/usbd_ctlreq.c **** * @retval None
 696:Middlewares/ST/STM32_USB_Device_Library/Core/Src/usbd_ctlreq.c **** */
 697:Middlewares/ST/STM32_USB_Device_Library/Core/Src/usbd_ctlreq.c **** 
 698:Middlewares/ST/STM32_USB_Device_Library/Core/Src/usbd_ctlreq.c **** void USBD_ParseSetupRequest(USBD_SetupReqTypedef *req, uint8_t *pdata)
 699:Middlewares/ST/STM32_USB_Device_Library/Core/Src/usbd_ctlreq.c **** {
 700:Middlewares/ST/STM32_USB_Device_Library/Core/Src/usbd_ctlreq.c ****   req->bmRequest     = *(uint8_t *)  (pdata);
 701:Middlewares/ST/STM32_USB_Device_Library/Core/Src/usbd_ctlreq.c ****   req->bRequest      = *(uint8_t *)  (pdata +  1);
 702:Middlewares/ST/STM32_USB_Device_Library/Core/Src/usbd_ctlreq.c ****   req->wValue        = SWAPBYTE      (pdata +  2);
 703:Middlewares/ST/STM32_USB_Device_Library/Core/Src/usbd_ctlreq.c ****   req->wIndex        = SWAPBYTE      (pdata +  4);
 704:Middlewares/ST/STM32_USB_Device_Library/Core/Src/usbd_ctlreq.c ****   req->wLength       = SWAPBYTE      (pdata +  6);
 705:Middlewares/ST/STM32_USB_Device_Library/Core/Src/usbd_ctlreq.c **** 
 706:Middlewares/ST/STM32_USB_Device_Library/Core/Src/usbd_ctlreq.c **** }
 707:Middlewares/ST/STM32_USB_Device_Library/Core/Src/usbd_ctlreq.c **** 
 708:Middlewares/ST/STM32_USB_Device_Library/Core/Src/usbd_ctlreq.c **** /**
 709:Middlewares/ST/STM32_USB_Device_Library/Core/Src/usbd_ctlreq.c **** * @brief  USBD_CtlError 
 710:Middlewares/ST/STM32_USB_Device_Library/Core/Src/usbd_ctlreq.c **** *         Handle USB low level Error
 711:Middlewares/ST/STM32_USB_Device_Library/Core/Src/usbd_ctlreq.c **** * @param  pdev: device instance
 712:Middlewares/ST/STM32_USB_Device_Library/Core/Src/usbd_ctlreq.c **** * @param  req: usb request
 713:Middlewares/ST/STM32_USB_Device_Library/Core/Src/usbd_ctlreq.c **** * @retval None
 714:Middlewares/ST/STM32_USB_Device_Library/Core/Src/usbd_ctlreq.c **** */
 715:Middlewares/ST/STM32_USB_Device_Library/Core/Src/usbd_ctlreq.c **** 
 716:Middlewares/ST/STM32_USB_Device_Library/Core/Src/usbd_ctlreq.c **** void USBD_CtlError( USBD_HandleTypeDef *pdev ,
ARM GAS  /var/folders/rf/wfq6hz5s56g3yh4wqgd7820c0000gn/T//ccoNHwng.s 			page 14


 717:Middlewares/ST/STM32_USB_Device_Library/Core/Src/usbd_ctlreq.c ****                             USBD_SetupReqTypedef *req)
 718:Middlewares/ST/STM32_USB_Device_Library/Core/Src/usbd_ctlreq.c **** {
 719:Middlewares/ST/STM32_USB_Device_Library/Core/Src/usbd_ctlreq.c ****   USBD_LL_StallEP(pdev , 0x80);
 720:Middlewares/ST/STM32_USB_Device_Library/Core/Src/usbd_ctlreq.c ****   USBD_LL_StallEP(pdev , 0);
 721:Middlewares/ST/STM32_USB_Device_Library/Core/Src/usbd_ctlreq.c **** }
 722:Middlewares/ST/STM32_USB_Device_Library/Core/Src/usbd_ctlreq.c **** 
 723:Middlewares/ST/STM32_USB_Device_Library/Core/Src/usbd_ctlreq.c **** 
 724:Middlewares/ST/STM32_USB_Device_Library/Core/Src/usbd_ctlreq.c **** /**
 725:Middlewares/ST/STM32_USB_Device_Library/Core/Src/usbd_ctlreq.c ****   * @brief  USBD_GetString
 726:Middlewares/ST/STM32_USB_Device_Library/Core/Src/usbd_ctlreq.c ****   *         Convert Ascii string into unicode one
 727:Middlewares/ST/STM32_USB_Device_Library/Core/Src/usbd_ctlreq.c ****   * @param  desc : descriptor buffer
 728:Middlewares/ST/STM32_USB_Device_Library/Core/Src/usbd_ctlreq.c ****   * @param  unicode : Formatted string buffer (unicode)
 729:Middlewares/ST/STM32_USB_Device_Library/Core/Src/usbd_ctlreq.c ****   * @param  len : descriptor length
 730:Middlewares/ST/STM32_USB_Device_Library/Core/Src/usbd_ctlreq.c ****   * @retval None
 731:Middlewares/ST/STM32_USB_Device_Library/Core/Src/usbd_ctlreq.c ****   */
 732:Middlewares/ST/STM32_USB_Device_Library/Core/Src/usbd_ctlreq.c **** void USBD_GetString(uint8_t *desc, uint8_t *unicode, uint16_t *len)
 733:Middlewares/ST/STM32_USB_Device_Library/Core/Src/usbd_ctlreq.c **** {
 734:Middlewares/ST/STM32_USB_Device_Library/Core/Src/usbd_ctlreq.c ****   uint8_t idx = 0;
 735:Middlewares/ST/STM32_USB_Device_Library/Core/Src/usbd_ctlreq.c ****   
 736:Middlewares/ST/STM32_USB_Device_Library/Core/Src/usbd_ctlreq.c ****   if (desc != NULL) 
 737:Middlewares/ST/STM32_USB_Device_Library/Core/Src/usbd_ctlreq.c ****   {
 738:Middlewares/ST/STM32_USB_Device_Library/Core/Src/usbd_ctlreq.c ****     *len =  USBD_GetLen(desc) * 2 + 2;    
 739:Middlewares/ST/STM32_USB_Device_Library/Core/Src/usbd_ctlreq.c ****     unicode[idx++] = *len;
 740:Middlewares/ST/STM32_USB_Device_Library/Core/Src/usbd_ctlreq.c ****     unicode[idx++] =  USB_DESC_TYPE_STRING;
 741:Middlewares/ST/STM32_USB_Device_Library/Core/Src/usbd_ctlreq.c ****     
 742:Middlewares/ST/STM32_USB_Device_Library/Core/Src/usbd_ctlreq.c ****     while (*desc != '\0') 
 743:Middlewares/ST/STM32_USB_Device_Library/Core/Src/usbd_ctlreq.c ****     {
 744:Middlewares/ST/STM32_USB_Device_Library/Core/Src/usbd_ctlreq.c ****       unicode[idx++] = *desc++;
 745:Middlewares/ST/STM32_USB_Device_Library/Core/Src/usbd_ctlreq.c ****       unicode[idx++] =  0x00;
 746:Middlewares/ST/STM32_USB_Device_Library/Core/Src/usbd_ctlreq.c ****     }
 747:Middlewares/ST/STM32_USB_Device_Library/Core/Src/usbd_ctlreq.c ****   } 
 748:Middlewares/ST/STM32_USB_Device_Library/Core/Src/usbd_ctlreq.c **** }
 749:Middlewares/ST/STM32_USB_Device_Library/Core/Src/usbd_ctlreq.c **** 
 750:Middlewares/ST/STM32_USB_Device_Library/Core/Src/usbd_ctlreq.c **** /**
 751:Middlewares/ST/STM32_USB_Device_Library/Core/Src/usbd_ctlreq.c ****   * @brief  USBD_GetLen
 752:Middlewares/ST/STM32_USB_Device_Library/Core/Src/usbd_ctlreq.c ****   *         return the string length
 753:Middlewares/ST/STM32_USB_Device_Library/Core/Src/usbd_ctlreq.c ****    * @param  buf : pointer to the ascii string buffer
 754:Middlewares/ST/STM32_USB_Device_Library/Core/Src/usbd_ctlreq.c ****   * @retval string length
 755:Middlewares/ST/STM32_USB_Device_Library/Core/Src/usbd_ctlreq.c ****   */
 756:Middlewares/ST/STM32_USB_Device_Library/Core/Src/usbd_ctlreq.c **** static uint8_t USBD_GetLen(uint8_t *buf)
 757:Middlewares/ST/STM32_USB_Device_Library/Core/Src/usbd_ctlreq.c **** {
  27              		.loc 1 757 1 view -0
  28              		.cfi_startproc
  29              		@ args = 0, pretend = 0, frame = 0
  30              		@ frame_needed = 0, uses_anonymous_args = 0
  31              		@ link register save eliminated.
  32              		.loc 1 757 1 is_stmt 0 view .LVU1
  33 0000 0346     		mov	r3, r0
 758:Middlewares/ST/STM32_USB_Device_Library/Core/Src/usbd_ctlreq.c ****     uint8_t  len = 0;
  34              		.loc 1 758 5 is_stmt 1 view .LVU2
  35              	.LVL1:
 759:Middlewares/ST/STM32_USB_Device_Library/Core/Src/usbd_ctlreq.c **** 
 760:Middlewares/ST/STM32_USB_Device_Library/Core/Src/usbd_ctlreq.c ****     while (*buf != '\0') 
  36              		.loc 1 760 5 view .LVU3
 758:Middlewares/ST/STM32_USB_Device_Library/Core/Src/usbd_ctlreq.c ****     uint8_t  len = 0;
  37              		.loc 1 758 14 is_stmt 0 view .LVU4
  38 0002 0020     		movs	r0, #0
ARM GAS  /var/folders/rf/wfq6hz5s56g3yh4wqgd7820c0000gn/T//ccoNHwng.s 			page 15


  39              	.LVL2:
  40              	.L2:
  41              		.loc 1 760 11 is_stmt 1 view .LVU5
  42              		.loc 1 760 12 is_stmt 0 view .LVU6
  43 0004 1A78     		ldrb	r2, [r3]	@ zero_extendqisi2
  44              		.loc 1 760 11 view .LVU7
  45 0006 1AB1     		cbz	r2, .L4
 761:Middlewares/ST/STM32_USB_Device_Library/Core/Src/usbd_ctlreq.c ****     {
 762:Middlewares/ST/STM32_USB_Device_Library/Core/Src/usbd_ctlreq.c ****         len++;
  46              		.loc 1 762 9 is_stmt 1 view .LVU8
  47              		.loc 1 762 12 is_stmt 0 view .LVU9
  48 0008 0130     		adds	r0, r0, #1
  49              	.LVL3:
  50              		.loc 1 762 12 view .LVU10
  51 000a C0B2     		uxtb	r0, r0
  52              	.LVL4:
 763:Middlewares/ST/STM32_USB_Device_Library/Core/Src/usbd_ctlreq.c ****         buf++;
  53              		.loc 1 763 9 is_stmt 1 view .LVU11
  54              		.loc 1 763 12 is_stmt 0 view .LVU12
  55 000c 0133     		adds	r3, r3, #1
  56              	.LVL5:
  57              		.loc 1 763 12 view .LVU13
  58 000e F9E7     		b	.L2
  59              	.L4:
 764:Middlewares/ST/STM32_USB_Device_Library/Core/Src/usbd_ctlreq.c ****     }
 765:Middlewares/ST/STM32_USB_Device_Library/Core/Src/usbd_ctlreq.c **** 
 766:Middlewares/ST/STM32_USB_Device_Library/Core/Src/usbd_ctlreq.c ****     return len;
 767:Middlewares/ST/STM32_USB_Device_Library/Core/Src/usbd_ctlreq.c **** }
  60              		.loc 1 767 1 view .LVU14
  61 0010 7047     		bx	lr
  62              		.cfi_endproc
  63              	.LFE79:
  65              		.section	.text.USBD_SetFeature,"ax",%progbits
  66              		.align	1
  67              		.syntax unified
  68              		.thumb
  69              		.thumb_func
  70              		.fpu softvfp
  72              	USBD_SetFeature:
  73              	.LVL6:
  74              	.LFB74:
 650:Middlewares/ST/STM32_USB_Device_Library/Core/Src/usbd_ctlreq.c **** 
  75              		.loc 1 650 1 is_stmt 1 view -0
  76              		.cfi_startproc
  77              		@ args = 0, pretend = 0, frame = 0
  78              		@ frame_needed = 0, uses_anonymous_args = 0
 652:Middlewares/ST/STM32_USB_Device_Library/Core/Src/usbd_ctlreq.c ****   {
  79              		.loc 1 652 3 view .LVU16
 652:Middlewares/ST/STM32_USB_Device_Library/Core/Src/usbd_ctlreq.c ****   {
  80              		.loc 1 652 10 is_stmt 0 view .LVU17
  81 0000 4B88     		ldrh	r3, [r1, #2]
 652:Middlewares/ST/STM32_USB_Device_Library/Core/Src/usbd_ctlreq.c ****   {
  82              		.loc 1 652 6 view .LVU18
  83 0002 012B     		cmp	r3, #1
  84 0004 00D0     		beq	.L11
  85 0006 7047     		bx	lr
  86              	.L11:
ARM GAS  /var/folders/rf/wfq6hz5s56g3yh4wqgd7820c0000gn/T//ccoNHwng.s 			page 16


 650:Middlewares/ST/STM32_USB_Device_Library/Core/Src/usbd_ctlreq.c **** 
  87              		.loc 1 650 1 view .LVU19
  88 0008 10B5     		push	{r4, lr}
  89              	.LCFI0:
  90              		.cfi_def_cfa_offset 8
  91              		.cfi_offset 4, -8
  92              		.cfi_offset 14, -4
  93 000a 0446     		mov	r4, r0
 654:Middlewares/ST/STM32_USB_Device_Library/Core/Src/usbd_ctlreq.c ****     pdev->pClass->Setup (pdev, req);   
  94              		.loc 1 654 5 is_stmt 1 view .LVU20
 654:Middlewares/ST/STM32_USB_Device_Library/Core/Src/usbd_ctlreq.c ****     pdev->pClass->Setup (pdev, req);   
  95              		.loc 1 654 29 is_stmt 0 view .LVU21
  96 000c C0F80432 		str	r3, [r0, #516]
 655:Middlewares/ST/STM32_USB_Device_Library/Core/Src/usbd_ctlreq.c ****     USBD_CtlSendStatus(pdev);
  97              		.loc 1 655 5 is_stmt 1 view .LVU22
 655:Middlewares/ST/STM32_USB_Device_Library/Core/Src/usbd_ctlreq.c ****     USBD_CtlSendStatus(pdev);
  98              		.loc 1 655 9 is_stmt 0 view .LVU23
  99 0010 D0F81432 		ldr	r3, [r0, #532]
 655:Middlewares/ST/STM32_USB_Device_Library/Core/Src/usbd_ctlreq.c ****     USBD_CtlSendStatus(pdev);
 100              		.loc 1 655 17 view .LVU24
 101 0014 9B68     		ldr	r3, [r3, #8]
 655:Middlewares/ST/STM32_USB_Device_Library/Core/Src/usbd_ctlreq.c ****     USBD_CtlSendStatus(pdev);
 102              		.loc 1 655 5 view .LVU25
 103 0016 9847     		blx	r3
 104              	.LVL7:
 656:Middlewares/ST/STM32_USB_Device_Library/Core/Src/usbd_ctlreq.c ****   }
 105              		.loc 1 656 5 is_stmt 1 view .LVU26
 106 0018 2046     		mov	r0, r4
 107 001a FFF7FEFF 		bl	USBD_CtlSendStatus
 108              	.LVL8:
 659:Middlewares/ST/STM32_USB_Device_Library/Core/Src/usbd_ctlreq.c **** 
 109              		.loc 1 659 1 is_stmt 0 view .LVU27
 110 001e 10BD     		pop	{r4, pc}
 659:Middlewares/ST/STM32_USB_Device_Library/Core/Src/usbd_ctlreq.c **** 
 111              		.loc 1 659 1 view .LVU28
 112              		.cfi_endproc
 113              	.LFE74:
 115              		.section	.text.USBD_ParseSetupRequest,"ax",%progbits
 116              		.align	1
 117              		.global	USBD_ParseSetupRequest
 118              		.syntax unified
 119              		.thumb
 120              		.thumb_func
 121              		.fpu softvfp
 123              	USBD_ParseSetupRequest:
 124              	.LVL9:
 125              	.LFB76:
 699:Middlewares/ST/STM32_USB_Device_Library/Core/Src/usbd_ctlreq.c ****   req->bmRequest     = *(uint8_t *)  (pdata);
 126              		.loc 1 699 1 is_stmt 1 view -0
 127              		.cfi_startproc
 128              		@ args = 0, pretend = 0, frame = 0
 129              		@ frame_needed = 0, uses_anonymous_args = 0
 130              		@ link register save eliminated.
 700:Middlewares/ST/STM32_USB_Device_Library/Core/Src/usbd_ctlreq.c ****   req->bRequest      = *(uint8_t *)  (pdata +  1);
 131              		.loc 1 700 3 view .LVU30
 700:Middlewares/ST/STM32_USB_Device_Library/Core/Src/usbd_ctlreq.c ****   req->bRequest      = *(uint8_t *)  (pdata +  1);
 132              		.loc 1 700 24 is_stmt 0 view .LVU31
ARM GAS  /var/folders/rf/wfq6hz5s56g3yh4wqgd7820c0000gn/T//ccoNHwng.s 			page 17


 133 0000 0B78     		ldrb	r3, [r1]	@ zero_extendqisi2
 700:Middlewares/ST/STM32_USB_Device_Library/Core/Src/usbd_ctlreq.c ****   req->bRequest      = *(uint8_t *)  (pdata +  1);
 134              		.loc 1 700 22 view .LVU32
 135 0002 0370     		strb	r3, [r0]
 701:Middlewares/ST/STM32_USB_Device_Library/Core/Src/usbd_ctlreq.c ****   req->wValue        = SWAPBYTE      (pdata +  2);
 136              		.loc 1 701 3 is_stmt 1 view .LVU33
 701:Middlewares/ST/STM32_USB_Device_Library/Core/Src/usbd_ctlreq.c ****   req->wValue        = SWAPBYTE      (pdata +  2);
 137              		.loc 1 701 22 is_stmt 0 view .LVU34
 138 0004 4B78     		ldrb	r3, [r1, #1]	@ zero_extendqisi2
 139 0006 4370     		strb	r3, [r0, #1]
 702:Middlewares/ST/STM32_USB_Device_Library/Core/Src/usbd_ctlreq.c ****   req->wIndex        = SWAPBYTE      (pdata +  4);
 140              		.loc 1 702 3 is_stmt 1 view .LVU35
 702:Middlewares/ST/STM32_USB_Device_Library/Core/Src/usbd_ctlreq.c ****   req->wIndex        = SWAPBYTE      (pdata +  4);
 141              		.loc 1 702 24 is_stmt 0 view .LVU36
 142 0008 8B78     		ldrb	r3, [r1, #2]	@ zero_extendqisi2
 143 000a CA78     		ldrb	r2, [r1, #3]	@ zero_extendqisi2
 144 000c 03EB0223 		add	r3, r3, r2, lsl #8
 702:Middlewares/ST/STM32_USB_Device_Library/Core/Src/usbd_ctlreq.c ****   req->wIndex        = SWAPBYTE      (pdata +  4);
 145              		.loc 1 702 22 view .LVU37
 146 0010 4380     		strh	r3, [r0, #2]	@ movhi
 703:Middlewares/ST/STM32_USB_Device_Library/Core/Src/usbd_ctlreq.c ****   req->wLength       = SWAPBYTE      (pdata +  6);
 147              		.loc 1 703 3 is_stmt 1 view .LVU38
 703:Middlewares/ST/STM32_USB_Device_Library/Core/Src/usbd_ctlreq.c ****   req->wLength       = SWAPBYTE      (pdata +  6);
 148              		.loc 1 703 24 is_stmt 0 view .LVU39
 149 0012 0B79     		ldrb	r3, [r1, #4]	@ zero_extendqisi2
 150 0014 4A79     		ldrb	r2, [r1, #5]	@ zero_extendqisi2
 151 0016 03EB0223 		add	r3, r3, r2, lsl #8
 703:Middlewares/ST/STM32_USB_Device_Library/Core/Src/usbd_ctlreq.c ****   req->wLength       = SWAPBYTE      (pdata +  6);
 152              		.loc 1 703 22 view .LVU40
 153 001a 8380     		strh	r3, [r0, #4]	@ movhi
 704:Middlewares/ST/STM32_USB_Device_Library/Core/Src/usbd_ctlreq.c **** 
 154              		.loc 1 704 3 is_stmt 1 view .LVU41
 704:Middlewares/ST/STM32_USB_Device_Library/Core/Src/usbd_ctlreq.c **** 
 155              		.loc 1 704 24 is_stmt 0 view .LVU42
 156 001c 8B79     		ldrb	r3, [r1, #6]	@ zero_extendqisi2
 157 001e CA79     		ldrb	r2, [r1, #7]	@ zero_extendqisi2
 158 0020 03EB0223 		add	r3, r3, r2, lsl #8
 704:Middlewares/ST/STM32_USB_Device_Library/Core/Src/usbd_ctlreq.c **** 
 159              		.loc 1 704 22 view .LVU43
 160 0024 C380     		strh	r3, [r0, #6]	@ movhi
 706:Middlewares/ST/STM32_USB_Device_Library/Core/Src/usbd_ctlreq.c **** 
 161              		.loc 1 706 1 view .LVU44
 162 0026 7047     		bx	lr
 163              		.cfi_endproc
 164              	.LFE76:
 166              		.section	.text.USBD_CtlError,"ax",%progbits
 167              		.align	1
 168              		.global	USBD_CtlError
 169              		.syntax unified
 170              		.thumb
 171              		.thumb_func
 172              		.fpu softvfp
 174              	USBD_CtlError:
 175              	.LVL10:
 176              	.LFB77:
 718:Middlewares/ST/STM32_USB_Device_Library/Core/Src/usbd_ctlreq.c ****   USBD_LL_StallEP(pdev , 0x80);
 177              		.loc 1 718 1 is_stmt 1 view -0
ARM GAS  /var/folders/rf/wfq6hz5s56g3yh4wqgd7820c0000gn/T//ccoNHwng.s 			page 18


 178              		.cfi_startproc
 179              		@ args = 0, pretend = 0, frame = 0
 180              		@ frame_needed = 0, uses_anonymous_args = 0
 718:Middlewares/ST/STM32_USB_Device_Library/Core/Src/usbd_ctlreq.c ****   USBD_LL_StallEP(pdev , 0x80);
 181              		.loc 1 718 1 is_stmt 0 view .LVU46
 182 0000 10B5     		push	{r4, lr}
 183              	.LCFI1:
 184              		.cfi_def_cfa_offset 8
 185              		.cfi_offset 4, -8
 186              		.cfi_offset 14, -4
 187 0002 0446     		mov	r4, r0
 719:Middlewares/ST/STM32_USB_Device_Library/Core/Src/usbd_ctlreq.c ****   USBD_LL_StallEP(pdev , 0);
 188              		.loc 1 719 3 is_stmt 1 view .LVU47
 189 0004 8021     		movs	r1, #128
 190              	.LVL11:
 719:Middlewares/ST/STM32_USB_Device_Library/Core/Src/usbd_ctlreq.c ****   USBD_LL_StallEP(pdev , 0);
 191              		.loc 1 719 3 is_stmt 0 view .LVU48
 192 0006 FFF7FEFF 		bl	USBD_LL_StallEP
 193              	.LVL12:
 720:Middlewares/ST/STM32_USB_Device_Library/Core/Src/usbd_ctlreq.c **** }
 194              		.loc 1 720 3 is_stmt 1 view .LVU49
 195 000a 0021     		movs	r1, #0
 196 000c 2046     		mov	r0, r4
 197 000e FFF7FEFF 		bl	USBD_LL_StallEP
 198              	.LVL13:
 721:Middlewares/ST/STM32_USB_Device_Library/Core/Src/usbd_ctlreq.c **** 
 199              		.loc 1 721 1 is_stmt 0 view .LVU50
 200 0012 10BD     		pop	{r4, pc}
 721:Middlewares/ST/STM32_USB_Device_Library/Core/Src/usbd_ctlreq.c **** 
 201              		.loc 1 721 1 view .LVU51
 202              		.cfi_endproc
 203              	.LFE77:
 205              		.section	.text.USBD_GetDescriptor,"ax",%progbits
 206              		.align	1
 207              		.syntax unified
 208              		.thumb
 209              		.thumb_func
 210              		.fpu softvfp
 212              	USBD_GetDescriptor:
 213              	.LVL14:
 214              	.LFB69:
 333:Middlewares/ST/STM32_USB_Device_Library/Core/Src/usbd_ctlreq.c ****   uint16_t len;
 215              		.loc 1 333 1 is_stmt 1 view -0
 216              		.cfi_startproc
 217              		@ args = 0, pretend = 0, frame = 8
 218              		@ frame_needed = 0, uses_anonymous_args = 0
 333:Middlewares/ST/STM32_USB_Device_Library/Core/Src/usbd_ctlreq.c ****   uint16_t len;
 219              		.loc 1 333 1 is_stmt 0 view .LVU53
 220 0000 30B5     		push	{r4, r5, lr}
 221              	.LCFI2:
 222              		.cfi_def_cfa_offset 12
 223              		.cfi_offset 4, -12
 224              		.cfi_offset 5, -8
 225              		.cfi_offset 14, -4
 226 0002 83B0     		sub	sp, sp, #12
 227              	.LCFI3:
 228              		.cfi_def_cfa_offset 24
ARM GAS  /var/folders/rf/wfq6hz5s56g3yh4wqgd7820c0000gn/T//ccoNHwng.s 			page 19


 229 0004 0446     		mov	r4, r0
 230 0006 0D46     		mov	r5, r1
 334:Middlewares/ST/STM32_USB_Device_Library/Core/Src/usbd_ctlreq.c ****   uint8_t *pbuf;
 231              		.loc 1 334 3 is_stmt 1 view .LVU54
 335:Middlewares/ST/STM32_USB_Device_Library/Core/Src/usbd_ctlreq.c ****   
 232              		.loc 1 335 3 view .LVU55
 338:Middlewares/ST/STM32_USB_Device_Library/Core/Src/usbd_ctlreq.c ****   { 
 233              		.loc 1 338 3 view .LVU56
 338:Middlewares/ST/STM32_USB_Device_Library/Core/Src/usbd_ctlreq.c ****   { 
 234              		.loc 1 338 14 is_stmt 0 view .LVU57
 235 0008 4A88     		ldrh	r2, [r1, #2]
 338:Middlewares/ST/STM32_USB_Device_Library/Core/Src/usbd_ctlreq.c ****   { 
 236              		.loc 1 338 23 view .LVU58
 237 000a 130A     		lsrs	r3, r2, #8
 238 000c 013B     		subs	r3, r3, #1
 239 000e 062B     		cmp	r3, #6
 240 0010 00F28180 		bhi	.L16
 241 0014 DFE803F0 		tbb	[pc, r3]
 242              	.LVL15:
 243              	.L18:
 244 0018 04       		.byte	(.L22-.L18)/2
 245 0019 13       		.byte	(.L21-.L18)/2
 246 001a 27       		.byte	(.L20-.L18)/2
 247 001b 7F       		.byte	(.L16-.L18)/2
 248 001c 7F       		.byte	(.L16-.L18)/2
 249 001d 63       		.byte	(.L19-.L18)/2
 250 001e 70       		.byte	(.L17-.L18)/2
 251 001f 00       		.p2align 1
 252              	.L22:
 346:Middlewares/ST/STM32_USB_Device_Library/Core/Src/usbd_ctlreq.c ****     break;
 253              		.loc 1 346 5 is_stmt 1 view .LVU59
 346:Middlewares/ST/STM32_USB_Device_Library/Core/Src/usbd_ctlreq.c ****     break;
 254              		.loc 1 346 16 is_stmt 0 view .LVU60
 255 0020 D0F81032 		ldr	r3, [r0, #528]
 346:Middlewares/ST/STM32_USB_Device_Library/Core/Src/usbd_ctlreq.c ****     break;
 256              		.loc 1 346 23 view .LVU61
 257 0024 1B68     		ldr	r3, [r3]
 346:Middlewares/ST/STM32_USB_Device_Library/Core/Src/usbd_ctlreq.c ****     break;
 258              		.loc 1 346 12 view .LVU62
 259 0026 0DF10601 		add	r1, sp, #6
 260 002a 007C     		ldrb	r0, [r0, #16]	@ zero_extendqisi2
 261              	.LVL16:
 346:Middlewares/ST/STM32_USB_Device_Library/Core/Src/usbd_ctlreq.c ****     break;
 262              		.loc 1 346 12 view .LVU63
 263 002c 9847     		blx	r3
 264              	.LVL17:
 347:Middlewares/ST/STM32_USB_Device_Library/Core/Src/usbd_ctlreq.c ****     
 265              		.loc 1 347 5 is_stmt 1 view .LVU64
 266              	.L23:
 430:Middlewares/ST/STM32_USB_Device_Library/Core/Src/usbd_ctlreq.c ****   {
 267              		.loc 1 430 3 view .LVU65
 430:Middlewares/ST/STM32_USB_Device_Library/Core/Src/usbd_ctlreq.c ****   {
 268              		.loc 1 430 11 is_stmt 0 view .LVU66
 269 002e BDF80620 		ldrh	r2, [sp, #6]
 430:Middlewares/ST/STM32_USB_Device_Library/Core/Src/usbd_ctlreq.c ****   {
 270              		.loc 1 430 5 view .LVU67
 271 0032 12B1     		cbz	r2, .L15
ARM GAS  /var/folders/rf/wfq6hz5s56g3yh4wqgd7820c0000gn/T//ccoNHwng.s 			page 20


 430:Middlewares/ST/STM32_USB_Device_Library/Core/Src/usbd_ctlreq.c ****   {
 272              		.loc 1 430 23 discriminator 1 view .LVU68
 273 0034 EB88     		ldrh	r3, [r5, #6]
 430:Middlewares/ST/STM32_USB_Device_Library/Core/Src/usbd_ctlreq.c ****   {
 274              		.loc 1 430 16 discriminator 1 view .LVU69
 275 0036 002B     		cmp	r3, #0
 276 0038 71D1     		bne	.L39
 277              	.LVL18:
 278              	.L15:
 440:Middlewares/ST/STM32_USB_Device_Library/Core/Src/usbd_ctlreq.c **** 
 279              		.loc 1 440 1 view .LVU70
 280 003a 03B0     		add	sp, sp, #12
 281              	.LCFI4:
 282              		.cfi_remember_state
 283              		.cfi_def_cfa_offset 12
 284              		@ sp needed
 285 003c 30BD     		pop	{r4, r5, pc}
 286              	.LVL19:
 287              	.L21:
 288              	.LCFI5:
 289              		.cfi_restore_state
 350:Middlewares/ST/STM32_USB_Device_Library/Core/Src/usbd_ctlreq.c ****     {
 290              		.loc 1 350 5 is_stmt 1 view .LVU71
 350:Middlewares/ST/STM32_USB_Device_Library/Core/Src/usbd_ctlreq.c ****     {
 291              		.loc 1 350 12 is_stmt 0 view .LVU72
 292 003e 037C     		ldrb	r3, [r0, #16]	@ zero_extendqisi2
 350:Middlewares/ST/STM32_USB_Device_Library/Core/Src/usbd_ctlreq.c ****     {
 293              		.loc 1 350 7 view .LVU73
 294 0040 43B9     		cbnz	r3, .L24
 352:Middlewares/ST/STM32_USB_Device_Library/Core/Src/usbd_ctlreq.c ****       pbuf[1] = USB_DESC_TYPE_CONFIGURATION;
 295              		.loc 1 352 7 is_stmt 1 view .LVU74
 352:Middlewares/ST/STM32_USB_Device_Library/Core/Src/usbd_ctlreq.c ****       pbuf[1] = USB_DESC_TYPE_CONFIGURATION;
 296              		.loc 1 352 31 is_stmt 0 view .LVU75
 297 0042 D0F81432 		ldr	r3, [r0, #532]
 352:Middlewares/ST/STM32_USB_Device_Library/Core/Src/usbd_ctlreq.c ****       pbuf[1] = USB_DESC_TYPE_CONFIGURATION;
 298              		.loc 1 352 39 view .LVU76
 299 0046 9B6A     		ldr	r3, [r3, #40]
 352:Middlewares/ST/STM32_USB_Device_Library/Core/Src/usbd_ctlreq.c ****       pbuf[1] = USB_DESC_TYPE_CONFIGURATION;
 300              		.loc 1 352 16 view .LVU77
 301 0048 0DF10600 		add	r0, sp, #6
 302              	.LVL20:
 352:Middlewares/ST/STM32_USB_Device_Library/Core/Src/usbd_ctlreq.c ****       pbuf[1] = USB_DESC_TYPE_CONFIGURATION;
 303              		.loc 1 352 16 view .LVU78
 304 004c 9847     		blx	r3
 305              	.LVL21:
 353:Middlewares/ST/STM32_USB_Device_Library/Core/Src/usbd_ctlreq.c ****     }
 306              		.loc 1 353 7 is_stmt 1 view .LVU79
 353:Middlewares/ST/STM32_USB_Device_Library/Core/Src/usbd_ctlreq.c ****     }
 307              		.loc 1 353 15 is_stmt 0 view .LVU80
 308 004e 0223     		movs	r3, #2
 309 0050 4370     		strb	r3, [r0, #1]
 310 0052 ECE7     		b	.L23
 311              	.LVL22:
 312              	.L24:
 357:Middlewares/ST/STM32_USB_Device_Library/Core/Src/usbd_ctlreq.c ****       pbuf[1] = USB_DESC_TYPE_CONFIGURATION;
 313              		.loc 1 357 7 is_stmt 1 view .LVU81
 357:Middlewares/ST/STM32_USB_Device_Library/Core/Src/usbd_ctlreq.c ****       pbuf[1] = USB_DESC_TYPE_CONFIGURATION;
ARM GAS  /var/folders/rf/wfq6hz5s56g3yh4wqgd7820c0000gn/T//ccoNHwng.s 			page 21


 314              		.loc 1 357 31 is_stmt 0 view .LVU82
 315 0054 D0F81432 		ldr	r3, [r0, #532]
 357:Middlewares/ST/STM32_USB_Device_Library/Core/Src/usbd_ctlreq.c ****       pbuf[1] = USB_DESC_TYPE_CONFIGURATION;
 316              		.loc 1 357 39 view .LVU83
 317 0058 DB6A     		ldr	r3, [r3, #44]
 357:Middlewares/ST/STM32_USB_Device_Library/Core/Src/usbd_ctlreq.c ****       pbuf[1] = USB_DESC_TYPE_CONFIGURATION;
 318              		.loc 1 357 16 view .LVU84
 319 005a 0DF10600 		add	r0, sp, #6
 320              	.LVL23:
 357:Middlewares/ST/STM32_USB_Device_Library/Core/Src/usbd_ctlreq.c ****       pbuf[1] = USB_DESC_TYPE_CONFIGURATION;
 321              		.loc 1 357 16 view .LVU85
 322 005e 9847     		blx	r3
 323              	.LVL24:
 358:Middlewares/ST/STM32_USB_Device_Library/Core/Src/usbd_ctlreq.c ****     }
 324              		.loc 1 358 7 is_stmt 1 view .LVU86
 358:Middlewares/ST/STM32_USB_Device_Library/Core/Src/usbd_ctlreq.c ****     }
 325              		.loc 1 358 15 is_stmt 0 view .LVU87
 326 0060 0223     		movs	r3, #2
 327 0062 4370     		strb	r3, [r0, #1]
 328 0064 E3E7     		b	.L23
 329              	.LVL25:
 330              	.L20:
 363:Middlewares/ST/STM32_USB_Device_Library/Core/Src/usbd_ctlreq.c ****     {
 331              		.loc 1 363 5 is_stmt 1 view .LVU88
 363:Middlewares/ST/STM32_USB_Device_Library/Core/Src/usbd_ctlreq.c ****     {
 332              		.loc 1 363 13 is_stmt 0 view .LVU89
 333 0066 D2B2     		uxtb	r2, r2
 334 0068 052A     		cmp	r2, #5
 335 006a 34D8     		bhi	.L25
 336 006c DFE802F0 		tbb	[pc, r2]
 337              	.L27:
 338 0070 03       		.byte	(.L32-.L27)/2
 339 0071 0B       		.byte	(.L31-.L27)/2
 340 0072 13       		.byte	(.L30-.L27)/2
 341 0073 1B       		.byte	(.L29-.L27)/2
 342 0074 23       		.byte	(.L28-.L27)/2
 343 0075 2B       		.byte	(.L26-.L27)/2
 344              		.p2align 1
 345              	.L32:
 366:Middlewares/ST/STM32_USB_Device_Library/Core/Src/usbd_ctlreq.c ****       break;
 346              		.loc 1 366 6 is_stmt 1 view .LVU90
 366:Middlewares/ST/STM32_USB_Device_Library/Core/Src/usbd_ctlreq.c ****       break;
 347              		.loc 1 366 17 is_stmt 0 view .LVU91
 348 0076 D0F81032 		ldr	r3, [r0, #528]
 366:Middlewares/ST/STM32_USB_Device_Library/Core/Src/usbd_ctlreq.c ****       break;
 349              		.loc 1 366 24 view .LVU92
 350 007a 5B68     		ldr	r3, [r3, #4]
 366:Middlewares/ST/STM32_USB_Device_Library/Core/Src/usbd_ctlreq.c ****       break;
 351              		.loc 1 366 13 view .LVU93
 352 007c 0DF10601 		add	r1, sp, #6
 353 0080 007C     		ldrb	r0, [r0, #16]	@ zero_extendqisi2
 354              	.LVL26:
 366:Middlewares/ST/STM32_USB_Device_Library/Core/Src/usbd_ctlreq.c ****       break;
 355              		.loc 1 366 13 view .LVU94
 356 0082 9847     		blx	r3
 357              	.LVL27:
 367:Middlewares/ST/STM32_USB_Device_Library/Core/Src/usbd_ctlreq.c ****       
ARM GAS  /var/folders/rf/wfq6hz5s56g3yh4wqgd7820c0000gn/T//ccoNHwng.s 			page 22


 358              		.loc 1 367 7 is_stmt 1 view .LVU95
 359 0084 D3E7     		b	.L23
 360              	.LVL28:
 361              	.L31:
 370:Middlewares/ST/STM32_USB_Device_Library/Core/Src/usbd_ctlreq.c ****       break;
 362              		.loc 1 370 7 view .LVU96
 370:Middlewares/ST/STM32_USB_Device_Library/Core/Src/usbd_ctlreq.c ****       break;
 363              		.loc 1 370 18 is_stmt 0 view .LVU97
 364 0086 D0F81032 		ldr	r3, [r0, #528]
 370:Middlewares/ST/STM32_USB_Device_Library/Core/Src/usbd_ctlreq.c ****       break;
 365              		.loc 1 370 25 view .LVU98
 366 008a 9B68     		ldr	r3, [r3, #8]
 370:Middlewares/ST/STM32_USB_Device_Library/Core/Src/usbd_ctlreq.c ****       break;
 367              		.loc 1 370 14 view .LVU99
 368 008c 0DF10601 		add	r1, sp, #6
 369 0090 007C     		ldrb	r0, [r0, #16]	@ zero_extendqisi2
 370              	.LVL29:
 370:Middlewares/ST/STM32_USB_Device_Library/Core/Src/usbd_ctlreq.c ****       break;
 371              		.loc 1 370 14 view .LVU100
 372 0092 9847     		blx	r3
 373              	.LVL30:
 371:Middlewares/ST/STM32_USB_Device_Library/Core/Src/usbd_ctlreq.c ****       
 374              		.loc 1 371 7 is_stmt 1 view .LVU101
 375 0094 CBE7     		b	.L23
 376              	.LVL31:
 377              	.L30:
 374:Middlewares/ST/STM32_USB_Device_Library/Core/Src/usbd_ctlreq.c ****       break;
 378              		.loc 1 374 7 view .LVU102
 374:Middlewares/ST/STM32_USB_Device_Library/Core/Src/usbd_ctlreq.c ****       break;
 379              		.loc 1 374 18 is_stmt 0 view .LVU103
 380 0096 D0F81032 		ldr	r3, [r0, #528]
 374:Middlewares/ST/STM32_USB_Device_Library/Core/Src/usbd_ctlreq.c ****       break;
 381              		.loc 1 374 25 view .LVU104
 382 009a DB68     		ldr	r3, [r3, #12]
 374:Middlewares/ST/STM32_USB_Device_Library/Core/Src/usbd_ctlreq.c ****       break;
 383              		.loc 1 374 14 view .LVU105
 384 009c 0DF10601 		add	r1, sp, #6
 385 00a0 007C     		ldrb	r0, [r0, #16]	@ zero_extendqisi2
 386              	.LVL32:
 374:Middlewares/ST/STM32_USB_Device_Library/Core/Src/usbd_ctlreq.c ****       break;
 387              		.loc 1 374 14 view .LVU106
 388 00a2 9847     		blx	r3
 389              	.LVL33:
 375:Middlewares/ST/STM32_USB_Device_Library/Core/Src/usbd_ctlreq.c ****       
 390              		.loc 1 375 7 is_stmt 1 view .LVU107
 391 00a4 C3E7     		b	.L23
 392              	.LVL34:
 393              	.L29:
 378:Middlewares/ST/STM32_USB_Device_Library/Core/Src/usbd_ctlreq.c ****       break;
 394              		.loc 1 378 7 view .LVU108
 378:Middlewares/ST/STM32_USB_Device_Library/Core/Src/usbd_ctlreq.c ****       break;
 395              		.loc 1 378 18 is_stmt 0 view .LVU109
 396 00a6 D0F81032 		ldr	r3, [r0, #528]
 378:Middlewares/ST/STM32_USB_Device_Library/Core/Src/usbd_ctlreq.c ****       break;
 397              		.loc 1 378 25 view .LVU110
 398 00aa 1B69     		ldr	r3, [r3, #16]
 378:Middlewares/ST/STM32_USB_Device_Library/Core/Src/usbd_ctlreq.c ****       break;
ARM GAS  /var/folders/rf/wfq6hz5s56g3yh4wqgd7820c0000gn/T//ccoNHwng.s 			page 23


 399              		.loc 1 378 14 view .LVU111
 400 00ac 0DF10601 		add	r1, sp, #6
 401 00b0 007C     		ldrb	r0, [r0, #16]	@ zero_extendqisi2
 402              	.LVL35:
 378:Middlewares/ST/STM32_USB_Device_Library/Core/Src/usbd_ctlreq.c ****       break;
 403              		.loc 1 378 14 view .LVU112
 404 00b2 9847     		blx	r3
 405              	.LVL36:
 379:Middlewares/ST/STM32_USB_Device_Library/Core/Src/usbd_ctlreq.c ****       
 406              		.loc 1 379 7 is_stmt 1 view .LVU113
 407 00b4 BBE7     		b	.L23
 408              	.LVL37:
 409              	.L28:
 382:Middlewares/ST/STM32_USB_Device_Library/Core/Src/usbd_ctlreq.c ****       break;
 410              		.loc 1 382 7 view .LVU114
 382:Middlewares/ST/STM32_USB_Device_Library/Core/Src/usbd_ctlreq.c ****       break;
 411              		.loc 1 382 18 is_stmt 0 view .LVU115
 412 00b6 D0F81032 		ldr	r3, [r0, #528]
 382:Middlewares/ST/STM32_USB_Device_Library/Core/Src/usbd_ctlreq.c ****       break;
 413              		.loc 1 382 25 view .LVU116
 414 00ba 5B69     		ldr	r3, [r3, #20]
 382:Middlewares/ST/STM32_USB_Device_Library/Core/Src/usbd_ctlreq.c ****       break;
 415              		.loc 1 382 14 view .LVU117
 416 00bc 0DF10601 		add	r1, sp, #6
 417 00c0 007C     		ldrb	r0, [r0, #16]	@ zero_extendqisi2
 418              	.LVL38:
 382:Middlewares/ST/STM32_USB_Device_Library/Core/Src/usbd_ctlreq.c ****       break;
 419              		.loc 1 382 14 view .LVU118
 420 00c2 9847     		blx	r3
 421              	.LVL39:
 383:Middlewares/ST/STM32_USB_Device_Library/Core/Src/usbd_ctlreq.c ****       
 422              		.loc 1 383 7 is_stmt 1 view .LVU119
 423 00c4 B3E7     		b	.L23
 424              	.LVL40:
 425              	.L26:
 386:Middlewares/ST/STM32_USB_Device_Library/Core/Src/usbd_ctlreq.c ****       break;
 426              		.loc 1 386 7 view .LVU120
 386:Middlewares/ST/STM32_USB_Device_Library/Core/Src/usbd_ctlreq.c ****       break;
 427              		.loc 1 386 18 is_stmt 0 view .LVU121
 428 00c6 D0F81032 		ldr	r3, [r0, #528]
 386:Middlewares/ST/STM32_USB_Device_Library/Core/Src/usbd_ctlreq.c ****       break;
 429              		.loc 1 386 25 view .LVU122
 430 00ca 9B69     		ldr	r3, [r3, #24]
 386:Middlewares/ST/STM32_USB_Device_Library/Core/Src/usbd_ctlreq.c ****       break;
 431              		.loc 1 386 14 view .LVU123
 432 00cc 0DF10601 		add	r1, sp, #6
 433 00d0 007C     		ldrb	r0, [r0, #16]	@ zero_extendqisi2
 434              	.LVL41:
 386:Middlewares/ST/STM32_USB_Device_Library/Core/Src/usbd_ctlreq.c ****       break;
 435              		.loc 1 386 14 view .LVU124
 436 00d2 9847     		blx	r3
 437              	.LVL42:
 387:Middlewares/ST/STM32_USB_Device_Library/Core/Src/usbd_ctlreq.c ****       
 438              		.loc 1 387 7 is_stmt 1 view .LVU125
 439 00d4 ABE7     		b	.L23
 440              	.LVL43:
 441              	.L25:
ARM GAS  /var/folders/rf/wfq6hz5s56g3yh4wqgd7820c0000gn/T//ccoNHwng.s 			page 24


 394:Middlewares/ST/STM32_USB_Device_Library/Core/Src/usbd_ctlreq.c ****       return;
 442              		.loc 1 394 8 view .LVU126
 443 00d6 2946     		mov	r1, r5
 444 00d8 FFF7FEFF 		bl	USBD_CtlError
 445              	.LVL44:
 395:Middlewares/ST/STM32_USB_Device_Library/Core/Src/usbd_ctlreq.c **** #endif   
 446              		.loc 1 395 7 view .LVU127
 447 00dc ADE7     		b	.L15
 448              	.LVL45:
 449              	.L19:
 401:Middlewares/ST/STM32_USB_Device_Library/Core/Src/usbd_ctlreq.c ****     {
 450              		.loc 1 401 5 view .LVU128
 401:Middlewares/ST/STM32_USB_Device_Library/Core/Src/usbd_ctlreq.c ****     {
 451              		.loc 1 401 12 is_stmt 0 view .LVU129
 452 00de 037C     		ldrb	r3, [r0, #16]	@ zero_extendqisi2
 401:Middlewares/ST/STM32_USB_Device_Library/Core/Src/usbd_ctlreq.c ****     {
 453              		.loc 1 401 7 view .LVU130
 454 00e0 33B9     		cbnz	r3, .L34
 403:Middlewares/ST/STM32_USB_Device_Library/Core/Src/usbd_ctlreq.c ****       break;
 455              		.loc 1 403 7 is_stmt 1 view .LVU131
 403:Middlewares/ST/STM32_USB_Device_Library/Core/Src/usbd_ctlreq.c ****       break;
 456              		.loc 1 403 31 is_stmt 0 view .LVU132
 457 00e2 D0F81432 		ldr	r3, [r0, #532]
 403:Middlewares/ST/STM32_USB_Device_Library/Core/Src/usbd_ctlreq.c ****       break;
 458              		.loc 1 403 39 view .LVU133
 459 00e6 5B6B     		ldr	r3, [r3, #52]
 403:Middlewares/ST/STM32_USB_Device_Library/Core/Src/usbd_ctlreq.c ****       break;
 460              		.loc 1 403 16 view .LVU134
 461 00e8 0DF10600 		add	r0, sp, #6
 462              	.LVL46:
 403:Middlewares/ST/STM32_USB_Device_Library/Core/Src/usbd_ctlreq.c ****       break;
 463              		.loc 1 403 16 view .LVU135
 464 00ec 9847     		blx	r3
 465              	.LVL47:
 404:Middlewares/ST/STM32_USB_Device_Library/Core/Src/usbd_ctlreq.c ****     }
 466              		.loc 1 404 7 is_stmt 1 view .LVU136
 467 00ee 9EE7     		b	.L23
 468              	.LVL48:
 469              	.L34:
 408:Middlewares/ST/STM32_USB_Device_Library/Core/Src/usbd_ctlreq.c ****       return;
 470              		.loc 1 408 7 view .LVU137
 471 00f0 2946     		mov	r1, r5
 472 00f2 FFF7FEFF 		bl	USBD_CtlError
 473              	.LVL49:
 409:Middlewares/ST/STM32_USB_Device_Library/Core/Src/usbd_ctlreq.c ****     } 
 474              		.loc 1 409 7 view .LVU138
 475 00f6 A0E7     		b	.L15
 476              	.LVL50:
 477              	.L17:
 413:Middlewares/ST/STM32_USB_Device_Library/Core/Src/usbd_ctlreq.c ****     {
 478              		.loc 1 413 5 view .LVU139
 413:Middlewares/ST/STM32_USB_Device_Library/Core/Src/usbd_ctlreq.c ****     {
 479              		.loc 1 413 12 is_stmt 0 view .LVU140
 480 00f8 037C     		ldrb	r3, [r0, #16]	@ zero_extendqisi2
 413:Middlewares/ST/STM32_USB_Device_Library/Core/Src/usbd_ctlreq.c ****     {
 481              		.loc 1 413 7 view .LVU141
 482 00fa 43B9     		cbnz	r3, .L35
ARM GAS  /var/folders/rf/wfq6hz5s56g3yh4wqgd7820c0000gn/T//ccoNHwng.s 			page 25


 415:Middlewares/ST/STM32_USB_Device_Library/Core/Src/usbd_ctlreq.c ****       pbuf[1] = USB_DESC_TYPE_OTHER_SPEED_CONFIGURATION;
 483              		.loc 1 415 7 is_stmt 1 view .LVU142
 415:Middlewares/ST/STM32_USB_Device_Library/Core/Src/usbd_ctlreq.c ****       pbuf[1] = USB_DESC_TYPE_OTHER_SPEED_CONFIGURATION;
 484              		.loc 1 415 31 is_stmt 0 view .LVU143
 485 00fc D0F81432 		ldr	r3, [r0, #532]
 415:Middlewares/ST/STM32_USB_Device_Library/Core/Src/usbd_ctlreq.c ****       pbuf[1] = USB_DESC_TYPE_OTHER_SPEED_CONFIGURATION;
 486              		.loc 1 415 39 view .LVU144
 487 0100 1B6B     		ldr	r3, [r3, #48]
 415:Middlewares/ST/STM32_USB_Device_Library/Core/Src/usbd_ctlreq.c ****       pbuf[1] = USB_DESC_TYPE_OTHER_SPEED_CONFIGURATION;
 488              		.loc 1 415 16 view .LVU145
 489 0102 0DF10600 		add	r0, sp, #6
 490              	.LVL51:
 415:Middlewares/ST/STM32_USB_Device_Library/Core/Src/usbd_ctlreq.c ****       pbuf[1] = USB_DESC_TYPE_OTHER_SPEED_CONFIGURATION;
 491              		.loc 1 415 16 view .LVU146
 492 0106 9847     		blx	r3
 493              	.LVL52:
 416:Middlewares/ST/STM32_USB_Device_Library/Core/Src/usbd_ctlreq.c ****       break; 
 494              		.loc 1 416 7 is_stmt 1 view .LVU147
 416:Middlewares/ST/STM32_USB_Device_Library/Core/Src/usbd_ctlreq.c ****       break; 
 495              		.loc 1 416 15 is_stmt 0 view .LVU148
 496 0108 0723     		movs	r3, #7
 497 010a 4370     		strb	r3, [r0, #1]
 417:Middlewares/ST/STM32_USB_Device_Library/Core/Src/usbd_ctlreq.c ****     }
 498              		.loc 1 417 7 is_stmt 1 view .LVU149
 499 010c 8FE7     		b	.L23
 500              	.LVL53:
 501              	.L35:
 421:Middlewares/ST/STM32_USB_Device_Library/Core/Src/usbd_ctlreq.c ****       return;
 502              		.loc 1 421 7 view .LVU150
 503 010e 2946     		mov	r1, r5
 504 0110 FFF7FEFF 		bl	USBD_CtlError
 505              	.LVL54:
 422:Middlewares/ST/STM32_USB_Device_Library/Core/Src/usbd_ctlreq.c ****     }
 506              		.loc 1 422 7 view .LVU151
 507 0114 91E7     		b	.L15
 508              	.LVL55:
 509              	.L16:
 426:Middlewares/ST/STM32_USB_Device_Library/Core/Src/usbd_ctlreq.c ****     return;
 510              		.loc 1 426 6 view .LVU152
 511 0116 2946     		mov	r1, r5
 512 0118 FFF7FEFF 		bl	USBD_CtlError
 513              	.LVL56:
 427:Middlewares/ST/STM32_USB_Device_Library/Core/Src/usbd_ctlreq.c ****   }
 514              		.loc 1 427 5 view .LVU153
 515 011c 8DE7     		b	.L15
 516              	.LVL57:
 517              	.L39:
 433:Middlewares/ST/STM32_USB_Device_Library/Core/Src/usbd_ctlreq.c ****     
 518              		.loc 1 433 5 view .LVU154
 433:Middlewares/ST/STM32_USB_Device_Library/Core/Src/usbd_ctlreq.c ****     
 519              		.loc 1 433 11 is_stmt 0 view .LVU155
 520 011e 9A42     		cmp	r2, r3
 521 0120 28BF     		it	cs
 522 0122 1A46     		movcs	r2, r3
 433:Middlewares/ST/STM32_USB_Device_Library/Core/Src/usbd_ctlreq.c ****     
 523              		.loc 1 433 9 view .LVU156
 524 0124 ADF80620 		strh	r2, [sp, #6]	@ movhi
ARM GAS  /var/folders/rf/wfq6hz5s56g3yh4wqgd7820c0000gn/T//ccoNHwng.s 			page 26


 435:Middlewares/ST/STM32_USB_Device_Library/Core/Src/usbd_ctlreq.c ****                       pbuf,
 525              		.loc 1 435 5 is_stmt 1 view .LVU157
 526 0128 0146     		mov	r1, r0
 527 012a 2046     		mov	r0, r4
 528              	.LVL58:
 435:Middlewares/ST/STM32_USB_Device_Library/Core/Src/usbd_ctlreq.c ****                       pbuf,
 529              		.loc 1 435 5 is_stmt 0 view .LVU158
 530 012c FFF7FEFF 		bl	USBD_CtlSendData
 531              	.LVL59:
 435:Middlewares/ST/STM32_USB_Device_Library/Core/Src/usbd_ctlreq.c ****                       pbuf,
 532              		.loc 1 435 5 view .LVU159
 533 0130 83E7     		b	.L15
 534              		.cfi_endproc
 535              	.LFE69:
 537              		.section	.text.USBD_SetAddress,"ax",%progbits
 538              		.align	1
 539              		.syntax unified
 540              		.thumb
 541              		.thumb_func
 542              		.fpu softvfp
 544              	USBD_SetAddress:
 545              	.LVL60:
 546              	.LFB70:
 451:Middlewares/ST/STM32_USB_Device_Library/Core/Src/usbd_ctlreq.c ****   uint8_t  dev_addr; 
 547              		.loc 1 451 1 is_stmt 1 view -0
 548              		.cfi_startproc
 549              		@ args = 0, pretend = 0, frame = 0
 550              		@ frame_needed = 0, uses_anonymous_args = 0
 451:Middlewares/ST/STM32_USB_Device_Library/Core/Src/usbd_ctlreq.c ****   uint8_t  dev_addr; 
 551              		.loc 1 451 1 is_stmt 0 view .LVU161
 552 0000 38B5     		push	{r3, r4, r5, lr}
 553              	.LCFI6:
 554              		.cfi_def_cfa_offset 16
 555              		.cfi_offset 3, -16
 556              		.cfi_offset 4, -12
 557              		.cfi_offset 5, -8
 558              		.cfi_offset 14, -4
 559 0002 0446     		mov	r4, r0
 452:Middlewares/ST/STM32_USB_Device_Library/Core/Src/usbd_ctlreq.c ****   
 560              		.loc 1 452 3 is_stmt 1 view .LVU162
 454:Middlewares/ST/STM32_USB_Device_Library/Core/Src/usbd_ctlreq.c ****   {
 561              		.loc 1 454 3 view .LVU163
 454:Middlewares/ST/STM32_USB_Device_Library/Core/Src/usbd_ctlreq.c ****   {
 562              		.loc 1 454 11 is_stmt 0 view .LVU164
 563 0004 8B88     		ldrh	r3, [r1, #4]
 454:Middlewares/ST/STM32_USB_Device_Library/Core/Src/usbd_ctlreq.c ****   {
 564              		.loc 1 454 6 view .LVU165
 565 0006 E3B9     		cbnz	r3, .L41
 454:Middlewares/ST/STM32_USB_Device_Library/Core/Src/usbd_ctlreq.c ****   {
 566              		.loc 1 454 33 discriminator 1 view .LVU166
 567 0008 CB88     		ldrh	r3, [r1, #6]
 454:Middlewares/ST/STM32_USB_Device_Library/Core/Src/usbd_ctlreq.c ****   {
 568              		.loc 1 454 26 discriminator 1 view .LVU167
 569 000a D3B9     		cbnz	r3, .L41
 456:Middlewares/ST/STM32_USB_Device_Library/Core/Src/usbd_ctlreq.c ****     
 570              		.loc 1 456 5 is_stmt 1 view .LVU168
 456:Middlewares/ST/STM32_USB_Device_Library/Core/Src/usbd_ctlreq.c ****     
ARM GAS  /var/folders/rf/wfq6hz5s56g3yh4wqgd7820c0000gn/T//ccoNHwng.s 			page 27


 571              		.loc 1 456 39 is_stmt 0 view .LVU169
 572 000c 8D78     		ldrb	r5, [r1, #2]	@ zero_extendqisi2
 456:Middlewares/ST/STM32_USB_Device_Library/Core/Src/usbd_ctlreq.c ****     
 573              		.loc 1 456 14 view .LVU170
 574 000e 05F07F05 		and	r5, r5, #127
 575              	.LVL61:
 458:Middlewares/ST/STM32_USB_Device_Library/Core/Src/usbd_ctlreq.c ****     {
 576              		.loc 1 458 5 is_stmt 1 view .LVU171
 458:Middlewares/ST/STM32_USB_Device_Library/Core/Src/usbd_ctlreq.c ****     {
 577              		.loc 1 458 13 is_stmt 0 view .LVU172
 578 0012 90F8FC31 		ldrb	r3, [r0, #508]	@ zero_extendqisi2
 458:Middlewares/ST/STM32_USB_Device_Library/Core/Src/usbd_ctlreq.c ****     {
 579              		.loc 1 458 8 view .LVU173
 580 0016 032B     		cmp	r3, #3
 581 0018 0CD0     		beq	.L46
 464:Middlewares/ST/STM32_USB_Device_Library/Core/Src/usbd_ctlreq.c ****       USBD_LL_SetUSBAddress(pdev, dev_addr);               
 582              		.loc 1 464 7 is_stmt 1 view .LVU174
 464:Middlewares/ST/STM32_USB_Device_Library/Core/Src/usbd_ctlreq.c ****       USBD_LL_SetUSBAddress(pdev, dev_addr);               
 583              		.loc 1 464 25 is_stmt 0 view .LVU175
 584 001a 80F8FE51 		strb	r5, [r0, #510]
 465:Middlewares/ST/STM32_USB_Device_Library/Core/Src/usbd_ctlreq.c ****       USBD_CtlSendStatus(pdev);                         
 585              		.loc 1 465 7 is_stmt 1 view .LVU176
 586 001e 2946     		mov	r1, r5
 587              	.LVL62:
 465:Middlewares/ST/STM32_USB_Device_Library/Core/Src/usbd_ctlreq.c ****       USBD_CtlSendStatus(pdev);                         
 588              		.loc 1 465 7 is_stmt 0 view .LVU177
 589 0020 FFF7FEFF 		bl	USBD_LL_SetUSBAddress
 590              	.LVL63:
 466:Middlewares/ST/STM32_USB_Device_Library/Core/Src/usbd_ctlreq.c ****       
 591              		.loc 1 466 7 is_stmt 1 view .LVU178
 592 0024 2046     		mov	r0, r4
 593 0026 FFF7FEFF 		bl	USBD_CtlSendStatus
 594              	.LVL64:
 468:Middlewares/ST/STM32_USB_Device_Library/Core/Src/usbd_ctlreq.c ****       {
 595              		.loc 1 468 7 view .LVU179
 468:Middlewares/ST/STM32_USB_Device_Library/Core/Src/usbd_ctlreq.c ****       {
 596              		.loc 1 468 10 is_stmt 0 view .LVU180
 597 002a 35B1     		cbz	r5, .L44
 470:Middlewares/ST/STM32_USB_Device_Library/Core/Src/usbd_ctlreq.c ****       } 
 598              		.loc 1 470 9 is_stmt 1 view .LVU181
 470:Middlewares/ST/STM32_USB_Device_Library/Core/Src/usbd_ctlreq.c ****       } 
 599              		.loc 1 470 26 is_stmt 0 view .LVU182
 600 002c 0223     		movs	r3, #2
 601 002e 84F8FC31 		strb	r3, [r4, #508]
 602 0032 09E0     		b	.L40
 603              	.LVL65:
 604              	.L46:
 460:Middlewares/ST/STM32_USB_Device_Library/Core/Src/usbd_ctlreq.c ****     } 
 605              		.loc 1 460 7 is_stmt 1 view .LVU183
 606 0034 FFF7FEFF 		bl	USBD_CtlError
 607              	.LVL66:
 460:Middlewares/ST/STM32_USB_Device_Library/Core/Src/usbd_ctlreq.c ****     } 
 608              		.loc 1 460 7 is_stmt 0 view .LVU184
 609 0038 06E0     		b	.L40
 610              	.L44:
 474:Middlewares/ST/STM32_USB_Device_Library/Core/Src/usbd_ctlreq.c ****       }
 611              		.loc 1 474 9 is_stmt 1 view .LVU185
ARM GAS  /var/folders/rf/wfq6hz5s56g3yh4wqgd7820c0000gn/T//ccoNHwng.s 			page 28


 474:Middlewares/ST/STM32_USB_Device_Library/Core/Src/usbd_ctlreq.c ****       }
 612              		.loc 1 474 26 is_stmt 0 view .LVU186
 613 003a 0123     		movs	r3, #1
 614 003c 84F8FC31 		strb	r3, [r4, #508]
 615 0040 02E0     		b	.L40
 616              	.LVL67:
 617              	.L41:
 480:Middlewares/ST/STM32_USB_Device_Library/Core/Src/usbd_ctlreq.c ****   } 
 618              		.loc 1 480 6 is_stmt 1 view .LVU187
 619 0042 2046     		mov	r0, r4
 620              	.LVL68:
 480:Middlewares/ST/STM32_USB_Device_Library/Core/Src/usbd_ctlreq.c ****   } 
 621              		.loc 1 480 6 is_stmt 0 view .LVU188
 622 0044 FFF7FEFF 		bl	USBD_CtlError
 623              	.LVL69:
 624              	.L40:
 482:Middlewares/ST/STM32_USB_Device_Library/Core/Src/usbd_ctlreq.c **** 
 625              		.loc 1 482 1 view .LVU189
 626 0048 38BD     		pop	{r3, r4, r5, pc}
 482:Middlewares/ST/STM32_USB_Device_Library/Core/Src/usbd_ctlreq.c **** 
 627              		.loc 1 482 1 view .LVU190
 628              		.cfi_endproc
 629              	.LFE70:
 631              		.section	.text.USBD_SetConfig,"ax",%progbits
 632              		.align	1
 633              		.syntax unified
 634              		.thumb
 635              		.thumb_func
 636              		.fpu softvfp
 638              	USBD_SetConfig:
 639              	.LVL70:
 640              	.LFB71:
 493:Middlewares/ST/STM32_USB_Device_Library/Core/Src/usbd_ctlreq.c ****   
 641              		.loc 1 493 1 is_stmt 1 view -0
 642              		.cfi_startproc
 643              		@ args = 0, pretend = 0, frame = 0
 644              		@ frame_needed = 0, uses_anonymous_args = 0
 493:Middlewares/ST/STM32_USB_Device_Library/Core/Src/usbd_ctlreq.c ****   
 645              		.loc 1 493 1 is_stmt 0 view .LVU192
 646 0000 38B5     		push	{r3, r4, r5, lr}
 647              	.LCFI7:
 648              		.cfi_def_cfa_offset 16
 649              		.cfi_offset 3, -16
 650              		.cfi_offset 4, -12
 651              		.cfi_offset 5, -8
 652              		.cfi_offset 14, -4
 653 0002 0446     		mov	r4, r0
 654 0004 0D46     		mov	r5, r1
 495:Middlewares/ST/STM32_USB_Device_Library/Core/Src/usbd_ctlreq.c ****   
 655              		.loc 1 495 3 is_stmt 1 view .LVU193
 497:Middlewares/ST/STM32_USB_Device_Library/Core/Src/usbd_ctlreq.c ****   
 656              		.loc 1 497 3 view .LVU194
 497:Middlewares/ST/STM32_USB_Device_Library/Core/Src/usbd_ctlreq.c ****   
 657              		.loc 1 497 12 is_stmt 0 view .LVU195
 658 0006 8978     		ldrb	r1, [r1, #2]	@ zero_extendqisi2
 659              	.LVL71:
 497:Middlewares/ST/STM32_USB_Device_Library/Core/Src/usbd_ctlreq.c ****   
ARM GAS  /var/folders/rf/wfq6hz5s56g3yh4wqgd7820c0000gn/T//ccoNHwng.s 			page 29


 660              		.loc 1 497 10 view .LVU196
 661 0008 254B     		ldr	r3, .L64
 662 000a 1970     		strb	r1, [r3]
 499:Middlewares/ST/STM32_USB_Device_Library/Core/Src/usbd_ctlreq.c ****   {            
 663              		.loc 1 499 3 is_stmt 1 view .LVU197
 499:Middlewares/ST/STM32_USB_Device_Library/Core/Src/usbd_ctlreq.c ****   {            
 664              		.loc 1 499 6 is_stmt 0 view .LVU198
 665 000c 0129     		cmp	r1, #1
 666 000e 09D8     		bhi	.L60
 505:Middlewares/ST/STM32_USB_Device_Library/Core/Src/usbd_ctlreq.c ****     {
 667              		.loc 1 505 5 is_stmt 1 view .LVU199
 505:Middlewares/ST/STM32_USB_Device_Library/Core/Src/usbd_ctlreq.c ****     {
 668              		.loc 1 505 17 is_stmt 0 view .LVU200
 669 0010 90F8FC31 		ldrb	r3, [r0, #508]	@ zero_extendqisi2
 505:Middlewares/ST/STM32_USB_Device_Library/Core/Src/usbd_ctlreq.c ****     {
 670              		.loc 1 505 5 view .LVU201
 671 0014 022B     		cmp	r3, #2
 672 0016 09D0     		beq	.L50
 673 0018 032B     		cmp	r3, #3
 674 001a 1CD0     		beq	.L51
 555:Middlewares/ST/STM32_USB_Device_Library/Core/Src/usbd_ctlreq.c ****       break;
 675              		.loc 1 555 8 is_stmt 1 view .LVU202
 676 001c 2946     		mov	r1, r5
 677 001e FFF7FEFF 		bl	USBD_CtlError
 678              	.LVL72:
 556:Middlewares/ST/STM32_USB_Device_Library/Core/Src/usbd_ctlreq.c ****     }
 679              		.loc 1 556 7 view .LVU203
 680 0022 02E0     		b	.L47
 681              	.LVL73:
 682              	.L60:
 501:Middlewares/ST/STM32_USB_Device_Library/Core/Src/usbd_ctlreq.c ****   } 
 683              		.loc 1 501 6 view .LVU204
 684 0024 2946     		mov	r1, r5
 685 0026 FFF7FEFF 		bl	USBD_CtlError
 686              	.LVL74:
 687              	.L47:
 559:Middlewares/ST/STM32_USB_Device_Library/Core/Src/usbd_ctlreq.c **** 
 688              		.loc 1 559 1 is_stmt 0 view .LVU205
 689 002a 38BD     		pop	{r3, r4, r5, pc}
 690              	.LVL75:
 691              	.L50:
 508:Middlewares/ST/STM32_USB_Device_Library/Core/Src/usbd_ctlreq.c ****       {                                			   							   							   				
 692              		.loc 1 508 7 is_stmt 1 view .LVU206
 508:Middlewares/ST/STM32_USB_Device_Library/Core/Src/usbd_ctlreq.c ****       {                                			   							   							   				
 693              		.loc 1 508 10 is_stmt 0 view .LVU207
 694 002c 81B1     		cbz	r1, .L53
 510:Middlewares/ST/STM32_USB_Device_Library/Core/Src/usbd_ctlreq.c ****         pdev->dev_state = USBD_STATE_CONFIGURED;
 695              		.loc 1 510 9 is_stmt 1 view .LVU208
 510:Middlewares/ST/STM32_USB_Device_Library/Core/Src/usbd_ctlreq.c ****         pdev->dev_state = USBD_STATE_CONFIGURED;
 696              		.loc 1 510 26 is_stmt 0 view .LVU209
 697 002e 4160     		str	r1, [r0, #4]
 511:Middlewares/ST/STM32_USB_Device_Library/Core/Src/usbd_ctlreq.c ****         if(USBD_SetClassConfig(pdev , cfgidx) == USBD_FAIL)
 698              		.loc 1 511 9 is_stmt 1 view .LVU210
 511:Middlewares/ST/STM32_USB_Device_Library/Core/Src/usbd_ctlreq.c ****         if(USBD_SetClassConfig(pdev , cfgidx) == USBD_FAIL)
 699              		.loc 1 511 25 is_stmt 0 view .LVU211
 700 0030 0323     		movs	r3, #3
 701 0032 80F8FC31 		strb	r3, [r0, #508]
ARM GAS  /var/folders/rf/wfq6hz5s56g3yh4wqgd7820c0000gn/T//ccoNHwng.s 			page 30


 512:Middlewares/ST/STM32_USB_Device_Library/Core/Src/usbd_ctlreq.c ****         {
 702              		.loc 1 512 9 is_stmt 1 view .LVU212
 512:Middlewares/ST/STM32_USB_Device_Library/Core/Src/usbd_ctlreq.c ****         {
 703              		.loc 1 512 12 is_stmt 0 view .LVU213
 704 0036 FFF7FEFF 		bl	USBD_SetClassConfig
 705              	.LVL76:
 512:Middlewares/ST/STM32_USB_Device_Library/Core/Src/usbd_ctlreq.c ****         {
 706              		.loc 1 512 11 view .LVU214
 707 003a 0228     		cmp	r0, #2
 708 003c 03D0     		beq	.L61
 517:Middlewares/ST/STM32_USB_Device_Library/Core/Src/usbd_ctlreq.c ****       }
 709              		.loc 1 517 9 is_stmt 1 view .LVU215
 710 003e 2046     		mov	r0, r4
 711 0040 FFF7FEFF 		bl	USBD_CtlSendStatus
 712              	.LVL77:
 713 0044 F1E7     		b	.L47
 714              	.L61:
 514:Middlewares/ST/STM32_USB_Device_Library/Core/Src/usbd_ctlreq.c ****           return;
 715              		.loc 1 514 11 view .LVU216
 716 0046 2946     		mov	r1, r5
 717 0048 2046     		mov	r0, r4
 718 004a FFF7FEFF 		bl	USBD_CtlError
 719              	.LVL78:
 515:Middlewares/ST/STM32_USB_Device_Library/Core/Src/usbd_ctlreq.c ****         }
 720              		.loc 1 515 11 view .LVU217
 721 004e ECE7     		b	.L47
 722              	.LVL79:
 723              	.L53:
 521:Middlewares/ST/STM32_USB_Device_Library/Core/Src/usbd_ctlreq.c ****       }
 724              		.loc 1 521 10 view .LVU218
 725 0050 FFF7FEFF 		bl	USBD_CtlSendStatus
 726              	.LVL80:
 521:Middlewares/ST/STM32_USB_Device_Library/Core/Src/usbd_ctlreq.c ****       }
 727              		.loc 1 521 10 is_stmt 0 view .LVU219
 728 0054 E9E7     		b	.L47
 729              	.LVL81:
 730              	.L51:
 526:Middlewares/ST/STM32_USB_Device_Library/Core/Src/usbd_ctlreq.c ****       {                           
 731              		.loc 1 526 7 is_stmt 1 view .LVU220
 526:Middlewares/ST/STM32_USB_Device_Library/Core/Src/usbd_ctlreq.c ****       {                           
 732              		.loc 1 526 10 is_stmt 0 view .LVU221
 733 0056 89B1     		cbz	r1, .L62
 534:Middlewares/ST/STM32_USB_Device_Library/Core/Src/usbd_ctlreq.c ****       {
 734              		.loc 1 534 13 is_stmt 1 view .LVU222
 534:Middlewares/ST/STM32_USB_Device_Library/Core/Src/usbd_ctlreq.c ****       {
 735              		.loc 1 534 31 is_stmt 0 view .LVU223
 736 0058 4368     		ldr	r3, [r0, #4]
 534:Middlewares/ST/STM32_USB_Device_Library/Core/Src/usbd_ctlreq.c ****       {
 737              		.loc 1 534 16 view .LVU224
 738 005a 9942     		cmp	r1, r3
 739 005c 1DD0     		beq	.L56
 537:Middlewares/ST/STM32_USB_Device_Library/Core/Src/usbd_ctlreq.c ****         
 740              		.loc 1 537 9 is_stmt 1 view .LVU225
 741 005e D9B2     		uxtb	r1, r3
 742 0060 FFF7FEFF 		bl	USBD_ClrClassConfig
 743              	.LVL82:
 540:Middlewares/ST/STM32_USB_Device_Library/Core/Src/usbd_ctlreq.c ****         if(USBD_SetClassConfig(pdev , cfgidx) == USBD_FAIL)
ARM GAS  /var/folders/rf/wfq6hz5s56g3yh4wqgd7820c0000gn/T//ccoNHwng.s 			page 31


 744              		.loc 1 540 9 view .LVU226
 540:Middlewares/ST/STM32_USB_Device_Library/Core/Src/usbd_ctlreq.c ****         if(USBD_SetClassConfig(pdev , cfgidx) == USBD_FAIL)
 745              		.loc 1 540 26 is_stmt 0 view .LVU227
 746 0064 0E4B     		ldr	r3, .L64
 747 0066 1978     		ldrb	r1, [r3]	@ zero_extendqisi2
 748 0068 6160     		str	r1, [r4, #4]
 541:Middlewares/ST/STM32_USB_Device_Library/Core/Src/usbd_ctlreq.c ****         {
 749              		.loc 1 541 9 is_stmt 1 view .LVU228
 541:Middlewares/ST/STM32_USB_Device_Library/Core/Src/usbd_ctlreq.c ****         {
 750              		.loc 1 541 12 is_stmt 0 view .LVU229
 751 006a 2046     		mov	r0, r4
 752 006c FFF7FEFF 		bl	USBD_SetClassConfig
 753              	.LVL83:
 541:Middlewares/ST/STM32_USB_Device_Library/Core/Src/usbd_ctlreq.c ****         {
 754              		.loc 1 541 11 view .LVU230
 755 0070 0228     		cmp	r0, #2
 756 0072 0DD0     		beq	.L63
 546:Middlewares/ST/STM32_USB_Device_Library/Core/Src/usbd_ctlreq.c ****       }
 757              		.loc 1 546 9 is_stmt 1 view .LVU231
 758 0074 2046     		mov	r0, r4
 759 0076 FFF7FEFF 		bl	USBD_CtlSendStatus
 760              	.LVL84:
 761 007a D6E7     		b	.L47
 762              	.LVL85:
 763              	.L62:
 528:Middlewares/ST/STM32_USB_Device_Library/Core/Src/usbd_ctlreq.c ****         pdev->dev_config = cfgidx;          
 764              		.loc 1 528 9 view .LVU232
 528:Middlewares/ST/STM32_USB_Device_Library/Core/Src/usbd_ctlreq.c ****         pdev->dev_config = cfgidx;          
 765              		.loc 1 528 25 is_stmt 0 view .LVU233
 766 007c 0223     		movs	r3, #2
 767 007e 80F8FC31 		strb	r3, [r0, #508]
 529:Middlewares/ST/STM32_USB_Device_Library/Core/Src/usbd_ctlreq.c ****         USBD_ClrClassConfig(pdev , cfgidx);
 768              		.loc 1 529 9 is_stmt 1 view .LVU234
 529:Middlewares/ST/STM32_USB_Device_Library/Core/Src/usbd_ctlreq.c ****         USBD_ClrClassConfig(pdev , cfgidx);
 769              		.loc 1 529 26 is_stmt 0 view .LVU235
 770 0082 4160     		str	r1, [r0, #4]
 530:Middlewares/ST/STM32_USB_Device_Library/Core/Src/usbd_ctlreq.c ****         USBD_CtlSendStatus(pdev);
 771              		.loc 1 530 9 is_stmt 1 view .LVU236
 772 0084 FFF7FEFF 		bl	USBD_ClrClassConfig
 773              	.LVL86:
 531:Middlewares/ST/STM32_USB_Device_Library/Core/Src/usbd_ctlreq.c ****         
 774              		.loc 1 531 9 view .LVU237
 775 0088 2046     		mov	r0, r4
 776 008a FFF7FEFF 		bl	USBD_CtlSendStatus
 777              	.LVL87:
 778 008e CCE7     		b	.L47
 779              	.L63:
 543:Middlewares/ST/STM32_USB_Device_Library/Core/Src/usbd_ctlreq.c ****           return;
 780              		.loc 1 543 11 view .LVU238
 781 0090 2946     		mov	r1, r5
 782 0092 2046     		mov	r0, r4
 783 0094 FFF7FEFF 		bl	USBD_CtlError
 784              	.LVL88:
 544:Middlewares/ST/STM32_USB_Device_Library/Core/Src/usbd_ctlreq.c ****         }
 785              		.loc 1 544 11 view .LVU239
 786 0098 C7E7     		b	.L47
 787              	.LVL89:
ARM GAS  /var/folders/rf/wfq6hz5s56g3yh4wqgd7820c0000gn/T//ccoNHwng.s 			page 32


 788              	.L56:
 550:Middlewares/ST/STM32_USB_Device_Library/Core/Src/usbd_ctlreq.c ****       }
 789              		.loc 1 550 9 view .LVU240
 790 009a FFF7FEFF 		bl	USBD_CtlSendStatus
 791              	.LVL90:
 550:Middlewares/ST/STM32_USB_Device_Library/Core/Src/usbd_ctlreq.c ****       }
 792              		.loc 1 550 9 is_stmt 0 view .LVU241
 793 009e C4E7     		b	.L47
 794              	.L65:
 795              		.align	2
 796              	.L64:
 797 00a0 00000000 		.word	.LANCHOR0
 798              		.cfi_endproc
 799              	.LFE71:
 801              		.section	.text.USBD_GetConfig,"ax",%progbits
 802              		.align	1
 803              		.syntax unified
 804              		.thumb
 805              		.thumb_func
 806              		.fpu softvfp
 808              	USBD_GetConfig:
 809              	.LVL91:
 810              	.LFB72:
 570:Middlewares/ST/STM32_USB_Device_Library/Core/Src/usbd_ctlreq.c **** 
 811              		.loc 1 570 1 is_stmt 1 view -0
 812              		.cfi_startproc
 813              		@ args = 0, pretend = 0, frame = 0
 814              		@ frame_needed = 0, uses_anonymous_args = 0
 570:Middlewares/ST/STM32_USB_Device_Library/Core/Src/usbd_ctlreq.c **** 
 815              		.loc 1 570 1 is_stmt 0 view .LVU243
 816 0000 08B5     		push	{r3, lr}
 817              	.LCFI8:
 818              		.cfi_def_cfa_offset 8
 819              		.cfi_offset 3, -8
 820              		.cfi_offset 14, -4
 572:Middlewares/ST/STM32_USB_Device_Library/Core/Src/usbd_ctlreq.c ****   {                   
 821              		.loc 1 572 3 is_stmt 1 view .LVU244
 572:Middlewares/ST/STM32_USB_Device_Library/Core/Src/usbd_ctlreq.c ****   {                   
 822              		.loc 1 572 10 is_stmt 0 view .LVU245
 823 0002 CB88     		ldrh	r3, [r1, #6]
 572:Middlewares/ST/STM32_USB_Device_Library/Core/Src/usbd_ctlreq.c ****   {                   
 824              		.loc 1 572 6 view .LVU246
 825 0004 012B     		cmp	r3, #1
 826 0006 08D1     		bne	.L74
 578:Middlewares/ST/STM32_USB_Device_Library/Core/Src/usbd_ctlreq.c ****     {
 827              		.loc 1 578 5 is_stmt 1 view .LVU247
 578:Middlewares/ST/STM32_USB_Device_Library/Core/Src/usbd_ctlreq.c ****     {
 828              		.loc 1 578 17 is_stmt 0 view .LVU248
 829 0008 90F8FC31 		ldrb	r3, [r0, #508]	@ zero_extendqisi2
 578:Middlewares/ST/STM32_USB_Device_Library/Core/Src/usbd_ctlreq.c ****     {
 830              		.loc 1 578 5 view .LVU249
 831 000c 022B     		cmp	r3, #2
 832 000e 07D0     		beq	.L69
 833 0010 032B     		cmp	r3, #3
 834 0012 0DD0     		beq	.L70
 595:Middlewares/ST/STM32_USB_Device_Library/Core/Src/usbd_ctlreq.c ****       break;
 835              		.loc 1 595 8 is_stmt 1 view .LVU250
ARM GAS  /var/folders/rf/wfq6hz5s56g3yh4wqgd7820c0000gn/T//ccoNHwng.s 			page 33


 836 0014 FFF7FEFF 		bl	USBD_CtlError
 837              	.LVL92:
 596:Middlewares/ST/STM32_USB_Device_Library/Core/Src/usbd_ctlreq.c ****     }
 838              		.loc 1 596 7 view .LVU251
 599:Middlewares/ST/STM32_USB_Device_Library/Core/Src/usbd_ctlreq.c **** 
 839              		.loc 1 599 1 is_stmt 0 view .LVU252
 840 0018 01E0     		b	.L66
 841              	.LVL93:
 842              	.L74:
 574:Middlewares/ST/STM32_USB_Device_Library/Core/Src/usbd_ctlreq.c ****   }
 843              		.loc 1 574 6 is_stmt 1 view .LVU253
 844 001a FFF7FEFF 		bl	USBD_CtlError
 845              	.LVL94:
 846              	.L66:
 599:Middlewares/ST/STM32_USB_Device_Library/Core/Src/usbd_ctlreq.c **** 
 847              		.loc 1 599 1 is_stmt 0 view .LVU254
 848 001e 08BD     		pop	{r3, pc}
 849              	.LVL95:
 850              	.L69:
 581:Middlewares/ST/STM32_USB_Device_Library/Core/Src/usbd_ctlreq.c ****       USBD_CtlSendData (pdev, 
 851              		.loc 1 581 7 is_stmt 1 view .LVU255
 581:Middlewares/ST/STM32_USB_Device_Library/Core/Src/usbd_ctlreq.c ****       USBD_CtlSendData (pdev, 
 852              		.loc 1 581 32 is_stmt 0 view .LVU256
 853 0020 0146     		mov	r1, r0
 854              	.LVL96:
 581:Middlewares/ST/STM32_USB_Device_Library/Core/Src/usbd_ctlreq.c ****       USBD_CtlSendData (pdev, 
 855              		.loc 1 581 32 view .LVU257
 856 0022 0023     		movs	r3, #0
 857 0024 41F8083F 		str	r3, [r1, #8]!
 582:Middlewares/ST/STM32_USB_Device_Library/Core/Src/usbd_ctlreq.c ****                         (uint8_t *)&pdev->dev_default_config,
 858              		.loc 1 582 7 is_stmt 1 view .LVU258
 859 0028 0122     		movs	r2, #1
 860 002a FFF7FEFF 		bl	USBD_CtlSendData
 861              	.LVL97:
 585:Middlewares/ST/STM32_USB_Device_Library/Core/Src/usbd_ctlreq.c ****       
 862              		.loc 1 585 7 view .LVU259
 863 002e F6E7     		b	.L66
 864              	.LVL98:
 865              	.L70:
 589:Middlewares/ST/STM32_USB_Device_Library/Core/Src/usbd_ctlreq.c ****                         (uint8_t *)&pdev->dev_config,
 866              		.loc 1 589 7 view .LVU260
 867 0030 0122     		movs	r2, #1
 868 0032 011D     		adds	r1, r0, #4
 869              	.LVL99:
 589:Middlewares/ST/STM32_USB_Device_Library/Core/Src/usbd_ctlreq.c ****                         (uint8_t *)&pdev->dev_config,
 870              		.loc 1 589 7 is_stmt 0 view .LVU261
 871 0034 FFF7FEFF 		bl	USBD_CtlSendData
 872              	.LVL100:
 592:Middlewares/ST/STM32_USB_Device_Library/Core/Src/usbd_ctlreq.c ****       
 873              		.loc 1 592 7 is_stmt 1 view .LVU262
 874 0038 F1E7     		b	.L66
 875              		.cfi_endproc
 876              	.LFE72:
 878              		.section	.text.USBD_GetStatus,"ax",%progbits
 879              		.align	1
 880              		.syntax unified
 881              		.thumb
ARM GAS  /var/folders/rf/wfq6hz5s56g3yh4wqgd7820c0000gn/T//ccoNHwng.s 			page 34


 882              		.thumb_func
 883              		.fpu softvfp
 885              	USBD_GetStatus:
 886              	.LVL101:
 887              	.LFB73:
 610:Middlewares/ST/STM32_USB_Device_Library/Core/Src/usbd_ctlreq.c ****   
 888              		.loc 1 610 1 view -0
 889              		.cfi_startproc
 890              		@ args = 0, pretend = 0, frame = 0
 891              		@ frame_needed = 0, uses_anonymous_args = 0
 610:Middlewares/ST/STM32_USB_Device_Library/Core/Src/usbd_ctlreq.c ****   
 892              		.loc 1 610 1 is_stmt 0 view .LVU264
 893 0000 08B5     		push	{r3, lr}
 894              	.LCFI9:
 895              		.cfi_def_cfa_offset 8
 896              		.cfi_offset 3, -8
 897              		.cfi_offset 14, -4
 613:Middlewares/ST/STM32_USB_Device_Library/Core/Src/usbd_ctlreq.c ****   {
 898              		.loc 1 613 3 is_stmt 1 view .LVU265
 613:Middlewares/ST/STM32_USB_Device_Library/Core/Src/usbd_ctlreq.c ****   {
 899              		.loc 1 613 15 is_stmt 0 view .LVU266
 900 0002 90F8FC31 		ldrb	r3, [r0, #508]	@ zero_extendqisi2
 613:Middlewares/ST/STM32_USB_Device_Library/Core/Src/usbd_ctlreq.c ****   {
 901              		.loc 1 613 3 view .LVU267
 902 0006 023B     		subs	r3, r3, #2
 903 0008 012B     		cmp	r3, #1
 904 000a 0CD8     		bhi	.L76
 619:Middlewares/ST/STM32_USB_Device_Library/Core/Src/usbd_ctlreq.c **** #else
 905              		.loc 1 619 5 is_stmt 1 view .LVU268
 619:Middlewares/ST/STM32_USB_Device_Library/Core/Src/usbd_ctlreq.c **** #else
 906              		.loc 1 619 29 is_stmt 0 view .LVU269
 907 000c 0123     		movs	r3, #1
 908 000e C360     		str	r3, [r0, #12]
 624:Middlewares/ST/STM32_USB_Device_Library/Core/Src/usbd_ctlreq.c ****     {
 909              		.loc 1 624 5 is_stmt 1 view .LVU270
 624:Middlewares/ST/STM32_USB_Device_Library/Core/Src/usbd_ctlreq.c ****     {
 910              		.loc 1 624 13 is_stmt 0 view .LVU271
 911 0010 D0F80432 		ldr	r3, [r0, #516]
 624:Middlewares/ST/STM32_USB_Device_Library/Core/Src/usbd_ctlreq.c ****     {
 912              		.loc 1 624 8 view .LVU272
 913 0014 0BB1     		cbz	r3, .L77
 626:Middlewares/ST/STM32_USB_Device_Library/Core/Src/usbd_ctlreq.c ****     }
 914              		.loc 1 626 8 is_stmt 1 view .LVU273
 626:Middlewares/ST/STM32_USB_Device_Library/Core/Src/usbd_ctlreq.c ****     }
 915              		.loc 1 626 32 is_stmt 0 view .LVU274
 916 0016 0323     		movs	r3, #3
 917 0018 C360     		str	r3, [r0, #12]
 918              	.L77:
 629:Middlewares/ST/STM32_USB_Device_Library/Core/Src/usbd_ctlreq.c ****                       (uint8_t *)& pdev->dev_config_status,
 919              		.loc 1 629 5 is_stmt 1 view .LVU275
 920 001a 0222     		movs	r2, #2
 921 001c 00F10C01 		add	r1, r0, #12
 922              	.LVL102:
 629:Middlewares/ST/STM32_USB_Device_Library/Core/Src/usbd_ctlreq.c ****                       (uint8_t *)& pdev->dev_config_status,
 923              		.loc 1 629 5 is_stmt 0 view .LVU276
 924 0020 FFF7FEFF 		bl	USBD_CtlSendData
 925              	.LVL103:
ARM GAS  /var/folders/rf/wfq6hz5s56g3yh4wqgd7820c0000gn/T//ccoNHwng.s 			page 35


 632:Middlewares/ST/STM32_USB_Device_Library/Core/Src/usbd_ctlreq.c ****     
 926              		.loc 1 632 5 is_stmt 1 view .LVU277
 927              	.L75:
 638:Middlewares/ST/STM32_USB_Device_Library/Core/Src/usbd_ctlreq.c **** 
 928              		.loc 1 638 1 is_stmt 0 view .LVU278
 929 0024 08BD     		pop	{r3, pc}
 930              	.LVL104:
 931              	.L76:
 635:Middlewares/ST/STM32_USB_Device_Library/Core/Src/usbd_ctlreq.c ****     break;
 932              		.loc 1 635 5 is_stmt 1 view .LVU279
 933 0026 FFF7FEFF 		bl	USBD_CtlError
 934              	.LVL105:
 636:Middlewares/ST/STM32_USB_Device_Library/Core/Src/usbd_ctlreq.c ****   }
 935              		.loc 1 636 5 view .LVU280
 638:Middlewares/ST/STM32_USB_Device_Library/Core/Src/usbd_ctlreq.c **** 
 936              		.loc 1 638 1 is_stmt 0 view .LVU281
 937 002a FBE7     		b	.L75
 938              		.cfi_endproc
 939              	.LFE73:
 941              		.section	.text.USBD_ClrFeature,"ax",%progbits
 942              		.align	1
 943              		.syntax unified
 944              		.thumb
 945              		.thumb_func
 946              		.fpu softvfp
 948              	USBD_ClrFeature:
 949              	.LVL106:
 950              	.LFB75:
 671:Middlewares/ST/STM32_USB_Device_Library/Core/Src/usbd_ctlreq.c ****   switch (pdev->dev_state)
 951              		.loc 1 671 1 is_stmt 1 view -0
 952              		.cfi_startproc
 953              		@ args = 0, pretend = 0, frame = 0
 954              		@ frame_needed = 0, uses_anonymous_args = 0
 671:Middlewares/ST/STM32_USB_Device_Library/Core/Src/usbd_ctlreq.c ****   switch (pdev->dev_state)
 955              		.loc 1 671 1 is_stmt 0 view .LVU283
 956 0000 10B5     		push	{r4, lr}
 957              	.LCFI10:
 958              		.cfi_def_cfa_offset 8
 959              		.cfi_offset 4, -8
 960              		.cfi_offset 14, -4
 961 0002 0446     		mov	r4, r0
 672:Middlewares/ST/STM32_USB_Device_Library/Core/Src/usbd_ctlreq.c ****   {
 962              		.loc 1 672 3 is_stmt 1 view .LVU284
 672:Middlewares/ST/STM32_USB_Device_Library/Core/Src/usbd_ctlreq.c ****   {
 963              		.loc 1 672 15 is_stmt 0 view .LVU285
 964 0004 90F8FC31 		ldrb	r3, [r0, #508]	@ zero_extendqisi2
 672:Middlewares/ST/STM32_USB_Device_Library/Core/Src/usbd_ctlreq.c ****   {
 965              		.loc 1 672 3 view .LVU286
 966 0008 023B     		subs	r3, r3, #2
 967 000a 012B     		cmp	r3, #1
 968 000c 0DD8     		bhi	.L81
 676:Middlewares/ST/STM32_USB_Device_Library/Core/Src/usbd_ctlreq.c ****     {
 969              		.loc 1 676 5 is_stmt 1 view .LVU287
 676:Middlewares/ST/STM32_USB_Device_Library/Core/Src/usbd_ctlreq.c ****     {
 970              		.loc 1 676 12 is_stmt 0 view .LVU288
 971 000e 4B88     		ldrh	r3, [r1, #2]
 676:Middlewares/ST/STM32_USB_Device_Library/Core/Src/usbd_ctlreq.c ****     {
ARM GAS  /var/folders/rf/wfq6hz5s56g3yh4wqgd7820c0000gn/T//ccoNHwng.s 			page 36


 972              		.loc 1 676 8 view .LVU289
 973 0010 012B     		cmp	r3, #1
 974 0012 0CD1     		bne	.L80
 678:Middlewares/ST/STM32_USB_Device_Library/Core/Src/usbd_ctlreq.c ****       pdev->pClass->Setup (pdev, req);   
 975              		.loc 1 678 7 is_stmt 1 view .LVU290
 678:Middlewares/ST/STM32_USB_Device_Library/Core/Src/usbd_ctlreq.c ****       pdev->pClass->Setup (pdev, req);   
 976              		.loc 1 678 31 is_stmt 0 view .LVU291
 977 0014 0023     		movs	r3, #0
 978 0016 C0F80432 		str	r3, [r0, #516]
 679:Middlewares/ST/STM32_USB_Device_Library/Core/Src/usbd_ctlreq.c ****       USBD_CtlSendStatus(pdev);
 979              		.loc 1 679 7 is_stmt 1 view .LVU292
 679:Middlewares/ST/STM32_USB_Device_Library/Core/Src/usbd_ctlreq.c ****       USBD_CtlSendStatus(pdev);
 980              		.loc 1 679 11 is_stmt 0 view .LVU293
 981 001a D0F81432 		ldr	r3, [r0, #532]
 679:Middlewares/ST/STM32_USB_Device_Library/Core/Src/usbd_ctlreq.c ****       USBD_CtlSendStatus(pdev);
 982              		.loc 1 679 19 view .LVU294
 983 001e 9B68     		ldr	r3, [r3, #8]
 679:Middlewares/ST/STM32_USB_Device_Library/Core/Src/usbd_ctlreq.c ****       USBD_CtlSendStatus(pdev);
 984              		.loc 1 679 7 view .LVU295
 985 0020 9847     		blx	r3
 986              	.LVL107:
 680:Middlewares/ST/STM32_USB_Device_Library/Core/Src/usbd_ctlreq.c ****     }
 987              		.loc 1 680 7 is_stmt 1 view .LVU296
 988 0022 2046     		mov	r0, r4
 989 0024 FFF7FEFF 		bl	USBD_CtlSendStatus
 990              	.LVL108:
 991 0028 01E0     		b	.L80
 992              	.LVL109:
 993              	.L81:
 685:Middlewares/ST/STM32_USB_Device_Library/Core/Src/usbd_ctlreq.c ****     break;
 994              		.loc 1 685 6 view .LVU297
 995 002a FFF7FEFF 		bl	USBD_CtlError
 996              	.LVL110:
 686:Middlewares/ST/STM32_USB_Device_Library/Core/Src/usbd_ctlreq.c ****   }
 997              		.loc 1 686 5 view .LVU298
 998              	.L80:
 688:Middlewares/ST/STM32_USB_Device_Library/Core/Src/usbd_ctlreq.c **** 
 999              		.loc 1 688 1 is_stmt 0 view .LVU299
 1000 002e 10BD     		pop	{r4, pc}
 688:Middlewares/ST/STM32_USB_Device_Library/Core/Src/usbd_ctlreq.c **** 
 1001              		.loc 1 688 1 view .LVU300
 1002              		.cfi_endproc
 1003              	.LFE75:
 1005              		.section	.text.USBD_StdDevReq,"ax",%progbits
 1006              		.align	1
 1007              		.global	USBD_StdDevReq
 1008              		.syntax unified
 1009              		.thumb
 1010              		.thumb_func
 1011              		.fpu softvfp
 1013              	USBD_StdDevReq:
 1014              	.LVL111:
 1015              	.LFB66:
 120:Middlewares/ST/STM32_USB_Device_Library/Core/Src/usbd_ctlreq.c ****   USBD_StatusTypeDef ret = USBD_OK;  
 1016              		.loc 1 120 1 is_stmt 1 view -0
 1017              		.cfi_startproc
 1018              		@ args = 0, pretend = 0, frame = 0
ARM GAS  /var/folders/rf/wfq6hz5s56g3yh4wqgd7820c0000gn/T//ccoNHwng.s 			page 37


 1019              		@ frame_needed = 0, uses_anonymous_args = 0
 120:Middlewares/ST/STM32_USB_Device_Library/Core/Src/usbd_ctlreq.c ****   USBD_StatusTypeDef ret = USBD_OK;  
 1020              		.loc 1 120 1 is_stmt 0 view .LVU302
 1021 0000 08B5     		push	{r3, lr}
 1022              	.LCFI11:
 1023              		.cfi_def_cfa_offset 8
 1024              		.cfi_offset 3, -8
 1025              		.cfi_offset 14, -4
 121:Middlewares/ST/STM32_USB_Device_Library/Core/Src/usbd_ctlreq.c ****   
 1026              		.loc 1 121 3 is_stmt 1 view .LVU303
 1027              	.LVL112:
 123:Middlewares/ST/STM32_USB_Device_Library/Core/Src/usbd_ctlreq.c ****   {
 1028              		.loc 1 123 3 view .LVU304
 123:Middlewares/ST/STM32_USB_Device_Library/Core/Src/usbd_ctlreq.c ****   {
 1029              		.loc 1 123 14 is_stmt 0 view .LVU305
 1030 0002 4B78     		ldrb	r3, [r1, #1]	@ zero_extendqisi2
 1031 0004 092B     		cmp	r3, #9
 1032 0006 1CD8     		bhi	.L85
 1033 0008 DFE803F0 		tbb	[pc, r3]
 1034              	.L87:
 1035 000c 12       		.byte	(.L93-.L87)/2
 1036 000d 18       		.byte	(.L92-.L87)/2
 1037 000e 1B       		.byte	(.L85-.L87)/2
 1038 000f 15       		.byte	(.L91-.L87)/2
 1039 0010 1B       		.byte	(.L85-.L87)/2
 1040 0011 09       		.byte	(.L90-.L87)/2
 1041 0012 05       		.byte	(.L89-.L87)/2
 1042 0013 1B       		.byte	(.L85-.L87)/2
 1043 0014 0F       		.byte	(.L88-.L87)/2
 1044 0015 0C       		.byte	(.L86-.L87)/2
 1045              		.p2align 1
 1046              	.L89:
 127:Middlewares/ST/STM32_USB_Device_Library/Core/Src/usbd_ctlreq.c ****     break;
 1047              		.loc 1 127 5 is_stmt 1 view .LVU306
 1048 0016 FFF7FEFF 		bl	USBD_GetDescriptor
 1049              	.LVL113:
 128:Middlewares/ST/STM32_USB_Device_Library/Core/Src/usbd_ctlreq.c ****     
 1050              		.loc 1 128 5 view .LVU307
 1051              	.L94:
 160:Middlewares/ST/STM32_USB_Device_Library/Core/Src/usbd_ctlreq.c **** }
 1052              		.loc 1 160 3 view .LVU308
 161:Middlewares/ST/STM32_USB_Device_Library/Core/Src/usbd_ctlreq.c **** 
 1053              		.loc 1 161 1 is_stmt 0 view .LVU309
 1054 001a 0020     		movs	r0, #0
 1055 001c 08BD     		pop	{r3, pc}
 1056              	.LVL114:
 1057              	.L90:
 131:Middlewares/ST/STM32_USB_Device_Library/Core/Src/usbd_ctlreq.c ****     break;
 1058              		.loc 1 131 5 is_stmt 1 view .LVU310
 1059 001e FFF7FEFF 		bl	USBD_SetAddress
 1060              	.LVL115:
 132:Middlewares/ST/STM32_USB_Device_Library/Core/Src/usbd_ctlreq.c ****     
 1061              		.loc 1 132 5 view .LVU311
 1062 0022 FAE7     		b	.L94
 1063              	.LVL116:
 1064              	.L86:
 135:Middlewares/ST/STM32_USB_Device_Library/Core/Src/usbd_ctlreq.c ****     break;
ARM GAS  /var/folders/rf/wfq6hz5s56g3yh4wqgd7820c0000gn/T//ccoNHwng.s 			page 38


 1065              		.loc 1 135 5 view .LVU312
 1066 0024 FFF7FEFF 		bl	USBD_SetConfig
 1067              	.LVL117:
 136:Middlewares/ST/STM32_USB_Device_Library/Core/Src/usbd_ctlreq.c ****     
 1068              		.loc 1 136 5 view .LVU313
 1069 0028 F7E7     		b	.L94
 1070              	.LVL118:
 1071              	.L88:
 139:Middlewares/ST/STM32_USB_Device_Library/Core/Src/usbd_ctlreq.c ****     break;
 1072              		.loc 1 139 5 view .LVU314
 1073 002a FFF7FEFF 		bl	USBD_GetConfig
 1074              	.LVL119:
 140:Middlewares/ST/STM32_USB_Device_Library/Core/Src/usbd_ctlreq.c ****     
 1075              		.loc 1 140 5 view .LVU315
 1076 002e F4E7     		b	.L94
 1077              	.LVL120:
 1078              	.L93:
 143:Middlewares/ST/STM32_USB_Device_Library/Core/Src/usbd_ctlreq.c ****     break;
 1079              		.loc 1 143 5 view .LVU316
 1080 0030 FFF7FEFF 		bl	USBD_GetStatus
 1081              	.LVL121:
 144:Middlewares/ST/STM32_USB_Device_Library/Core/Src/usbd_ctlreq.c ****     
 1082              		.loc 1 144 5 view .LVU317
 1083 0034 F1E7     		b	.L94
 1084              	.LVL122:
 1085              	.L91:
 148:Middlewares/ST/STM32_USB_Device_Library/Core/Src/usbd_ctlreq.c ****     break;
 1086              		.loc 1 148 5 view .LVU318
 1087 0036 FFF7FEFF 		bl	USBD_SetFeature
 1088              	.LVL123:
 149:Middlewares/ST/STM32_USB_Device_Library/Core/Src/usbd_ctlreq.c ****     
 1089              		.loc 1 149 5 view .LVU319
 1090 003a EEE7     		b	.L94
 1091              	.LVL124:
 1092              	.L92:
 152:Middlewares/ST/STM32_USB_Device_Library/Core/Src/usbd_ctlreq.c ****     break;
 1093              		.loc 1 152 5 view .LVU320
 1094 003c FFF7FEFF 		bl	USBD_ClrFeature
 1095              	.LVL125:
 153:Middlewares/ST/STM32_USB_Device_Library/Core/Src/usbd_ctlreq.c ****     
 1096              		.loc 1 153 5 view .LVU321
 1097 0040 EBE7     		b	.L94
 1098              	.LVL126:
 1099              	.L85:
 156:Middlewares/ST/STM32_USB_Device_Library/Core/Src/usbd_ctlreq.c ****     break;
 1100              		.loc 1 156 5 view .LVU322
 1101 0042 FFF7FEFF 		bl	USBD_CtlError
 1102              	.LVL127:
 157:Middlewares/ST/STM32_USB_Device_Library/Core/Src/usbd_ctlreq.c ****   }
 1103              		.loc 1 157 5 view .LVU323
 1104 0046 E8E7     		b	.L94
 1105              		.cfi_endproc
 1106              	.LFE66:
 1108              		.section	.text.USBD_StdItfReq,"ax",%progbits
 1109              		.align	1
 1110              		.global	USBD_StdItfReq
 1111              		.syntax unified
ARM GAS  /var/folders/rf/wfq6hz5s56g3yh4wqgd7820c0000gn/T//ccoNHwng.s 			page 39


 1112              		.thumb
 1113              		.thumb_func
 1114              		.fpu softvfp
 1116              	USBD_StdItfReq:
 1117              	.LVL128:
 1118              	.LFB67:
 171:Middlewares/ST/STM32_USB_Device_Library/Core/Src/usbd_ctlreq.c ****   USBD_StatusTypeDef ret = USBD_OK; 
 1119              		.loc 1 171 1 view -0
 1120              		.cfi_startproc
 1121              		@ args = 0, pretend = 0, frame = 0
 1122              		@ frame_needed = 0, uses_anonymous_args = 0
 171:Middlewares/ST/STM32_USB_Device_Library/Core/Src/usbd_ctlreq.c ****   USBD_StatusTypeDef ret = USBD_OK; 
 1123              		.loc 1 171 1 is_stmt 0 view .LVU325
 1124 0000 38B5     		push	{r3, r4, r5, lr}
 1125              	.LCFI12:
 1126              		.cfi_def_cfa_offset 16
 1127              		.cfi_offset 3, -16
 1128              		.cfi_offset 4, -12
 1129              		.cfi_offset 5, -8
 1130              		.cfi_offset 14, -4
 1131 0002 0446     		mov	r4, r0
 1132 0004 0D46     		mov	r5, r1
 172:Middlewares/ST/STM32_USB_Device_Library/Core/Src/usbd_ctlreq.c ****   
 1133              		.loc 1 172 3 is_stmt 1 view .LVU326
 1134              	.LVL129:
 174:Middlewares/ST/STM32_USB_Device_Library/Core/Src/usbd_ctlreq.c ****   {
 1135              		.loc 1 174 3 view .LVU327
 174:Middlewares/ST/STM32_USB_Device_Library/Core/Src/usbd_ctlreq.c ****   {
 1136              		.loc 1 174 15 is_stmt 0 view .LVU328
 1137 0006 90F8FC31 		ldrb	r3, [r0, #508]	@ zero_extendqisi2
 174:Middlewares/ST/STM32_USB_Device_Library/Core/Src/usbd_ctlreq.c ****   {
 1138              		.loc 1 174 3 view .LVU329
 1139 000a 032B     		cmp	r3, #3
 1140 000c 0FD1     		bne	.L97
 178:Middlewares/ST/STM32_USB_Device_Library/Core/Src/usbd_ctlreq.c ****     {
 1141              		.loc 1 178 5 is_stmt 1 view .LVU330
 178:Middlewares/ST/STM32_USB_Device_Library/Core/Src/usbd_ctlreq.c ****     {
 1142              		.loc 1 178 9 is_stmt 0 view .LVU331
 1143 000e 0B79     		ldrb	r3, [r1, #4]	@ zero_extendqisi2
 178:Middlewares/ST/STM32_USB_Device_Library/Core/Src/usbd_ctlreq.c ****     {
 1144              		.loc 1 178 8 view .LVU332
 1145 0010 012B     		cmp	r3, #1
 1146 0012 09D8     		bhi	.L98
 180:Middlewares/ST/STM32_USB_Device_Library/Core/Src/usbd_ctlreq.c ****       
 1147              		.loc 1 180 7 is_stmt 1 view .LVU333
 180:Middlewares/ST/STM32_USB_Device_Library/Core/Src/usbd_ctlreq.c ****       
 1148              		.loc 1 180 11 is_stmt 0 view .LVU334
 1149 0014 D0F81432 		ldr	r3, [r0, #532]
 180:Middlewares/ST/STM32_USB_Device_Library/Core/Src/usbd_ctlreq.c ****       
 1150              		.loc 1 180 19 view .LVU335
 1151 0018 9B68     		ldr	r3, [r3, #8]
 180:Middlewares/ST/STM32_USB_Device_Library/Core/Src/usbd_ctlreq.c ****       
 1152              		.loc 1 180 7 view .LVU336
 1153 001a 9847     		blx	r3
 1154              	.LVL130:
 182:Middlewares/ST/STM32_USB_Device_Library/Core/Src/usbd_ctlreq.c ****       {
 1155              		.loc 1 182 7 is_stmt 1 view .LVU337
ARM GAS  /var/folders/rf/wfq6hz5s56g3yh4wqgd7820c0000gn/T//ccoNHwng.s 			page 40


 182:Middlewares/ST/STM32_USB_Device_Library/Core/Src/usbd_ctlreq.c ****       {
 1156              		.loc 1 182 14 is_stmt 0 view .LVU338
 1157 001c EB88     		ldrh	r3, [r5, #6]
 182:Middlewares/ST/STM32_USB_Device_Library/Core/Src/usbd_ctlreq.c ****       {
 1158              		.loc 1 182 9 view .LVU339
 1159 001e 43B9     		cbnz	r3, .L99
 184:Middlewares/ST/STM32_USB_Device_Library/Core/Src/usbd_ctlreq.c ****       }
 1160              		.loc 1 184 10 is_stmt 1 view .LVU340
 1161 0020 2046     		mov	r0, r4
 1162 0022 FFF7FEFF 		bl	USBD_CtlSendStatus
 1163              	.LVL131:
 1164 0026 04E0     		b	.L99
 1165              	.LVL132:
 1166              	.L98:
 189:Middlewares/ST/STM32_USB_Device_Library/Core/Src/usbd_ctlreq.c ****     }
 1167              		.loc 1 189 8 view .LVU341
 1168 0028 FFF7FEFF 		bl	USBD_CtlError
 1169              	.LVL133:
 189:Middlewares/ST/STM32_USB_Device_Library/Core/Src/usbd_ctlreq.c ****     }
 1170              		.loc 1 189 8 is_stmt 0 view .LVU342
 1171 002c 01E0     		b	.L99
 1172              	.LVL134:
 1173              	.L97:
 194:Middlewares/ST/STM32_USB_Device_Library/Core/Src/usbd_ctlreq.c ****     break;
 1174              		.loc 1 194 6 is_stmt 1 view .LVU343
 1175 002e FFF7FEFF 		bl	USBD_CtlError
 1176              	.LVL135:
 195:Middlewares/ST/STM32_USB_Device_Library/Core/Src/usbd_ctlreq.c ****   }
 1177              		.loc 1 195 5 view .LVU344
 1178              	.L99:
 197:Middlewares/ST/STM32_USB_Device_Library/Core/Src/usbd_ctlreq.c **** }
 1179              		.loc 1 197 3 view .LVU345
 198:Middlewares/ST/STM32_USB_Device_Library/Core/Src/usbd_ctlreq.c **** 
 1180              		.loc 1 198 1 is_stmt 0 view .LVU346
 1181 0032 0020     		movs	r0, #0
 1182 0034 38BD     		pop	{r3, r4, r5, pc}
 198:Middlewares/ST/STM32_USB_Device_Library/Core/Src/usbd_ctlreq.c **** 
 1183              		.loc 1 198 1 view .LVU347
 1184              		.cfi_endproc
 1185              	.LFE67:
 1187              		.section	.text.USBD_StdEPReq,"ax",%progbits
 1188              		.align	1
 1189              		.global	USBD_StdEPReq
 1190              		.syntax unified
 1191              		.thumb
 1192              		.thumb_func
 1193              		.fpu softvfp
 1195              	USBD_StdEPReq:
 1196              	.LVL136:
 1197              	.LFB68:
 208:Middlewares/ST/STM32_USB_Device_Library/Core/Src/usbd_ctlreq.c ****   
 1198              		.loc 1 208 1 is_stmt 1 view -0
 1199              		.cfi_startproc
 1200              		@ args = 0, pretend = 0, frame = 0
 1201              		@ frame_needed = 0, uses_anonymous_args = 0
 208:Middlewares/ST/STM32_USB_Device_Library/Core/Src/usbd_ctlreq.c ****   
 1202              		.loc 1 208 1 is_stmt 0 view .LVU349
ARM GAS  /var/folders/rf/wfq6hz5s56g3yh4wqgd7820c0000gn/T//ccoNHwng.s 			page 41


 1203 0000 38B5     		push	{r3, r4, r5, lr}
 1204              	.LCFI13:
 1205              		.cfi_def_cfa_offset 16
 1206              		.cfi_offset 3, -16
 1207              		.cfi_offset 4, -12
 1208              		.cfi_offset 5, -8
 1209              		.cfi_offset 14, -4
 1210 0002 0546     		mov	r5, r0
 1211 0004 0C46     		mov	r4, r1
 210:Middlewares/ST/STM32_USB_Device_Library/Core/Src/usbd_ctlreq.c ****   USBD_StatusTypeDef ret = USBD_OK; 
 1212              		.loc 1 210 3 is_stmt 1 view .LVU350
 211:Middlewares/ST/STM32_USB_Device_Library/Core/Src/usbd_ctlreq.c ****   USBD_EndpointTypeDef   *pep;
 1213              		.loc 1 211 3 view .LVU351
 1214              	.LVL137:
 212:Middlewares/ST/STM32_USB_Device_Library/Core/Src/usbd_ctlreq.c ****   ep_addr  = LOBYTE(req->wIndex);   
 1215              		.loc 1 212 3 view .LVU352
 213:Middlewares/ST/STM32_USB_Device_Library/Core/Src/usbd_ctlreq.c ****   
 1216              		.loc 1 213 3 view .LVU353
 213:Middlewares/ST/STM32_USB_Device_Library/Core/Src/usbd_ctlreq.c ****   
 1217              		.loc 1 213 14 is_stmt 0 view .LVU354
 1218 0006 8A88     		ldrh	r2, [r1, #4]
 1219              	.LVL138:
 216:Middlewares/ST/STM32_USB_Device_Library/Core/Src/usbd_ctlreq.c ****   {
 1220              		.loc 1 216 3 is_stmt 1 view .LVU355
 216:Middlewares/ST/STM32_USB_Device_Library/Core/Src/usbd_ctlreq.c ****   {
 1221              		.loc 1 216 11 is_stmt 0 view .LVU356
 1222 0008 0B78     		ldrb	r3, [r1]	@ zero_extendqisi2
 216:Middlewares/ST/STM32_USB_Device_Library/Core/Src/usbd_ctlreq.c ****   {
 1223              		.loc 1 216 6 view .LVU357
 1224 000a 03F06003 		and	r3, r3, #96
 1225 000e 202B     		cmp	r3, #32
 1226 0010 09D0     		beq	.L126
 1227 0012 D1B2     		uxtb	r1, r2
 1228              	.LVL139:
 223:Middlewares/ST/STM32_USB_Device_Library/Core/Src/usbd_ctlreq.c ****   {
 1229              		.loc 1 223 3 is_stmt 1 view .LVU358
 223:Middlewares/ST/STM32_USB_Device_Library/Core/Src/usbd_ctlreq.c ****   {
 1230              		.loc 1 223 14 is_stmt 0 view .LVU359
 1231 0014 6378     		ldrb	r3, [r4, #1]	@ zero_extendqisi2
 223:Middlewares/ST/STM32_USB_Device_Library/Core/Src/usbd_ctlreq.c ****   {
 1232              		.loc 1 223 3 view .LVU360
 1233 0016 012B     		cmp	r3, #1
 1234 0018 2DD0     		beq	.L104
 1235 001a 032B     		cmp	r3, #3
 1236 001c 08D0     		beq	.L105
 1237 001e 002B     		cmp	r3, #0
 1238 0020 4DD0     		beq	.L127
 1239              	.LVL140:
 1240              	.L103:
 323:Middlewares/ST/STM32_USB_Device_Library/Core/Src/usbd_ctlreq.c **** /**
 1241              		.loc 1 323 1 view .LVU361
 1242 0022 0020     		movs	r0, #0
 1243 0024 38BD     		pop	{r3, r4, r5, pc}
 1244              	.LVL141:
 1245              	.L126:
 218:Middlewares/ST/STM32_USB_Device_Library/Core/Src/usbd_ctlreq.c ****     
 1246              		.loc 1 218 5 is_stmt 1 view .LVU362
ARM GAS  /var/folders/rf/wfq6hz5s56g3yh4wqgd7820c0000gn/T//ccoNHwng.s 			page 42


 218:Middlewares/ST/STM32_USB_Device_Library/Core/Src/usbd_ctlreq.c ****     
 1247              		.loc 1 218 9 is_stmt 0 view .LVU363
 1248 0026 D0F81432 		ldr	r3, [r0, #532]
 218:Middlewares/ST/STM32_USB_Device_Library/Core/Src/usbd_ctlreq.c ****     
 1249              		.loc 1 218 17 view .LVU364
 1250 002a 9B68     		ldr	r3, [r3, #8]
 218:Middlewares/ST/STM32_USB_Device_Library/Core/Src/usbd_ctlreq.c ****     
 1251              		.loc 1 218 5 view .LVU365
 1252 002c 9847     		blx	r3
 1253              	.LVL142:
 220:Middlewares/ST/STM32_USB_Device_Library/Core/Src/usbd_ctlreq.c ****   }
 1254              		.loc 1 220 5 is_stmt 1 view .LVU366
 220:Middlewares/ST/STM32_USB_Device_Library/Core/Src/usbd_ctlreq.c ****   }
 1255              		.loc 1 220 12 is_stmt 0 view .LVU367
 1256 002e F8E7     		b	.L103
 1257              	.LVL143:
 1258              	.L105:
 228:Middlewares/ST/STM32_USB_Device_Library/Core/Src/usbd_ctlreq.c ****     {
 1259              		.loc 1 228 5 is_stmt 1 view .LVU368
 228:Middlewares/ST/STM32_USB_Device_Library/Core/Src/usbd_ctlreq.c ****     {
 1260              		.loc 1 228 17 is_stmt 0 view .LVU369
 1261 0030 90F8FC31 		ldrb	r3, [r0, #508]	@ zero_extendqisi2
 1262 0034 022B     		cmp	r3, #2
 1263 0036 05D0     		beq	.L107
 1264 0038 032B     		cmp	r3, #3
 1265 003a 0AD0     		beq	.L108
 252:Middlewares/ST/STM32_USB_Device_Library/Core/Src/usbd_ctlreq.c ****       break;    
 1266              		.loc 1 252 7 is_stmt 1 view .LVU370
 1267 003c 2146     		mov	r1, r4
 1268 003e FFF7FEFF 		bl	USBD_CtlError
 1269              	.LVL144:
 253:Middlewares/ST/STM32_USB_Device_Library/Core/Src/usbd_ctlreq.c ****     }
 1270              		.loc 1 253 7 view .LVU371
 1271 0042 EEE7     		b	.L103
 1272              	.LVL145:
 1273              	.L107:
 231:Middlewares/ST/STM32_USB_Device_Library/Core/Src/usbd_ctlreq.c ****       {
 1274              		.loc 1 231 7 view .LVU372
 231:Middlewares/ST/STM32_USB_Device_Library/Core/Src/usbd_ctlreq.c ****       {
 1275              		.loc 1 231 10 is_stmt 0 view .LVU373
 1276 0044 0029     		cmp	r1, #0
 1277 0046 ECD0     		beq	.L103
 231:Middlewares/ST/STM32_USB_Device_Library/Core/Src/usbd_ctlreq.c ****       {
 1278              		.loc 1 231 29 discriminator 1 view .LVU374
 1279 0048 8029     		cmp	r1, #128
 1280 004a EAD0     		beq	.L103
 233:Middlewares/ST/STM32_USB_Device_Library/Core/Src/usbd_ctlreq.c ****       }
 1281              		.loc 1 233 9 is_stmt 1 view .LVU375
 1282 004c FFF7FEFF 		bl	USBD_LL_StallEP
 1283              	.LVL146:
 233:Middlewares/ST/STM32_USB_Device_Library/Core/Src/usbd_ctlreq.c ****       }
 1284              		.loc 1 233 9 is_stmt 0 view .LVU376
 1285 0050 E7E7     		b	.L103
 1286              	.LVL147:
 1287              	.L108:
 238:Middlewares/ST/STM32_USB_Device_Library/Core/Src/usbd_ctlreq.c ****       {
 1288              		.loc 1 238 7 is_stmt 1 view .LVU377
ARM GAS  /var/folders/rf/wfq6hz5s56g3yh4wqgd7820c0000gn/T//ccoNHwng.s 			page 43


 238:Middlewares/ST/STM32_USB_Device_Library/Core/Src/usbd_ctlreq.c ****       {
 1289              		.loc 1 238 14 is_stmt 0 view .LVU378
 1290 0052 6388     		ldrh	r3, [r4, #2]
 238:Middlewares/ST/STM32_USB_Device_Library/Core/Src/usbd_ctlreq.c ****       {
 1291              		.loc 1 238 10 view .LVU379
 1292 0054 13B9     		cbnz	r3, .L110
 240:Middlewares/ST/STM32_USB_Device_Library/Core/Src/usbd_ctlreq.c ****         { 
 1293              		.loc 1 240 9 is_stmt 1 view .LVU380
 240:Middlewares/ST/STM32_USB_Device_Library/Core/Src/usbd_ctlreq.c ****         { 
 1294              		.loc 1 240 12 is_stmt 0 view .LVU381
 1295 0056 09B1     		cbz	r1, .L110
 240:Middlewares/ST/STM32_USB_Device_Library/Core/Src/usbd_ctlreq.c ****         { 
 1296              		.loc 1 240 31 discriminator 1 view .LVU382
 1297 0058 8029     		cmp	r1, #128
 1298 005a 09D1     		bne	.L128
 1299              	.LVL148:
 1300              	.L110:
 246:Middlewares/ST/STM32_USB_Device_Library/Core/Src/usbd_ctlreq.c ****       USBD_CtlSendStatus(pdev);
 1301              		.loc 1 246 7 is_stmt 1 view .LVU383
 246:Middlewares/ST/STM32_USB_Device_Library/Core/Src/usbd_ctlreq.c ****       USBD_CtlSendStatus(pdev);
 1302              		.loc 1 246 11 is_stmt 0 view .LVU384
 1303 005c D5F81432 		ldr	r3, [r5, #532]
 246:Middlewares/ST/STM32_USB_Device_Library/Core/Src/usbd_ctlreq.c ****       USBD_CtlSendStatus(pdev);
 1304              		.loc 1 246 19 view .LVU385
 1305 0060 9B68     		ldr	r3, [r3, #8]
 246:Middlewares/ST/STM32_USB_Device_Library/Core/Src/usbd_ctlreq.c ****       USBD_CtlSendStatus(pdev);
 1306              		.loc 1 246 7 view .LVU386
 1307 0062 2146     		mov	r1, r4
 1308 0064 2846     		mov	r0, r5
 1309 0066 9847     		blx	r3
 1310              	.LVL149:
 247:Middlewares/ST/STM32_USB_Device_Library/Core/Src/usbd_ctlreq.c ****       
 1311              		.loc 1 247 7 is_stmt 1 view .LVU387
 1312 0068 2846     		mov	r0, r5
 1313 006a FFF7FEFF 		bl	USBD_CtlSendStatus
 1314              	.LVL150:
 249:Middlewares/ST/STM32_USB_Device_Library/Core/Src/usbd_ctlreq.c ****       
 1315              		.loc 1 249 7 view .LVU388
 1316 006e D8E7     		b	.L103
 1317              	.LVL151:
 1318              	.L128:
 242:Middlewares/ST/STM32_USB_Device_Library/Core/Src/usbd_ctlreq.c ****           
 1319              		.loc 1 242 11 view .LVU389
 1320 0070 FFF7FEFF 		bl	USBD_LL_StallEP
 1321              	.LVL152:
 242:Middlewares/ST/STM32_USB_Device_Library/Core/Src/usbd_ctlreq.c ****           
 1322              		.loc 1 242 11 is_stmt 0 view .LVU390
 1323 0074 F2E7     		b	.L110
 1324              	.LVL153:
 1325              	.L104:
 259:Middlewares/ST/STM32_USB_Device_Library/Core/Src/usbd_ctlreq.c ****     {
 1326              		.loc 1 259 5 is_stmt 1 view .LVU391
 259:Middlewares/ST/STM32_USB_Device_Library/Core/Src/usbd_ctlreq.c ****     {
 1327              		.loc 1 259 17 is_stmt 0 view .LVU392
 1328 0076 90F8FC31 		ldrb	r3, [r0, #508]	@ zero_extendqisi2
 1329 007a 022B     		cmp	r3, #2
 1330 007c 05D0     		beq	.L111
ARM GAS  /var/folders/rf/wfq6hz5s56g3yh4wqgd7820c0000gn/T//ccoNHwng.s 			page 44


 1331 007e 032B     		cmp	r3, #3
 1332 0080 0AD0     		beq	.L112
 281:Middlewares/ST/STM32_USB_Device_Library/Core/Src/usbd_ctlreq.c ****       break;    
 1333              		.loc 1 281 7 is_stmt 1 view .LVU393
 1334 0082 2146     		mov	r1, r4
 1335 0084 FFF7FEFF 		bl	USBD_CtlError
 1336              	.LVL154:
 282:Middlewares/ST/STM32_USB_Device_Library/Core/Src/usbd_ctlreq.c ****     }
 1337              		.loc 1 282 7 view .LVU394
 1338 0088 CBE7     		b	.L103
 1339              	.LVL155:
 1340              	.L111:
 262:Middlewares/ST/STM32_USB_Device_Library/Core/Src/usbd_ctlreq.c ****       {
 1341              		.loc 1 262 7 view .LVU395
 262:Middlewares/ST/STM32_USB_Device_Library/Core/Src/usbd_ctlreq.c ****       {
 1342              		.loc 1 262 10 is_stmt 0 view .LVU396
 1343 008a 0029     		cmp	r1, #0
 1344 008c C9D0     		beq	.L103
 262:Middlewares/ST/STM32_USB_Device_Library/Core/Src/usbd_ctlreq.c ****       {
 1345              		.loc 1 262 29 discriminator 1 view .LVU397
 1346 008e 8029     		cmp	r1, #128
 1347 0090 C7D0     		beq	.L103
 264:Middlewares/ST/STM32_USB_Device_Library/Core/Src/usbd_ctlreq.c ****       }
 1348              		.loc 1 264 9 is_stmt 1 view .LVU398
 1349 0092 FFF7FEFF 		bl	USBD_LL_StallEP
 1350              	.LVL156:
 264:Middlewares/ST/STM32_USB_Device_Library/Core/Src/usbd_ctlreq.c ****       }
 1351              		.loc 1 264 9 is_stmt 0 view .LVU399
 1352 0096 C4E7     		b	.L103
 1353              	.LVL157:
 1354              	.L112:
 269:Middlewares/ST/STM32_USB_Device_Library/Core/Src/usbd_ctlreq.c ****       {
 1355              		.loc 1 269 7 is_stmt 1 view .LVU400
 269:Middlewares/ST/STM32_USB_Device_Library/Core/Src/usbd_ctlreq.c ****       {
 1356              		.loc 1 269 14 is_stmt 0 view .LVU401
 1357 0098 6388     		ldrh	r3, [r4, #2]
 269:Middlewares/ST/STM32_USB_Device_Library/Core/Src/usbd_ctlreq.c ****       {
 1358              		.loc 1 269 10 view .LVU402
 1359 009a 002B     		cmp	r3, #0
 1360 009c C1D1     		bne	.L103
 271:Middlewares/ST/STM32_USB_Device_Library/Core/Src/usbd_ctlreq.c ****         {        
 1361              		.loc 1 271 9 is_stmt 1 view .LVU403
 271:Middlewares/ST/STM32_USB_Device_Library/Core/Src/usbd_ctlreq.c ****         {        
 1362              		.loc 1 271 12 is_stmt 0 view .LVU404
 1363 009e 11F07F0F 		tst	r1, #127
 1364 00a2 03D1     		bne	.L129
 1365              	.LVL158:
 1366              	.L114:
 276:Middlewares/ST/STM32_USB_Device_Library/Core/Src/usbd_ctlreq.c ****       }
 1367              		.loc 1 276 9 is_stmt 1 view .LVU405
 1368 00a4 2846     		mov	r0, r5
 1369 00a6 FFF7FEFF 		bl	USBD_CtlSendStatus
 1370              	.LVL159:
 1371 00aa BAE7     		b	.L103
 1372              	.LVL160:
 1373              	.L129:
 273:Middlewares/ST/STM32_USB_Device_Library/Core/Src/usbd_ctlreq.c ****           pdev->pClass->Setup (pdev, req);
ARM GAS  /var/folders/rf/wfq6hz5s56g3yh4wqgd7820c0000gn/T//ccoNHwng.s 			page 45


 1374              		.loc 1 273 11 view .LVU406
 1375 00ac FFF7FEFF 		bl	USBD_LL_ClearStallEP
 1376              	.LVL161:
 274:Middlewares/ST/STM32_USB_Device_Library/Core/Src/usbd_ctlreq.c ****         }
 1377              		.loc 1 274 11 view .LVU407
 274:Middlewares/ST/STM32_USB_Device_Library/Core/Src/usbd_ctlreq.c ****         }
 1378              		.loc 1 274 15 is_stmt 0 view .LVU408
 1379 00b0 D5F81432 		ldr	r3, [r5, #532]
 274:Middlewares/ST/STM32_USB_Device_Library/Core/Src/usbd_ctlreq.c ****         }
 1380              		.loc 1 274 23 view .LVU409
 1381 00b4 9B68     		ldr	r3, [r3, #8]
 274:Middlewares/ST/STM32_USB_Device_Library/Core/Src/usbd_ctlreq.c ****         }
 1382              		.loc 1 274 11 view .LVU410
 1383 00b6 2146     		mov	r1, r4
 1384 00b8 2846     		mov	r0, r5
 1385 00ba 9847     		blx	r3
 1386              	.LVL162:
 1387 00bc F2E7     		b	.L114
 1388              	.LVL163:
 1389              	.L127:
 287:Middlewares/ST/STM32_USB_Device_Library/Core/Src/usbd_ctlreq.c ****     {
 1390              		.loc 1 287 5 is_stmt 1 view .LVU411
 287:Middlewares/ST/STM32_USB_Device_Library/Core/Src/usbd_ctlreq.c ****     {
 1391              		.loc 1 287 17 is_stmt 0 view .LVU412
 1392 00be 90F8FC31 		ldrb	r3, [r0, #508]	@ zero_extendqisi2
 1393 00c2 022B     		cmp	r3, #2
 1394 00c4 05D0     		beq	.L115
 1395 00c6 032B     		cmp	r3, #3
 1396 00c8 09D0     		beq	.L116
 314:Middlewares/ST/STM32_USB_Device_Library/Core/Src/usbd_ctlreq.c ****       break;
 1397              		.loc 1 314 7 is_stmt 1 view .LVU413
 1398 00ca 2146     		mov	r1, r4
 1399 00cc FFF7FEFF 		bl	USBD_CtlError
 1400              	.LVL164:
 315:Middlewares/ST/STM32_USB_Device_Library/Core/Src/usbd_ctlreq.c ****     }
 1401              		.loc 1 315 7 view .LVU414
 1402 00d0 A7E7     		b	.L103
 1403              	.LVL165:
 1404              	.L115:
 290:Middlewares/ST/STM32_USB_Device_Library/Core/Src/usbd_ctlreq.c ****       {
 1405              		.loc 1 290 7 view .LVU415
 290:Middlewares/ST/STM32_USB_Device_Library/Core/Src/usbd_ctlreq.c ****       {
 1406              		.loc 1 290 10 is_stmt 0 view .LVU416
 1407 00d2 11F07F0F 		tst	r1, #127
 1408 00d6 A4D0     		beq	.L103
 292:Middlewares/ST/STM32_USB_Device_Library/Core/Src/usbd_ctlreq.c ****       }
 1409              		.loc 1 292 9 is_stmt 1 view .LVU417
 1410 00d8 FFF7FEFF 		bl	USBD_LL_StallEP
 1411              	.LVL166:
 292:Middlewares/ST/STM32_USB_Device_Library/Core/Src/usbd_ctlreq.c ****       }
 1412              		.loc 1 292 9 is_stmt 0 view .LVU418
 1413 00dc A1E7     		b	.L103
 1414              	.LVL167:
 1415              	.L116:
 297:Middlewares/ST/STM32_USB_Device_Library/Core/Src/usbd_ctlreq.c ****                                          &pdev->ep_out[ep_addr & 0x7F];
 1416              		.loc 1 297 7 is_stmt 1 view .LVU419
 297:Middlewares/ST/STM32_USB_Device_Library/Core/Src/usbd_ctlreq.c ****                                          &pdev->ep_out[ep_addr & 0x7F];
ARM GAS  /var/folders/rf/wfq6hz5s56g3yh4wqgd7820c0000gn/T//ccoNHwng.s 			page 46


 1417              		.loc 1 297 70 is_stmt 0 view .LVU420
 1418 00de 12F0800F 		tst	r2, #128
 1419 00e2 11D1     		bne	.L130
 298:Middlewares/ST/STM32_USB_Device_Library/Core/Src/usbd_ctlreq.c ****       if(USBD_LL_IsStallEP(pdev, ep_addr))
 1420              		.loc 1 298 64 discriminator 2 view .LVU421
 1421 00e4 01F07F04 		and	r4, r1, #127
 1422              	.LVL168:
 297:Middlewares/ST/STM32_USB_Device_Library/Core/Src/usbd_ctlreq.c ****                                          &pdev->ep_out[ep_addr & 0x7F];
 1423              		.loc 1 297 70 discriminator 2 view .LVU422
 1424 00e8 1034     		adds	r4, r4, #16
 1425 00ea 00EB0414 		add	r4, r0, r4, lsl #4
 1426 00ee 0434     		adds	r4, r4, #4
 1427              	.L119:
 1428              	.LVL169:
 299:Middlewares/ST/STM32_USB_Device_Library/Core/Src/usbd_ctlreq.c ****       {
 1429              		.loc 1 299 7 is_stmt 1 discriminator 4 view .LVU423
 299:Middlewares/ST/STM32_USB_Device_Library/Core/Src/usbd_ctlreq.c ****       {
 1430              		.loc 1 299 10 is_stmt 0 discriminator 4 view .LVU424
 1431 00f0 2846     		mov	r0, r5
 1432              	.LVL170:
 299:Middlewares/ST/STM32_USB_Device_Library/Core/Src/usbd_ctlreq.c ****       {
 1433              		.loc 1 299 10 discriminator 4 view .LVU425
 1434 00f2 FFF7FEFF 		bl	USBD_LL_IsStallEP
 1435              	.LVL171:
 299:Middlewares/ST/STM32_USB_Device_Library/Core/Src/usbd_ctlreq.c ****       {
 1436              		.loc 1 299 9 discriminator 4 view .LVU426
 1437 00f6 70B1     		cbz	r0, .L120
 301:Middlewares/ST/STM32_USB_Device_Library/Core/Src/usbd_ctlreq.c ****       }
 1438              		.loc 1 301 9 is_stmt 1 view .LVU427
 301:Middlewares/ST/STM32_USB_Device_Library/Core/Src/usbd_ctlreq.c ****       }
 1439              		.loc 1 301 21 is_stmt 0 view .LVU428
 1440 00f8 0123     		movs	r3, #1
 1441 00fa 2360     		str	r3, [r4]
 1442              	.L121:
 308:Middlewares/ST/STM32_USB_Device_Library/Core/Src/usbd_ctlreq.c ****                         (uint8_t *)&pep->status,
 1443              		.loc 1 308 7 is_stmt 1 view .LVU429
 1444 00fc 0222     		movs	r2, #2
 1445 00fe 2146     		mov	r1, r4
 1446 0100 2846     		mov	r0, r5
 1447 0102 FFF7FEFF 		bl	USBD_CtlSendData
 1448              	.LVL172:
 311:Middlewares/ST/STM32_USB_Device_Library/Core/Src/usbd_ctlreq.c ****       
 1449              		.loc 1 311 7 view .LVU430
 1450 0106 8CE7     		b	.L103
 1451              	.LVL173:
 1452              	.L130:
 297:Middlewares/ST/STM32_USB_Device_Library/Core/Src/usbd_ctlreq.c ****                                          &pdev->ep_out[ep_addr & 0x7F];
 1453              		.loc 1 297 63 is_stmt 0 discriminator 1 view .LVU431
 1454 0108 01F07F04 		and	r4, r1, #127
 1455              	.LVL174:
 297:Middlewares/ST/STM32_USB_Device_Library/Core/Src/usbd_ctlreq.c ****                                          &pdev->ep_out[ep_addr & 0x7F];
 1456              		.loc 1 297 70 discriminator 1 view .LVU432
 1457 010c 0134     		adds	r4, r4, #1
 1458 010e 00EB0414 		add	r4, r0, r4, lsl #4
 1459 0112 0434     		adds	r4, r4, #4
 1460 0114 ECE7     		b	.L119
 1461              	.LVL175:
ARM GAS  /var/folders/rf/wfq6hz5s56g3yh4wqgd7820c0000gn/T//ccoNHwng.s 			page 47


 1462              	.L120:
 305:Middlewares/ST/STM32_USB_Device_Library/Core/Src/usbd_ctlreq.c ****       }
 1463              		.loc 1 305 9 is_stmt 1 view .LVU433
 305:Middlewares/ST/STM32_USB_Device_Library/Core/Src/usbd_ctlreq.c ****       }
 1464              		.loc 1 305 21 is_stmt 0 view .LVU434
 1465 0116 0023     		movs	r3, #0
 1466 0118 2360     		str	r3, [r4]
 1467 011a EFE7     		b	.L121
 1468              		.cfi_endproc
 1469              	.LFE68:
 1471              		.section	.text.USBD_GetString,"ax",%progbits
 1472              		.align	1
 1473              		.global	USBD_GetString
 1474              		.syntax unified
 1475              		.thumb
 1476              		.thumb_func
 1477              		.fpu softvfp
 1479              	USBD_GetString:
 1480              	.LVL176:
 1481              	.LFB78:
 733:Middlewares/ST/STM32_USB_Device_Library/Core/Src/usbd_ctlreq.c ****   uint8_t idx = 0;
 1482              		.loc 1 733 1 is_stmt 1 view -0
 1483              		.cfi_startproc
 1484              		@ args = 0, pretend = 0, frame = 0
 1485              		@ frame_needed = 0, uses_anonymous_args = 0
 734:Middlewares/ST/STM32_USB_Device_Library/Core/Src/usbd_ctlreq.c ****   
 1486              		.loc 1 734 3 view .LVU436
 736:Middlewares/ST/STM32_USB_Device_Library/Core/Src/usbd_ctlreq.c ****   {
 1487              		.loc 1 736 3 view .LVU437
 736:Middlewares/ST/STM32_USB_Device_Library/Core/Src/usbd_ctlreq.c ****   {
 1488              		.loc 1 736 6 is_stmt 0 view .LVU438
 1489 0000 D0B1     		cbz	r0, .L136
 733:Middlewares/ST/STM32_USB_Device_Library/Core/Src/usbd_ctlreq.c ****   uint8_t idx = 0;
 1490              		.loc 1 733 1 view .LVU439
 1491 0002 70B5     		push	{r4, r5, r6, lr}
 1492              	.LCFI14:
 1493              		.cfi_def_cfa_offset 16
 1494              		.cfi_offset 4, -16
 1495              		.cfi_offset 5, -12
 1496              		.cfi_offset 6, -8
 1497              		.cfi_offset 14, -4
 1498 0004 0D46     		mov	r5, r1
 1499 0006 1646     		mov	r6, r2
 1500 0008 0446     		mov	r4, r0
 738:Middlewares/ST/STM32_USB_Device_Library/Core/Src/usbd_ctlreq.c ****     unicode[idx++] = *len;
 1501              		.loc 1 738 5 is_stmt 1 view .LVU440
 738:Middlewares/ST/STM32_USB_Device_Library/Core/Src/usbd_ctlreq.c ****     unicode[idx++] = *len;
 1502              		.loc 1 738 13 is_stmt 0 view .LVU441
 1503 000a FFF7FEFF 		bl	USBD_GetLen
 1504              	.LVL177:
 738:Middlewares/ST/STM32_USB_Device_Library/Core/Src/usbd_ctlreq.c ****     unicode[idx++] = *len;
 1505              		.loc 1 738 35 view .LVU442
 1506 000e 431C     		adds	r3, r0, #1
 738:Middlewares/ST/STM32_USB_Device_Library/Core/Src/usbd_ctlreq.c ****     unicode[idx++] = *len;
 1507              		.loc 1 738 10 view .LVU443
 1508 0010 5B00     		lsls	r3, r3, #1
 1509 0012 9BB2     		uxth	r3, r3
ARM GAS  /var/folders/rf/wfq6hz5s56g3yh4wqgd7820c0000gn/T//ccoNHwng.s 			page 48


 1510 0014 3380     		strh	r3, [r6]	@ movhi
 739:Middlewares/ST/STM32_USB_Device_Library/Core/Src/usbd_ctlreq.c ****     unicode[idx++] =  USB_DESC_TYPE_STRING;
 1511              		.loc 1 739 5 is_stmt 1 view .LVU444
 1512              	.LVL178:
 739:Middlewares/ST/STM32_USB_Device_Library/Core/Src/usbd_ctlreq.c ****     unicode[idx++] =  USB_DESC_TYPE_STRING;
 1513              		.loc 1 739 20 is_stmt 0 view .LVU445
 1514 0016 2B70     		strb	r3, [r5]
 740:Middlewares/ST/STM32_USB_Device_Library/Core/Src/usbd_ctlreq.c ****     
 1515              		.loc 1 740 5 is_stmt 1 view .LVU446
 1516              	.LVL179:
 740:Middlewares/ST/STM32_USB_Device_Library/Core/Src/usbd_ctlreq.c ****     
 1517              		.loc 1 740 20 is_stmt 0 view .LVU447
 1518 0018 0323     		movs	r3, #3
 1519 001a 6B70     		strb	r3, [r5, #1]
 742:Middlewares/ST/STM32_USB_Device_Library/Core/Src/usbd_ctlreq.c ****     {
 1520              		.loc 1 742 5 is_stmt 1 view .LVU448
 740:Middlewares/ST/STM32_USB_Device_Library/Core/Src/usbd_ctlreq.c ****     
 1521              		.loc 1 740 16 is_stmt 0 view .LVU449
 1522 001c 0223     		movs	r3, #2
 742:Middlewares/ST/STM32_USB_Device_Library/Core/Src/usbd_ctlreq.c ****     {
 1523              		.loc 1 742 11 view .LVU450
 1524 001e 07E0     		b	.L133
 1525              	.LVL180:
 1526              	.L134:
 744:Middlewares/ST/STM32_USB_Device_Library/Core/Src/usbd_ctlreq.c ****       unicode[idx++] =  0x00;
 1527              		.loc 1 744 7 is_stmt 1 view .LVU451
 744:Middlewares/ST/STM32_USB_Device_Library/Core/Src/usbd_ctlreq.c ****       unicode[idx++] =  0x00;
 1528              		.loc 1 744 29 is_stmt 0 view .LVU452
 1529 0020 0134     		adds	r4, r4, #1
 1530              	.LVL181:
 744:Middlewares/ST/STM32_USB_Device_Library/Core/Src/usbd_ctlreq.c ****       unicode[idx++] =  0x00;
 1531              		.loc 1 744 18 view .LVU453
 1532 0022 5A1C     		adds	r2, r3, #1
 1533 0024 D2B2     		uxtb	r2, r2
 1534              	.LVL182:
 744:Middlewares/ST/STM32_USB_Device_Library/Core/Src/usbd_ctlreq.c ****       unicode[idx++] =  0x00;
 1535              		.loc 1 744 22 view .LVU454
 1536 0026 E854     		strb	r0, [r5, r3]
 745:Middlewares/ST/STM32_USB_Device_Library/Core/Src/usbd_ctlreq.c ****     }
 1537              		.loc 1 745 7 is_stmt 1 view .LVU455
 745:Middlewares/ST/STM32_USB_Device_Library/Core/Src/usbd_ctlreq.c ****     }
 1538              		.loc 1 745 18 is_stmt 0 view .LVU456
 1539 0028 0233     		adds	r3, r3, #2
 1540 002a DBB2     		uxtb	r3, r3
 1541              	.LVL183:
 745:Middlewares/ST/STM32_USB_Device_Library/Core/Src/usbd_ctlreq.c ****     }
 1542              		.loc 1 745 22 view .LVU457
 1543 002c 0021     		movs	r1, #0
 1544 002e A954     		strb	r1, [r5, r2]
 1545              	.LVL184:
 1546              	.L133:
 742:Middlewares/ST/STM32_USB_Device_Library/Core/Src/usbd_ctlreq.c ****     {
 1547              		.loc 1 742 11 is_stmt 1 view .LVU458
 742:Middlewares/ST/STM32_USB_Device_Library/Core/Src/usbd_ctlreq.c ****     {
 1548              		.loc 1 742 12 is_stmt 0 view .LVU459
 1549 0030 2078     		ldrb	r0, [r4]	@ zero_extendqisi2
 742:Middlewares/ST/STM32_USB_Device_Library/Core/Src/usbd_ctlreq.c ****     {
ARM GAS  /var/folders/rf/wfq6hz5s56g3yh4wqgd7820c0000gn/T//ccoNHwng.s 			page 49


 1550              		.loc 1 742 11 view .LVU460
 1551 0032 0028     		cmp	r0, #0
 1552 0034 F4D1     		bne	.L134
 748:Middlewares/ST/STM32_USB_Device_Library/Core/Src/usbd_ctlreq.c **** 
 1553              		.loc 1 748 1 view .LVU461
 1554 0036 70BD     		pop	{r4, r5, r6, pc}
 1555              	.LVL185:
 1556              	.L136:
 1557              	.LCFI15:
 1558              		.cfi_def_cfa_offset 0
 1559              		.cfi_restore 4
 1560              		.cfi_restore 5
 1561              		.cfi_restore 6
 1562              		.cfi_restore 14
 748:Middlewares/ST/STM32_USB_Device_Library/Core/Src/usbd_ctlreq.c **** 
 1563              		.loc 1 748 1 view .LVU462
 1564 0038 7047     		bx	lr
 1565              		.cfi_endproc
 1566              	.LFE78:
 1568              		.section	.bss.cfgidx.7726,"aw",%nobits
 1569              		.set	.LANCHOR0,. + 0
 1572              	cfgidx.7726:
 1573 0000 00       		.space	1
 1574              		.text
 1575              	.Letext0:
 1576              		.file 2 "/usr/local/Cellar/arm-gcc-bin/9-2019-q4-major/arm-none-eabi/include/machine/_default_type
 1577              		.file 3 "/usr/local/Cellar/arm-gcc-bin/9-2019-q4-major/arm-none-eabi/include/sys/lock.h"
 1578              		.file 4 "/usr/local/Cellar/arm-gcc-bin/9-2019-q4-major/arm-none-eabi/include/sys/_types.h"
 1579              		.file 5 "/usr/local/Cellar/arm-gcc-bin/9-2019-q4-major/lib/gcc/arm-none-eabi/9.2.1/include/stddef.
 1580              		.file 6 "/usr/local/Cellar/arm-gcc-bin/9-2019-q4-major/arm-none-eabi/include/sys/reent.h"
 1581              		.file 7 "/usr/local/Cellar/arm-gcc-bin/9-2019-q4-major/arm-none-eabi/include/sys/_stdint.h"
 1582              		.file 8 "/usr/local/Cellar/arm-gcc-bin/9-2019-q4-major/arm-none-eabi/include/stdlib.h"
 1583              		.file 9 "Drivers/CMSIS/Include/core_cm3.h"
 1584              		.file 10 "Drivers/CMSIS/Device/ST/STM32F1xx/Include/system_stm32f1xx.h"
 1585              		.file 11 "Middlewares/ST/STM32_USB_Device_Library/Core/Inc/usbd_def.h"
 1586              		.file 12 "Middlewares/ST/STM32_USB_Device_Library/Core/Inc/usbd_core.h"
 1587              		.file 13 "Middlewares/ST/STM32_USB_Device_Library/Core/Inc/usbd_ioreq.h"
ARM GAS  /var/folders/rf/wfq6hz5s56g3yh4wqgd7820c0000gn/T//ccoNHwng.s 			page 50

